ARM GAS  C:\Users\purdu\AppData\Local\Temp\ccxivHjG.s 			page 1


   1              		.cpu cortex-m4
   2              		.arch armv7e-m
   3              		.fpu fpv4-sp-d16
   4              		.eabi_attribute 27, 1
   5              		.eabi_attribute 28, 1
   6              		.eabi_attribute 20, 1
   7              		.eabi_attribute 21, 1
   8              		.eabi_attribute 23, 3
   9              		.eabi_attribute 24, 1
  10              		.eabi_attribute 25, 1
  11              		.eabi_attribute 26, 1
  12              		.eabi_attribute 30, 1
  13              		.eabi_attribute 34, 1
  14              		.eabi_attribute 18, 4
  15              		.file	"supercap.c"
  16              		.text
  17              	.Ltext0:
  18              		.cfi_sections	.debug_frame
  19              		.file 1 "Core/Src/supercap.c"
  20              		.section	.text.Supercap_Soft_Start,"ax",%progbits
  21              		.align	1
  22              		.global	Supercap_Soft_Start
  23              		.syntax unified
  24              		.thumb
  25              		.thumb_func
  27              	Supercap_Soft_Start:
  28              	.LFB333:
   1:Core/Src/supercap.c **** /**
   2:Core/Src/supercap.c ****   ******************************************************************************
   3:Core/Src/supercap.c ****   * @file    supercap.c
   4:Core/Src/supercap.c ****   * @brief   This file provides code for the configuration
   5:Core/Src/supercap.c ****   *          of all used supercap pins.
   6:Core/Src/supercap.c ****   */
   7:Core/Src/supercap.c **** /* USER CODE END Header */
   8:Core/Src/supercap.c **** #include "supercap.h"
   9:Core/Src/supercap.c **** 
  10:Core/Src/supercap.c **** //Timmer
  11:Core/Src/supercap.c **** void HAL_TIM_PeriodElapsedCallback(TIM_HandleTypeDef *htim) {
  12:Core/Src/supercap.c **** 	if(htim->Instance == TIM5){
  13:Core/Src/supercap.c **** 		HAL_GPIO_WritePin(GPIOB, GPIO_PIN_15, GPIO_PIN_SET);
  14:Core/Src/supercap.c ****     TIM5_NVIC();
  15:Core/Src/supercap.c **** 		HAL_GPIO_WritePin(GPIOB, GPIO_PIN_15, GPIO_PIN_RESET);
  16:Core/Src/supercap.c **** 	}
  17:Core/Src/supercap.c ****   else if(htim->Instance == TIM2) {
  18:Core/Src/supercap.c ****     HAL_GPIO_WritePin(GPIOB, GPIO_PIN_15, GPIO_PIN_SET);
  19:Core/Src/supercap.c ****     TIM2_NVIC();
  20:Core/Src/supercap.c ****     HAL_GPIO_WritePin(GPIOB, GPIO_PIN_15, GPIO_PIN_RESET);
  21:Core/Src/supercap.c ****   }
  22:Core/Src/supercap.c **** }
  23:Core/Src/supercap.c **** 
  24:Core/Src/supercap.c **** void Supercap_Soft_Start(){
  29              		.loc 1 24 27 view -0
  30              		.cfi_startproc
  31              		@ args = 0, pretend = 0, frame = 0
  32              		@ frame_needed = 0, uses_anonymous_args = 0
  33              		@ link register save eliminated.
  25:Core/Src/supercap.c **** }
ARM GAS  C:\Users\purdu\AppData\Local\Temp\ccxivHjG.s 			page 2


  34              		.loc 1 25 1 view .LVU1
  35 0000 7047     		bx	lr
  36              		.cfi_endproc
  37              	.LFE333:
  39              		.section	.text.Supercap_PID_Controller_Function,"ax",%progbits
  40              		.align	1
  41              		.global	Supercap_PID_Controller_Function
  42              		.syntax unified
  43              		.thumb
  44              		.thumb_func
  46              	Supercap_PID_Controller_Function:
  47              	.LVL0:
  48              	.LFB336:
  26:Core/Src/supercap.c **** 
  27:Core/Src/supercap.c **** //state machine
  28:Core/Src/supercap.c **** //state 1(Begin): begin, if V_cap > 0.1V, go to state 2
  29:Core/Src/supercap.c **** //state 2(Cap in): stay
  30:Core/Src/supercap.c **** 
  31:Core/Src/supercap.c **** void TIM2_NVIC(){
  32:Core/Src/supercap.c ****   Supercap_First_Order_Filter_ADC_Function_Alpha(&C_sys, 6);
  33:Core/Src/supercap.c ****   Supercap_First_Order_Filter_ADC_Function_Alpha(&C_right, 4);
  34:Core/Src/supercap.c ****   Supercap_First_Order_Filter_ADC_Function_Alpha(&ADC4_12,2);
  35:Core/Src/supercap.c ****   Supercap_First_Order_Filter_ADC_Function_Alpha(&V_bat, 2);
  36:Core/Src/supercap.c ****   Supercap_First_Order_Filter_ADC_Function_Alpha(&V_cap, 4);
  37:Core/Src/supercap.c **** }
  38:Core/Src/supercap.c **** 
  39:Core/Src/supercap.c **** void TIM5_NVIC(){
  40:Core/Src/supercap.c **** 	//Simple test, in and out loop
  41:Core/Src/supercap.c **** 	Supercap_PID_Controller_Function(&PID_45W_loop, &C_sys, 2360, ((2360.0f-C_sys.real_value_12bits)*5
  42:Core/Src/supercap.c **** 	//Supercap_PID_Controller_Function(&PID_24V_loop, &V_cap, 2707, 0.0f); //0 offset, set to 24V
  43:Core/Src/supercap.c ****   Supercap_PID_Controller_Function(&PID_7A_loop, &V_cap, 962, 0.0f); //0 offset, set to +7A or -7A 
  44:Core/Src/supercap.c **** 	PID_24V_loop.output = 2707;
  45:Core/Src/supercap.c **** 	//PID_7A_loop.output = 450;
  46:Core/Src/supercap.c ****   temp2 = Supercap_Compare(PID_45W_loop.output, PID_24V_loop.output, PID_7A_loop.output);
  47:Core/Src/supercap.c **** 	Supercap_PID_Controller_Function(&PID_voltage_loop, &V_cap, temp2, 0.1f*temp2);
  48:Core/Src/supercap.c **** 	Supercap_PWM_left(temp2*0.1f);
  49:Core/Src/supercap.c **** }
  50:Core/Src/supercap.c **** 
  51:Core/Src/supercap.c **** void Supercap_PID_Controller_Function(_Supercap_PID_Controller_t *pid_controller, _ADC_Sample_t *ad
  49              		.loc 1 51 140 view -0
  50              		.cfi_startproc
  51              		@ args = 0, pretend = 0, frame = 0
  52              		@ frame_needed = 0, uses_anonymous_args = 0
  53              		@ link register save eliminated.
  52:Core/Src/supercap.c **** 	pid_controller->error = target - adc_sample->real_value_12bits;
  54              		.loc 1 52 2 view .LVU3
  55              		.loc 1 52 45 is_stmt 0 view .LVU4
  56 0000 8B89     		ldrh	r3, [r1, #12]
  57              		.loc 1 52 33 view .LVU5
  58 0002 D21A     		subs	r2, r2, r3
  59              	.LVL1:
  60              		.loc 1 52 33 view .LVU6
  61 0004 12B2     		sxth	r2, r2
  62              		.loc 1 52 24 view .LVU7
  63 0006 8281     		strh	r2, [r0, #12]	@ movhi
  53:Core/Src/supercap.c ****   pid_controller->error_sum += pid_controller->error * pid_controller->Ki;
  64              		.loc 1 53 3 is_stmt 1 view .LVU8
ARM GAS  C:\Users\purdu\AppData\Local\Temp\ccxivHjG.s 			page 3


  65              		.loc 1 53 17 is_stmt 0 view .LVU9
  66 0008 90ED047A 		vldr.32	s14, [r0, #16]
  67              		.loc 1 53 54 view .LVU10
  68 000c 07EE902A 		vmov	s15, r2	@ int
  69 0010 F8EEE77A 		vcvt.f32.s32	s15, s15
  70              		.loc 1 53 70 view .LVU11
  71 0014 D0ED016A 		vldr.32	s13, [r0, #4]
  72              		.loc 1 53 54 view .LVU12
  73 0018 67EEA66A 		vmul.f32	s13, s15, s13
  74              		.loc 1 53 29 view .LVU13
  75 001c 37EE267A 		vadd.f32	s14, s14, s13
  76 0020 80ED047A 		vstr.32	s14, [r0, #16]
  54:Core/Src/supercap.c ****   if(pid_controller->error_sum > pid_controller->I_max)
  77              		.loc 1 54 3 is_stmt 1 view .LVU14
  78              		.loc 1 54 48 is_stmt 0 view .LVU15
  79 0024 B0F91A30 		ldrsh	r3, [r0, #26]
  80              		.loc 1 54 32 view .LVU16
  81 0028 06EE903A 		vmov	s13, r3	@ int
  82 002c F8EEE66A 		vcvt.f32.s32	s13, s13
  83              		.loc 1 54 5 view .LVU17
  84 0030 B4EEE67A 		vcmpe.f32	s14, s13
  85 0034 F1EE10FA 		vmrs	APSR_nzcv, FPSCR
  86 0038 25DD     		ble	.L11
  55:Core/Src/supercap.c ****   {pid_controller->error_sum = pid_controller->I_max;}
  87              		.loc 1 55 4 is_stmt 1 view .LVU18
  88              		.loc 1 55 30 is_stmt 0 view .LVU19
  89 003a C0ED046A 		vstr.32	s13, [r0, #16]
  90              	.L5:
  56:Core/Src/supercap.c ****   else if(pid_controller->error_sum < -pid_controller->I_max)
  57:Core/Src/supercap.c ****   {pid_controller->error_sum = -pid_controller->I_max;}
  58:Core/Src/supercap.c ****   pid_controller->output = pid_controller->Kp*pid_controller->error + pid_controller->error_sum + p
  91              		.loc 1 58 3 is_stmt 1 view .LVU20
  92              		.loc 1 58 42 is_stmt 0 view .LVU21
  93 003e 90ED007A 		vldr.32	s14, [r0]
  94              		.loc 1 58 46 view .LVU22
  95 0042 67EE877A 		vmul.f32	s15, s15, s14
  96              		.loc 1 58 85 view .LVU23
  97 0046 90ED047A 		vldr.32	s14, [r0, #16]
  98              		.loc 1 58 69 view .LVU24
  99 004a 77EE877A 		vadd.f32	s15, s15, s14
 100              		.loc 1 58 113 view .LVU25
 101 004e D0ED026A 		vldr.32	s13, [r0, #8]
 102              		.loc 1 58 157 view .LVU26
 103 0052 B0F90E30 		ldrsh	r3, [r0, #14]
 104              		.loc 1 58 141 view .LVU27
 105 0056 D31A     		subs	r3, r2, r3
 106 0058 07EE103A 		vmov	s14, r3	@ int
 107              		.loc 1 58 117 view .LVU28
 108 005c B8EEC77A 		vcvt.f32.s32	s14, s14
 109 0060 27EE267A 		vmul.f32	s14, s14, s13
 110              		.loc 1 58 97 view .LVU29
 111 0064 77EE877A 		vadd.f32	s15, s15, s14
 112              		.loc 1 58 171 view .LVU30
 113 0068 77EE807A 		vadd.f32	s15, s15, s0
 114              		.loc 1 58 26 view .LVU31
 115 006c FDEEE77A 		vcvt.s32.f32	s15, s15
 116 0070 17EE903A 		vmov	r3, s15	@ int
ARM GAS  C:\Users\purdu\AppData\Local\Temp\ccxivHjG.s 			page 4


 117 0074 1BB2     		sxth	r3, r3
 118 0076 8382     		strh	r3, [r0, #20]	@ movhi
  59:Core/Src/supercap.c ****   pid_controller->error_last = pid_controller->error;
 119              		.loc 1 59 3 is_stmt 1 view .LVU32
 120              		.loc 1 59 30 is_stmt 0 view .LVU33
 121 0078 C281     		strh	r2, [r0, #14]	@ movhi
  60:Core/Src/supercap.c ****   if(pid_controller->output > pid_controller->output_max)
 122              		.loc 1 60 3 is_stmt 1 view .LVU34
 123              		.loc 1 60 45 is_stmt 0 view .LVU35
 124 007a B0F91620 		ldrsh	r2, [r0, #22]
 125              		.loc 1 60 5 view .LVU36
 126 007e 9342     		cmp	r3, r2
 127 0080 0EDD     		ble	.L7
  61:Core/Src/supercap.c ****   {pid_controller->output = pid_controller->output_max;}
 128              		.loc 1 61 4 is_stmt 1 view .LVU37
 129              		.loc 1 61 27 is_stmt 0 view .LVU38
 130 0082 8282     		strh	r2, [r0, #20]	@ movhi
 131 0084 7047     		bx	lr
 132              	.L11:
  56:Core/Src/supercap.c ****   {pid_controller->error_sum = -pid_controller->I_max;}
 133              		.loc 1 56 8 is_stmt 1 view .LVU39
  56:Core/Src/supercap.c ****   {pid_controller->error_sum = -pid_controller->I_max;}
 134              		.loc 1 56 39 is_stmt 0 view .LVU40
 135 0086 5B42     		rsbs	r3, r3, #0
  56:Core/Src/supercap.c ****   {pid_controller->error_sum = -pid_controller->I_max;}
 136              		.loc 1 56 37 view .LVU41
 137 0088 06EE903A 		vmov	s13, r3	@ int
 138 008c F8EEE66A 		vcvt.f32.s32	s13, s13
  56:Core/Src/supercap.c ****   {pid_controller->error_sum = -pid_controller->I_max;}
 139              		.loc 1 56 10 view .LVU42
 140 0090 B4EEE67A 		vcmpe.f32	s14, s13
 141 0094 F1EE10FA 		vmrs	APSR_nzcv, FPSCR
 142 0098 D1D5     		bpl	.L5
  57:Core/Src/supercap.c ****   pid_controller->output = pid_controller->Kp*pid_controller->error + pid_controller->error_sum + p
 143              		.loc 1 57 4 is_stmt 1 view .LVU43
  57:Core/Src/supercap.c ****   pid_controller->output = pid_controller->Kp*pid_controller->error + pid_controller->error_sum + p
 144              		.loc 1 57 30 is_stmt 0 view .LVU44
 145 009a C0ED046A 		vstr.32	s13, [r0, #16]
 146 009e CEE7     		b	.L5
 147              	.L7:
  62:Core/Src/supercap.c ****   else if(pid_controller->output < pid_controller->output_min)
 148              		.loc 1 62 8 is_stmt 1 view .LVU45
 149              		.loc 1 62 50 is_stmt 0 view .LVU46
 150 00a0 B0F91820 		ldrsh	r2, [r0, #24]
 151              		.loc 1 62 10 view .LVU47
 152 00a4 9342     		cmp	r3, r2
 153 00a6 00DA     		bge	.L2
  63:Core/Src/supercap.c ****   {pid_controller->output = pid_controller->output_min;}
 154              		.loc 1 63 4 is_stmt 1 view .LVU48
 155              		.loc 1 63 27 is_stmt 0 view .LVU49
 156 00a8 8282     		strh	r2, [r0, #20]	@ movhi
 157              	.L2:
  64:Core/Src/supercap.c **** }
 158              		.loc 1 64 1 view .LVU50
 159 00aa 7047     		bx	lr
 160              		.cfi_endproc
 161              	.LFE336:
ARM GAS  C:\Users\purdu\AppData\Local\Temp\ccxivHjG.s 			page 5


 163              		.section	.text.Supercap_Compare,"ax",%progbits
 164              		.align	1
 165              		.global	Supercap_Compare
 166              		.syntax unified
 167              		.thumb
 168              		.thumb_func
 170              	Supercap_Compare:
 171              	.LVL2:
 172              	.LFB337:
  65:Core/Src/supercap.c **** 
  66:Core/Src/supercap.c **** int16_t Supercap_Compare(int16_t Output1, int16_t Output2, int16_t Output3){
 173              		.loc 1 66 76 is_stmt 1 view -0
 174              		.cfi_startproc
 175              		@ args = 0, pretend = 0, frame = 0
 176              		@ frame_needed = 0, uses_anonymous_args = 0
 177              		@ link register save eliminated.
  67:Core/Src/supercap.c ****   if ((Output1 >= Output2 && Output1 <= Output3) || (Output1 <= Output2 && Output1 >= Output3)) {
 178              		.loc 1 67 3 view .LVU52
 179              		.loc 1 67 6 is_stmt 0 view .LVU53
 180 0000 8842     		cmp	r0, r1
 181 0002 01DB     		blt	.L13
 182              		.loc 1 67 27 discriminator 1 view .LVU54
 183 0004 9042     		cmp	r0, r2
 184 0006 12DD     		ble	.L14
 185              	.L13:
 186              		.loc 1 67 50 discriminator 3 view .LVU55
 187 0008 8842     		cmp	r0, r1
 188 000a 01DC     		bgt	.L15
 189              		.loc 1 67 73 discriminator 4 view .LVU56
 190 000c 9042     		cmp	r0, r2
 191 000e 0EDA     		bge	.L14
 192              	.L15:
  68:Core/Src/supercap.c ****     return Output1;
  69:Core/Src/supercap.c ****   } else if ((Output2 >= Output1 && Output2 <= Output3) || (Output2 <= Output1 && Output2 >= Output
 193              		.loc 1 69 10 is_stmt 1 view .LVU57
 194              		.loc 1 69 13 is_stmt 0 view .LVU58
 195 0010 8842     		cmp	r0, r1
 196 0012 01DC     		bgt	.L16
 197              		.loc 1 69 34 discriminator 1 view .LVU59
 198 0014 9142     		cmp	r1, r2
 199 0016 05DD     		ble	.L19
 200              	.L16:
 201              		.loc 1 69 57 discriminator 3 view .LVU60
 202 0018 8842     		cmp	r0, r1
 203 001a 05DB     		blt	.L20
 204              		.loc 1 69 80 discriminator 4 view .LVU61
 205 001c 9142     		cmp	r1, r2
 206 001e 05DA     		bge	.L21
  70:Core/Src/supercap.c ****     return Output2;
  71:Core/Src/supercap.c ****   } else {
  72:Core/Src/supercap.c ****     return Output3;
 207              		.loc 1 72 12 view .LVU62
 208 0020 1046     		mov	r0, r2
 209              	.LVL3:
 210              		.loc 1 72 12 view .LVU63
 211 0022 7047     		bx	lr
 212              	.LVL4:
ARM GAS  C:\Users\purdu\AppData\Local\Temp\ccxivHjG.s 			page 6


 213              	.L19:
  70:Core/Src/supercap.c ****     return Output2;
 214              		.loc 1 70 12 view .LVU64
 215 0024 0846     		mov	r0, r1
 216              	.LVL5:
  70:Core/Src/supercap.c ****     return Output2;
 217              		.loc 1 70 12 view .LVU65
 218 0026 7047     		bx	lr
 219              	.LVL6:
 220              	.L20:
 221              		.loc 1 72 12 view .LVU66
 222 0028 1046     		mov	r0, r2
 223              	.LVL7:
 224              		.loc 1 72 12 view .LVU67
 225 002a 7047     		bx	lr
 226              	.LVL8:
 227              	.L21:
  70:Core/Src/supercap.c ****     return Output2;
 228              		.loc 1 70 12 view .LVU68
 229 002c 0846     		mov	r0, r1
 230              	.LVL9:
 231              	.L14:
  73:Core/Src/supercap.c ****   }
  74:Core/Src/supercap.c **** }
 232              		.loc 1 74 1 view .LVU69
 233 002e 7047     		bx	lr
 234              		.cfi_endproc
 235              	.LFE337:
 237              		.section	.text.Supercap_Average_ADC_Function,"ax",%progbits
 238              		.align	1
 239              		.global	Supercap_Average_ADC_Function
 240              		.syntax unified
 241              		.thumb
 242              		.thumb_func
 244              	Supercap_Average_ADC_Function:
 245              	.LVL10:
 246              	.LFB338:
  75:Core/Src/supercap.c **** 
  76:Core/Src/supercap.c **** void Supercap_Average_ADC_Function(_ADC_Sample_t *adc_sample) {
 247              		.loc 1 76 63 is_stmt 1 view -0
 248              		.cfi_startproc
 249              		@ args = 0, pretend = 0, frame = 0
 250              		@ frame_needed = 0, uses_anonymous_args = 0
 251              		@ link register save eliminated.
  77:Core/Src/supercap.c ****     if(adc_sample->count == 0){
 252              		.loc 1 77 5 view .LVU71
 253              		.loc 1 77 18 is_stmt 0 view .LVU72
 254 0000 0379     		ldrb	r3, [r0, #4]	@ zero_extendqisi2
 255              		.loc 1 77 7 view .LVU73
 256 0002 33B9     		cbnz	r3, .L23
  78:Core/Src/supercap.c ****       adc_sample->average = *(adc_sample->sample);
 257              		.loc 1 78 7 is_stmt 1 view .LVU74
 258              		.loc 1 78 41 is_stmt 0 view .LVU75
 259 0004 0368     		ldr	r3, [r0]
 260              		.loc 1 78 29 view .LVU76
 261 0006 1B88     		ldrh	r3, [r3]
 262              		.loc 1 78 27 view .LVU77
ARM GAS  C:\Users\purdu\AppData\Local\Temp\ccxivHjG.s 			page 7


 263 0008 C380     		strh	r3, [r0, #6]	@ movhi
  79:Core/Src/supercap.c ****       adc_sample->history_sum = adc_sample->average << 2;
 264              		.loc 1 79 7 is_stmt 1 view .LVU78
 265              		.loc 1 79 53 is_stmt 0 view .LVU79
 266 000a 9B00     		lsls	r3, r3, #2
 267              		.loc 1 79 31 view .LVU80
 268 000c 8360     		str	r3, [r0, #8]
  80:Core/Src/supercap.c ****       adc_sample->count = 1;
 269              		.loc 1 80 7 is_stmt 1 view .LVU81
 270              		.loc 1 80 25 is_stmt 0 view .LVU82
 271 000e 0123     		movs	r3, #1
 272 0010 0371     		strb	r3, [r0, #4]
 273              	.L23:
  81:Core/Src/supercap.c ****     }
  82:Core/Src/supercap.c ****     adc_sample->history_sum = adc_sample->history_sum - adc_sample->average + *(adc_sample->sample)
 274              		.loc 1 82 5 is_stmt 1 view .LVU83
 275              		.loc 1 82 41 is_stmt 0 view .LVU84
 276 0012 8368     		ldr	r3, [r0, #8]
 277              		.loc 1 82 67 view .LVU85
 278 0014 C288     		ldrh	r2, [r0, #6]
 279              		.loc 1 82 55 view .LVU86
 280 0016 9B1A     		subs	r3, r3, r2
 281              		.loc 1 82 91 view .LVU87
 282 0018 0268     		ldr	r2, [r0]
 283              		.loc 1 82 79 view .LVU88
 284 001a 1288     		ldrh	r2, [r2]
 285              		.loc 1 82 77 view .LVU89
 286 001c 1344     		add	r3, r3, r2
 287              		.loc 1 82 29 view .LVU90
 288 001e 8360     		str	r3, [r0, #8]
  83:Core/Src/supercap.c ****     adc_sample->average = adc_sample->history_sum >> 2;
 289              		.loc 1 83 5 is_stmt 1 view .LVU91
 290              		.loc 1 83 25 is_stmt 0 view .LVU92
 291 0020 C3F38F03 		ubfx	r3, r3, #2, #16
 292 0024 C380     		strh	r3, [r0, #6]	@ movhi
  84:Core/Src/supercap.c ****     adc_sample->real_value_12bits = (adc_sample->average);
 293              		.loc 1 84 5 is_stmt 1 view .LVU93
 294              		.loc 1 84 35 is_stmt 0 view .LVU94
 295 0026 8381     		strh	r3, [r0, #12]	@ movhi
  85:Core/Src/supercap.c **** }
 296              		.loc 1 85 1 view .LVU95
 297 0028 7047     		bx	lr
 298              		.cfi_endproc
 299              	.LFE338:
 301              		.section	.text.Supercap_First_Order_Filter_ADC_Function,"ax",%progbits
 302              		.align	1
 303              		.global	Supercap_First_Order_Filter_ADC_Function
 304              		.syntax unified
 305              		.thumb
 306              		.thumb_func
 308              	Supercap_First_Order_Filter_ADC_Function:
 309              	.LVL11:
 310              	.LFB339:
  86:Core/Src/supercap.c **** 
  87:Core/Src/supercap.c **** void Supercap_First_Order_Filter_ADC_Function(_ADC_Sample_t *adc_sample) {
 311              		.loc 1 87 74 is_stmt 1 view -0
 312              		.cfi_startproc
ARM GAS  C:\Users\purdu\AppData\Local\Temp\ccxivHjG.s 			page 8


 313              		@ args = 0, pretend = 0, frame = 0
 314              		@ frame_needed = 0, uses_anonymous_args = 0
 315              		@ link register save eliminated.
  88:Core/Src/supercap.c **** 			adc_sample->real_value_12bits = (*(adc_sample->sample)>>3) + (adc_sample->real_value_12bits - (a
 316              		.loc 1 88 4 view .LVU97
 317              		.loc 1 88 49 is_stmt 0 view .LVU98
 318 0000 0368     		ldr	r3, [r0]
 319              		.loc 1 88 37 view .LVU99
 320 0002 1A88     		ldrh	r2, [r3]
 321              		.loc 1 88 76 view .LVU100
 322 0004 8389     		ldrh	r3, [r0, #12]
 323              		.loc 1 88 96 view .LVU101
 324 0006 A3EBD303 		sub	r3, r3, r3, lsr #3
 325              		.loc 1 88 63 view .LVU102
 326 000a D208     		lsrs	r2, r2, #3
 327 000c 12FA83F3 		uxtah	r3, r2, r3
 328              		.loc 1 88 34 view .LVU103
 329 0010 8381     		strh	r3, [r0, #12]	@ movhi
  89:Core/Src/supercap.c **** }
 330              		.loc 1 89 1 view .LVU104
 331 0012 7047     		bx	lr
 332              		.cfi_endproc
 333              	.LFE339:
 335              		.section	.text.Supercap_First_Order_Filter_ADC_Function_Alpha,"ax",%progbits
 336              		.align	1
 337              		.global	Supercap_First_Order_Filter_ADC_Function_Alpha
 338              		.syntax unified
 339              		.thumb
 340              		.thumb_func
 342              	Supercap_First_Order_Filter_ADC_Function_Alpha:
 343              	.LVL12:
 344              	.LFB340:
  90:Core/Src/supercap.c **** 
  91:Core/Src/supercap.c **** void Supercap_First_Order_Filter_ADC_Function_Alpha(_ADC_Sample_t *adc_sample, uint16_t alpha) {
 345              		.loc 1 91 96 is_stmt 1 view -0
 346              		.cfi_startproc
 347              		@ args = 0, pretend = 0, frame = 0
 348              		@ frame_needed = 0, uses_anonymous_args = 0
 349              		@ link register save eliminated.
  92:Core/Src/supercap.c **** 			adc_sample->real_value_12bits = (*(adc_sample->sample)>>alpha) + (adc_sample->real_value_12bits 
 350              		.loc 1 92 4 view .LVU106
 351              		.loc 1 92 49 is_stmt 0 view .LVU107
 352 0000 0368     		ldr	r3, [r0]
 353              		.loc 1 92 37 view .LVU108
 354 0002 1A88     		ldrh	r2, [r3]
 355              		.loc 1 92 58 view .LVU109
 356 0004 0A41     		asrs	r2, r2, r1
 357              		.loc 1 92 80 view .LVU110
 358 0006 8389     		ldrh	r3, [r0, #12]
 359              		.loc 1 92 132 view .LVU111
 360 0008 43FA01F1 		asr	r1, r3, r1
 361              	.LVL13:
 362              		.loc 1 92 100 view .LVU112
 363 000c 5B1A     		subs	r3, r3, r1
 364              		.loc 1 92 67 view .LVU113
 365 000e 12FA83F3 		uxtah	r3, r2, r3
 366              		.loc 1 92 34 view .LVU114
ARM GAS  C:\Users\purdu\AppData\Local\Temp\ccxivHjG.s 			page 9


 367 0012 8381     		strh	r3, [r0, #12]	@ movhi
  93:Core/Src/supercap.c **** }
 368              		.loc 1 93 1 view .LVU115
 369 0014 7047     		bx	lr
 370              		.cfi_endproc
 371              	.LFE340:
 373              		.section	.text.TIM2_NVIC,"ax",%progbits
 374              		.align	1
 375              		.global	TIM2_NVIC
 376              		.syntax unified
 377              		.thumb
 378              		.thumb_func
 380              	TIM2_NVIC:
 381              	.LFB334:
  31:Core/Src/supercap.c ****   Supercap_First_Order_Filter_ADC_Function_Alpha(&C_sys, 6);
 382              		.loc 1 31 17 is_stmt 1 view -0
 383              		.cfi_startproc
 384              		@ args = 0, pretend = 0, frame = 0
 385              		@ frame_needed = 0, uses_anonymous_args = 0
 386 0000 08B5     		push	{r3, lr}
 387              	.LCFI0:
 388              		.cfi_def_cfa_offset 8
 389              		.cfi_offset 3, -8
 390              		.cfi_offset 14, -4
  32:Core/Src/supercap.c ****   Supercap_First_Order_Filter_ADC_Function_Alpha(&C_right, 4);
 391              		.loc 1 32 3 view .LVU117
 392 0002 0621     		movs	r1, #6
 393 0004 0948     		ldr	r0, .L28
 394 0006 FFF7FEFF 		bl	Supercap_First_Order_Filter_ADC_Function_Alpha
 395              	.LVL14:
  33:Core/Src/supercap.c ****   Supercap_First_Order_Filter_ADC_Function_Alpha(&ADC4_12,2);
 396              		.loc 1 33 3 view .LVU118
 397 000a 0421     		movs	r1, #4
 398 000c 0848     		ldr	r0, .L28+4
 399 000e FFF7FEFF 		bl	Supercap_First_Order_Filter_ADC_Function_Alpha
 400              	.LVL15:
  34:Core/Src/supercap.c ****   Supercap_First_Order_Filter_ADC_Function_Alpha(&V_bat, 2);
 401              		.loc 1 34 3 view .LVU119
 402 0012 0221     		movs	r1, #2
 403 0014 0748     		ldr	r0, .L28+8
 404 0016 FFF7FEFF 		bl	Supercap_First_Order_Filter_ADC_Function_Alpha
 405              	.LVL16:
  35:Core/Src/supercap.c ****   Supercap_First_Order_Filter_ADC_Function_Alpha(&V_cap, 4);
 406              		.loc 1 35 3 view .LVU120
 407 001a 0221     		movs	r1, #2
 408 001c 0648     		ldr	r0, .L28+12
 409 001e FFF7FEFF 		bl	Supercap_First_Order_Filter_ADC_Function_Alpha
 410              	.LVL17:
  36:Core/Src/supercap.c **** }
 411              		.loc 1 36 3 view .LVU121
 412 0022 0421     		movs	r1, #4
 413 0024 0548     		ldr	r0, .L28+16
 414 0026 FFF7FEFF 		bl	Supercap_First_Order_Filter_ADC_Function_Alpha
 415              	.LVL18:
  37:Core/Src/supercap.c **** 
 416              		.loc 1 37 1 is_stmt 0 view .LVU122
 417 002a 08BD     		pop	{r3, pc}
ARM GAS  C:\Users\purdu\AppData\Local\Temp\ccxivHjG.s 			page 10


 418              	.L29:
 419              		.align	2
 420              	.L28:
 421 002c 00000000 		.word	C_sys
 422 0030 00000000 		.word	C_right
 423 0034 00000000 		.word	ADC4_12
 424 0038 00000000 		.word	V_bat
 425 003c 00000000 		.word	V_cap
 426              		.cfi_endproc
 427              	.LFE334:
 429              		.section	.text.Supercap_Function_Init,"ax",%progbits
 430              		.align	1
 431              		.global	Supercap_Function_Init
 432              		.syntax unified
 433              		.thumb
 434              		.thumb_func
 436              	Supercap_Function_Init:
 437              	.LVL19:
 438              	.LFB341:
  94:Core/Src/supercap.c **** 
  95:Core/Src/supercap.c **** void Supercap_Function_Init(_ADC_Sample_t *adc_sample) {
 439              		.loc 1 95 56 is_stmt 1 view -0
 440              		.cfi_startproc
 441              		@ args = 0, pretend = 0, frame = 0
 442              		@ frame_needed = 0, uses_anonymous_args = 0
 443              		@ link register save eliminated.
  96:Core/Src/supercap.c **** 			adc_sample->real_value_12bits = *(adc_sample->sample);
 444              		.loc 1 96 4 view .LVU124
 445              		.loc 1 96 48 is_stmt 0 view .LVU125
 446 0000 0368     		ldr	r3, [r0]
 447              		.loc 1 96 36 view .LVU126
 448 0002 1B88     		ldrh	r3, [r3]
 449              		.loc 1 96 34 view .LVU127
 450 0004 8381     		strh	r3, [r0, #12]	@ movhi
  97:Core/Src/supercap.c **** }
 451              		.loc 1 97 1 view .LVU128
 452 0006 7047     		bx	lr
 453              		.cfi_endproc
 454              	.LFE341:
 456              		.section	.text.Supercap_ADC_to_Voltage_Funtion,"ax",%progbits
 457              		.align	1
 458              		.global	Supercap_ADC_to_Voltage_Funtion
 459              		.syntax unified
 460              		.thumb
 461              		.thumb_func
 463              	Supercap_ADC_to_Voltage_Funtion:
 464              	.LVL20:
 465              	.LFB342:
  98:Core/Src/supercap.c **** 
  99:Core/Src/supercap.c **** float Supercap_ADC_to_Voltage_Funtion(uint16_t adc_value) {
 466              		.loc 1 99 59 is_stmt 1 view -0
 467              		.cfi_startproc
 468              		@ args = 0, pretend = 0, frame = 0
 469              		@ frame_needed = 0, uses_anonymous_args = 0
 470              		@ link register save eliminated.
 471              		.loc 1 99 59 is_stmt 0 view .LVU130
 472 0000 07EE900A 		vmov	s15, r0	@ int
ARM GAS  C:\Users\purdu\AppData\Local\Temp\ccxivHjG.s 			page 11


 100:Core/Src/supercap.c ****   float voltage = ((float)adc_value * 3.3f / 4095.0f) * 11;
 473              		.loc 1 100 3 is_stmt 1 view .LVU131
 474              		.loc 1 100 20 is_stmt 0 view .LVU132
 475 0004 F8EE677A 		vcvt.f32.u32	s15, s15
 476              		.loc 1 100 37 view .LVU133
 477 0008 9FED067A 		vldr.32	s14, .L32
 478 000c 67EE877A 		vmul.f32	s15, s15, s14
 479              		.loc 1 100 44 view .LVU134
 480 0010 9FED057A 		vldr.32	s14, .L32+4
 481 0014 87EE870A 		vdiv.f32	s0, s15, s14
 482              	.LVL21:
 101:Core/Src/supercap.c ****   return voltage;
 483              		.loc 1 101 3 is_stmt 1 view .LVU135
 102:Core/Src/supercap.c **** }
 484              		.loc 1 102 1 is_stmt 0 view .LVU136
 485 0018 F2EE067A 		vmov.f32	s15, #1.1e+1
 486 001c 20EE270A 		vmul.f32	s0, s0, s15
 487              	.LVL22:
 488              		.loc 1 102 1 view .LVU137
 489 0020 7047     		bx	lr
 490              	.L33:
 491 0022 00BF     		.align	2
 492              	.L32:
 493 0024 33335340 		.word	1079194419
 494 0028 00F07F45 		.word	1166012416
 495              		.cfi_endproc
 496              	.LFE342:
 498              		.section	.text.Supercap_ADC_to_Voltage_Funtion_Ref,"ax",%progbits
 499              		.align	1
 500              		.global	Supercap_ADC_to_Voltage_Funtion_Ref
 501              		.syntax unified
 502              		.thumb
 503              		.thumb_func
 505              	Supercap_ADC_to_Voltage_Funtion_Ref:
 506              	.LVL23:
 507              	.LFB343:
 103:Core/Src/supercap.c **** 
 104:Core/Src/supercap.c **** float Supercap_ADC_to_Voltage_Funtion_Ref(uint16_t adc_value) {
 508              		.loc 1 104 63 is_stmt 1 view -0
 509              		.cfi_startproc
 510              		@ args = 0, pretend = 0, frame = 0
 511              		@ frame_needed = 0, uses_anonymous_args = 0
 512              		@ link register save eliminated.
 513              		.loc 1 104 63 is_stmt 0 view .LVU139
 514 0000 07EE900A 		vmov	s15, r0	@ int
 105:Core/Src/supercap.c ****   float voltage = ((float)adc_value * 3.3f / 4095.0f);
 515              		.loc 1 105 3 is_stmt 1 view .LVU140
 516              		.loc 1 105 20 is_stmt 0 view .LVU141
 517 0004 F8EE677A 		vcvt.f32.u32	s15, s15
 518              		.loc 1 105 37 view .LVU142
 519 0008 9FED047A 		vldr.32	s14, .L35
 520 000c 67EE877A 		vmul.f32	s15, s15, s14
 521              	.LVL24:
 106:Core/Src/supercap.c ****   return voltage;
 522              		.loc 1 106 3 is_stmt 1 view .LVU143
 107:Core/Src/supercap.c **** }
 523              		.loc 1 107 1 is_stmt 0 view .LVU144
ARM GAS  C:\Users\purdu\AppData\Local\Temp\ccxivHjG.s 			page 12


 524 0010 9FED030A 		vldr.32	s0, .L35+4
 525 0014 87EE800A 		vdiv.f32	s0, s15, s0
 526              	.LVL25:
 527              		.loc 1 107 1 view .LVU145
 528 0018 7047     		bx	lr
 529              	.L36:
 530 001a 00BF     		.align	2
 531              	.L35:
 532 001c 33335340 		.word	1079194419
 533 0020 00F07F45 		.word	1166012416
 534              		.cfi_endproc
 535              	.LFE343:
 537              		.section	.text.Supercap_ADC_to_Current_Funtion,"ax",%progbits
 538              		.align	1
 539              		.global	Supercap_ADC_to_Current_Funtion
 540              		.syntax unified
 541              		.thumb
 542              		.thumb_func
 544              	Supercap_ADC_to_Current_Funtion:
 545              	.LVL26:
 546              	.LFB344:
 108:Core/Src/supercap.c **** 
 109:Core/Src/supercap.c **** float Supercap_ADC_to_Current_Funtion(uint16_t adc_value, uint16_t ref_voltage) {
 547              		.loc 1 109 81 is_stmt 1 view -0
 548              		.cfi_startproc
 549              		@ args = 0, pretend = 0, frame = 0
 550              		@ frame_needed = 0, uses_anonymous_args = 0
 551              		@ link register save eliminated.
 110:Core/Src/supercap.c ****   // ((ref_12bits*3.3/4095)+(current_flot*0.005)*25)*4095/3.3=current_12bits
 111:Core/Src/supercap.c ****   float current = 0.00644689f * (float)(adc_value - ref_voltage);
 552              		.loc 1 111 3 view .LVU147
 553              		.loc 1 111 51 is_stmt 0 view .LVU148
 554 0000 401A     		subs	r0, r0, r1
 555              	.LVL27:
 556              		.loc 1 111 33 view .LVU149
 557 0002 07EE900A 		vmov	s15, r0	@ int
 558 0006 B8EEE70A 		vcvt.f32.s32	s0, s15
 559              	.LVL28:
 112:Core/Src/supercap.c ****   return current;
 560              		.loc 1 112 3 is_stmt 1 view .LVU150
 113:Core/Src/supercap.c **** }
 561              		.loc 1 113 1 is_stmt 0 view .LVU151
 562 000a DFED027A 		vldr.32	s15, .L38
 563 000e 20EE270A 		vmul.f32	s0, s0, s15
 564              	.LVL29:
 565              		.loc 1 113 1 view .LVU152
 566 0012 7047     		bx	lr
 567              	.L39:
 568              		.align	2
 569              	.L38:
 570 0014 6F40D33B 		.word	1003700335
 571              		.cfi_endproc
 572              	.LFE344:
 574              		.section	.text.Supercap_PID_Init,"ax",%progbits
 575              		.align	1
 576              		.global	Supercap_PID_Init
 577              		.syntax unified
ARM GAS  C:\Users\purdu\AppData\Local\Temp\ccxivHjG.s 			page 13


 578              		.thumb
 579              		.thumb_func
 581              	Supercap_PID_Init:
 582              	.LVL30:
 583              	.LFB345:
 114:Core/Src/supercap.c **** 
 115:Core/Src/supercap.c **** //Init
 116:Core/Src/supercap.c **** void Supercap_PID_Init(_Supercap_PID_Controller_t *pid_controller, float Kp, float Ki, float Kd, in
 584              		.loc 1 116 153 is_stmt 1 view -0
 585              		.cfi_startproc
 586              		@ args = 0, pretend = 0, frame = 0
 587              		@ frame_needed = 0, uses_anonymous_args = 0
 588              		@ link register save eliminated.
 117:Core/Src/supercap.c ****   pid_controller->Kp = Kp;
 589              		.loc 1 117 3 view .LVU154
 590              		.loc 1 117 22 is_stmt 0 view .LVU155
 591 0000 80ED000A 		vstr.32	s0, [r0]
 118:Core/Src/supercap.c ****   pid_controller->Ki = Ki;
 592              		.loc 1 118 3 is_stmt 1 view .LVU156
 593              		.loc 1 118 22 is_stmt 0 view .LVU157
 594 0004 C0ED010A 		vstr.32	s1, [r0, #4]
 119:Core/Src/supercap.c ****   pid_controller->Kd = Kd;
 595              		.loc 1 119 3 is_stmt 1 view .LVU158
 596              		.loc 1 119 22 is_stmt 0 view .LVU159
 597 0008 80ED021A 		vstr.32	s2, [r0, #8]
 120:Core/Src/supercap.c ****   pid_controller->output_max = output_max;
 598              		.loc 1 120 3 is_stmt 1 view .LVU160
 599              		.loc 1 120 30 is_stmt 0 view .LVU161
 600 000c C182     		strh	r1, [r0, #22]	@ movhi
 121:Core/Src/supercap.c ****   pid_controller->output_min = output_min;
 601              		.loc 1 121 3 is_stmt 1 view .LVU162
 602              		.loc 1 121 30 is_stmt 0 view .LVU163
 603 000e 0283     		strh	r2, [r0, #24]	@ movhi
 122:Core/Src/supercap.c ****   pid_controller->I_max = I_max;
 604              		.loc 1 122 3 is_stmt 1 view .LVU164
 605              		.loc 1 122 25 is_stmt 0 view .LVU165
 606 0010 4383     		strh	r3, [r0, #26]	@ movhi
 123:Core/Src/supercap.c **** }
 607              		.loc 1 123 1 view .LVU166
 608 0012 7047     		bx	lr
 609              		.cfi_endproc
 610              	.LFE345:
 612              		.section	.text.Supercap_PWM_left,"ax",%progbits
 613              		.align	1
 614              		.global	Supercap_PWM_left
 615              		.syntax unified
 616              		.thumb
 617              		.thumb_func
 619              	Supercap_PWM_left:
 620              	.LVL31:
 621              	.LFB346:
 124:Core/Src/supercap.c **** 
 125:Core/Src/supercap.c **** //Driver
 126:Core/Src/supercap.c **** void Supercap_PWM_left(int16_t pwm_duty_cycle) {
 622              		.loc 1 126 48 is_stmt 1 view -0
 623              		.cfi_startproc
 624              		@ args = 0, pretend = 0, frame = 0
ARM GAS  C:\Users\purdu\AppData\Local\Temp\ccxivHjG.s 			page 14


 625              		@ frame_needed = 0, uses_anonymous_args = 0
 626              		@ link register save eliminated.
 127:Core/Src/supercap.c ****   __HAL_TIM_SET_COMPARE(&htim1, TIM_CHANNEL_1, pwm_duty_cycle);
 627              		.loc 1 127 3 view .LVU168
 628 0000 024B     		ldr	r3, .L42
 629 0002 1B68     		ldr	r3, [r3]
 630 0004 5863     		str	r0, [r3, #52]
 128:Core/Src/supercap.c ****   __HAL_TIM_SET_COMPARE(&htim1, TIM_CHANNEL_4, 22);
 631              		.loc 1 128 3 view .LVU169
 632 0006 1622     		movs	r2, #22
 633 0008 1A64     		str	r2, [r3, #64]
 129:Core/Src/supercap.c **** };
 634              		.loc 1 129 1 is_stmt 0 view .LVU170
 635 000a 7047     		bx	lr
 636              	.L43:
 637              		.align	2
 638              	.L42:
 639 000c 00000000 		.word	htim1
 640              		.cfi_endproc
 641              	.LFE346:
 643              		.section	.text.TIM5_NVIC,"ax",%progbits
 644              		.align	1
 645              		.global	TIM5_NVIC
 646              		.syntax unified
 647              		.thumb
 648              		.thumb_func
 650              	TIM5_NVIC:
 651              	.LFB335:
  39:Core/Src/supercap.c **** 	//Simple test, in and out loop
 652              		.loc 1 39 17 is_stmt 1 view -0
 653              		.cfi_startproc
 654              		@ args = 0, pretend = 0, frame = 0
 655              		@ frame_needed = 0, uses_anonymous_args = 0
 656 0000 70B5     		push	{r4, r5, r6, lr}
 657              	.LCFI1:
 658              		.cfi_def_cfa_offset 16
 659              		.cfi_offset 4, -16
 660              		.cfi_offset 5, -12
 661              		.cfi_offset 6, -8
 662              		.cfi_offset 14, -4
 663 0002 2DED028B 		vpush.64	{d8}
 664              	.LCFI2:
 665              		.cfi_def_cfa_offset 24
 666              		.cfi_offset 80, -24
 667              		.cfi_offset 81, -20
  41:Core/Src/supercap.c **** 	//Supercap_PID_Controller_Function(&PID_24V_loop, &V_cap, 2707, 0.0f); //0 offset, set to 24V
 668              		.loc 1 41 2 view .LVU172
  41:Core/Src/supercap.c **** 	//Supercap_PID_Controller_Function(&PID_24V_loop, &V_cap, 2707, 0.0f); //0 offset, set to 24V
 669              		.loc 1 41 79 is_stmt 0 view .LVU173
 670 0006 2649     		ldr	r1, .L46
 671 0008 8B89     		ldrh	r3, [r1, #12]
 672 000a 07EE103A 		vmov	s14, r3	@ int
  41:Core/Src/supercap.c **** 	//Supercap_PID_Controller_Function(&PID_24V_loop, &V_cap, 2707, 0.0f); //0 offset, set to 24V
 673              		.loc 1 41 73 view .LVU174
 674 000e B8EEC77A 		vcvt.f32.s32	s14, s14
 675 0012 DFED247A 		vldr.32	s15, .L46+4
 676 0016 77EEC77A 		vsub.f32	s15, s15, s14
ARM GAS  C:\Users\purdu\AppData\Local\Temp\ccxivHjG.s 			page 15


  41:Core/Src/supercap.c **** 	//Supercap_PID_Controller_Function(&PID_24V_loop, &V_cap, 2707, 0.0f); //0 offset, set to 24V
 677              		.loc 1 41 98 view .LVU175
 678 001a B1EE047A 		vmov.f32	s14, #5.0e+0
 679 001e 67EE877A 		vmul.f32	s15, s15, s14
  41:Core/Src/supercap.c **** 	//Supercap_PID_Controller_Function(&PID_24V_loop, &V_cap, 2707, 0.0f); //0 offset, set to 24V
 680              		.loc 1 41 109 view .LVU176
 681 0022 214C     		ldr	r4, .L46+8
 682 0024 A389     		ldrh	r3, [r4, #12]
 683 0026 00EE103A 		vmov	s0, r3	@ int
  41:Core/Src/supercap.c **** 	//Supercap_PID_Controller_Function(&PID_24V_loop, &V_cap, 2707, 0.0f); //0 offset, set to 24V
 684              		.loc 1 41 2 view .LVU177
 685 002a B8EEC00A 		vcvt.f32.s32	s0, s0
 686 002e 1F4D     		ldr	r5, .L46+12
 687 0030 30EE270A 		vadd.f32	s0, s0, s15
 688 0034 40F63812 		movw	r2, #2360
 689 0038 2846     		mov	r0, r5
 690 003a FFF7FEFF 		bl	Supercap_PID_Controller_Function
 691              	.LVL32:
  43:Core/Src/supercap.c **** 	PID_24V_loop.output = 2707;
 692              		.loc 1 43 3 is_stmt 1 view .LVU178
 693 003e 1C4E     		ldr	r6, .L46+16
 694 0040 9FED1C0A 		vldr.32	s0, .L46+20
 695 0044 40F2C232 		movw	r2, #962
 696 0048 2146     		mov	r1, r4
 697 004a 3046     		mov	r0, r6
 698 004c FFF7FEFF 		bl	Supercap_PID_Controller_Function
 699              	.LVL33:
  44:Core/Src/supercap.c **** 	//PID_7A_loop.output = 450;
 700              		.loc 1 44 2 view .LVU179
  44:Core/Src/supercap.c **** 	//PID_7A_loop.output = 450;
 701              		.loc 1 44 22 is_stmt 0 view .LVU180
 702 0050 40F69321 		movw	r1, #2707
 703 0054 184B     		ldr	r3, .L46+24
 704 0056 9982     		strh	r1, [r3, #20]	@ movhi
  46:Core/Src/supercap.c **** 	Supercap_PID_Controller_Function(&PID_voltage_loop, &V_cap, temp2, 0.1f*temp2);
 705              		.loc 1 46 3 is_stmt 1 view .LVU181
  46:Core/Src/supercap.c **** 	Supercap_PID_Controller_Function(&PID_voltage_loop, &V_cap, temp2, 0.1f*temp2);
 706              		.loc 1 46 11 is_stmt 0 view .LVU182
 707 0058 B6F91420 		ldrsh	r2, [r6, #20]
 708 005c B5F91400 		ldrsh	r0, [r5, #20]
 709 0060 FFF7FEFF 		bl	Supercap_Compare
 710              	.LVL34:
 711 0064 0246     		mov	r2, r0
  46:Core/Src/supercap.c **** 	Supercap_PID_Controller_Function(&PID_voltage_loop, &V_cap, temp2, 0.1f*temp2);
 712              		.loc 1 46 9 discriminator 1 view .LVU183
 713 0066 07EE900A 		vmov	s15, r0	@ int
 714 006a B8EEE70A 		vcvt.f32.s32	s0, s15
 715 006e 134D     		ldr	r5, .L46+28
 716 0070 85ED000A 		vstr.32	s0, [r5]
  47:Core/Src/supercap.c **** 	Supercap_PWM_left(temp2*0.1f);
 717              		.loc 1 47 2 is_stmt 1 view .LVU184
 718 0074 9FED128A 		vldr.32	s16, .L46+32
 719 0078 20EE080A 		vmul.f32	s0, s0, s16
 720 007c 2146     		mov	r1, r4
 721 007e 1148     		ldr	r0, .L46+36
 722 0080 FFF7FEFF 		bl	Supercap_PID_Controller_Function
 723              	.LVL35:
ARM GAS  C:\Users\purdu\AppData\Local\Temp\ccxivHjG.s 			page 16


  48:Core/Src/supercap.c **** }
 724              		.loc 1 48 2 view .LVU185
  48:Core/Src/supercap.c **** }
 725              		.loc 1 48 25 is_stmt 0 view .LVU186
 726 0084 D5ED007A 		vldr.32	s15, [r5]
 727 0088 67EE887A 		vmul.f32	s15, s15, s16
  48:Core/Src/supercap.c **** }
 728              		.loc 1 48 2 view .LVU187
 729 008c FDEEE77A 		vcvt.s32.f32	s15, s15
 730 0090 17EE903A 		vmov	r3, s15	@ int
 731 0094 18B2     		sxth	r0, r3
 732 0096 FFF7FEFF 		bl	Supercap_PWM_left
 733              	.LVL36:
  49:Core/Src/supercap.c **** 
 734              		.loc 1 49 1 view .LVU188
 735 009a BDEC028B 		vldm	sp!, {d8}
 736              	.LCFI3:
 737              		.cfi_restore 80
 738              		.cfi_restore 81
 739              		.cfi_def_cfa_offset 16
 740 009e 70BD     		pop	{r4, r5, r6, pc}
 741              	.L47:
 742              		.align	2
 743              	.L46:
 744 00a0 00000000 		.word	C_sys
 745 00a4 00801345 		.word	1158905856
 746 00a8 00000000 		.word	V_cap
 747 00ac 00000000 		.word	PID_45W_loop
 748 00b0 00000000 		.word	PID_7A_loop
 749 00b4 00000000 		.word	0
 750 00b8 00000000 		.word	PID_24V_loop
 751 00bc 00000000 		.word	temp2
 752 00c0 CDCCCC3D 		.word	1036831949
 753 00c4 00000000 		.word	PID_voltage_loop
 754              		.cfi_endproc
 755              	.LFE335:
 757              		.section	.text.HAL_TIM_PeriodElapsedCallback,"ax",%progbits
 758              		.align	1
 759              		.global	HAL_TIM_PeriodElapsedCallback
 760              		.syntax unified
 761              		.thumb
 762              		.thumb_func
 764              	HAL_TIM_PeriodElapsedCallback:
 765              	.LVL37:
 766              	.LFB332:
  11:Core/Src/supercap.c **** 	if(htim->Instance == TIM5){
 767              		.loc 1 11 61 is_stmt 1 view -0
 768              		.cfi_startproc
 769              		@ args = 0, pretend = 0, frame = 0
 770              		@ frame_needed = 0, uses_anonymous_args = 0
  11:Core/Src/supercap.c **** 	if(htim->Instance == TIM5){
 771              		.loc 1 11 61 is_stmt 0 view .LVU190
 772 0000 10B5     		push	{r4, lr}
 773              	.LCFI4:
 774              		.cfi_def_cfa_offset 8
 775              		.cfi_offset 4, -8
 776              		.cfi_offset 14, -4
ARM GAS  C:\Users\purdu\AppData\Local\Temp\ccxivHjG.s 			page 17


  12:Core/Src/supercap.c **** 		HAL_GPIO_WritePin(GPIOB, GPIO_PIN_15, GPIO_PIN_SET);
 777              		.loc 1 12 2 is_stmt 1 view .LVU191
  12:Core/Src/supercap.c **** 		HAL_GPIO_WritePin(GPIOB, GPIO_PIN_15, GPIO_PIN_SET);
 778              		.loc 1 12 9 is_stmt 0 view .LVU192
 779 0002 0368     		ldr	r3, [r0]
  12:Core/Src/supercap.c **** 		HAL_GPIO_WritePin(GPIOB, GPIO_PIN_15, GPIO_PIN_SET);
 780              		.loc 1 12 4 view .LVU193
 781 0004 134A     		ldr	r2, .L54
 782 0006 9342     		cmp	r3, r2
 783 0008 03D0     		beq	.L52
  17:Core/Src/supercap.c ****     HAL_GPIO_WritePin(GPIOB, GPIO_PIN_15, GPIO_PIN_SET);
 784              		.loc 1 17 8 is_stmt 1 view .LVU194
  17:Core/Src/supercap.c ****     HAL_GPIO_WritePin(GPIOB, GPIO_PIN_15, GPIO_PIN_SET);
 785              		.loc 1 17 10 is_stmt 0 view .LVU195
 786 000a B3F1804F 		cmp	r3, #1073741824
 787 000e 10D0     		beq	.L53
 788              	.LVL38:
 789              	.L48:
  22:Core/Src/supercap.c **** 
 790              		.loc 1 22 1 view .LVU196
 791 0010 10BD     		pop	{r4, pc}
 792              	.LVL39:
 793              	.L52:
  13:Core/Src/supercap.c ****     TIM5_NVIC();
 794              		.loc 1 13 3 is_stmt 1 view .LVU197
 795 0012 114C     		ldr	r4, .L54+4
 796 0014 0122     		movs	r2, #1
 797 0016 4FF40041 		mov	r1, #32768
 798 001a 2046     		mov	r0, r4
 799              	.LVL40:
  13:Core/Src/supercap.c ****     TIM5_NVIC();
 800              		.loc 1 13 3 is_stmt 0 view .LVU198
 801 001c FFF7FEFF 		bl	HAL_GPIO_WritePin
 802              	.LVL41:
  14:Core/Src/supercap.c **** 		HAL_GPIO_WritePin(GPIOB, GPIO_PIN_15, GPIO_PIN_RESET);
 803              		.loc 1 14 5 is_stmt 1 view .LVU199
 804 0020 FFF7FEFF 		bl	TIM5_NVIC
 805              	.LVL42:
  15:Core/Src/supercap.c **** 	}
 806              		.loc 1 15 3 view .LVU200
 807 0024 0022     		movs	r2, #0
 808 0026 4FF40041 		mov	r1, #32768
 809 002a 2046     		mov	r0, r4
 810 002c FFF7FEFF 		bl	HAL_GPIO_WritePin
 811              	.LVL43:
 812 0030 EEE7     		b	.L48
 813              	.LVL44:
 814              	.L53:
  18:Core/Src/supercap.c ****     TIM2_NVIC();
 815              		.loc 1 18 5 view .LVU201
 816 0032 094C     		ldr	r4, .L54+4
 817 0034 0122     		movs	r2, #1
 818 0036 4FF40041 		mov	r1, #32768
 819 003a 2046     		mov	r0, r4
 820              	.LVL45:
  18:Core/Src/supercap.c ****     TIM2_NVIC();
 821              		.loc 1 18 5 is_stmt 0 view .LVU202
ARM GAS  C:\Users\purdu\AppData\Local\Temp\ccxivHjG.s 			page 18


 822 003c FFF7FEFF 		bl	HAL_GPIO_WritePin
 823              	.LVL46:
  19:Core/Src/supercap.c ****     HAL_GPIO_WritePin(GPIOB, GPIO_PIN_15, GPIO_PIN_RESET);
 824              		.loc 1 19 5 is_stmt 1 view .LVU203
 825 0040 FFF7FEFF 		bl	TIM2_NVIC
 826              	.LVL47:
  20:Core/Src/supercap.c ****   }
 827              		.loc 1 20 5 view .LVU204
 828 0044 0022     		movs	r2, #0
 829 0046 4FF40041 		mov	r1, #32768
 830 004a 2046     		mov	r0, r4
 831 004c FFF7FEFF 		bl	HAL_GPIO_WritePin
 832              	.LVL48:
  22:Core/Src/supercap.c **** 
 833              		.loc 1 22 1 is_stmt 0 view .LVU205
 834 0050 DEE7     		b	.L48
 835              	.L55:
 836 0052 00BF     		.align	2
 837              	.L54:
 838 0054 000C0040 		.word	1073744896
 839 0058 00040048 		.word	1207960576
 840              		.cfi_endproc
 841              	.LFE332:
 843              		.section	.text.Supercap_PWM_right,"ax",%progbits
 844              		.align	1
 845              		.global	Supercap_PWM_right
 846              		.syntax unified
 847              		.thumb
 848              		.thumb_func
 850              	Supercap_PWM_right:
 851              	.LVL49:
 852              	.LFB347:
 130:Core/Src/supercap.c **** 
 131:Core/Src/supercap.c **** void Supercap_PWM_right(int16_t pwm_duty_cycle) {
 853              		.loc 1 131 49 is_stmt 1 view -0
 854              		.cfi_startproc
 855              		@ args = 0, pretend = 0, frame = 0
 856              		@ frame_needed = 0, uses_anonymous_args = 0
 857              		@ link register save eliminated.
 132:Core/Src/supercap.c ****   __HAL_TIM_SET_COMPARE(&htim1, TIM_CHANNEL_1, 278);
 858              		.loc 1 132 3 view .LVU207
 859 0000 034B     		ldr	r3, .L57
 860 0002 1B68     		ldr	r3, [r3]
 861 0004 4FF48B72 		mov	r2, #278
 862 0008 5A63     		str	r2, [r3, #52]
 133:Core/Src/supercap.c ****   __HAL_TIM_SET_COMPARE(&htim1, TIM_CHANNEL_4, pwm_duty_cycle);
 863              		.loc 1 133 3 view .LVU208
 864 000a 1864     		str	r0, [r3, #64]
 134:Core/Src/supercap.c **** };...
 865              		.loc 1 134 1 is_stmt 0 view .LVU209
 866 000c 7047     		bx	lr
 867              	.L58:
 868 000e 00BF     		.align	2
 869              	.L57:
 870 0010 00000000 		.word	htim1
 871              		.cfi_endproc
 872              	.LFE347:
ARM GAS  C:\Users\purdu\AppData\Local\Temp\ccxivHjG.s 			page 19


 874              		.text
 875              	.Letext0:
 876              		.file 2 "C:/Program Files (x86)/Arm GNU Toolchain arm-none-eabi/13.2 Rel1/arm-none-eabi/include/ma
 877              		.file 3 "C:/Program Files (x86)/Arm GNU Toolchain arm-none-eabi/13.2 Rel1/arm-none-eabi/include/sy
 878              		.file 4 "Drivers/CMSIS/Device/ST/STM32G4xx/Include/stm32g473xx.h"
 879              		.file 5 "Drivers/STM32G4xx_HAL_Driver/Inc/stm32g4xx_hal_def.h"
 880              		.file 6 "Drivers/STM32G4xx_HAL_Driver/Inc/stm32g4xx_hal_gpio.h"
 881              		.file 7 "Drivers/STM32G4xx_HAL_Driver/Inc/stm32g4xx_hal_dma.h"
 882              		.file 8 "Drivers/STM32G4xx_HAL_Driver/Inc/stm32g4xx_hal_tim.h"
 883              		.file 9 "Core/Inc/supercap.h"
 884              		.file 10 "Core/Inc/tim.h"
ARM GAS  C:\Users\purdu\AppData\Local\Temp\ccxivHjG.s 			page 20

