ARM GAS  C:\Users\purdu\AppData\Local\Temp\ccdVItDm.s 			page 1


   1              		.cpu cortex-m4
   2              		.arch armv7e-m
   3              		.fpu fpv4-sp-d16
   4              		.eabi_attribute 27, 1
   5              		.eabi_attribute 28, 1
   6              		.eabi_attribute 20, 1
   7              		.eabi_attribute 21, 1
   8              		.eabi_attribute 23, 3
   9              		.eabi_attribute 24, 1
  10              		.eabi_attribute 25, 1
  11              		.eabi_attribute 26, 1
  12              		.eabi_attribute 30, 1
  13              		.eabi_attribute 34, 1
  14              		.eabi_attribute 18, 4
  15              		.file	"adc.c"
  16              		.text
  17              	.Ltext0:
  18              		.cfi_sections	.debug_frame
  19              		.file 1 "Core/Src/adc.c"
  20              		.section	.text.MX_ADC1_Init,"ax",%progbits
  21              		.align	1
  22              		.global	MX_ADC1_Init
  23              		.syntax unified
  24              		.thumb
  25              		.thumb_func
  27              	MX_ADC1_Init:
  28              	.LFB329:
   1:Core/Src/adc.c **** /* USER CODE BEGIN Header */
   2:Core/Src/adc.c **** /**
   3:Core/Src/adc.c ****   ******************************************************************************
   4:Core/Src/adc.c ****   * @file    adc.c
   5:Core/Src/adc.c ****   * @brief   This file provides code for the configuration
   6:Core/Src/adc.c ****   *          of the ADC instances.
   7:Core/Src/adc.c ****   ******************************************************************************
   8:Core/Src/adc.c ****   * @attention
   9:Core/Src/adc.c ****   *
  10:Core/Src/adc.c ****   * Copyright (c) 2024 STMicroelectronics.
  11:Core/Src/adc.c ****   * All rights reserved.
  12:Core/Src/adc.c ****   *
  13:Core/Src/adc.c ****   * This software is licensed under terms that can be found in the LICENSE file
  14:Core/Src/adc.c ****   * in the root directory of this software component.
  15:Core/Src/adc.c ****   * If no LICENSE file comes with this software, it is provided AS-IS.
  16:Core/Src/adc.c ****   *
  17:Core/Src/adc.c ****   ******************************************************************************
  18:Core/Src/adc.c ****   */
  19:Core/Src/adc.c **** /* USER CODE END Header */
  20:Core/Src/adc.c **** /* Includes ------------------------------------------------------------------*/
  21:Core/Src/adc.c **** #include "adc.h"
  22:Core/Src/adc.c **** 
  23:Core/Src/adc.c **** /* USER CODE BEGIN 0 */
  24:Core/Src/adc.c **** 
  25:Core/Src/adc.c **** /* USER CODE END 0 */
  26:Core/Src/adc.c **** 
  27:Core/Src/adc.c **** ADC_HandleTypeDef hadc1;
  28:Core/Src/adc.c **** ADC_HandleTypeDef hadc2;
  29:Core/Src/adc.c **** ADC_HandleTypeDef hadc3;
  30:Core/Src/adc.c **** ADC_HandleTypeDef hadc4;
ARM GAS  C:\Users\purdu\AppData\Local\Temp\ccdVItDm.s 			page 2


  31:Core/Src/adc.c **** ADC_HandleTypeDef hadc5;
  32:Core/Src/adc.c **** DMA_HandleTypeDef hdma_adc1;
  33:Core/Src/adc.c **** DMA_HandleTypeDef hdma_adc2;
  34:Core/Src/adc.c **** DMA_HandleTypeDef hdma_adc3;
  35:Core/Src/adc.c **** 
  36:Core/Src/adc.c **** /* ADC1 init function */
  37:Core/Src/adc.c **** void MX_ADC1_Init(void)
  38:Core/Src/adc.c **** {
  29              		.loc 1 38 1 view -0
  30              		.cfi_startproc
  31              		@ args = 0, pretend = 0, frame = 48
  32              		@ frame_needed = 0, uses_anonymous_args = 0
  33 0000 10B5     		push	{r4, lr}
  34              	.LCFI0:
  35              		.cfi_def_cfa_offset 8
  36              		.cfi_offset 4, -8
  37              		.cfi_offset 14, -4
  38 0002 8CB0     		sub	sp, sp, #48
  39              	.LCFI1:
  40              		.cfi_def_cfa_offset 56
  39:Core/Src/adc.c **** 
  40:Core/Src/adc.c ****   /* USER CODE BEGIN ADC1_Init 0 */
  41:Core/Src/adc.c **** 
  42:Core/Src/adc.c ****   /* USER CODE END ADC1_Init 0 */
  43:Core/Src/adc.c **** 
  44:Core/Src/adc.c ****   ADC_MultiModeTypeDef multimode = {0};
  41              		.loc 1 44 3 view .LVU1
  42              		.loc 1 44 24 is_stmt 0 view .LVU2
  43 0004 0024     		movs	r4, #0
  44 0006 0994     		str	r4, [sp, #36]
  45 0008 0A94     		str	r4, [sp, #40]
  46 000a 0B94     		str	r4, [sp, #44]
  45:Core/Src/adc.c ****   ADC_ChannelConfTypeDef sConfig = {0};
  47              		.loc 1 45 3 is_stmt 1 view .LVU3
  48              		.loc 1 45 26 is_stmt 0 view .LVU4
  49 000c 2022     		movs	r2, #32
  50 000e 2146     		mov	r1, r4
  51 0010 01A8     		add	r0, sp, #4
  52 0012 FFF7FEFF 		bl	memset
  53              	.LVL0:
  46:Core/Src/adc.c **** 
  47:Core/Src/adc.c ****   /* USER CODE BEGIN ADC1_Init 1 */
  48:Core/Src/adc.c **** 
  49:Core/Src/adc.c ****   /* USER CODE END ADC1_Init 1 */
  50:Core/Src/adc.c **** 
  51:Core/Src/adc.c ****   /** Common config
  52:Core/Src/adc.c ****   */
  53:Core/Src/adc.c ****   hadc1.Instance = ADC1;
  54              		.loc 1 53 3 is_stmt 1 view .LVU5
  55              		.loc 1 53 18 is_stmt 0 view .LVU6
  56 0016 2648     		ldr	r0, .L11
  57 0018 4FF0A043 		mov	r3, #1342177280
  58 001c 0360     		str	r3, [r0]
  54:Core/Src/adc.c ****   hadc1.Init.ClockPrescaler = ADC_CLOCK_ASYNC_DIV2;
  59              		.loc 1 54 3 is_stmt 1 view .LVU7
  60              		.loc 1 54 29 is_stmt 0 view .LVU8
  61 001e 4FF48023 		mov	r3, #262144
ARM GAS  C:\Users\purdu\AppData\Local\Temp\ccdVItDm.s 			page 3


  62 0022 4360     		str	r3, [r0, #4]
  55:Core/Src/adc.c ****   hadc1.Init.Resolution = ADC_RESOLUTION_12B;
  63              		.loc 1 55 3 is_stmt 1 view .LVU9
  64              		.loc 1 55 25 is_stmt 0 view .LVU10
  65 0024 8460     		str	r4, [r0, #8]
  56:Core/Src/adc.c ****   hadc1.Init.DataAlign = ADC_DATAALIGN_RIGHT;
  66              		.loc 1 56 3 is_stmt 1 view .LVU11
  67              		.loc 1 56 24 is_stmt 0 view .LVU12
  68 0026 C460     		str	r4, [r0, #12]
  57:Core/Src/adc.c ****   hadc1.Init.GainCompensation = 0;
  69              		.loc 1 57 3 is_stmt 1 view .LVU13
  70              		.loc 1 57 31 is_stmt 0 view .LVU14
  71 0028 0461     		str	r4, [r0, #16]
  58:Core/Src/adc.c ****   hadc1.Init.ScanConvMode = ADC_SCAN_ENABLE;
  72              		.loc 1 58 3 is_stmt 1 view .LVU15
  73              		.loc 1 58 27 is_stmt 0 view .LVU16
  74 002a 0123     		movs	r3, #1
  75 002c 4361     		str	r3, [r0, #20]
  59:Core/Src/adc.c ****   hadc1.Init.EOCSelection = ADC_EOC_SINGLE_CONV;
  76              		.loc 1 59 3 is_stmt 1 view .LVU17
  77              		.loc 1 59 27 is_stmt 0 view .LVU18
  78 002e 0422     		movs	r2, #4
  79 0030 8261     		str	r2, [r0, #24]
  60:Core/Src/adc.c ****   hadc1.Init.LowPowerAutoWait = DISABLE;
  80              		.loc 1 60 3 is_stmt 1 view .LVU19
  81              		.loc 1 60 31 is_stmt 0 view .LVU20
  82 0032 0477     		strb	r4, [r0, #28]
  61:Core/Src/adc.c ****   hadc1.Init.ContinuousConvMode = ENABLE;
  83              		.loc 1 61 3 is_stmt 1 view .LVU21
  84              		.loc 1 61 33 is_stmt 0 view .LVU22
  85 0034 4377     		strb	r3, [r0, #29]
  62:Core/Src/adc.c ****   hadc1.Init.NbrOfConversion = 2;
  86              		.loc 1 62 3 is_stmt 1 view .LVU23
  87              		.loc 1 62 30 is_stmt 0 view .LVU24
  88 0036 0222     		movs	r2, #2
  89 0038 0262     		str	r2, [r0, #32]
  63:Core/Src/adc.c ****   hadc1.Init.DiscontinuousConvMode = DISABLE;
  90              		.loc 1 63 3 is_stmt 1 view .LVU25
  91              		.loc 1 63 36 is_stmt 0 view .LVU26
  92 003a 80F82440 		strb	r4, [r0, #36]
  64:Core/Src/adc.c ****   hadc1.Init.ExternalTrigConv = ADC_SOFTWARE_START;
  93              		.loc 1 64 3 is_stmt 1 view .LVU27
  94              		.loc 1 64 31 is_stmt 0 view .LVU28
  95 003e C462     		str	r4, [r0, #44]
  65:Core/Src/adc.c ****   hadc1.Init.ExternalTrigConvEdge = ADC_EXTERNALTRIGCONVEDGE_NONE;
  96              		.loc 1 65 3 is_stmt 1 view .LVU29
  97              		.loc 1 65 35 is_stmt 0 view .LVU30
  98 0040 0463     		str	r4, [r0, #48]
  66:Core/Src/adc.c ****   hadc1.Init.DMAContinuousRequests = ENABLE;
  99              		.loc 1 66 3 is_stmt 1 view .LVU31
 100              		.loc 1 66 36 is_stmt 0 view .LVU32
 101 0042 80F83830 		strb	r3, [r0, #56]
  67:Core/Src/adc.c ****   hadc1.Init.Overrun = ADC_OVR_DATA_PRESERVED;
 102              		.loc 1 67 3 is_stmt 1 view .LVU33
 103              		.loc 1 67 22 is_stmt 0 view .LVU34
 104 0046 C463     		str	r4, [r0, #60]
  68:Core/Src/adc.c ****   hadc1.Init.OversamplingMode = DISABLE;
ARM GAS  C:\Users\purdu\AppData\Local\Temp\ccdVItDm.s 			page 4


 105              		.loc 1 68 3 is_stmt 1 view .LVU35
 106              		.loc 1 68 31 is_stmt 0 view .LVU36
 107 0048 80F84040 		strb	r4, [r0, #64]
  69:Core/Src/adc.c ****   if (HAL_ADC_Init(&hadc1) != HAL_OK)
 108              		.loc 1 69 3 is_stmt 1 view .LVU37
 109              		.loc 1 69 7 is_stmt 0 view .LVU38
 110 004c FFF7FEFF 		bl	HAL_ADC_Init
 111              	.LVL1:
 112              		.loc 1 69 6 view .LVU39
 113 0050 10BB     		cbnz	r0, .L7
 114              	.L2:
  70:Core/Src/adc.c ****   {
  71:Core/Src/adc.c ****     Error_Handler();
  72:Core/Src/adc.c ****   }
  73:Core/Src/adc.c **** 
  74:Core/Src/adc.c ****   /** Configure the ADC multi-mode
  75:Core/Src/adc.c ****   */
  76:Core/Src/adc.c ****   multimode.Mode = ADC_MODE_INDEPENDENT;
 115              		.loc 1 76 3 is_stmt 1 view .LVU40
 116              		.loc 1 76 18 is_stmt 0 view .LVU41
 117 0052 0023     		movs	r3, #0
 118 0054 0993     		str	r3, [sp, #36]
  77:Core/Src/adc.c ****   if (HAL_ADCEx_MultiModeConfigChannel(&hadc1, &multimode) != HAL_OK)
 119              		.loc 1 77 3 is_stmt 1 view .LVU42
 120              		.loc 1 77 7 is_stmt 0 view .LVU43
 121 0056 09A9     		add	r1, sp, #36
 122 0058 1548     		ldr	r0, .L11
 123 005a FFF7FEFF 		bl	HAL_ADCEx_MultiModeConfigChannel
 124              	.LVL2:
 125              		.loc 1 77 6 view .LVU44
 126 005e F0B9     		cbnz	r0, .L8
 127              	.L3:
  78:Core/Src/adc.c ****   {
  79:Core/Src/adc.c ****     Error_Handler();
  80:Core/Src/adc.c ****   }
  81:Core/Src/adc.c **** 
  82:Core/Src/adc.c ****   /** Configure Regular Channel
  83:Core/Src/adc.c ****   */
  84:Core/Src/adc.c ****   sConfig.Channel = ADC_CHANNEL_1;
 128              		.loc 1 84 3 is_stmt 1 view .LVU45
 129              		.loc 1 84 19 is_stmt 0 view .LVU46
 130 0060 144B     		ldr	r3, .L11+4
 131 0062 0193     		str	r3, [sp, #4]
  85:Core/Src/adc.c ****   sConfig.Rank = ADC_REGULAR_RANK_1;
 132              		.loc 1 85 3 is_stmt 1 view .LVU47
 133              		.loc 1 85 16 is_stmt 0 view .LVU48
 134 0064 0623     		movs	r3, #6
 135 0066 0293     		str	r3, [sp, #8]
  86:Core/Src/adc.c ****   sConfig.SamplingTime = ADC_SAMPLETIME_2CYCLES_5;
 136              		.loc 1 86 3 is_stmt 1 view .LVU49
 137              		.loc 1 86 24 is_stmt 0 view .LVU50
 138 0068 0023     		movs	r3, #0
 139 006a 0393     		str	r3, [sp, #12]
  87:Core/Src/adc.c ****   sConfig.SingleDiff = ADC_SINGLE_ENDED;
 140              		.loc 1 87 3 is_stmt 1 view .LVU51
 141              		.loc 1 87 22 is_stmt 0 view .LVU52
 142 006c 7F22     		movs	r2, #127
ARM GAS  C:\Users\purdu\AppData\Local\Temp\ccdVItDm.s 			page 5


 143 006e 0492     		str	r2, [sp, #16]
  88:Core/Src/adc.c ****   sConfig.OffsetNumber = ADC_OFFSET_NONE;
 144              		.loc 1 88 3 is_stmt 1 view .LVU53
 145              		.loc 1 88 24 is_stmt 0 view .LVU54
 146 0070 0422     		movs	r2, #4
 147 0072 0592     		str	r2, [sp, #20]
  89:Core/Src/adc.c ****   sConfig.Offset = 0;
 148              		.loc 1 89 3 is_stmt 1 view .LVU55
 149              		.loc 1 89 18 is_stmt 0 view .LVU56
 150 0074 0693     		str	r3, [sp, #24]
  90:Core/Src/adc.c ****   if (HAL_ADC_ConfigChannel(&hadc1, &sConfig) != HAL_OK)
 151              		.loc 1 90 3 is_stmt 1 view .LVU57
 152              		.loc 1 90 7 is_stmt 0 view .LVU58
 153 0076 0DEB0201 		add	r1, sp, r2
 154 007a 0D48     		ldr	r0, .L11
 155 007c FFF7FEFF 		bl	HAL_ADC_ConfigChannel
 156              	.LVL3:
 157              		.loc 1 90 6 view .LVU59
 158 0080 80B9     		cbnz	r0, .L9
 159              	.L4:
  91:Core/Src/adc.c ****   {
  92:Core/Src/adc.c ****     Error_Handler();
  93:Core/Src/adc.c ****   }
  94:Core/Src/adc.c **** 
  95:Core/Src/adc.c ****   /** Configure Regular Channel
  96:Core/Src/adc.c ****   */
  97:Core/Src/adc.c ****   sConfig.Channel = ADC_CHANNEL_2;
 160              		.loc 1 97 3 is_stmt 1 view .LVU60
 161              		.loc 1 97 19 is_stmt 0 view .LVU61
 162 0082 0D4B     		ldr	r3, .L11+8
 163 0084 0193     		str	r3, [sp, #4]
  98:Core/Src/adc.c ****   sConfig.Rank = ADC_REGULAR_RANK_2;
 164              		.loc 1 98 3 is_stmt 1 view .LVU62
 165              		.loc 1 98 16 is_stmt 0 view .LVU63
 166 0086 0C23     		movs	r3, #12
 167 0088 0293     		str	r3, [sp, #8]
  99:Core/Src/adc.c ****   if (HAL_ADC_ConfigChannel(&hadc1, &sConfig) != HAL_OK)
 168              		.loc 1 99 3 is_stmt 1 view .LVU64
 169              		.loc 1 99 7 is_stmt 0 view .LVU65
 170 008a 01A9     		add	r1, sp, #4
 171 008c 0848     		ldr	r0, .L11
 172 008e FFF7FEFF 		bl	HAL_ADC_ConfigChannel
 173              	.LVL4:
 174              		.loc 1 99 6 view .LVU66
 175 0092 50B9     		cbnz	r0, .L10
 176              	.L1:
 100:Core/Src/adc.c ****   {
 101:Core/Src/adc.c ****     Error_Handler();
 102:Core/Src/adc.c ****   }
 103:Core/Src/adc.c ****   /* USER CODE BEGIN ADC1_Init 2 */
 104:Core/Src/adc.c **** 
 105:Core/Src/adc.c ****   /* USER CODE END ADC1_Init 2 */
 106:Core/Src/adc.c **** 
 107:Core/Src/adc.c **** }
 177              		.loc 1 107 1 view .LVU67
 178 0094 0CB0     		add	sp, sp, #48
 179              	.LCFI2:
ARM GAS  C:\Users\purdu\AppData\Local\Temp\ccdVItDm.s 			page 6


 180              		.cfi_remember_state
 181              		.cfi_def_cfa_offset 8
 182              		@ sp needed
 183 0096 10BD     		pop	{r4, pc}
 184              	.L7:
 185              	.LCFI3:
 186              		.cfi_restore_state
  71:Core/Src/adc.c ****   }
 187              		.loc 1 71 5 is_stmt 1 view .LVU68
 188 0098 FFF7FEFF 		bl	Error_Handler
 189              	.LVL5:
 190 009c D9E7     		b	.L2
 191              	.L8:
  79:Core/Src/adc.c ****   }
 192              		.loc 1 79 5 view .LVU69
 193 009e FFF7FEFF 		bl	Error_Handler
 194              	.LVL6:
 195 00a2 DDE7     		b	.L3
 196              	.L9:
  92:Core/Src/adc.c ****   }
 197              		.loc 1 92 5 view .LVU70
 198 00a4 FFF7FEFF 		bl	Error_Handler
 199              	.LVL7:
 200 00a8 EBE7     		b	.L4
 201              	.L10:
 101:Core/Src/adc.c ****   }
 202              		.loc 1 101 5 view .LVU71
 203 00aa FFF7FEFF 		bl	Error_Handler
 204              	.LVL8:
 205              		.loc 1 107 1 is_stmt 0 view .LVU72
 206 00ae F1E7     		b	.L1
 207              	.L12:
 208              		.align	2
 209              	.L11:
 210 00b0 00000000 		.word	hadc1
 211 00b4 02003004 		.word	70254594
 212 00b8 04006008 		.word	140509188
 213              		.cfi_endproc
 214              	.LFE329:
 216              		.section	.text.MX_ADC2_Init,"ax",%progbits
 217              		.align	1
 218              		.global	MX_ADC2_Init
 219              		.syntax unified
 220              		.thumb
 221              		.thumb_func
 223              	MX_ADC2_Init:
 224              	.LFB330:
 108:Core/Src/adc.c **** /* ADC2 init function */
 109:Core/Src/adc.c **** void MX_ADC2_Init(void)
 110:Core/Src/adc.c **** {
 225              		.loc 1 110 1 is_stmt 1 view -0
 226              		.cfi_startproc
 227              		@ args = 0, pretend = 0, frame = 32
 228              		@ frame_needed = 0, uses_anonymous_args = 0
 229 0000 00B5     		push	{lr}
 230              	.LCFI4:
 231              		.cfi_def_cfa_offset 4
ARM GAS  C:\Users\purdu\AppData\Local\Temp\ccdVItDm.s 			page 7


 232              		.cfi_offset 14, -4
 233 0002 89B0     		sub	sp, sp, #36
 234              	.LCFI5:
 235              		.cfi_def_cfa_offset 40
 111:Core/Src/adc.c **** 
 112:Core/Src/adc.c ****   /* USER CODE BEGIN ADC2_Init 0 */
 113:Core/Src/adc.c **** 
 114:Core/Src/adc.c ****   /* USER CODE END ADC2_Init 0 */
 115:Core/Src/adc.c **** 
 116:Core/Src/adc.c ****   ADC_ChannelConfTypeDef sConfig = {0};
 236              		.loc 1 116 3 view .LVU74
 237              		.loc 1 116 26 is_stmt 0 view .LVU75
 238 0004 2022     		movs	r2, #32
 239 0006 0021     		movs	r1, #0
 240 0008 6846     		mov	r0, sp
 241 000a FFF7FEFF 		bl	memset
 242              	.LVL9:
 117:Core/Src/adc.c **** 
 118:Core/Src/adc.c ****   /* USER CODE BEGIN ADC2_Init 1 */
 119:Core/Src/adc.c **** 
 120:Core/Src/adc.c ****   /* USER CODE END ADC2_Init 1 */
 121:Core/Src/adc.c **** 
 122:Core/Src/adc.c ****   /** Common config
 123:Core/Src/adc.c ****   */
 124:Core/Src/adc.c ****   hadc2.Instance = ADC2;
 243              		.loc 1 124 3 is_stmt 1 view .LVU76
 244              		.loc 1 124 18 is_stmt 0 view .LVU77
 245 000e 2748     		ldr	r0, .L23
 246 0010 274B     		ldr	r3, .L23+4
 247 0012 0360     		str	r3, [r0]
 125:Core/Src/adc.c ****   hadc2.Init.ClockPrescaler = ADC_CLOCK_ASYNC_DIV2;
 248              		.loc 1 125 3 is_stmt 1 view .LVU78
 249              		.loc 1 125 29 is_stmt 0 view .LVU79
 250 0014 4FF48023 		mov	r3, #262144
 251 0018 4360     		str	r3, [r0, #4]
 126:Core/Src/adc.c ****   hadc2.Init.Resolution = ADC_RESOLUTION_12B;
 252              		.loc 1 126 3 is_stmt 1 view .LVU80
 253              		.loc 1 126 25 is_stmt 0 view .LVU81
 254 001a 0023     		movs	r3, #0
 255 001c 8360     		str	r3, [r0, #8]
 127:Core/Src/adc.c ****   hadc2.Init.DataAlign = ADC_DATAALIGN_RIGHT;
 256              		.loc 1 127 3 is_stmt 1 view .LVU82
 257              		.loc 1 127 24 is_stmt 0 view .LVU83
 258 001e C360     		str	r3, [r0, #12]
 128:Core/Src/adc.c ****   hadc2.Init.GainCompensation = 0;
 259              		.loc 1 128 3 is_stmt 1 view .LVU84
 260              		.loc 1 128 31 is_stmt 0 view .LVU85
 261 0020 0361     		str	r3, [r0, #16]
 129:Core/Src/adc.c ****   hadc2.Init.ScanConvMode = ADC_SCAN_ENABLE;
 262              		.loc 1 129 3 is_stmt 1 view .LVU86
 263              		.loc 1 129 27 is_stmt 0 view .LVU87
 264 0022 0122     		movs	r2, #1
 265 0024 4261     		str	r2, [r0, #20]
 130:Core/Src/adc.c ****   hadc2.Init.EOCSelection = ADC_EOC_SINGLE_CONV;
 266              		.loc 1 130 3 is_stmt 1 view .LVU88
 267              		.loc 1 130 27 is_stmt 0 view .LVU89
 268 0026 0421     		movs	r1, #4
ARM GAS  C:\Users\purdu\AppData\Local\Temp\ccdVItDm.s 			page 8


 269 0028 8161     		str	r1, [r0, #24]
 131:Core/Src/adc.c ****   hadc2.Init.LowPowerAutoWait = DISABLE;
 270              		.loc 1 131 3 is_stmt 1 view .LVU90
 271              		.loc 1 131 31 is_stmt 0 view .LVU91
 272 002a 0377     		strb	r3, [r0, #28]
 132:Core/Src/adc.c ****   hadc2.Init.ContinuousConvMode = ENABLE;
 273              		.loc 1 132 3 is_stmt 1 view .LVU92
 274              		.loc 1 132 33 is_stmt 0 view .LVU93
 275 002c 4277     		strb	r2, [r0, #29]
 133:Core/Src/adc.c ****   hadc2.Init.NbrOfConversion = 3;
 276              		.loc 1 133 3 is_stmt 1 view .LVU94
 277              		.loc 1 133 30 is_stmt 0 view .LVU95
 278 002e 0321     		movs	r1, #3
 279 0030 0162     		str	r1, [r0, #32]
 134:Core/Src/adc.c ****   hadc2.Init.DiscontinuousConvMode = DISABLE;
 280              		.loc 1 134 3 is_stmt 1 view .LVU96
 281              		.loc 1 134 36 is_stmt 0 view .LVU97
 282 0032 80F82430 		strb	r3, [r0, #36]
 135:Core/Src/adc.c ****   hadc2.Init.ExternalTrigConv = ADC_SOFTWARE_START;
 283              		.loc 1 135 3 is_stmt 1 view .LVU98
 284              		.loc 1 135 31 is_stmt 0 view .LVU99
 285 0036 C362     		str	r3, [r0, #44]
 136:Core/Src/adc.c ****   hadc2.Init.ExternalTrigConvEdge = ADC_EXTERNALTRIGCONVEDGE_NONE;
 286              		.loc 1 136 3 is_stmt 1 view .LVU100
 287              		.loc 1 136 35 is_stmt 0 view .LVU101
 288 0038 0363     		str	r3, [r0, #48]
 137:Core/Src/adc.c ****   hadc2.Init.DMAContinuousRequests = ENABLE;
 289              		.loc 1 137 3 is_stmt 1 view .LVU102
 290              		.loc 1 137 36 is_stmt 0 view .LVU103
 291 003a 80F83820 		strb	r2, [r0, #56]
 138:Core/Src/adc.c ****   hadc2.Init.Overrun = ADC_OVR_DATA_PRESERVED;
 292              		.loc 1 138 3 is_stmt 1 view .LVU104
 293              		.loc 1 138 22 is_stmt 0 view .LVU105
 294 003e C363     		str	r3, [r0, #60]
 139:Core/Src/adc.c ****   hadc2.Init.OversamplingMode = DISABLE;
 295              		.loc 1 139 3 is_stmt 1 view .LVU106
 296              		.loc 1 139 31 is_stmt 0 view .LVU107
 297 0040 80F84030 		strb	r3, [r0, #64]
 140:Core/Src/adc.c ****   if (HAL_ADC_Init(&hadc2) != HAL_OK)
 298              		.loc 1 140 3 is_stmt 1 view .LVU108
 299              		.loc 1 140 7 is_stmt 0 view .LVU109
 300 0044 FFF7FEFF 		bl	HAL_ADC_Init
 301              	.LVL10:
 302              		.loc 1 140 6 view .LVU110
 303 0048 20BB     		cbnz	r0, .L19
 304              	.L14:
 141:Core/Src/adc.c ****   {
 142:Core/Src/adc.c ****     Error_Handler();
 143:Core/Src/adc.c ****   }
 144:Core/Src/adc.c **** 
 145:Core/Src/adc.c ****   /** Configure Regular Channel
 146:Core/Src/adc.c ****   */
 147:Core/Src/adc.c ****   sConfig.Channel = ADC_CHANNEL_11;
 305              		.loc 1 147 3 is_stmt 1 view .LVU111
 306              		.loc 1 147 19 is_stmt 0 view .LVU112
 307 004a 1A4B     		ldr	r3, .L23+8
 308 004c 0093     		str	r3, [sp]
ARM GAS  C:\Users\purdu\AppData\Local\Temp\ccdVItDm.s 			page 9


 148:Core/Src/adc.c ****   sConfig.Rank = ADC_REGULAR_RANK_1;
 309              		.loc 1 148 3 is_stmt 1 view .LVU113
 310              		.loc 1 148 16 is_stmt 0 view .LVU114
 311 004e 0623     		movs	r3, #6
 312 0050 0193     		str	r3, [sp, #4]
 149:Core/Src/adc.c ****   sConfig.SamplingTime = ADC_SAMPLETIME_2CYCLES_5;
 313              		.loc 1 149 3 is_stmt 1 view .LVU115
 314              		.loc 1 149 24 is_stmt 0 view .LVU116
 315 0052 0023     		movs	r3, #0
 316 0054 0293     		str	r3, [sp, #8]
 150:Core/Src/adc.c ****   sConfig.SingleDiff = ADC_SINGLE_ENDED;
 317              		.loc 1 150 3 is_stmt 1 view .LVU117
 318              		.loc 1 150 22 is_stmt 0 view .LVU118
 319 0056 7F22     		movs	r2, #127
 320 0058 0392     		str	r2, [sp, #12]
 151:Core/Src/adc.c ****   sConfig.OffsetNumber = ADC_OFFSET_NONE;
 321              		.loc 1 151 3 is_stmt 1 view .LVU119
 322              		.loc 1 151 24 is_stmt 0 view .LVU120
 323 005a 0422     		movs	r2, #4
 324 005c 0492     		str	r2, [sp, #16]
 152:Core/Src/adc.c ****   sConfig.Offset = 0;
 325              		.loc 1 152 3 is_stmt 1 view .LVU121
 326              		.loc 1 152 18 is_stmt 0 view .LVU122
 327 005e 0593     		str	r3, [sp, #20]
 153:Core/Src/adc.c ****   if (HAL_ADC_ConfigChannel(&hadc2, &sConfig) != HAL_OK)
 328              		.loc 1 153 3 is_stmt 1 view .LVU123
 329              		.loc 1 153 7 is_stmt 0 view .LVU124
 330 0060 6946     		mov	r1, sp
 331 0062 1248     		ldr	r0, .L23
 332 0064 FFF7FEFF 		bl	HAL_ADC_ConfigChannel
 333              	.LVL11:
 334              		.loc 1 153 6 view .LVU125
 335 0068 B8B9     		cbnz	r0, .L20
 336              	.L15:
 154:Core/Src/adc.c ****   {
 155:Core/Src/adc.c ****     Error_Handler();
 156:Core/Src/adc.c ****   }
 157:Core/Src/adc.c **** 
 158:Core/Src/adc.c ****   /** Configure Regular Channel
 159:Core/Src/adc.c ****   */
 160:Core/Src/adc.c ****   sConfig.Channel = ADC_CHANNEL_13;
 337              		.loc 1 160 3 is_stmt 1 view .LVU126
 338              		.loc 1 160 19 is_stmt 0 view .LVU127
 339 006a 134B     		ldr	r3, .L23+12
 340 006c 0093     		str	r3, [sp]
 161:Core/Src/adc.c ****   sConfig.Rank = ADC_REGULAR_RANK_2;
 341              		.loc 1 161 3 is_stmt 1 view .LVU128
 342              		.loc 1 161 16 is_stmt 0 view .LVU129
 343 006e 0C23     		movs	r3, #12
 344 0070 0193     		str	r3, [sp, #4]
 162:Core/Src/adc.c ****   if (HAL_ADC_ConfigChannel(&hadc2, &sConfig) != HAL_OK)
 345              		.loc 1 162 3 is_stmt 1 view .LVU130
 346              		.loc 1 162 7 is_stmt 0 view .LVU131
 347 0072 6946     		mov	r1, sp
 348 0074 0D48     		ldr	r0, .L23
 349 0076 FFF7FEFF 		bl	HAL_ADC_ConfigChannel
 350              	.LVL12:
ARM GAS  C:\Users\purdu\AppData\Local\Temp\ccdVItDm.s 			page 10


 351              		.loc 1 162 6 view .LVU132
 352 007a 88B9     		cbnz	r0, .L21
 353              	.L16:
 163:Core/Src/adc.c ****   {
 164:Core/Src/adc.c ****     Error_Handler();
 165:Core/Src/adc.c ****   }
 166:Core/Src/adc.c **** 
 167:Core/Src/adc.c ****   /** Configure Regular Channel
 168:Core/Src/adc.c ****   */
 169:Core/Src/adc.c ****   sConfig.Channel = ADC_CHANNEL_12;
 354              		.loc 1 169 3 is_stmt 1 view .LVU133
 355              		.loc 1 169 19 is_stmt 0 view .LVU134
 356 007c 0F4B     		ldr	r3, .L23+16
 357 007e 0093     		str	r3, [sp]
 170:Core/Src/adc.c ****   sConfig.Rank = ADC_REGULAR_RANK_3;
 358              		.loc 1 170 3 is_stmt 1 view .LVU135
 359              		.loc 1 170 16 is_stmt 0 view .LVU136
 360 0080 1223     		movs	r3, #18
 361 0082 0193     		str	r3, [sp, #4]
 171:Core/Src/adc.c ****   if (HAL_ADC_ConfigChannel(&hadc2, &sConfig) != HAL_OK)
 362              		.loc 1 171 3 is_stmt 1 view .LVU137
 363              		.loc 1 171 7 is_stmt 0 view .LVU138
 364 0084 6946     		mov	r1, sp
 365 0086 0948     		ldr	r0, .L23
 366 0088 FFF7FEFF 		bl	HAL_ADC_ConfigChannel
 367              	.LVL13:
 368              		.loc 1 171 6 view .LVU139
 369 008c 58B9     		cbnz	r0, .L22
 370              	.L13:
 172:Core/Src/adc.c ****   {
 173:Core/Src/adc.c ****     Error_Handler();
 174:Core/Src/adc.c ****   }
 175:Core/Src/adc.c ****   /* USER CODE BEGIN ADC2_Init 2 */
 176:Core/Src/adc.c **** 
 177:Core/Src/adc.c ****   /* USER CODE END ADC2_Init 2 */
 178:Core/Src/adc.c **** 
 179:Core/Src/adc.c **** }
 371              		.loc 1 179 1 view .LVU140
 372 008e 09B0     		add	sp, sp, #36
 373              	.LCFI6:
 374              		.cfi_remember_state
 375              		.cfi_def_cfa_offset 4
 376              		@ sp needed
 377 0090 5DF804FB 		ldr	pc, [sp], #4
 378              	.L19:
 379              	.LCFI7:
 380              		.cfi_restore_state
 142:Core/Src/adc.c ****   }
 381              		.loc 1 142 5 is_stmt 1 view .LVU141
 382 0094 FFF7FEFF 		bl	Error_Handler
 383              	.LVL14:
 384 0098 D7E7     		b	.L14
 385              	.L20:
 155:Core/Src/adc.c ****   }
 386              		.loc 1 155 5 view .LVU142
 387 009a FFF7FEFF 		bl	Error_Handler
 388              	.LVL15:
ARM GAS  C:\Users\purdu\AppData\Local\Temp\ccdVItDm.s 			page 11


 389 009e E4E7     		b	.L15
 390              	.L21:
 164:Core/Src/adc.c ****   }
 391              		.loc 1 164 5 view .LVU143
 392 00a0 FFF7FEFF 		bl	Error_Handler
 393              	.LVL16:
 394 00a4 EAE7     		b	.L16
 395              	.L22:
 173:Core/Src/adc.c ****   }
 396              		.loc 1 173 5 view .LVU144
 397 00a6 FFF7FEFF 		bl	Error_Handler
 398              	.LVL17:
 399              		.loc 1 179 1 is_stmt 0 view .LVU145
 400 00aa F0E7     		b	.L13
 401              	.L24:
 402              		.align	2
 403              	.L23:
 404 00ac 00000000 		.word	hadc2
 405 00b0 00010050 		.word	1342177536
 406 00b4 0008302E 		.word	774899712
 407 00b8 00209036 		.word	915415040
 408 00bc 00106032 		.word	845156352
 409              		.cfi_endproc
 410              	.LFE330:
 412              		.section	.text.MX_ADC3_Init,"ax",%progbits
 413              		.align	1
 414              		.global	MX_ADC3_Init
 415              		.syntax unified
 416              		.thumb
 417              		.thumb_func
 419              	MX_ADC3_Init:
 420              	.LFB331:
 180:Core/Src/adc.c **** /* ADC3 init function */
 181:Core/Src/adc.c **** void MX_ADC3_Init(void)
 182:Core/Src/adc.c **** {
 421              		.loc 1 182 1 is_stmt 1 view -0
 422              		.cfi_startproc
 423              		@ args = 0, pretend = 0, frame = 48
 424              		@ frame_needed = 0, uses_anonymous_args = 0
 425 0000 10B5     		push	{r4, lr}
 426              	.LCFI8:
 427              		.cfi_def_cfa_offset 8
 428              		.cfi_offset 4, -8
 429              		.cfi_offset 14, -4
 430 0002 8CB0     		sub	sp, sp, #48
 431              	.LCFI9:
 432              		.cfi_def_cfa_offset 56
 183:Core/Src/adc.c **** 
 184:Core/Src/adc.c ****   /* USER CODE BEGIN ADC3_Init 0 */
 185:Core/Src/adc.c **** 
 186:Core/Src/adc.c ****   /* USER CODE END ADC3_Init 0 */
 187:Core/Src/adc.c **** 
 188:Core/Src/adc.c ****   ADC_MultiModeTypeDef multimode = {0};
 433              		.loc 1 188 3 view .LVU147
 434              		.loc 1 188 24 is_stmt 0 view .LVU148
 435 0004 0024     		movs	r4, #0
 436 0006 0994     		str	r4, [sp, #36]
ARM GAS  C:\Users\purdu\AppData\Local\Temp\ccdVItDm.s 			page 12


 437 0008 0A94     		str	r4, [sp, #40]
 438 000a 0B94     		str	r4, [sp, #44]
 189:Core/Src/adc.c ****   ADC_ChannelConfTypeDef sConfig = {0};
 439              		.loc 1 189 3 is_stmt 1 view .LVU149
 440              		.loc 1 189 26 is_stmt 0 view .LVU150
 441 000c 2022     		movs	r2, #32
 442 000e 2146     		mov	r1, r4
 443 0010 01A8     		add	r0, sp, #4
 444 0012 FFF7FEFF 		bl	memset
 445              	.LVL18:
 190:Core/Src/adc.c **** 
 191:Core/Src/adc.c ****   /* USER CODE BEGIN ADC3_Init 1 */
 192:Core/Src/adc.c **** 
 193:Core/Src/adc.c ****   /* USER CODE END ADC3_Init 1 */
 194:Core/Src/adc.c **** 
 195:Core/Src/adc.c ****   /** Common config
 196:Core/Src/adc.c ****   */
 197:Core/Src/adc.c ****   hadc3.Instance = ADC3;
 446              		.loc 1 197 3 is_stmt 1 view .LVU151
 447              		.loc 1 197 18 is_stmt 0 view .LVU152
 448 0016 2C48     		ldr	r0, .L37
 449 0018 2C4B     		ldr	r3, .L37+4
 450 001a 0360     		str	r3, [r0]
 198:Core/Src/adc.c ****   hadc3.Init.ClockPrescaler = ADC_CLOCK_SYNC_PCLK_DIV2;
 451              		.loc 1 198 3 is_stmt 1 view .LVU153
 452              		.loc 1 198 29 is_stmt 0 view .LVU154
 453 001c 4FF40033 		mov	r3, #131072
 454 0020 4360     		str	r3, [r0, #4]
 199:Core/Src/adc.c ****   hadc3.Init.Resolution = ADC_RESOLUTION_12B;
 455              		.loc 1 199 3 is_stmt 1 view .LVU155
 456              		.loc 1 199 25 is_stmt 0 view .LVU156
 457 0022 8460     		str	r4, [r0, #8]
 200:Core/Src/adc.c ****   hadc3.Init.DataAlign = ADC_DATAALIGN_RIGHT;
 458              		.loc 1 200 3 is_stmt 1 view .LVU157
 459              		.loc 1 200 24 is_stmt 0 view .LVU158
 460 0024 C460     		str	r4, [r0, #12]
 201:Core/Src/adc.c ****   hadc3.Init.GainCompensation = 0;
 461              		.loc 1 201 3 is_stmt 1 view .LVU159
 462              		.loc 1 201 31 is_stmt 0 view .LVU160
 463 0026 0461     		str	r4, [r0, #16]
 202:Core/Src/adc.c ****   hadc3.Init.ScanConvMode = ADC_SCAN_ENABLE;
 464              		.loc 1 202 3 is_stmt 1 view .LVU161
 465              		.loc 1 202 27 is_stmt 0 view .LVU162
 466 0028 0123     		movs	r3, #1
 467 002a 4361     		str	r3, [r0, #20]
 203:Core/Src/adc.c ****   hadc3.Init.EOCSelection = ADC_EOC_SINGLE_CONV;
 468              		.loc 1 203 3 is_stmt 1 view .LVU163
 469              		.loc 1 203 27 is_stmt 0 view .LVU164
 470 002c 0422     		movs	r2, #4
 471 002e 8261     		str	r2, [r0, #24]
 204:Core/Src/adc.c ****   hadc3.Init.LowPowerAutoWait = DISABLE;
 472              		.loc 1 204 3 is_stmt 1 view .LVU165
 473              		.loc 1 204 31 is_stmt 0 view .LVU166
 474 0030 0477     		strb	r4, [r0, #28]
 205:Core/Src/adc.c ****   hadc3.Init.ContinuousConvMode = ENABLE;
 475              		.loc 1 205 3 is_stmt 1 view .LVU167
 476              		.loc 1 205 33 is_stmt 0 view .LVU168
ARM GAS  C:\Users\purdu\AppData\Local\Temp\ccdVItDm.s 			page 13


 477 0032 4377     		strb	r3, [r0, #29]
 206:Core/Src/adc.c ****   hadc3.Init.NbrOfConversion = 3;
 478              		.loc 1 206 3 is_stmt 1 view .LVU169
 479              		.loc 1 206 30 is_stmt 0 view .LVU170
 480 0034 0322     		movs	r2, #3
 481 0036 0262     		str	r2, [r0, #32]
 207:Core/Src/adc.c ****   hadc3.Init.DiscontinuousConvMode = DISABLE;
 482              		.loc 1 207 3 is_stmt 1 view .LVU171
 483              		.loc 1 207 36 is_stmt 0 view .LVU172
 484 0038 80F82440 		strb	r4, [r0, #36]
 208:Core/Src/adc.c ****   hadc3.Init.ExternalTrigConv = ADC_SOFTWARE_START;
 485              		.loc 1 208 3 is_stmt 1 view .LVU173
 486              		.loc 1 208 31 is_stmt 0 view .LVU174
 487 003c C462     		str	r4, [r0, #44]
 209:Core/Src/adc.c ****   hadc3.Init.ExternalTrigConvEdge = ADC_EXTERNALTRIGCONVEDGE_NONE;
 488              		.loc 1 209 3 is_stmt 1 view .LVU175
 489              		.loc 1 209 35 is_stmt 0 view .LVU176
 490 003e 0463     		str	r4, [r0, #48]
 210:Core/Src/adc.c ****   hadc3.Init.DMAContinuousRequests = ENABLE;
 491              		.loc 1 210 3 is_stmt 1 view .LVU177
 492              		.loc 1 210 36 is_stmt 0 view .LVU178
 493 0040 80F83830 		strb	r3, [r0, #56]
 211:Core/Src/adc.c ****   hadc3.Init.Overrun = ADC_OVR_DATA_PRESERVED;
 494              		.loc 1 211 3 is_stmt 1 view .LVU179
 495              		.loc 1 211 22 is_stmt 0 view .LVU180
 496 0044 C463     		str	r4, [r0, #60]
 212:Core/Src/adc.c ****   hadc3.Init.OversamplingMode = DISABLE;
 497              		.loc 1 212 3 is_stmt 1 view .LVU181
 498              		.loc 1 212 31 is_stmt 0 view .LVU182
 499 0046 80F84040 		strb	r4, [r0, #64]
 213:Core/Src/adc.c ****   if (HAL_ADC_Init(&hadc3) != HAL_OK)
 500              		.loc 1 213 3 is_stmt 1 view .LVU183
 501              		.loc 1 213 7 is_stmt 0 view .LVU184
 502 004a FFF7FEFF 		bl	HAL_ADC_Init
 503              	.LVL19:
 504              		.loc 1 213 6 view .LVU185
 505 004e 0028     		cmp	r0, #0
 506 0050 2BD1     		bne	.L32
 507              	.L26:
 214:Core/Src/adc.c ****   {
 215:Core/Src/adc.c ****     Error_Handler();
 216:Core/Src/adc.c ****   }
 217:Core/Src/adc.c **** 
 218:Core/Src/adc.c ****   /** Configure the ADC multi-mode
 219:Core/Src/adc.c ****   */
 220:Core/Src/adc.c ****   multimode.Mode = ADC_MODE_INDEPENDENT;
 508              		.loc 1 220 3 is_stmt 1 view .LVU186
 509              		.loc 1 220 18 is_stmt 0 view .LVU187
 510 0052 0023     		movs	r3, #0
 511 0054 0993     		str	r3, [sp, #36]
 221:Core/Src/adc.c ****   if (HAL_ADCEx_MultiModeConfigChannel(&hadc3, &multimode) != HAL_OK)
 512              		.loc 1 221 3 is_stmt 1 view .LVU188
 513              		.loc 1 221 7 is_stmt 0 view .LVU189
 514 0056 09A9     		add	r1, sp, #36
 515 0058 1B48     		ldr	r0, .L37
 516 005a FFF7FEFF 		bl	HAL_ADCEx_MultiModeConfigChannel
 517              	.LVL20:
ARM GAS  C:\Users\purdu\AppData\Local\Temp\ccdVItDm.s 			page 14


 518              		.loc 1 221 6 view .LVU190
 519 005e 38BB     		cbnz	r0, .L33
 520              	.L27:
 222:Core/Src/adc.c ****   {
 223:Core/Src/adc.c ****     Error_Handler();
 224:Core/Src/adc.c ****   }
 225:Core/Src/adc.c **** 
 226:Core/Src/adc.c ****   /** Configure Regular Channel
 227:Core/Src/adc.c ****   */
 228:Core/Src/adc.c ****   sConfig.Channel = ADC_CHANNEL_4;
 521              		.loc 1 228 3 is_stmt 1 view .LVU191
 522              		.loc 1 228 19 is_stmt 0 view .LVU192
 523 0060 1B4B     		ldr	r3, .L37+8
 524 0062 0193     		str	r3, [sp, #4]
 229:Core/Src/adc.c ****   sConfig.Rank = ADC_REGULAR_RANK_1;
 525              		.loc 1 229 3 is_stmt 1 view .LVU193
 526              		.loc 1 229 16 is_stmt 0 view .LVU194
 527 0064 0623     		movs	r3, #6
 528 0066 0293     		str	r3, [sp, #8]
 230:Core/Src/adc.c ****   sConfig.SamplingTime = ADC_SAMPLETIME_2CYCLES_5;
 529              		.loc 1 230 3 is_stmt 1 view .LVU195
 530              		.loc 1 230 24 is_stmt 0 view .LVU196
 531 0068 0023     		movs	r3, #0
 532 006a 0393     		str	r3, [sp, #12]
 231:Core/Src/adc.c ****   sConfig.SingleDiff = ADC_SINGLE_ENDED;
 533              		.loc 1 231 3 is_stmt 1 view .LVU197
 534              		.loc 1 231 22 is_stmt 0 view .LVU198
 535 006c 7F22     		movs	r2, #127
 536 006e 0492     		str	r2, [sp, #16]
 232:Core/Src/adc.c ****   sConfig.OffsetNumber = ADC_OFFSET_NONE;
 537              		.loc 1 232 3 is_stmt 1 view .LVU199
 538              		.loc 1 232 24 is_stmt 0 view .LVU200
 539 0070 0422     		movs	r2, #4
 540 0072 0592     		str	r2, [sp, #20]
 233:Core/Src/adc.c ****   sConfig.Offset = 0;
 541              		.loc 1 233 3 is_stmt 1 view .LVU201
 542              		.loc 1 233 18 is_stmt 0 view .LVU202
 543 0074 0693     		str	r3, [sp, #24]
 234:Core/Src/adc.c ****   if (HAL_ADC_ConfigChannel(&hadc3, &sConfig) != HAL_OK)
 544              		.loc 1 234 3 is_stmt 1 view .LVU203
 545              		.loc 1 234 7 is_stmt 0 view .LVU204
 546 0076 0DEB0201 		add	r1, sp, r2
 547 007a 1348     		ldr	r0, .L37
 548 007c FFF7FEFF 		bl	HAL_ADC_ConfigChannel
 549              	.LVL21:
 550              		.loc 1 234 6 view .LVU205
 551 0080 C8B9     		cbnz	r0, .L34
 552              	.L28:
 235:Core/Src/adc.c ****   {
 236:Core/Src/adc.c ****     Error_Handler();
 237:Core/Src/adc.c ****   }
 238:Core/Src/adc.c **** 
 239:Core/Src/adc.c ****   /** Configure Regular Channel
 240:Core/Src/adc.c ****   */
 241:Core/Src/adc.c ****   sConfig.Channel = ADC_CHANNEL_6;
 553              		.loc 1 241 3 is_stmt 1 view .LVU206
 554              		.loc 1 241 19 is_stmt 0 view .LVU207
ARM GAS  C:\Users\purdu\AppData\Local\Temp\ccdVItDm.s 			page 15


 555 0082 144B     		ldr	r3, .L37+12
 556 0084 0193     		str	r3, [sp, #4]
 242:Core/Src/adc.c ****   sConfig.Rank = ADC_REGULAR_RANK_2;
 557              		.loc 1 242 3 is_stmt 1 view .LVU208
 558              		.loc 1 242 16 is_stmt 0 view .LVU209
 559 0086 0C23     		movs	r3, #12
 560 0088 0293     		str	r3, [sp, #8]
 243:Core/Src/adc.c ****   if (HAL_ADC_ConfigChannel(&hadc3, &sConfig) != HAL_OK)
 561              		.loc 1 243 3 is_stmt 1 view .LVU210
 562              		.loc 1 243 7 is_stmt 0 view .LVU211
 563 008a 01A9     		add	r1, sp, #4
 564 008c 0E48     		ldr	r0, .L37
 565 008e FFF7FEFF 		bl	HAL_ADC_ConfigChannel
 566              	.LVL22:
 567              		.loc 1 243 6 view .LVU212
 568 0092 98B9     		cbnz	r0, .L35
 569              	.L29:
 244:Core/Src/adc.c ****   {
 245:Core/Src/adc.c ****     Error_Handler();
 246:Core/Src/adc.c ****   }
 247:Core/Src/adc.c **** 
 248:Core/Src/adc.c ****   /** Configure Regular Channel
 249:Core/Src/adc.c ****   */
 250:Core/Src/adc.c ****   sConfig.Channel = ADC_CHANNEL_2;
 570              		.loc 1 250 3 is_stmt 1 view .LVU213
 571              		.loc 1 250 19 is_stmt 0 view .LVU214
 572 0094 104B     		ldr	r3, .L37+16
 573 0096 0193     		str	r3, [sp, #4]
 251:Core/Src/adc.c ****   sConfig.Rank = ADC_REGULAR_RANK_3;
 574              		.loc 1 251 3 is_stmt 1 view .LVU215
 575              		.loc 1 251 16 is_stmt 0 view .LVU216
 576 0098 1223     		movs	r3, #18
 577 009a 0293     		str	r3, [sp, #8]
 252:Core/Src/adc.c ****   if (HAL_ADC_ConfigChannel(&hadc3, &sConfig) != HAL_OK)
 578              		.loc 1 252 3 is_stmt 1 view .LVU217
 579              		.loc 1 252 7 is_stmt 0 view .LVU218
 580 009c 01A9     		add	r1, sp, #4
 581 009e 0A48     		ldr	r0, .L37
 582 00a0 FFF7FEFF 		bl	HAL_ADC_ConfigChannel
 583              	.LVL23:
 584              		.loc 1 252 6 view .LVU219
 585 00a4 68B9     		cbnz	r0, .L36
 586              	.L25:
 253:Core/Src/adc.c ****   {
 254:Core/Src/adc.c ****     Error_Handler();
 255:Core/Src/adc.c ****   }
 256:Core/Src/adc.c ****   /* USER CODE BEGIN ADC3_Init 2 */
 257:Core/Src/adc.c **** 
 258:Core/Src/adc.c ****   /* USER CODE END ADC3_Init 2 */
 259:Core/Src/adc.c **** 
 260:Core/Src/adc.c **** }
 587              		.loc 1 260 1 view .LVU220
 588 00a6 0CB0     		add	sp, sp, #48
 589              	.LCFI10:
 590              		.cfi_remember_state
 591              		.cfi_def_cfa_offset 8
 592              		@ sp needed
ARM GAS  C:\Users\purdu\AppData\Local\Temp\ccdVItDm.s 			page 16


 593 00a8 10BD     		pop	{r4, pc}
 594              	.L32:
 595              	.LCFI11:
 596              		.cfi_restore_state
 215:Core/Src/adc.c ****   }
 597              		.loc 1 215 5 is_stmt 1 view .LVU221
 598 00aa FFF7FEFF 		bl	Error_Handler
 599              	.LVL24:
 600 00ae D0E7     		b	.L26
 601              	.L33:
 223:Core/Src/adc.c ****   }
 602              		.loc 1 223 5 view .LVU222
 603 00b0 FFF7FEFF 		bl	Error_Handler
 604              	.LVL25:
 605 00b4 D4E7     		b	.L27
 606              	.L34:
 236:Core/Src/adc.c ****   }
 607              		.loc 1 236 5 view .LVU223
 608 00b6 FFF7FEFF 		bl	Error_Handler
 609              	.LVL26:
 610 00ba E2E7     		b	.L28
 611              	.L35:
 245:Core/Src/adc.c ****   }
 612              		.loc 1 245 5 view .LVU224
 613 00bc FFF7FEFF 		bl	Error_Handler
 614              	.LVL27:
 615 00c0 E8E7     		b	.L29
 616              	.L36:
 254:Core/Src/adc.c ****   }
 617              		.loc 1 254 5 view .LVU225
 618 00c2 FFF7FEFF 		bl	Error_Handler
 619              	.LVL28:
 620              		.loc 1 260 1 is_stmt 0 view .LVU226
 621 00c6 EEE7     		b	.L25
 622              	.L38:
 623              		.align	2
 624              	.L37:
 625 00c8 00000000 		.word	hadc3
 626 00cc 00040050 		.word	1342178304
 627 00d0 1000C010 		.word	281018384
 628 00d4 40002019 		.word	421527616
 629 00d8 04006008 		.word	140509188
 630              		.cfi_endproc
 631              	.LFE331:
 633              		.section	.text.MX_ADC4_Init,"ax",%progbits
 634              		.align	1
 635              		.global	MX_ADC4_Init
 636              		.syntax unified
 637              		.thumb
 638              		.thumb_func
 640              	MX_ADC4_Init:
 641              	.LFB332:
 261:Core/Src/adc.c **** /* ADC4 init function */
 262:Core/Src/adc.c **** void MX_ADC4_Init(void)
 263:Core/Src/adc.c **** {
 642              		.loc 1 263 1 is_stmt 1 view -0
 643              		.cfi_startproc
ARM GAS  C:\Users\purdu\AppData\Local\Temp\ccdVItDm.s 			page 17


 644              		@ args = 0, pretend = 0, frame = 32
 645              		@ frame_needed = 0, uses_anonymous_args = 0
 646 0000 00B5     		push	{lr}
 647              	.LCFI12:
 648              		.cfi_def_cfa_offset 4
 649              		.cfi_offset 14, -4
 650 0002 89B0     		sub	sp, sp, #36
 651              	.LCFI13:
 652              		.cfi_def_cfa_offset 40
 264:Core/Src/adc.c **** 
 265:Core/Src/adc.c ****   /* USER CODE BEGIN ADC4_Init 0 */
 266:Core/Src/adc.c **** 
 267:Core/Src/adc.c ****   /* USER CODE END ADC4_Init 0 */
 268:Core/Src/adc.c **** 
 269:Core/Src/adc.c ****   ADC_ChannelConfTypeDef sConfig = {0};
 653              		.loc 1 269 3 view .LVU228
 654              		.loc 1 269 26 is_stmt 0 view .LVU229
 655 0004 2022     		movs	r2, #32
 656 0006 0021     		movs	r1, #0
 657 0008 6846     		mov	r0, sp
 658 000a FFF7FEFF 		bl	memset
 659              	.LVL29:
 270:Core/Src/adc.c **** 
 271:Core/Src/adc.c ****   /* USER CODE BEGIN ADC4_Init 1 */
 272:Core/Src/adc.c **** 
 273:Core/Src/adc.c ****   /* USER CODE END ADC4_Init 1 */
 274:Core/Src/adc.c **** 
 275:Core/Src/adc.c ****   /** Common config
 276:Core/Src/adc.c ****   */
 277:Core/Src/adc.c ****   hadc4.Instance = ADC4;
 660              		.loc 1 277 3 is_stmt 1 view .LVU230
 661              		.loc 1 277 18 is_stmt 0 view .LVU231
 662 000e 1B48     		ldr	r0, .L45
 663 0010 1B4B     		ldr	r3, .L45+4
 664 0012 0360     		str	r3, [r0]
 278:Core/Src/adc.c ****   hadc4.Init.ClockPrescaler = ADC_CLOCK_SYNC_PCLK_DIV2;
 665              		.loc 1 278 3 is_stmt 1 view .LVU232
 666              		.loc 1 278 29 is_stmt 0 view .LVU233
 667 0014 4FF40033 		mov	r3, #131072
 668 0018 4360     		str	r3, [r0, #4]
 279:Core/Src/adc.c ****   hadc4.Init.Resolution = ADC_RESOLUTION_12B;
 669              		.loc 1 279 3 is_stmt 1 view .LVU234
 670              		.loc 1 279 25 is_stmt 0 view .LVU235
 671 001a 0023     		movs	r3, #0
 672 001c 8360     		str	r3, [r0, #8]
 280:Core/Src/adc.c ****   hadc4.Init.DataAlign = ADC_DATAALIGN_RIGHT;
 673              		.loc 1 280 3 is_stmt 1 view .LVU236
 674              		.loc 1 280 24 is_stmt 0 view .LVU237
 675 001e C360     		str	r3, [r0, #12]
 281:Core/Src/adc.c ****   hadc4.Init.GainCompensation = 0;
 676              		.loc 1 281 3 is_stmt 1 view .LVU238
 677              		.loc 1 281 31 is_stmt 0 view .LVU239
 678 0020 0361     		str	r3, [r0, #16]
 282:Core/Src/adc.c ****   hadc4.Init.ScanConvMode = ADC_SCAN_DISABLE;
 679              		.loc 1 282 3 is_stmt 1 view .LVU240
 680              		.loc 1 282 27 is_stmt 0 view .LVU241
 681 0022 4361     		str	r3, [r0, #20]
ARM GAS  C:\Users\purdu\AppData\Local\Temp\ccdVItDm.s 			page 18


 283:Core/Src/adc.c ****   hadc4.Init.EOCSelection = ADC_EOC_SINGLE_CONV;
 682              		.loc 1 283 3 is_stmt 1 view .LVU242
 683              		.loc 1 283 27 is_stmt 0 view .LVU243
 684 0024 0422     		movs	r2, #4
 685 0026 8261     		str	r2, [r0, #24]
 284:Core/Src/adc.c ****   hadc4.Init.LowPowerAutoWait = DISABLE;
 686              		.loc 1 284 3 is_stmt 1 view .LVU244
 687              		.loc 1 284 31 is_stmt 0 view .LVU245
 688 0028 0377     		strb	r3, [r0, #28]
 285:Core/Src/adc.c ****   hadc4.Init.ContinuousConvMode = DISABLE;
 689              		.loc 1 285 3 is_stmt 1 view .LVU246
 690              		.loc 1 285 33 is_stmt 0 view .LVU247
 691 002a 4377     		strb	r3, [r0, #29]
 286:Core/Src/adc.c ****   hadc4.Init.NbrOfConversion = 1;
 692              		.loc 1 286 3 is_stmt 1 view .LVU248
 693              		.loc 1 286 30 is_stmt 0 view .LVU249
 694 002c 0122     		movs	r2, #1
 695 002e 0262     		str	r2, [r0, #32]
 287:Core/Src/adc.c ****   hadc4.Init.DiscontinuousConvMode = DISABLE;
 696              		.loc 1 287 3 is_stmt 1 view .LVU250
 697              		.loc 1 287 36 is_stmt 0 view .LVU251
 698 0030 80F82430 		strb	r3, [r0, #36]
 288:Core/Src/adc.c ****   hadc4.Init.ExternalTrigConv = ADC_SOFTWARE_START;
 699              		.loc 1 288 3 is_stmt 1 view .LVU252
 700              		.loc 1 288 31 is_stmt 0 view .LVU253
 701 0034 C362     		str	r3, [r0, #44]
 289:Core/Src/adc.c ****   hadc4.Init.ExternalTrigConvEdge = ADC_EXTERNALTRIGCONVEDGE_NONE;
 702              		.loc 1 289 3 is_stmt 1 view .LVU254
 703              		.loc 1 289 35 is_stmt 0 view .LVU255
 704 0036 0363     		str	r3, [r0, #48]
 290:Core/Src/adc.c ****   hadc4.Init.DMAContinuousRequests = DISABLE;
 705              		.loc 1 290 3 is_stmt 1 view .LVU256
 706              		.loc 1 290 36 is_stmt 0 view .LVU257
 707 0038 80F83830 		strb	r3, [r0, #56]
 291:Core/Src/adc.c ****   hadc4.Init.Overrun = ADC_OVR_DATA_PRESERVED;
 708              		.loc 1 291 3 is_stmt 1 view .LVU258
 709              		.loc 1 291 22 is_stmt 0 view .LVU259
 710 003c C363     		str	r3, [r0, #60]
 292:Core/Src/adc.c ****   hadc4.Init.OversamplingMode = DISABLE;
 711              		.loc 1 292 3 is_stmt 1 view .LVU260
 712              		.loc 1 292 31 is_stmt 0 view .LVU261
 713 003e 80F84030 		strb	r3, [r0, #64]
 293:Core/Src/adc.c ****   if (HAL_ADC_Init(&hadc4) != HAL_OK)
 714              		.loc 1 293 3 is_stmt 1 view .LVU262
 715              		.loc 1 293 7 is_stmt 0 view .LVU263
 716 0042 FFF7FEFF 		bl	HAL_ADC_Init
 717              	.LVL30:
 718              		.loc 1 293 6 view .LVU264
 719 0046 90B9     		cbnz	r0, .L43
 720              	.L40:
 294:Core/Src/adc.c ****   {
 295:Core/Src/adc.c ****     Error_Handler();
 296:Core/Src/adc.c ****   }
 297:Core/Src/adc.c **** 
 298:Core/Src/adc.c ****   /** Configure Regular Channel
 299:Core/Src/adc.c ****   */
 300:Core/Src/adc.c ****   sConfig.Channel = ADC_CHANNEL_12;
ARM GAS  C:\Users\purdu\AppData\Local\Temp\ccdVItDm.s 			page 19


 721              		.loc 1 300 3 is_stmt 1 view .LVU265
 722              		.loc 1 300 19 is_stmt 0 view .LVU266
 723 0048 0E4B     		ldr	r3, .L45+8
 724 004a 0093     		str	r3, [sp]
 301:Core/Src/adc.c ****   sConfig.Rank = ADC_REGULAR_RANK_1;
 725              		.loc 1 301 3 is_stmt 1 view .LVU267
 726              		.loc 1 301 16 is_stmt 0 view .LVU268
 727 004c 0623     		movs	r3, #6
 728 004e 0193     		str	r3, [sp, #4]
 302:Core/Src/adc.c ****   sConfig.SamplingTime = ADC_SAMPLETIME_2CYCLES_5;
 729              		.loc 1 302 3 is_stmt 1 view .LVU269
 730              		.loc 1 302 24 is_stmt 0 view .LVU270
 731 0050 0023     		movs	r3, #0
 732 0052 0293     		str	r3, [sp, #8]
 303:Core/Src/adc.c ****   sConfig.SingleDiff = ADC_SINGLE_ENDED;
 733              		.loc 1 303 3 is_stmt 1 view .LVU271
 734              		.loc 1 303 22 is_stmt 0 view .LVU272
 735 0054 7F22     		movs	r2, #127
 736 0056 0392     		str	r2, [sp, #12]
 304:Core/Src/adc.c ****   sConfig.OffsetNumber = ADC_OFFSET_NONE;
 737              		.loc 1 304 3 is_stmt 1 view .LVU273
 738              		.loc 1 304 24 is_stmt 0 view .LVU274
 739 0058 0422     		movs	r2, #4
 740 005a 0492     		str	r2, [sp, #16]
 305:Core/Src/adc.c ****   sConfig.Offset = 0;
 741              		.loc 1 305 3 is_stmt 1 view .LVU275
 742              		.loc 1 305 18 is_stmt 0 view .LVU276
 743 005c 0593     		str	r3, [sp, #20]
 306:Core/Src/adc.c ****   if (HAL_ADC_ConfigChannel(&hadc4, &sConfig) != HAL_OK)
 744              		.loc 1 306 3 is_stmt 1 view .LVU277
 745              		.loc 1 306 7 is_stmt 0 view .LVU278
 746 005e 6946     		mov	r1, sp
 747 0060 0648     		ldr	r0, .L45
 748 0062 FFF7FEFF 		bl	HAL_ADC_ConfigChannel
 749              	.LVL31:
 750              		.loc 1 306 6 view .LVU279
 751 0066 28B9     		cbnz	r0, .L44
 752              	.L39:
 307:Core/Src/adc.c ****   {
 308:Core/Src/adc.c ****     Error_Handler();
 309:Core/Src/adc.c ****   }
 310:Core/Src/adc.c ****   /* USER CODE BEGIN ADC4_Init 2 */
 311:Core/Src/adc.c **** 
 312:Core/Src/adc.c ****   /* USER CODE END ADC4_Init 2 */
 313:Core/Src/adc.c **** 
 314:Core/Src/adc.c **** }
 753              		.loc 1 314 1 view .LVU280
 754 0068 09B0     		add	sp, sp, #36
 755              	.LCFI14:
 756              		.cfi_remember_state
 757              		.cfi_def_cfa_offset 4
 758              		@ sp needed
 759 006a 5DF804FB 		ldr	pc, [sp], #4
 760              	.L43:
 761              	.LCFI15:
 762              		.cfi_restore_state
 295:Core/Src/adc.c ****   }
ARM GAS  C:\Users\purdu\AppData\Local\Temp\ccdVItDm.s 			page 20


 763              		.loc 1 295 5 is_stmt 1 view .LVU281
 764 006e FFF7FEFF 		bl	Error_Handler
 765              	.LVL32:
 766 0072 E9E7     		b	.L40
 767              	.L44:
 308:Core/Src/adc.c ****   }
 768              		.loc 1 308 5 view .LVU282
 769 0074 FFF7FEFF 		bl	Error_Handler
 770              	.LVL33:
 771              		.loc 1 314 1 is_stmt 0 view .LVU283
 772 0078 F6E7     		b	.L39
 773              	.L46:
 774 007a 00BF     		.align	2
 775              	.L45:
 776 007c 00000000 		.word	hadc4
 777 0080 00050050 		.word	1342178560
 778 0084 00106032 		.word	845156352
 779              		.cfi_endproc
 780              	.LFE332:
 782              		.section	.text.MX_ADC5_Init,"ax",%progbits
 783              		.align	1
 784              		.global	MX_ADC5_Init
 785              		.syntax unified
 786              		.thumb
 787              		.thumb_func
 789              	MX_ADC5_Init:
 790              	.LFB333:
 315:Core/Src/adc.c **** /* ADC5 init function */
 316:Core/Src/adc.c **** void MX_ADC5_Init(void)
 317:Core/Src/adc.c **** {
 791              		.loc 1 317 1 is_stmt 1 view -0
 792              		.cfi_startproc
 793              		@ args = 0, pretend = 0, frame = 32
 794              		@ frame_needed = 0, uses_anonymous_args = 0
 795 0000 00B5     		push	{lr}
 796              	.LCFI16:
 797              		.cfi_def_cfa_offset 4
 798              		.cfi_offset 14, -4
 799 0002 89B0     		sub	sp, sp, #36
 800              	.LCFI17:
 801              		.cfi_def_cfa_offset 40
 318:Core/Src/adc.c **** 
 319:Core/Src/adc.c ****   /* USER CODE BEGIN ADC5_Init 0 */
 320:Core/Src/adc.c **** 
 321:Core/Src/adc.c ****   /* USER CODE END ADC5_Init 0 */
 322:Core/Src/adc.c **** 
 323:Core/Src/adc.c ****   ADC_ChannelConfTypeDef sConfig = {0};
 802              		.loc 1 323 3 view .LVU285
 803              		.loc 1 323 26 is_stmt 0 view .LVU286
 804 0004 2022     		movs	r2, #32
 805 0006 0021     		movs	r1, #0
 806 0008 6846     		mov	r0, sp
 807 000a FFF7FEFF 		bl	memset
 808              	.LVL34:
 324:Core/Src/adc.c **** 
 325:Core/Src/adc.c ****   /* USER CODE BEGIN ADC5_Init 1 */
 326:Core/Src/adc.c **** 
ARM GAS  C:\Users\purdu\AppData\Local\Temp\ccdVItDm.s 			page 21


 327:Core/Src/adc.c ****   /* USER CODE END ADC5_Init 1 */
 328:Core/Src/adc.c **** 
 329:Core/Src/adc.c ****   /** Common config
 330:Core/Src/adc.c ****   */
 331:Core/Src/adc.c ****   hadc5.Instance = ADC5;
 809              		.loc 1 331 3 is_stmt 1 view .LVU287
 810              		.loc 1 331 18 is_stmt 0 view .LVU288
 811 000e 1B48     		ldr	r0, .L53
 812 0010 1B4B     		ldr	r3, .L53+4
 813 0012 0360     		str	r3, [r0]
 332:Core/Src/adc.c ****   hadc5.Init.ClockPrescaler = ADC_CLOCK_SYNC_PCLK_DIV2;
 814              		.loc 1 332 3 is_stmt 1 view .LVU289
 815              		.loc 1 332 29 is_stmt 0 view .LVU290
 816 0014 4FF40033 		mov	r3, #131072
 817 0018 4360     		str	r3, [r0, #4]
 333:Core/Src/adc.c ****   hadc5.Init.Resolution = ADC_RESOLUTION_12B;
 818              		.loc 1 333 3 is_stmt 1 view .LVU291
 819              		.loc 1 333 25 is_stmt 0 view .LVU292
 820 001a 0023     		movs	r3, #0
 821 001c 8360     		str	r3, [r0, #8]
 334:Core/Src/adc.c ****   hadc5.Init.DataAlign = ADC_DATAALIGN_RIGHT;
 822              		.loc 1 334 3 is_stmt 1 view .LVU293
 823              		.loc 1 334 24 is_stmt 0 view .LVU294
 824 001e C360     		str	r3, [r0, #12]
 335:Core/Src/adc.c ****   hadc5.Init.GainCompensation = 0;
 825              		.loc 1 335 3 is_stmt 1 view .LVU295
 826              		.loc 1 335 31 is_stmt 0 view .LVU296
 827 0020 0361     		str	r3, [r0, #16]
 336:Core/Src/adc.c ****   hadc5.Init.ScanConvMode = ADC_SCAN_DISABLE;
 828              		.loc 1 336 3 is_stmt 1 view .LVU297
 829              		.loc 1 336 27 is_stmt 0 view .LVU298
 830 0022 4361     		str	r3, [r0, #20]
 337:Core/Src/adc.c ****   hadc5.Init.EOCSelection = ADC_EOC_SINGLE_CONV;
 831              		.loc 1 337 3 is_stmt 1 view .LVU299
 832              		.loc 1 337 27 is_stmt 0 view .LVU300
 833 0024 0422     		movs	r2, #4
 834 0026 8261     		str	r2, [r0, #24]
 338:Core/Src/adc.c ****   hadc5.Init.LowPowerAutoWait = DISABLE;
 835              		.loc 1 338 3 is_stmt 1 view .LVU301
 836              		.loc 1 338 31 is_stmt 0 view .LVU302
 837 0028 0377     		strb	r3, [r0, #28]
 339:Core/Src/adc.c ****   hadc5.Init.ContinuousConvMode = DISABLE;
 838              		.loc 1 339 3 is_stmt 1 view .LVU303
 839              		.loc 1 339 33 is_stmt 0 view .LVU304
 840 002a 4377     		strb	r3, [r0, #29]
 340:Core/Src/adc.c ****   hadc5.Init.NbrOfConversion = 1;
 841              		.loc 1 340 3 is_stmt 1 view .LVU305
 842              		.loc 1 340 30 is_stmt 0 view .LVU306
 843 002c 0122     		movs	r2, #1
 844 002e 0262     		str	r2, [r0, #32]
 341:Core/Src/adc.c ****   hadc5.Init.DiscontinuousConvMode = DISABLE;
 845              		.loc 1 341 3 is_stmt 1 view .LVU307
 846              		.loc 1 341 36 is_stmt 0 view .LVU308
 847 0030 80F82430 		strb	r3, [r0, #36]
 342:Core/Src/adc.c ****   hadc5.Init.ExternalTrigConv = ADC_SOFTWARE_START;
 848              		.loc 1 342 3 is_stmt 1 view .LVU309
 849              		.loc 1 342 31 is_stmt 0 view .LVU310
ARM GAS  C:\Users\purdu\AppData\Local\Temp\ccdVItDm.s 			page 22


 850 0034 C362     		str	r3, [r0, #44]
 343:Core/Src/adc.c ****   hadc5.Init.ExternalTrigConvEdge = ADC_EXTERNALTRIGCONVEDGE_NONE;
 851              		.loc 1 343 3 is_stmt 1 view .LVU311
 852              		.loc 1 343 35 is_stmt 0 view .LVU312
 853 0036 0363     		str	r3, [r0, #48]
 344:Core/Src/adc.c ****   hadc5.Init.DMAContinuousRequests = DISABLE;
 854              		.loc 1 344 3 is_stmt 1 view .LVU313
 855              		.loc 1 344 36 is_stmt 0 view .LVU314
 856 0038 80F83830 		strb	r3, [r0, #56]
 345:Core/Src/adc.c ****   hadc5.Init.Overrun = ADC_OVR_DATA_PRESERVED;
 857              		.loc 1 345 3 is_stmt 1 view .LVU315
 858              		.loc 1 345 22 is_stmt 0 view .LVU316
 859 003c C363     		str	r3, [r0, #60]
 346:Core/Src/adc.c ****   hadc5.Init.OversamplingMode = DISABLE;
 860              		.loc 1 346 3 is_stmt 1 view .LVU317
 861              		.loc 1 346 31 is_stmt 0 view .LVU318
 862 003e 80F84030 		strb	r3, [r0, #64]
 347:Core/Src/adc.c ****   if (HAL_ADC_Init(&hadc5) != HAL_OK)
 863              		.loc 1 347 3 is_stmt 1 view .LVU319
 864              		.loc 1 347 7 is_stmt 0 view .LVU320
 865 0042 FFF7FEFF 		bl	HAL_ADC_Init
 866              	.LVL35:
 867              		.loc 1 347 6 view .LVU321
 868 0046 90B9     		cbnz	r0, .L51
 869              	.L48:
 348:Core/Src/adc.c ****   {
 349:Core/Src/adc.c ****     Error_Handler();
 350:Core/Src/adc.c ****   }
 351:Core/Src/adc.c **** 
 352:Core/Src/adc.c ****   /** Configure Regular Channel
 353:Core/Src/adc.c ****   */
 354:Core/Src/adc.c ****   sConfig.Channel = ADC_CHANNEL_1;
 870              		.loc 1 354 3 is_stmt 1 view .LVU322
 871              		.loc 1 354 19 is_stmt 0 view .LVU323
 872 0048 0E4B     		ldr	r3, .L53+8
 873 004a 0093     		str	r3, [sp]
 355:Core/Src/adc.c ****   sConfig.Rank = ADC_REGULAR_RANK_1;
 874              		.loc 1 355 3 is_stmt 1 view .LVU324
 875              		.loc 1 355 16 is_stmt 0 view .LVU325
 876 004c 0623     		movs	r3, #6
 877 004e 0193     		str	r3, [sp, #4]
 356:Core/Src/adc.c ****   sConfig.SamplingTime = ADC_SAMPLETIME_2CYCLES_5;
 878              		.loc 1 356 3 is_stmt 1 view .LVU326
 879              		.loc 1 356 24 is_stmt 0 view .LVU327
 880 0050 0023     		movs	r3, #0
 881 0052 0293     		str	r3, [sp, #8]
 357:Core/Src/adc.c ****   sConfig.SingleDiff = ADC_SINGLE_ENDED;
 882              		.loc 1 357 3 is_stmt 1 view .LVU328
 883              		.loc 1 357 22 is_stmt 0 view .LVU329
 884 0054 7F22     		movs	r2, #127
 885 0056 0392     		str	r2, [sp, #12]
 358:Core/Src/adc.c ****   sConfig.OffsetNumber = ADC_OFFSET_NONE;
 886              		.loc 1 358 3 is_stmt 1 view .LVU330
 887              		.loc 1 358 24 is_stmt 0 view .LVU331
 888 0058 0422     		movs	r2, #4
 889 005a 0492     		str	r2, [sp, #16]
 359:Core/Src/adc.c ****   sConfig.Offset = 0;
ARM GAS  C:\Users\purdu\AppData\Local\Temp\ccdVItDm.s 			page 23


 890              		.loc 1 359 3 is_stmt 1 view .LVU332
 891              		.loc 1 359 18 is_stmt 0 view .LVU333
 892 005c 0593     		str	r3, [sp, #20]
 360:Core/Src/adc.c ****   if (HAL_ADC_ConfigChannel(&hadc5, &sConfig) != HAL_OK)
 893              		.loc 1 360 3 is_stmt 1 view .LVU334
 894              		.loc 1 360 7 is_stmt 0 view .LVU335
 895 005e 6946     		mov	r1, sp
 896 0060 0648     		ldr	r0, .L53
 897 0062 FFF7FEFF 		bl	HAL_ADC_ConfigChannel
 898              	.LVL36:
 899              		.loc 1 360 6 view .LVU336
 900 0066 28B9     		cbnz	r0, .L52
 901              	.L47:
 361:Core/Src/adc.c ****   {
 362:Core/Src/adc.c ****     Error_Handler();
 363:Core/Src/adc.c ****   }
 364:Core/Src/adc.c ****   /* USER CODE BEGIN ADC5_Init 2 */
 365:Core/Src/adc.c **** 
 366:Core/Src/adc.c ****   /* USER CODE END ADC5_Init 2 */
 367:Core/Src/adc.c **** 
 368:Core/Src/adc.c **** }
 902              		.loc 1 368 1 view .LVU337
 903 0068 09B0     		add	sp, sp, #36
 904              	.LCFI18:
 905              		.cfi_remember_state
 906              		.cfi_def_cfa_offset 4
 907              		@ sp needed
 908 006a 5DF804FB 		ldr	pc, [sp], #4
 909              	.L51:
 910              	.LCFI19:
 911              		.cfi_restore_state
 349:Core/Src/adc.c ****   }
 912              		.loc 1 349 5 is_stmt 1 view .LVU338
 913 006e FFF7FEFF 		bl	Error_Handler
 914              	.LVL37:
 915 0072 E9E7     		b	.L48
 916              	.L52:
 362:Core/Src/adc.c ****   }
 917              		.loc 1 362 5 view .LVU339
 918 0074 FFF7FEFF 		bl	Error_Handler
 919              	.LVL38:
 920              		.loc 1 368 1 is_stmt 0 view .LVU340
 921 0078 F6E7     		b	.L47
 922              	.L54:
 923 007a 00BF     		.align	2
 924              	.L53:
 925 007c 00000000 		.word	hadc5
 926 0080 00060050 		.word	1342178816
 927 0084 02003004 		.word	70254594
 928              		.cfi_endproc
 929              	.LFE333:
 931              		.section	.text.HAL_ADC_MspInit,"ax",%progbits
 932              		.align	1
 933              		.global	HAL_ADC_MspInit
 934              		.syntax unified
 935              		.thumb
 936              		.thumb_func
ARM GAS  C:\Users\purdu\AppData\Local\Temp\ccdVItDm.s 			page 24


 938              	HAL_ADC_MspInit:
 939              	.LVL39:
 940              	.LFB334:
 369:Core/Src/adc.c **** 
 370:Core/Src/adc.c **** static uint32_t HAL_RCC_ADC12_CLK_ENABLED=0;
 371:Core/Src/adc.c **** static uint32_t HAL_RCC_ADC345_CLK_ENABLED=0;
 372:Core/Src/adc.c **** 
 373:Core/Src/adc.c **** void HAL_ADC_MspInit(ADC_HandleTypeDef* adcHandle)
 374:Core/Src/adc.c **** {
 941              		.loc 1 374 1 is_stmt 1 view -0
 942              		.cfi_startproc
 943              		@ args = 0, pretend = 0, frame = 160
 944              		@ frame_needed = 0, uses_anonymous_args = 0
 945              		.loc 1 374 1 is_stmt 0 view .LVU342
 946 0000 F0B5     		push	{r4, r5, r6, r7, lr}
 947              	.LCFI20:
 948              		.cfi_def_cfa_offset 20
 949              		.cfi_offset 4, -20
 950              		.cfi_offset 5, -16
 951              		.cfi_offset 6, -12
 952              		.cfi_offset 7, -8
 953              		.cfi_offset 14, -4
 954 0002 A9B0     		sub	sp, sp, #164
 955              	.LCFI21:
 956              		.cfi_def_cfa_offset 184
 957 0004 0446     		mov	r4, r0
 375:Core/Src/adc.c **** 
 376:Core/Src/adc.c ****   GPIO_InitTypeDef GPIO_InitStruct = {0};
 958              		.loc 1 376 3 is_stmt 1 view .LVU343
 959              		.loc 1 376 20 is_stmt 0 view .LVU344
 960 0006 0021     		movs	r1, #0
 961 0008 2391     		str	r1, [sp, #140]
 962 000a 2491     		str	r1, [sp, #144]
 963 000c 2591     		str	r1, [sp, #148]
 964 000e 2691     		str	r1, [sp, #152]
 965 0010 2791     		str	r1, [sp, #156]
 377:Core/Src/adc.c ****   RCC_PeriphCLKInitTypeDef PeriphClkInit = {0};
 966              		.loc 1 377 3 is_stmt 1 view .LVU345
 967              		.loc 1 377 28 is_stmt 0 view .LVU346
 968 0012 5422     		movs	r2, #84
 969 0014 0EA8     		add	r0, sp, #56
 970              	.LVL40:
 971              		.loc 1 377 28 view .LVU347
 972 0016 FFF7FEFF 		bl	memset
 973              	.LVL41:
 378:Core/Src/adc.c ****   if(adcHandle->Instance==ADC1)
 974              		.loc 1 378 3 is_stmt 1 view .LVU348
 975              		.loc 1 378 15 is_stmt 0 view .LVU349
 976 001a 2368     		ldr	r3, [r4]
 977              		.loc 1 378 5 view .LVU350
 978 001c B3F1A04F 		cmp	r3, #1342177280
 979 0020 10D0     		beq	.L75
 379:Core/Src/adc.c ****   {
 380:Core/Src/adc.c ****   /* USER CODE BEGIN ADC1_MspInit 0 */
 381:Core/Src/adc.c **** 
 382:Core/Src/adc.c ****   /* USER CODE END ADC1_MspInit 0 */
 383:Core/Src/adc.c **** 
ARM GAS  C:\Users\purdu\AppData\Local\Temp\ccdVItDm.s 			page 25


 384:Core/Src/adc.c ****   /** Initializes the peripherals clocks
 385:Core/Src/adc.c ****   */
 386:Core/Src/adc.c ****     PeriphClkInit.PeriphClockSelection = RCC_PERIPHCLK_ADC12;
 387:Core/Src/adc.c ****     PeriphClkInit.Adc12ClockSelection = RCC_ADC12CLKSOURCE_SYSCLK;
 388:Core/Src/adc.c ****     if (HAL_RCCEx_PeriphCLKConfig(&PeriphClkInit) != HAL_OK)
 389:Core/Src/adc.c ****     {
 390:Core/Src/adc.c ****       Error_Handler();
 391:Core/Src/adc.c ****     }
 392:Core/Src/adc.c **** 
 393:Core/Src/adc.c ****     /* ADC1 clock enable */
 394:Core/Src/adc.c ****     HAL_RCC_ADC12_CLK_ENABLED++;
 395:Core/Src/adc.c ****     if(HAL_RCC_ADC12_CLK_ENABLED==1){
 396:Core/Src/adc.c ****       __HAL_RCC_ADC12_CLK_ENABLE();
 397:Core/Src/adc.c ****     }
 398:Core/Src/adc.c **** 
 399:Core/Src/adc.c ****     __HAL_RCC_GPIOA_CLK_ENABLE();
 400:Core/Src/adc.c ****     /**ADC1 GPIO Configuration
 401:Core/Src/adc.c ****     PA0     ------> ADC1_IN1
 402:Core/Src/adc.c ****     PA1     ------> ADC1_IN2
 403:Core/Src/adc.c ****     */
 404:Core/Src/adc.c ****     GPIO_InitStruct.Pin = GPIO_PIN_0|GPIO_PIN_1;
 405:Core/Src/adc.c ****     GPIO_InitStruct.Mode = GPIO_MODE_ANALOG;
 406:Core/Src/adc.c ****     GPIO_InitStruct.Pull = GPIO_NOPULL;
 407:Core/Src/adc.c ****     HAL_GPIO_Init(GPIOA, &GPIO_InitStruct);
 408:Core/Src/adc.c **** 
 409:Core/Src/adc.c ****     /* ADC1 DMA Init */
 410:Core/Src/adc.c ****     /* ADC1 Init */
 411:Core/Src/adc.c ****     hdma_adc1.Instance = DMA2_Channel1;
 412:Core/Src/adc.c ****     hdma_adc1.Init.Request = DMA_REQUEST_ADC1;
 413:Core/Src/adc.c ****     hdma_adc1.Init.Direction = DMA_PERIPH_TO_MEMORY;
 414:Core/Src/adc.c ****     hdma_adc1.Init.PeriphInc = DMA_PINC_DISABLE;
 415:Core/Src/adc.c ****     hdma_adc1.Init.MemInc = DMA_MINC_ENABLE;
 416:Core/Src/adc.c ****     hdma_adc1.Init.PeriphDataAlignment = DMA_PDATAALIGN_HALFWORD;
 417:Core/Src/adc.c ****     hdma_adc1.Init.MemDataAlignment = DMA_MDATAALIGN_HALFWORD;
 418:Core/Src/adc.c ****     hdma_adc1.Init.Mode = DMA_CIRCULAR;
 419:Core/Src/adc.c ****     hdma_adc1.Init.Priority = DMA_PRIORITY_LOW;
 420:Core/Src/adc.c ****     if (HAL_DMA_Init(&hdma_adc1) != HAL_OK)
 421:Core/Src/adc.c ****     {
 422:Core/Src/adc.c ****       Error_Handler();
 423:Core/Src/adc.c ****     }
 424:Core/Src/adc.c **** 
 425:Core/Src/adc.c ****     __HAL_LINKDMA(adcHandle,DMA_Handle,hdma_adc1);
 426:Core/Src/adc.c **** 
 427:Core/Src/adc.c ****   /* USER CODE BEGIN ADC1_MspInit 1 */
 428:Core/Src/adc.c **** 
 429:Core/Src/adc.c ****   /* USER CODE END ADC1_MspInit 1 */
 430:Core/Src/adc.c ****   }
 431:Core/Src/adc.c ****   else if(adcHandle->Instance==ADC2)
 980              		.loc 1 431 8 is_stmt 1 view .LVU351
 981              		.loc 1 431 10 is_stmt 0 view .LVU352
 982 0022 904A     		ldr	r2, .L93
 983 0024 9342     		cmp	r3, r2
 984 0026 5CD0     		beq	.L76
 432:Core/Src/adc.c ****   {
 433:Core/Src/adc.c ****   /* USER CODE BEGIN ADC2_MspInit 0 */
 434:Core/Src/adc.c **** 
 435:Core/Src/adc.c ****   /* USER CODE END ADC2_MspInit 0 */
ARM GAS  C:\Users\purdu\AppData\Local\Temp\ccdVItDm.s 			page 26


 436:Core/Src/adc.c **** 
 437:Core/Src/adc.c ****   /** Initializes the peripherals clocks
 438:Core/Src/adc.c ****   */
 439:Core/Src/adc.c ****     PeriphClkInit.PeriphClockSelection = RCC_PERIPHCLK_ADC12;
 440:Core/Src/adc.c ****     PeriphClkInit.Adc12ClockSelection = RCC_ADC12CLKSOURCE_SYSCLK;
 441:Core/Src/adc.c ****     if (HAL_RCCEx_PeriphCLKConfig(&PeriphClkInit) != HAL_OK)
 442:Core/Src/adc.c ****     {
 443:Core/Src/adc.c ****       Error_Handler();
 444:Core/Src/adc.c ****     }
 445:Core/Src/adc.c **** 
 446:Core/Src/adc.c ****     /* ADC2 clock enable */
 447:Core/Src/adc.c ****     HAL_RCC_ADC12_CLK_ENABLED++;
 448:Core/Src/adc.c ****     if(HAL_RCC_ADC12_CLK_ENABLED==1){
 449:Core/Src/adc.c ****       __HAL_RCC_ADC12_CLK_ENABLE();
 450:Core/Src/adc.c ****     }
 451:Core/Src/adc.c **** 
 452:Core/Src/adc.c ****     __HAL_RCC_GPIOA_CLK_ENABLE();
 453:Core/Src/adc.c ****     __HAL_RCC_GPIOC_CLK_ENABLE();
 454:Core/Src/adc.c ****     __HAL_RCC_GPIOB_CLK_ENABLE();
 455:Core/Src/adc.c ****     /**ADC2 GPIO Configuration
 456:Core/Src/adc.c ****     PA5     ------> ADC2_IN13
 457:Core/Src/adc.c ****     PC5     ------> ADC2_IN11
 458:Core/Src/adc.c ****     PB2     ------> ADC2_IN12
 459:Core/Src/adc.c ****     */
 460:Core/Src/adc.c ****     GPIO_InitStruct.Pin = GPIO_PIN_5;
 461:Core/Src/adc.c ****     GPIO_InitStruct.Mode = GPIO_MODE_ANALOG;
 462:Core/Src/adc.c ****     GPIO_InitStruct.Pull = GPIO_NOPULL;
 463:Core/Src/adc.c ****     HAL_GPIO_Init(GPIOA, &GPIO_InitStruct);
 464:Core/Src/adc.c **** 
 465:Core/Src/adc.c ****     GPIO_InitStruct.Pin = GPIO_PIN_5;
 466:Core/Src/adc.c ****     GPIO_InitStruct.Mode = GPIO_MODE_ANALOG;
 467:Core/Src/adc.c ****     GPIO_InitStruct.Pull = GPIO_NOPULL;
 468:Core/Src/adc.c ****     HAL_GPIO_Init(GPIOC, &GPIO_InitStruct);
 469:Core/Src/adc.c **** 
 470:Core/Src/adc.c ****     GPIO_InitStruct.Pin = GPIO_PIN_2;
 471:Core/Src/adc.c ****     GPIO_InitStruct.Mode = GPIO_MODE_ANALOG;
 472:Core/Src/adc.c ****     GPIO_InitStruct.Pull = GPIO_NOPULL;
 473:Core/Src/adc.c ****     HAL_GPIO_Init(GPIOB, &GPIO_InitStruct);
 474:Core/Src/adc.c **** 
 475:Core/Src/adc.c ****     /* ADC2 DMA Init */
 476:Core/Src/adc.c ****     /* ADC2 Init */
 477:Core/Src/adc.c ****     hdma_adc2.Instance = DMA1_Channel1;
 478:Core/Src/adc.c ****     hdma_adc2.Init.Request = DMA_REQUEST_ADC2;
 479:Core/Src/adc.c ****     hdma_adc2.Init.Direction = DMA_PERIPH_TO_MEMORY;
 480:Core/Src/adc.c ****     hdma_adc2.Init.PeriphInc = DMA_PINC_DISABLE;
 481:Core/Src/adc.c ****     hdma_adc2.Init.MemInc = DMA_MINC_ENABLE;
 482:Core/Src/adc.c ****     hdma_adc2.Init.PeriphDataAlignment = DMA_PDATAALIGN_HALFWORD;
 483:Core/Src/adc.c ****     hdma_adc2.Init.MemDataAlignment = DMA_MDATAALIGN_HALFWORD;
 484:Core/Src/adc.c ****     hdma_adc2.Init.Mode = DMA_CIRCULAR;
 485:Core/Src/adc.c ****     hdma_adc2.Init.Priority = DMA_PRIORITY_LOW;
 486:Core/Src/adc.c ****     if (HAL_DMA_Init(&hdma_adc2) != HAL_OK)
 487:Core/Src/adc.c ****     {
 488:Core/Src/adc.c ****       Error_Handler();
 489:Core/Src/adc.c ****     }
 490:Core/Src/adc.c **** 
 491:Core/Src/adc.c ****     __HAL_LINKDMA(adcHandle,DMA_Handle,hdma_adc2);
 492:Core/Src/adc.c **** 
ARM GAS  C:\Users\purdu\AppData\Local\Temp\ccdVItDm.s 			page 27


 493:Core/Src/adc.c ****   /* USER CODE BEGIN ADC2_MspInit 1 */
 494:Core/Src/adc.c **** 
 495:Core/Src/adc.c ****   /* USER CODE END ADC2_MspInit 1 */
 496:Core/Src/adc.c ****   }
 497:Core/Src/adc.c ****   else if(adcHandle->Instance==ADC3)
 985              		.loc 1 497 8 is_stmt 1 view .LVU353
 986              		.loc 1 497 10 is_stmt 0 view .LVU354
 987 0028 8F4A     		ldr	r2, .L93+4
 988 002a 9342     		cmp	r3, r2
 989 002c 00F0C980 		beq	.L77
 498:Core/Src/adc.c ****   {
 499:Core/Src/adc.c ****   /* USER CODE BEGIN ADC3_MspInit 0 */
 500:Core/Src/adc.c **** 
 501:Core/Src/adc.c ****   /* USER CODE END ADC3_MspInit 0 */
 502:Core/Src/adc.c **** 
 503:Core/Src/adc.c ****   /** Initializes the peripherals clocks
 504:Core/Src/adc.c ****   */
 505:Core/Src/adc.c ****     PeriphClkInit.PeriphClockSelection = RCC_PERIPHCLK_ADC345;
 506:Core/Src/adc.c ****     PeriphClkInit.Adc345ClockSelection = RCC_ADC345CLKSOURCE_SYSCLK;
 507:Core/Src/adc.c ****     if (HAL_RCCEx_PeriphCLKConfig(&PeriphClkInit) != HAL_OK)
 508:Core/Src/adc.c ****     {
 509:Core/Src/adc.c ****       Error_Handler();
 510:Core/Src/adc.c ****     }
 511:Core/Src/adc.c **** 
 512:Core/Src/adc.c ****     /* ADC3 clock enable */
 513:Core/Src/adc.c ****     HAL_RCC_ADC345_CLK_ENABLED++;
 514:Core/Src/adc.c ****     if(HAL_RCC_ADC345_CLK_ENABLED==1){
 515:Core/Src/adc.c ****       __HAL_RCC_ADC345_CLK_ENABLE();
 516:Core/Src/adc.c ****     }
 517:Core/Src/adc.c **** 
 518:Core/Src/adc.c ****     __HAL_RCC_GPIOE_CLK_ENABLE();
 519:Core/Src/adc.c ****     /**ADC3 GPIO Configuration
 520:Core/Src/adc.c ****     PE7     ------> ADC3_IN4
 521:Core/Src/adc.c ****     PE8     ------> ADC3_IN6
 522:Core/Src/adc.c ****     PE9     ------> ADC3_IN2
 523:Core/Src/adc.c ****     */
 524:Core/Src/adc.c ****     GPIO_InitStruct.Pin = GPIO_PIN_7|GPIO_PIN_8|GPIO_PIN_9;
 525:Core/Src/adc.c ****     GPIO_InitStruct.Mode = GPIO_MODE_ANALOG;
 526:Core/Src/adc.c ****     GPIO_InitStruct.Pull = GPIO_NOPULL;
 527:Core/Src/adc.c ****     HAL_GPIO_Init(GPIOE, &GPIO_InitStruct);
 528:Core/Src/adc.c **** 
 529:Core/Src/adc.c ****     /* ADC3 DMA Init */
 530:Core/Src/adc.c ****     /* ADC3 Init */
 531:Core/Src/adc.c ****     hdma_adc3.Instance = DMA1_Channel2;
 532:Core/Src/adc.c ****     hdma_adc3.Init.Request = DMA_REQUEST_ADC3;
 533:Core/Src/adc.c ****     hdma_adc3.Init.Direction = DMA_PERIPH_TO_MEMORY;
 534:Core/Src/adc.c ****     hdma_adc3.Init.PeriphInc = DMA_PINC_DISABLE;
 535:Core/Src/adc.c ****     hdma_adc3.Init.MemInc = DMA_MINC_ENABLE;
 536:Core/Src/adc.c ****     hdma_adc3.Init.PeriphDataAlignment = DMA_PDATAALIGN_HALFWORD;
 537:Core/Src/adc.c ****     hdma_adc3.Init.MemDataAlignment = DMA_MDATAALIGN_HALFWORD;
 538:Core/Src/adc.c ****     hdma_adc3.Init.Mode = DMA_CIRCULAR;
 539:Core/Src/adc.c ****     hdma_adc3.Init.Priority = DMA_PRIORITY_LOW;
 540:Core/Src/adc.c ****     if (HAL_DMA_Init(&hdma_adc3) != HAL_OK)
 541:Core/Src/adc.c ****     {
 542:Core/Src/adc.c ****       Error_Handler();
 543:Core/Src/adc.c ****     }
 544:Core/Src/adc.c **** 
ARM GAS  C:\Users\purdu\AppData\Local\Temp\ccdVItDm.s 			page 28


 545:Core/Src/adc.c ****     __HAL_LINKDMA(adcHandle,DMA_Handle,hdma_adc3);
 546:Core/Src/adc.c **** 
 547:Core/Src/adc.c ****   /* USER CODE BEGIN ADC3_MspInit 1 */
 548:Core/Src/adc.c **** 
 549:Core/Src/adc.c ****   /* USER CODE END ADC3_MspInit 1 */
 550:Core/Src/adc.c ****   }
 551:Core/Src/adc.c ****   else if(adcHandle->Instance==ADC4)
 990              		.loc 1 551 8 is_stmt 1 view .LVU355
 991              		.loc 1 551 10 is_stmt 0 view .LVU356
 992 0030 8E4A     		ldr	r2, .L93+8
 993 0032 9342     		cmp	r3, r2
 994 0034 00F03681 		beq	.L78
 552:Core/Src/adc.c ****   {
 553:Core/Src/adc.c ****   /* USER CODE BEGIN ADC4_MspInit 0 */
 554:Core/Src/adc.c **** 
 555:Core/Src/adc.c ****   /* USER CODE END ADC4_MspInit 0 */
 556:Core/Src/adc.c **** 
 557:Core/Src/adc.c ****   /** Initializes the peripherals clocks
 558:Core/Src/adc.c ****   */
 559:Core/Src/adc.c ****     PeriphClkInit.PeriphClockSelection = RCC_PERIPHCLK_ADC345;
 560:Core/Src/adc.c ****     PeriphClkInit.Adc345ClockSelection = RCC_ADC345CLKSOURCE_SYSCLK;
 561:Core/Src/adc.c ****     if (HAL_RCCEx_PeriphCLKConfig(&PeriphClkInit) != HAL_OK)
 562:Core/Src/adc.c ****     {
 563:Core/Src/adc.c ****       Error_Handler();
 564:Core/Src/adc.c ****     }
 565:Core/Src/adc.c **** 
 566:Core/Src/adc.c ****     /* ADC4 clock enable */
 567:Core/Src/adc.c ****     HAL_RCC_ADC345_CLK_ENABLED++;
 568:Core/Src/adc.c ****     if(HAL_RCC_ADC345_CLK_ENABLED==1){
 569:Core/Src/adc.c ****       __HAL_RCC_ADC345_CLK_ENABLE();
 570:Core/Src/adc.c ****     }
 571:Core/Src/adc.c **** 
 572:Core/Src/adc.c ****     __HAL_RCC_GPIOB_CLK_ENABLE();
 573:Core/Src/adc.c ****     __HAL_RCC_GPIOD_CLK_ENABLE();
 574:Core/Src/adc.c ****     /**ADC4 GPIO Configuration
 575:Core/Src/adc.c ****     PB12     ------> ADC4_IN3
 576:Core/Src/adc.c ****     PD8     ------> ADC4_IN12
 577:Core/Src/adc.c ****     */
 578:Core/Src/adc.c ****     GPIO_InitStruct.Pin = GPIO_PIN_12;
 579:Core/Src/adc.c ****     GPIO_InitStruct.Mode = GPIO_MODE_ANALOG;
 580:Core/Src/adc.c ****     GPIO_InitStruct.Pull = GPIO_NOPULL;
 581:Core/Src/adc.c ****     HAL_GPIO_Init(GPIOB, &GPIO_InitStruct);
 582:Core/Src/adc.c **** 
 583:Core/Src/adc.c ****     GPIO_InitStruct.Pin = GPIO_PIN_8;
 584:Core/Src/adc.c ****     GPIO_InitStruct.Mode = GPIO_MODE_ANALOG;
 585:Core/Src/adc.c ****     GPIO_InitStruct.Pull = GPIO_NOPULL;
 586:Core/Src/adc.c ****     HAL_GPIO_Init(GPIOD, &GPIO_InitStruct);
 587:Core/Src/adc.c **** 
 588:Core/Src/adc.c ****   /* USER CODE BEGIN ADC4_MspInit 1 */
 589:Core/Src/adc.c **** 
 590:Core/Src/adc.c ****   /* USER CODE END ADC4_MspInit 1 */
 591:Core/Src/adc.c ****   }
 592:Core/Src/adc.c ****   else if(adcHandle->Instance==ADC5)
 995              		.loc 1 592 8 is_stmt 1 view .LVU357
 996              		.loc 1 592 10 is_stmt 0 view .LVU358
 997 0038 8D4A     		ldr	r2, .L93+12
 998 003a 9342     		cmp	r3, r2
ARM GAS  C:\Users\purdu\AppData\Local\Temp\ccdVItDm.s 			page 29


 999 003c 00F07981 		beq	.L79
 1000              	.LVL42:
 1001              	.L55:
 593:Core/Src/adc.c ****   {
 594:Core/Src/adc.c ****   /* USER CODE BEGIN ADC5_MspInit 0 */
 595:Core/Src/adc.c **** 
 596:Core/Src/adc.c ****   /* USER CODE END ADC5_MspInit 0 */
 597:Core/Src/adc.c **** 
 598:Core/Src/adc.c ****   /** Initializes the peripherals clocks
 599:Core/Src/adc.c ****   */
 600:Core/Src/adc.c ****     PeriphClkInit.PeriphClockSelection = RCC_PERIPHCLK_ADC345;
 601:Core/Src/adc.c ****     PeriphClkInit.Adc345ClockSelection = RCC_ADC345CLKSOURCE_SYSCLK;
 602:Core/Src/adc.c ****     if (HAL_RCCEx_PeriphCLKConfig(&PeriphClkInit) != HAL_OK)
 603:Core/Src/adc.c ****     {
 604:Core/Src/adc.c ****       Error_Handler();
 605:Core/Src/adc.c ****     }
 606:Core/Src/adc.c **** 
 607:Core/Src/adc.c ****     /* ADC5 clock enable */
 608:Core/Src/adc.c ****     HAL_RCC_ADC345_CLK_ENABLED++;
 609:Core/Src/adc.c ****     if(HAL_RCC_ADC345_CLK_ENABLED==1){
 610:Core/Src/adc.c ****       __HAL_RCC_ADC345_CLK_ENABLE();
 611:Core/Src/adc.c ****     }
 612:Core/Src/adc.c **** 
 613:Core/Src/adc.c ****     __HAL_RCC_GPIOA_CLK_ENABLE();
 614:Core/Src/adc.c ****     /**ADC5 GPIO Configuration
 615:Core/Src/adc.c ****     PA8     ------> ADC5_IN1
 616:Core/Src/adc.c ****     */
 617:Core/Src/adc.c ****     GPIO_InitStruct.Pin = GPIO_PIN_8;
 618:Core/Src/adc.c ****     GPIO_InitStruct.Mode = GPIO_MODE_ANALOG;
 619:Core/Src/adc.c ****     GPIO_InitStruct.Pull = GPIO_NOPULL;
 620:Core/Src/adc.c ****     HAL_GPIO_Init(GPIOA, &GPIO_InitStruct);
 621:Core/Src/adc.c **** 
 622:Core/Src/adc.c ****   /* USER CODE BEGIN ADC5_MspInit 1 */
 623:Core/Src/adc.c **** 
 624:Core/Src/adc.c ****   /* USER CODE END ADC5_MspInit 1 */
 625:Core/Src/adc.c ****   }
 626:Core/Src/adc.c **** }
 1002              		.loc 1 626 1 view .LVU359
 1003 0040 29B0     		add	sp, sp, #164
 1004              	.LCFI22:
 1005              		.cfi_remember_state
 1006              		.cfi_def_cfa_offset 20
 1007              		@ sp needed
 1008 0042 F0BD     		pop	{r4, r5, r6, r7, pc}
 1009              	.LVL43:
 1010              	.L75:
 1011              	.LCFI23:
 1012              		.cfi_restore_state
 386:Core/Src/adc.c ****     PeriphClkInit.Adc12ClockSelection = RCC_ADC12CLKSOURCE_SYSCLK;
 1013              		.loc 1 386 5 is_stmt 1 view .LVU360
 386:Core/Src/adc.c ****     PeriphClkInit.Adc12ClockSelection = RCC_ADC12CLKSOURCE_SYSCLK;
 1014              		.loc 1 386 40 is_stmt 0 view .LVU361
 1015 0044 4FF40043 		mov	r3, #32768
 1016 0048 0E93     		str	r3, [sp, #56]
 387:Core/Src/adc.c ****     if (HAL_RCCEx_PeriphCLKConfig(&PeriphClkInit) != HAL_OK)
 1017              		.loc 1 387 5 is_stmt 1 view .LVU362
 387:Core/Src/adc.c ****     if (HAL_RCCEx_PeriphCLKConfig(&PeriphClkInit) != HAL_OK)
ARM GAS  C:\Users\purdu\AppData\Local\Temp\ccdVItDm.s 			page 30


 1018              		.loc 1 387 39 is_stmt 0 view .LVU363
 1019 004a 4FF00053 		mov	r3, #536870912
 1020 004e 1F93     		str	r3, [sp, #124]
 388:Core/Src/adc.c ****     {
 1021              		.loc 1 388 5 is_stmt 1 view .LVU364
 388:Core/Src/adc.c ****     {
 1022              		.loc 1 388 9 is_stmt 0 view .LVU365
 1023 0050 0EA8     		add	r0, sp, #56
 1024 0052 FFF7FEFF 		bl	HAL_RCCEx_PeriphCLKConfig
 1025              	.LVL44:
 388:Core/Src/adc.c ****     {
 1026              		.loc 1 388 8 view .LVU366
 1027 0056 0028     		cmp	r0, #0
 1028 0058 32D1     		bne	.L80
 1029              	.L57:
 394:Core/Src/adc.c ****     if(HAL_RCC_ADC12_CLK_ENABLED==1){
 1030              		.loc 1 394 5 is_stmt 1 view .LVU367
 394:Core/Src/adc.c ****     if(HAL_RCC_ADC12_CLK_ENABLED==1){
 1031              		.loc 1 394 30 is_stmt 0 view .LVU368
 1032 005a 864A     		ldr	r2, .L93+16
 1033 005c 1368     		ldr	r3, [r2]
 1034 005e 0133     		adds	r3, r3, #1
 1035 0060 1360     		str	r3, [r2]
 395:Core/Src/adc.c ****       __HAL_RCC_ADC12_CLK_ENABLE();
 1036              		.loc 1 395 5 is_stmt 1 view .LVU369
 395:Core/Src/adc.c ****       __HAL_RCC_ADC12_CLK_ENABLE();
 1037              		.loc 1 395 7 is_stmt 0 view .LVU370
 1038 0062 012B     		cmp	r3, #1
 1039 0064 2FD0     		beq	.L81
 1040              	.L58:
 396:Core/Src/adc.c ****     }
 1041              		.loc 1 396 7 is_stmt 1 discriminator 1 view .LVU371
 399:Core/Src/adc.c ****     /**ADC1 GPIO Configuration
 1042              		.loc 1 399 5 discriminator 1 view .LVU372
 1043              	.LBB2:
 399:Core/Src/adc.c ****     /**ADC1 GPIO Configuration
 1044              		.loc 1 399 5 discriminator 1 view .LVU373
 399:Core/Src/adc.c ****     /**ADC1 GPIO Configuration
 1045              		.loc 1 399 5 discriminator 1 view .LVU374
 1046 0066 844B     		ldr	r3, .L93+20
 1047 0068 DA6C     		ldr	r2, [r3, #76]
 1048 006a 42F00102 		orr	r2, r2, #1
 1049 006e DA64     		str	r2, [r3, #76]
 399:Core/Src/adc.c ****     /**ADC1 GPIO Configuration
 1050              		.loc 1 399 5 discriminator 1 view .LVU375
 1051 0070 DB6C     		ldr	r3, [r3, #76]
 1052 0072 03F00103 		and	r3, r3, #1
 1053 0076 0293     		str	r3, [sp, #8]
 399:Core/Src/adc.c ****     /**ADC1 GPIO Configuration
 1054              		.loc 1 399 5 discriminator 1 view .LVU376
 1055 0078 029B     		ldr	r3, [sp, #8]
 1056              	.LBE2:
 399:Core/Src/adc.c ****     /**ADC1 GPIO Configuration
 1057              		.loc 1 399 5 discriminator 1 view .LVU377
 404:Core/Src/adc.c ****     GPIO_InitStruct.Mode = GPIO_MODE_ANALOG;
 1058              		.loc 1 404 5 discriminator 1 view .LVU378
 404:Core/Src/adc.c ****     GPIO_InitStruct.Mode = GPIO_MODE_ANALOG;
ARM GAS  C:\Users\purdu\AppData\Local\Temp\ccdVItDm.s 			page 31


 1059              		.loc 1 404 25 is_stmt 0 discriminator 1 view .LVU379
 1060 007a 0323     		movs	r3, #3
 1061 007c 2393     		str	r3, [sp, #140]
 405:Core/Src/adc.c ****     GPIO_InitStruct.Pull = GPIO_NOPULL;
 1062              		.loc 1 405 5 is_stmt 1 discriminator 1 view .LVU380
 405:Core/Src/adc.c ****     GPIO_InitStruct.Pull = GPIO_NOPULL;
 1063              		.loc 1 405 26 is_stmt 0 discriminator 1 view .LVU381
 1064 007e 2493     		str	r3, [sp, #144]
 406:Core/Src/adc.c ****     HAL_GPIO_Init(GPIOA, &GPIO_InitStruct);
 1065              		.loc 1 406 5 is_stmt 1 discriminator 1 view .LVU382
 406:Core/Src/adc.c ****     HAL_GPIO_Init(GPIOA, &GPIO_InitStruct);
 1066              		.loc 1 406 26 is_stmt 0 discriminator 1 view .LVU383
 1067 0080 0025     		movs	r5, #0
 1068 0082 2595     		str	r5, [sp, #148]
 407:Core/Src/adc.c **** 
 1069              		.loc 1 407 5 is_stmt 1 discriminator 1 view .LVU384
 1070 0084 23A9     		add	r1, sp, #140
 1071 0086 4FF09040 		mov	r0, #1207959552
 1072 008a FFF7FEFF 		bl	HAL_GPIO_Init
 1073              	.LVL45:
 411:Core/Src/adc.c ****     hdma_adc1.Init.Request = DMA_REQUEST_ADC1;
 1074              		.loc 1 411 5 discriminator 1 view .LVU385
 411:Core/Src/adc.c ****     hdma_adc1.Init.Request = DMA_REQUEST_ADC1;
 1075              		.loc 1 411 24 is_stmt 0 discriminator 1 view .LVU386
 1076 008e 7B48     		ldr	r0, .L93+24
 1077 0090 7B4B     		ldr	r3, .L93+28
 1078 0092 0360     		str	r3, [r0]
 412:Core/Src/adc.c ****     hdma_adc1.Init.Direction = DMA_PERIPH_TO_MEMORY;
 1079              		.loc 1 412 5 is_stmt 1 discriminator 1 view .LVU387
 412:Core/Src/adc.c ****     hdma_adc1.Init.Direction = DMA_PERIPH_TO_MEMORY;
 1080              		.loc 1 412 28 is_stmt 0 discriminator 1 view .LVU388
 1081 0094 0523     		movs	r3, #5
 1082 0096 4360     		str	r3, [r0, #4]
 413:Core/Src/adc.c ****     hdma_adc1.Init.PeriphInc = DMA_PINC_DISABLE;
 1083              		.loc 1 413 5 is_stmt 1 discriminator 1 view .LVU389
 413:Core/Src/adc.c ****     hdma_adc1.Init.PeriphInc = DMA_PINC_DISABLE;
 1084              		.loc 1 413 30 is_stmt 0 discriminator 1 view .LVU390
 1085 0098 8560     		str	r5, [r0, #8]
 414:Core/Src/adc.c ****     hdma_adc1.Init.MemInc = DMA_MINC_ENABLE;
 1086              		.loc 1 414 5 is_stmt 1 discriminator 1 view .LVU391
 414:Core/Src/adc.c ****     hdma_adc1.Init.MemInc = DMA_MINC_ENABLE;
 1087              		.loc 1 414 30 is_stmt 0 discriminator 1 view .LVU392
 1088 009a C560     		str	r5, [r0, #12]
 415:Core/Src/adc.c ****     hdma_adc1.Init.PeriphDataAlignment = DMA_PDATAALIGN_HALFWORD;
 1089              		.loc 1 415 5 is_stmt 1 discriminator 1 view .LVU393
 415:Core/Src/adc.c ****     hdma_adc1.Init.PeriphDataAlignment = DMA_PDATAALIGN_HALFWORD;
 1090              		.loc 1 415 27 is_stmt 0 discriminator 1 view .LVU394
 1091 009c 8023     		movs	r3, #128
 1092 009e 0361     		str	r3, [r0, #16]
 416:Core/Src/adc.c ****     hdma_adc1.Init.MemDataAlignment = DMA_MDATAALIGN_HALFWORD;
 1093              		.loc 1 416 5 is_stmt 1 discriminator 1 view .LVU395
 416:Core/Src/adc.c ****     hdma_adc1.Init.MemDataAlignment = DMA_MDATAALIGN_HALFWORD;
 1094              		.loc 1 416 40 is_stmt 0 discriminator 1 view .LVU396
 1095 00a0 4FF48073 		mov	r3, #256
 1096 00a4 4361     		str	r3, [r0, #20]
 417:Core/Src/adc.c ****     hdma_adc1.Init.Mode = DMA_CIRCULAR;
 1097              		.loc 1 417 5 is_stmt 1 discriminator 1 view .LVU397
ARM GAS  C:\Users\purdu\AppData\Local\Temp\ccdVItDm.s 			page 32


 417:Core/Src/adc.c ****     hdma_adc1.Init.Mode = DMA_CIRCULAR;
 1098              		.loc 1 417 37 is_stmt 0 discriminator 1 view .LVU398
 1099 00a6 4FF48063 		mov	r3, #1024
 1100 00aa 8361     		str	r3, [r0, #24]
 418:Core/Src/adc.c ****     hdma_adc1.Init.Priority = DMA_PRIORITY_LOW;
 1101              		.loc 1 418 5 is_stmt 1 discriminator 1 view .LVU399
 418:Core/Src/adc.c ****     hdma_adc1.Init.Priority = DMA_PRIORITY_LOW;
 1102              		.loc 1 418 25 is_stmt 0 discriminator 1 view .LVU400
 1103 00ac 2023     		movs	r3, #32
 1104 00ae C361     		str	r3, [r0, #28]
 419:Core/Src/adc.c ****     if (HAL_DMA_Init(&hdma_adc1) != HAL_OK)
 1105              		.loc 1 419 5 is_stmt 1 discriminator 1 view .LVU401
 419:Core/Src/adc.c ****     if (HAL_DMA_Init(&hdma_adc1) != HAL_OK)
 1106              		.loc 1 419 29 is_stmt 0 discriminator 1 view .LVU402
 1107 00b0 0562     		str	r5, [r0, #32]
 420:Core/Src/adc.c ****     {
 1108              		.loc 1 420 5 is_stmt 1 discriminator 1 view .LVU403
 420:Core/Src/adc.c ****     {
 1109              		.loc 1 420 9 is_stmt 0 discriminator 1 view .LVU404
 1110 00b2 FFF7FEFF 		bl	HAL_DMA_Init
 1111              	.LVL46:
 420:Core/Src/adc.c ****     {
 1112              		.loc 1 420 8 discriminator 1 view .LVU405
 1113 00b6 88B9     		cbnz	r0, .L82
 1114              	.L59:
 425:Core/Src/adc.c **** 
 1115              		.loc 1 425 5 is_stmt 1 view .LVU406
 425:Core/Src/adc.c **** 
 1116              		.loc 1 425 5 view .LVU407
 1117 00b8 704B     		ldr	r3, .L93+24
 1118 00ba 6365     		str	r3, [r4, #84]
 425:Core/Src/adc.c **** 
 1119              		.loc 1 425 5 view .LVU408
 1120 00bc 9C62     		str	r4, [r3, #40]
 425:Core/Src/adc.c **** 
 1121              		.loc 1 425 5 view .LVU409
 1122 00be BFE7     		b	.L55
 1123              	.L80:
 390:Core/Src/adc.c ****     }
 1124              		.loc 1 390 7 view .LVU410
 1125 00c0 FFF7FEFF 		bl	Error_Handler
 1126              	.LVL47:
 1127 00c4 C9E7     		b	.L57
 1128              	.L81:
 396:Core/Src/adc.c ****     }
 1129              		.loc 1 396 7 view .LVU411
 1130              	.LBB3:
 396:Core/Src/adc.c ****     }
 1131              		.loc 1 396 7 view .LVU412
 396:Core/Src/adc.c ****     }
 1132              		.loc 1 396 7 view .LVU413
 1133 00c6 6C4B     		ldr	r3, .L93+20
 1134 00c8 DA6C     		ldr	r2, [r3, #76]
 1135 00ca 42F40052 		orr	r2, r2, #8192
 1136 00ce DA64     		str	r2, [r3, #76]
 396:Core/Src/adc.c ****     }
 1137              		.loc 1 396 7 view .LVU414
ARM GAS  C:\Users\purdu\AppData\Local\Temp\ccdVItDm.s 			page 33


 1138 00d0 DB6C     		ldr	r3, [r3, #76]
 1139 00d2 03F40053 		and	r3, r3, #8192
 1140 00d6 0193     		str	r3, [sp, #4]
 396:Core/Src/adc.c ****     }
 1141              		.loc 1 396 7 view .LVU415
 1142 00d8 019B     		ldr	r3, [sp, #4]
 1143 00da C4E7     		b	.L58
 1144              	.L82:
 1145              	.LBE3:
 422:Core/Src/adc.c ****     }
 1146              		.loc 1 422 7 view .LVU416
 1147 00dc FFF7FEFF 		bl	Error_Handler
 1148              	.LVL48:
 1149 00e0 EAE7     		b	.L59
 1150              	.L76:
 439:Core/Src/adc.c ****     PeriphClkInit.Adc12ClockSelection = RCC_ADC12CLKSOURCE_SYSCLK;
 1151              		.loc 1 439 5 view .LVU417
 439:Core/Src/adc.c ****     PeriphClkInit.Adc12ClockSelection = RCC_ADC12CLKSOURCE_SYSCLK;
 1152              		.loc 1 439 40 is_stmt 0 view .LVU418
 1153 00e2 4FF40043 		mov	r3, #32768
 1154 00e6 0E93     		str	r3, [sp, #56]
 440:Core/Src/adc.c ****     if (HAL_RCCEx_PeriphCLKConfig(&PeriphClkInit) != HAL_OK)
 1155              		.loc 1 440 5 is_stmt 1 view .LVU419
 440:Core/Src/adc.c ****     if (HAL_RCCEx_PeriphCLKConfig(&PeriphClkInit) != HAL_OK)
 1156              		.loc 1 440 39 is_stmt 0 view .LVU420
 1157 00e8 4FF00053 		mov	r3, #536870912
 1158 00ec 1F93     		str	r3, [sp, #124]
 441:Core/Src/adc.c ****     {
 1159              		.loc 1 441 5 is_stmt 1 view .LVU421
 441:Core/Src/adc.c ****     {
 1160              		.loc 1 441 9 is_stmt 0 view .LVU422
 1161 00ee 0EA8     		add	r0, sp, #56
 1162 00f0 FFF7FEFF 		bl	HAL_RCCEx_PeriphCLKConfig
 1163              	.LVL49:
 441:Core/Src/adc.c ****     {
 1164              		.loc 1 441 8 view .LVU423
 1165 00f4 0028     		cmp	r0, #0
 1166 00f6 53D1     		bne	.L83
 1167              	.L62:
 447:Core/Src/adc.c ****     if(HAL_RCC_ADC12_CLK_ENABLED==1){
 1168              		.loc 1 447 5 is_stmt 1 view .LVU424
 447:Core/Src/adc.c ****     if(HAL_RCC_ADC12_CLK_ENABLED==1){
 1169              		.loc 1 447 30 is_stmt 0 view .LVU425
 1170 00f8 5E4A     		ldr	r2, .L93+16
 1171 00fa 1368     		ldr	r3, [r2]
 1172 00fc 0133     		adds	r3, r3, #1
 1173 00fe 1360     		str	r3, [r2]
 448:Core/Src/adc.c ****       __HAL_RCC_ADC12_CLK_ENABLE();
 1174              		.loc 1 448 5 is_stmt 1 view .LVU426
 448:Core/Src/adc.c ****       __HAL_RCC_ADC12_CLK_ENABLE();
 1175              		.loc 1 448 7 is_stmt 0 view .LVU427
 1176 0100 012B     		cmp	r3, #1
 1177 0102 50D0     		beq	.L84
 1178              	.L63:
 449:Core/Src/adc.c ****     }
 1179              		.loc 1 449 7 is_stmt 1 discriminator 1 view .LVU428
 452:Core/Src/adc.c ****     __HAL_RCC_GPIOC_CLK_ENABLE();
ARM GAS  C:\Users\purdu\AppData\Local\Temp\ccdVItDm.s 			page 34


 1180              		.loc 1 452 5 discriminator 1 view .LVU429
 1181              	.LBB4:
 452:Core/Src/adc.c ****     __HAL_RCC_GPIOC_CLK_ENABLE();
 1182              		.loc 1 452 5 discriminator 1 view .LVU430
 452:Core/Src/adc.c ****     __HAL_RCC_GPIOC_CLK_ENABLE();
 1183              		.loc 1 452 5 discriminator 1 view .LVU431
 1184 0104 5C4B     		ldr	r3, .L93+20
 1185 0106 DA6C     		ldr	r2, [r3, #76]
 1186 0108 42F00102 		orr	r2, r2, #1
 1187 010c DA64     		str	r2, [r3, #76]
 452:Core/Src/adc.c ****     __HAL_RCC_GPIOC_CLK_ENABLE();
 1188              		.loc 1 452 5 discriminator 1 view .LVU432
 1189 010e DA6C     		ldr	r2, [r3, #76]
 1190 0110 02F00102 		and	r2, r2, #1
 1191 0114 0492     		str	r2, [sp, #16]
 452:Core/Src/adc.c ****     __HAL_RCC_GPIOC_CLK_ENABLE();
 1192              		.loc 1 452 5 discriminator 1 view .LVU433
 1193 0116 049A     		ldr	r2, [sp, #16]
 1194              	.LBE4:
 452:Core/Src/adc.c ****     __HAL_RCC_GPIOC_CLK_ENABLE();
 1195              		.loc 1 452 5 discriminator 1 view .LVU434
 453:Core/Src/adc.c ****     __HAL_RCC_GPIOB_CLK_ENABLE();
 1196              		.loc 1 453 5 discriminator 1 view .LVU435
 1197              	.LBB5:
 453:Core/Src/adc.c ****     __HAL_RCC_GPIOB_CLK_ENABLE();
 1198              		.loc 1 453 5 discriminator 1 view .LVU436
 453:Core/Src/adc.c ****     __HAL_RCC_GPIOB_CLK_ENABLE();
 1199              		.loc 1 453 5 discriminator 1 view .LVU437
 1200 0118 DA6C     		ldr	r2, [r3, #76]
 1201 011a 42F00402 		orr	r2, r2, #4
 1202 011e DA64     		str	r2, [r3, #76]
 453:Core/Src/adc.c ****     __HAL_RCC_GPIOB_CLK_ENABLE();
 1203              		.loc 1 453 5 discriminator 1 view .LVU438
 1204 0120 DA6C     		ldr	r2, [r3, #76]
 1205 0122 02F00402 		and	r2, r2, #4
 1206 0126 0592     		str	r2, [sp, #20]
 453:Core/Src/adc.c ****     __HAL_RCC_GPIOB_CLK_ENABLE();
 1207              		.loc 1 453 5 discriminator 1 view .LVU439
 1208 0128 059A     		ldr	r2, [sp, #20]
 1209              	.LBE5:
 453:Core/Src/adc.c ****     __HAL_RCC_GPIOB_CLK_ENABLE();
 1210              		.loc 1 453 5 discriminator 1 view .LVU440
 454:Core/Src/adc.c ****     /**ADC2 GPIO Configuration
 1211              		.loc 1 454 5 discriminator 1 view .LVU441
 1212              	.LBB6:
 454:Core/Src/adc.c ****     /**ADC2 GPIO Configuration
 1213              		.loc 1 454 5 discriminator 1 view .LVU442
 454:Core/Src/adc.c ****     /**ADC2 GPIO Configuration
 1214              		.loc 1 454 5 discriminator 1 view .LVU443
 1215 012a DA6C     		ldr	r2, [r3, #76]
 1216 012c 42F00202 		orr	r2, r2, #2
 1217 0130 DA64     		str	r2, [r3, #76]
 454:Core/Src/adc.c ****     /**ADC2 GPIO Configuration
 1218              		.loc 1 454 5 discriminator 1 view .LVU444
 1219 0132 DB6C     		ldr	r3, [r3, #76]
 1220 0134 03F00203 		and	r3, r3, #2
 1221 0138 0693     		str	r3, [sp, #24]
ARM GAS  C:\Users\purdu\AppData\Local\Temp\ccdVItDm.s 			page 35


 454:Core/Src/adc.c ****     /**ADC2 GPIO Configuration
 1222              		.loc 1 454 5 discriminator 1 view .LVU445
 1223 013a 069B     		ldr	r3, [sp, #24]
 1224              	.LBE6:
 454:Core/Src/adc.c ****     /**ADC2 GPIO Configuration
 1225              		.loc 1 454 5 discriminator 1 view .LVU446
 460:Core/Src/adc.c ****     GPIO_InitStruct.Mode = GPIO_MODE_ANALOG;
 1226              		.loc 1 460 5 discriminator 1 view .LVU447
 460:Core/Src/adc.c ****     GPIO_InitStruct.Mode = GPIO_MODE_ANALOG;
 1227              		.loc 1 460 25 is_stmt 0 discriminator 1 view .LVU448
 1228 013c 2026     		movs	r6, #32
 1229 013e 2396     		str	r6, [sp, #140]
 461:Core/Src/adc.c ****     GPIO_InitStruct.Pull = GPIO_NOPULL;
 1230              		.loc 1 461 5 is_stmt 1 discriminator 1 view .LVU449
 461:Core/Src/adc.c ****     GPIO_InitStruct.Pull = GPIO_NOPULL;
 1231              		.loc 1 461 26 is_stmt 0 discriminator 1 view .LVU450
 1232 0140 0327     		movs	r7, #3
 1233 0142 2497     		str	r7, [sp, #144]
 462:Core/Src/adc.c ****     HAL_GPIO_Init(GPIOA, &GPIO_InitStruct);
 1234              		.loc 1 462 5 is_stmt 1 discriminator 1 view .LVU451
 462:Core/Src/adc.c ****     HAL_GPIO_Init(GPIOA, &GPIO_InitStruct);
 1235              		.loc 1 462 26 is_stmt 0 discriminator 1 view .LVU452
 1236 0144 0025     		movs	r5, #0
 1237 0146 2595     		str	r5, [sp, #148]
 463:Core/Src/adc.c **** 
 1238              		.loc 1 463 5 is_stmt 1 discriminator 1 view .LVU453
 1239 0148 23A9     		add	r1, sp, #140
 1240 014a 4FF09040 		mov	r0, #1207959552
 1241 014e FFF7FEFF 		bl	HAL_GPIO_Init
 1242              	.LVL50:
 465:Core/Src/adc.c ****     GPIO_InitStruct.Mode = GPIO_MODE_ANALOG;
 1243              		.loc 1 465 5 discriminator 1 view .LVU454
 465:Core/Src/adc.c ****     GPIO_InitStruct.Mode = GPIO_MODE_ANALOG;
 1244              		.loc 1 465 25 is_stmt 0 discriminator 1 view .LVU455
 1245 0152 2396     		str	r6, [sp, #140]
 466:Core/Src/adc.c ****     GPIO_InitStruct.Pull = GPIO_NOPULL;
 1246              		.loc 1 466 5 is_stmt 1 discriminator 1 view .LVU456
 466:Core/Src/adc.c ****     GPIO_InitStruct.Pull = GPIO_NOPULL;
 1247              		.loc 1 466 26 is_stmt 0 discriminator 1 view .LVU457
 1248 0154 2497     		str	r7, [sp, #144]
 467:Core/Src/adc.c ****     HAL_GPIO_Init(GPIOC, &GPIO_InitStruct);
 1249              		.loc 1 467 5 is_stmt 1 discriminator 1 view .LVU458
 467:Core/Src/adc.c ****     HAL_GPIO_Init(GPIOC, &GPIO_InitStruct);
 1250              		.loc 1 467 26 is_stmt 0 discriminator 1 view .LVU459
 1251 0156 2595     		str	r5, [sp, #148]
 468:Core/Src/adc.c **** 
 1252              		.loc 1 468 5 is_stmt 1 discriminator 1 view .LVU460
 1253 0158 23A9     		add	r1, sp, #140
 1254 015a 4A48     		ldr	r0, .L93+32
 1255 015c FFF7FEFF 		bl	HAL_GPIO_Init
 1256              	.LVL51:
 470:Core/Src/adc.c ****     GPIO_InitStruct.Mode = GPIO_MODE_ANALOG;
 1257              		.loc 1 470 5 discriminator 1 view .LVU461
 470:Core/Src/adc.c ****     GPIO_InitStruct.Mode = GPIO_MODE_ANALOG;
 1258              		.loc 1 470 25 is_stmt 0 discriminator 1 view .LVU462
 1259 0160 0423     		movs	r3, #4
 1260 0162 2393     		str	r3, [sp, #140]
ARM GAS  C:\Users\purdu\AppData\Local\Temp\ccdVItDm.s 			page 36


 471:Core/Src/adc.c ****     GPIO_InitStruct.Pull = GPIO_NOPULL;
 1261              		.loc 1 471 5 is_stmt 1 discriminator 1 view .LVU463
 471:Core/Src/adc.c ****     GPIO_InitStruct.Pull = GPIO_NOPULL;
 1262              		.loc 1 471 26 is_stmt 0 discriminator 1 view .LVU464
 1263 0164 2497     		str	r7, [sp, #144]
 472:Core/Src/adc.c ****     HAL_GPIO_Init(GPIOB, &GPIO_InitStruct);
 1264              		.loc 1 472 5 is_stmt 1 discriminator 1 view .LVU465
 472:Core/Src/adc.c ****     HAL_GPIO_Init(GPIOB, &GPIO_InitStruct);
 1265              		.loc 1 472 26 is_stmt 0 discriminator 1 view .LVU466
 1266 0166 2595     		str	r5, [sp, #148]
 473:Core/Src/adc.c **** 
 1267              		.loc 1 473 5 is_stmt 1 discriminator 1 view .LVU467
 1268 0168 23A9     		add	r1, sp, #140
 1269 016a 4748     		ldr	r0, .L93+36
 1270 016c FFF7FEFF 		bl	HAL_GPIO_Init
 1271              	.LVL52:
 477:Core/Src/adc.c ****     hdma_adc2.Init.Request = DMA_REQUEST_ADC2;
 1272              		.loc 1 477 5 discriminator 1 view .LVU468
 477:Core/Src/adc.c ****     hdma_adc2.Init.Request = DMA_REQUEST_ADC2;
 1273              		.loc 1 477 24 is_stmt 0 discriminator 1 view .LVU469
 1274 0170 4648     		ldr	r0, .L93+40
 1275 0172 474B     		ldr	r3, .L93+44
 1276 0174 0360     		str	r3, [r0]
 478:Core/Src/adc.c ****     hdma_adc2.Init.Direction = DMA_PERIPH_TO_MEMORY;
 1277              		.loc 1 478 5 is_stmt 1 discriminator 1 view .LVU470
 478:Core/Src/adc.c ****     hdma_adc2.Init.Direction = DMA_PERIPH_TO_MEMORY;
 1278              		.loc 1 478 28 is_stmt 0 discriminator 1 view .LVU471
 1279 0176 2423     		movs	r3, #36
 1280 0178 4360     		str	r3, [r0, #4]
 479:Core/Src/adc.c ****     hdma_adc2.Init.PeriphInc = DMA_PINC_DISABLE;
 1281              		.loc 1 479 5 is_stmt 1 discriminator 1 view .LVU472
 479:Core/Src/adc.c ****     hdma_adc2.Init.PeriphInc = DMA_PINC_DISABLE;
 1282              		.loc 1 479 30 is_stmt 0 discriminator 1 view .LVU473
 1283 017a 8560     		str	r5, [r0, #8]
 480:Core/Src/adc.c ****     hdma_adc2.Init.MemInc = DMA_MINC_ENABLE;
 1284              		.loc 1 480 5 is_stmt 1 discriminator 1 view .LVU474
 480:Core/Src/adc.c ****     hdma_adc2.Init.MemInc = DMA_MINC_ENABLE;
 1285              		.loc 1 480 30 is_stmt 0 discriminator 1 view .LVU475
 1286 017c C560     		str	r5, [r0, #12]
 481:Core/Src/adc.c ****     hdma_adc2.Init.PeriphDataAlignment = DMA_PDATAALIGN_HALFWORD;
 1287              		.loc 1 481 5 is_stmt 1 discriminator 1 view .LVU476
 481:Core/Src/adc.c ****     hdma_adc2.Init.PeriphDataAlignment = DMA_PDATAALIGN_HALFWORD;
 1288              		.loc 1 481 27 is_stmt 0 discriminator 1 view .LVU477
 1289 017e 8023     		movs	r3, #128
 1290 0180 0361     		str	r3, [r0, #16]
 482:Core/Src/adc.c ****     hdma_adc2.Init.MemDataAlignment = DMA_MDATAALIGN_HALFWORD;
 1291              		.loc 1 482 5 is_stmt 1 discriminator 1 view .LVU478
 482:Core/Src/adc.c ****     hdma_adc2.Init.MemDataAlignment = DMA_MDATAALIGN_HALFWORD;
 1292              		.loc 1 482 40 is_stmt 0 discriminator 1 view .LVU479
 1293 0182 4FF48073 		mov	r3, #256
 1294 0186 4361     		str	r3, [r0, #20]
 483:Core/Src/adc.c ****     hdma_adc2.Init.Mode = DMA_CIRCULAR;
 1295              		.loc 1 483 5 is_stmt 1 discriminator 1 view .LVU480
 483:Core/Src/adc.c ****     hdma_adc2.Init.Mode = DMA_CIRCULAR;
 1296              		.loc 1 483 37 is_stmt 0 discriminator 1 view .LVU481
 1297 0188 4FF48063 		mov	r3, #1024
 1298 018c 8361     		str	r3, [r0, #24]
ARM GAS  C:\Users\purdu\AppData\Local\Temp\ccdVItDm.s 			page 37


 484:Core/Src/adc.c ****     hdma_adc2.Init.Priority = DMA_PRIORITY_LOW;
 1299              		.loc 1 484 5 is_stmt 1 discriminator 1 view .LVU482
 484:Core/Src/adc.c ****     hdma_adc2.Init.Priority = DMA_PRIORITY_LOW;
 1300              		.loc 1 484 25 is_stmt 0 discriminator 1 view .LVU483
 1301 018e C661     		str	r6, [r0, #28]
 485:Core/Src/adc.c ****     if (HAL_DMA_Init(&hdma_adc2) != HAL_OK)
 1302              		.loc 1 485 5 is_stmt 1 discriminator 1 view .LVU484
 485:Core/Src/adc.c ****     if (HAL_DMA_Init(&hdma_adc2) != HAL_OK)
 1303              		.loc 1 485 29 is_stmt 0 discriminator 1 view .LVU485
 1304 0190 0562     		str	r5, [r0, #32]
 486:Core/Src/adc.c ****     {
 1305              		.loc 1 486 5 is_stmt 1 discriminator 1 view .LVU486
 486:Core/Src/adc.c ****     {
 1306              		.loc 1 486 9 is_stmt 0 discriminator 1 view .LVU487
 1307 0192 FFF7FEFF 		bl	HAL_DMA_Init
 1308              	.LVL53:
 486:Core/Src/adc.c ****     {
 1309              		.loc 1 486 8 discriminator 1 view .LVU488
 1310 0196 88B9     		cbnz	r0, .L85
 1311              	.L64:
 491:Core/Src/adc.c **** 
 1312              		.loc 1 491 5 is_stmt 1 view .LVU489
 491:Core/Src/adc.c **** 
 1313              		.loc 1 491 5 view .LVU490
 1314 0198 3C4B     		ldr	r3, .L93+40
 1315 019a 6365     		str	r3, [r4, #84]
 491:Core/Src/adc.c **** 
 1316              		.loc 1 491 5 view .LVU491
 1317 019c 9C62     		str	r4, [r3, #40]
 491:Core/Src/adc.c **** 
 1318              		.loc 1 491 5 view .LVU492
 1319 019e 4FE7     		b	.L55
 1320              	.L83:
 443:Core/Src/adc.c ****     }
 1321              		.loc 1 443 7 view .LVU493
 1322 01a0 FFF7FEFF 		bl	Error_Handler
 1323              	.LVL54:
 1324 01a4 A8E7     		b	.L62
 1325              	.L84:
 449:Core/Src/adc.c ****     }
 1326              		.loc 1 449 7 view .LVU494
 1327              	.LBB7:
 449:Core/Src/adc.c ****     }
 1328              		.loc 1 449 7 view .LVU495
 449:Core/Src/adc.c ****     }
 1329              		.loc 1 449 7 view .LVU496
 1330 01a6 344B     		ldr	r3, .L93+20
 1331 01a8 DA6C     		ldr	r2, [r3, #76]
 1332 01aa 42F40052 		orr	r2, r2, #8192
 1333 01ae DA64     		str	r2, [r3, #76]
 449:Core/Src/adc.c ****     }
 1334              		.loc 1 449 7 view .LVU497
 1335 01b0 DB6C     		ldr	r3, [r3, #76]
 1336 01b2 03F40053 		and	r3, r3, #8192
 1337 01b6 0393     		str	r3, [sp, #12]
 449:Core/Src/adc.c ****     }
 1338              		.loc 1 449 7 view .LVU498
ARM GAS  C:\Users\purdu\AppData\Local\Temp\ccdVItDm.s 			page 38


 1339 01b8 039B     		ldr	r3, [sp, #12]
 1340 01ba A3E7     		b	.L63
 1341              	.L85:
 1342              	.LBE7:
 488:Core/Src/adc.c ****     }
 1343              		.loc 1 488 7 view .LVU499
 1344 01bc FFF7FEFF 		bl	Error_Handler
 1345              	.LVL55:
 1346 01c0 EAE7     		b	.L64
 1347              	.L77:
 505:Core/Src/adc.c ****     PeriphClkInit.Adc345ClockSelection = RCC_ADC345CLKSOURCE_SYSCLK;
 1348              		.loc 1 505 5 view .LVU500
 505:Core/Src/adc.c ****     PeriphClkInit.Adc345ClockSelection = RCC_ADC345CLKSOURCE_SYSCLK;
 1349              		.loc 1 505 40 is_stmt 0 view .LVU501
 1350 01c2 4FF48033 		mov	r3, #65536
 1351 01c6 0E93     		str	r3, [sp, #56]
 506:Core/Src/adc.c ****     if (HAL_RCCEx_PeriphCLKConfig(&PeriphClkInit) != HAL_OK)
 1352              		.loc 1 506 5 is_stmt 1 view .LVU502
 506:Core/Src/adc.c ****     if (HAL_RCCEx_PeriphCLKConfig(&PeriphClkInit) != HAL_OK)
 1353              		.loc 1 506 40 is_stmt 0 view .LVU503
 1354 01c8 4FF00043 		mov	r3, #-2147483648
 1355 01cc 2093     		str	r3, [sp, #128]
 507:Core/Src/adc.c ****     {
 1356              		.loc 1 507 5 is_stmt 1 view .LVU504
 507:Core/Src/adc.c ****     {
 1357              		.loc 1 507 9 is_stmt 0 view .LVU505
 1358 01ce 0EA8     		add	r0, sp, #56
 1359 01d0 FFF7FEFF 		bl	HAL_RCCEx_PeriphCLKConfig
 1360              	.LVL56:
 507:Core/Src/adc.c ****     {
 1361              		.loc 1 507 8 view .LVU506
 1362 01d4 0028     		cmp	r0, #0
 1363 01d6 33D1     		bne	.L86
 1364              	.L66:
 513:Core/Src/adc.c ****     if(HAL_RCC_ADC345_CLK_ENABLED==1){
 1365              		.loc 1 513 5 is_stmt 1 view .LVU507
 513:Core/Src/adc.c ****     if(HAL_RCC_ADC345_CLK_ENABLED==1){
 1366              		.loc 1 513 31 is_stmt 0 view .LVU508
 1367 01d8 2E4A     		ldr	r2, .L93+48
 1368 01da 1368     		ldr	r3, [r2]
 1369 01dc 0133     		adds	r3, r3, #1
 1370 01de 1360     		str	r3, [r2]
 514:Core/Src/adc.c ****       __HAL_RCC_ADC345_CLK_ENABLE();
 1371              		.loc 1 514 5 is_stmt 1 view .LVU509
 514:Core/Src/adc.c ****       __HAL_RCC_ADC345_CLK_ENABLE();
 1372              		.loc 1 514 7 is_stmt 0 view .LVU510
 1373 01e0 012B     		cmp	r3, #1
 1374 01e2 30D0     		beq	.L87
 1375              	.L67:
 515:Core/Src/adc.c ****     }
 1376              		.loc 1 515 7 is_stmt 1 discriminator 1 view .LVU511
 518:Core/Src/adc.c ****     /**ADC3 GPIO Configuration
 1377              		.loc 1 518 5 discriminator 1 view .LVU512
 1378              	.LBB8:
 518:Core/Src/adc.c ****     /**ADC3 GPIO Configuration
 1379              		.loc 1 518 5 discriminator 1 view .LVU513
 518:Core/Src/adc.c ****     /**ADC3 GPIO Configuration
ARM GAS  C:\Users\purdu\AppData\Local\Temp\ccdVItDm.s 			page 39


 1380              		.loc 1 518 5 discriminator 1 view .LVU514
 1381 01e4 244B     		ldr	r3, .L93+20
 1382 01e6 DA6C     		ldr	r2, [r3, #76]
 1383 01e8 42F01002 		orr	r2, r2, #16
 1384 01ec DA64     		str	r2, [r3, #76]
 518:Core/Src/adc.c ****     /**ADC3 GPIO Configuration
 1385              		.loc 1 518 5 discriminator 1 view .LVU515
 1386 01ee DB6C     		ldr	r3, [r3, #76]
 1387 01f0 03F01003 		and	r3, r3, #16
 1388 01f4 0893     		str	r3, [sp, #32]
 518:Core/Src/adc.c ****     /**ADC3 GPIO Configuration
 1389              		.loc 1 518 5 discriminator 1 view .LVU516
 1390 01f6 089B     		ldr	r3, [sp, #32]
 1391              	.LBE8:
 518:Core/Src/adc.c ****     /**ADC3 GPIO Configuration
 1392              		.loc 1 518 5 discriminator 1 view .LVU517
 524:Core/Src/adc.c ****     GPIO_InitStruct.Mode = GPIO_MODE_ANALOG;
 1393              		.loc 1 524 5 discriminator 1 view .LVU518
 524:Core/Src/adc.c ****     GPIO_InitStruct.Mode = GPIO_MODE_ANALOG;
 1394              		.loc 1 524 25 is_stmt 0 discriminator 1 view .LVU519
 1395 01f8 4FF46073 		mov	r3, #896
 1396 01fc 2393     		str	r3, [sp, #140]
 525:Core/Src/adc.c ****     GPIO_InitStruct.Pull = GPIO_NOPULL;
 1397              		.loc 1 525 5 is_stmt 1 discriminator 1 view .LVU520
 525:Core/Src/adc.c ****     GPIO_InitStruct.Pull = GPIO_NOPULL;
 1398              		.loc 1 525 26 is_stmt 0 discriminator 1 view .LVU521
 1399 01fe 0323     		movs	r3, #3
 1400 0200 2493     		str	r3, [sp, #144]
 526:Core/Src/adc.c ****     HAL_GPIO_Init(GPIOE, &GPIO_InitStruct);
 1401              		.loc 1 526 5 is_stmt 1 discriminator 1 view .LVU522
 526:Core/Src/adc.c ****     HAL_GPIO_Init(GPIOE, &GPIO_InitStruct);
 1402              		.loc 1 526 26 is_stmt 0 discriminator 1 view .LVU523
 1403 0202 0025     		movs	r5, #0
 1404 0204 2595     		str	r5, [sp, #148]
 527:Core/Src/adc.c **** 
 1405              		.loc 1 527 5 is_stmt 1 discriminator 1 view .LVU524
 1406 0206 23A9     		add	r1, sp, #140
 1407 0208 2348     		ldr	r0, .L93+52
 1408 020a FFF7FEFF 		bl	HAL_GPIO_Init
 1409              	.LVL57:
 531:Core/Src/adc.c ****     hdma_adc3.Init.Request = DMA_REQUEST_ADC3;
 1410              		.loc 1 531 5 discriminator 1 view .LVU525
 531:Core/Src/adc.c ****     hdma_adc3.Init.Request = DMA_REQUEST_ADC3;
 1411              		.loc 1 531 24 is_stmt 0 discriminator 1 view .LVU526
 1412 020e 2348     		ldr	r0, .L93+56
 1413 0210 234B     		ldr	r3, .L93+60
 1414 0212 0360     		str	r3, [r0]
 532:Core/Src/adc.c ****     hdma_adc3.Init.Direction = DMA_PERIPH_TO_MEMORY;
 1415              		.loc 1 532 5 is_stmt 1 discriminator 1 view .LVU527
 532:Core/Src/adc.c ****     hdma_adc3.Init.Direction = DMA_PERIPH_TO_MEMORY;
 1416              		.loc 1 532 28 is_stmt 0 discriminator 1 view .LVU528
 1417 0214 2523     		movs	r3, #37
 1418 0216 4360     		str	r3, [r0, #4]
 533:Core/Src/adc.c ****     hdma_adc3.Init.PeriphInc = DMA_PINC_DISABLE;
 1419              		.loc 1 533 5 is_stmt 1 discriminator 1 view .LVU529
 533:Core/Src/adc.c ****     hdma_adc3.Init.PeriphInc = DMA_PINC_DISABLE;
 1420              		.loc 1 533 30 is_stmt 0 discriminator 1 view .LVU530
ARM GAS  C:\Users\purdu\AppData\Local\Temp\ccdVItDm.s 			page 40


 1421 0218 8560     		str	r5, [r0, #8]
 534:Core/Src/adc.c ****     hdma_adc3.Init.MemInc = DMA_MINC_ENABLE;
 1422              		.loc 1 534 5 is_stmt 1 discriminator 1 view .LVU531
 534:Core/Src/adc.c ****     hdma_adc3.Init.MemInc = DMA_MINC_ENABLE;
 1423              		.loc 1 534 30 is_stmt 0 discriminator 1 view .LVU532
 1424 021a C560     		str	r5, [r0, #12]
 535:Core/Src/adc.c ****     hdma_adc3.Init.PeriphDataAlignment = DMA_PDATAALIGN_HALFWORD;
 1425              		.loc 1 535 5 is_stmt 1 discriminator 1 view .LVU533
 535:Core/Src/adc.c ****     hdma_adc3.Init.PeriphDataAlignment = DMA_PDATAALIGN_HALFWORD;
 1426              		.loc 1 535 27 is_stmt 0 discriminator 1 view .LVU534
 1427 021c 8023     		movs	r3, #128
 1428 021e 0361     		str	r3, [r0, #16]
 536:Core/Src/adc.c ****     hdma_adc3.Init.MemDataAlignment = DMA_MDATAALIGN_HALFWORD;
 1429              		.loc 1 536 5 is_stmt 1 discriminator 1 view .LVU535
 536:Core/Src/adc.c ****     hdma_adc3.Init.MemDataAlignment = DMA_MDATAALIGN_HALFWORD;
 1430              		.loc 1 536 40 is_stmt 0 discriminator 1 view .LVU536
 1431 0220 4FF48073 		mov	r3, #256
 1432 0224 4361     		str	r3, [r0, #20]
 537:Core/Src/adc.c ****     hdma_adc3.Init.Mode = DMA_CIRCULAR;
 1433              		.loc 1 537 5 is_stmt 1 discriminator 1 view .LVU537
 537:Core/Src/adc.c ****     hdma_adc3.Init.Mode = DMA_CIRCULAR;
 1434              		.loc 1 537 37 is_stmt 0 discriminator 1 view .LVU538
 1435 0226 4FF48063 		mov	r3, #1024
 1436 022a 8361     		str	r3, [r0, #24]
 538:Core/Src/adc.c ****     hdma_adc3.Init.Priority = DMA_PRIORITY_LOW;
 1437              		.loc 1 538 5 is_stmt 1 discriminator 1 view .LVU539
 538:Core/Src/adc.c ****     hdma_adc3.Init.Priority = DMA_PRIORITY_LOW;
 1438              		.loc 1 538 25 is_stmt 0 discriminator 1 view .LVU540
 1439 022c 2023     		movs	r3, #32
 1440 022e C361     		str	r3, [r0, #28]
 539:Core/Src/adc.c ****     if (HAL_DMA_Init(&hdma_adc3) != HAL_OK)
 1441              		.loc 1 539 5 is_stmt 1 discriminator 1 view .LVU541
 539:Core/Src/adc.c ****     if (HAL_DMA_Init(&hdma_adc3) != HAL_OK)
 1442              		.loc 1 539 29 is_stmt 0 discriminator 1 view .LVU542
 1443 0230 0562     		str	r5, [r0, #32]
 540:Core/Src/adc.c ****     {
 1444              		.loc 1 540 5 is_stmt 1 discriminator 1 view .LVU543
 540:Core/Src/adc.c ****     {
 1445              		.loc 1 540 9 is_stmt 0 discriminator 1 view .LVU544
 1446 0232 FFF7FEFF 		bl	HAL_DMA_Init
 1447              	.LVL58:
 540:Core/Src/adc.c ****     {
 1448              		.loc 1 540 8 discriminator 1 view .LVU545
 1449 0236 88B9     		cbnz	r0, .L88
 1450              	.L68:
 545:Core/Src/adc.c **** 
 1451              		.loc 1 545 5 is_stmt 1 view .LVU546
 545:Core/Src/adc.c **** 
 1452              		.loc 1 545 5 view .LVU547
 1453 0238 184B     		ldr	r3, .L93+56
 1454 023a 6365     		str	r3, [r4, #84]
 545:Core/Src/adc.c **** 
 1455              		.loc 1 545 5 view .LVU548
 1456 023c 9C62     		str	r4, [r3, #40]
 545:Core/Src/adc.c **** 
 1457              		.loc 1 545 5 view .LVU549
 1458 023e FFE6     		b	.L55
ARM GAS  C:\Users\purdu\AppData\Local\Temp\ccdVItDm.s 			page 41


 1459              	.L86:
 509:Core/Src/adc.c ****     }
 1460              		.loc 1 509 7 view .LVU550
 1461 0240 FFF7FEFF 		bl	Error_Handler
 1462              	.LVL59:
 1463 0244 C8E7     		b	.L66
 1464              	.L87:
 515:Core/Src/adc.c ****     }
 1465              		.loc 1 515 7 view .LVU551
 1466              	.LBB9:
 515:Core/Src/adc.c ****     }
 1467              		.loc 1 515 7 view .LVU552
 515:Core/Src/adc.c ****     }
 1468              		.loc 1 515 7 view .LVU553
 1469 0246 0C4B     		ldr	r3, .L93+20
 1470 0248 DA6C     		ldr	r2, [r3, #76]
 1471 024a 42F48042 		orr	r2, r2, #16384
 1472 024e DA64     		str	r2, [r3, #76]
 515:Core/Src/adc.c ****     }
 1473              		.loc 1 515 7 view .LVU554
 1474 0250 DB6C     		ldr	r3, [r3, #76]
 1475 0252 03F48043 		and	r3, r3, #16384
 1476 0256 0793     		str	r3, [sp, #28]
 515:Core/Src/adc.c ****     }
 1477              		.loc 1 515 7 view .LVU555
 1478 0258 079B     		ldr	r3, [sp, #28]
 1479 025a C3E7     		b	.L67
 1480              	.L88:
 1481              	.LBE9:
 542:Core/Src/adc.c ****     }
 1482              		.loc 1 542 7 view .LVU556
 1483 025c FFF7FEFF 		bl	Error_Handler
 1484              	.LVL60:
 1485 0260 EAE7     		b	.L68
 1486              	.L94:
 1487 0262 00BF     		.align	2
 1488              	.L93:
 1489 0264 00010050 		.word	1342177536
 1490 0268 00040050 		.word	1342178304
 1491 026c 00050050 		.word	1342178560
 1492 0270 00060050 		.word	1342178816
 1493 0274 00000000 		.word	HAL_RCC_ADC12_CLK_ENABLED
 1494 0278 00100240 		.word	1073876992
 1495 027c 00000000 		.word	hdma_adc1
 1496 0280 08040240 		.word	1073873928
 1497 0284 00080048 		.word	1207961600
 1498 0288 00040048 		.word	1207960576
 1499 028c 00000000 		.word	hdma_adc2
 1500 0290 08000240 		.word	1073872904
 1501 0294 00000000 		.word	HAL_RCC_ADC345_CLK_ENABLED
 1502 0298 00100048 		.word	1207963648
 1503 029c 00000000 		.word	hdma_adc3
 1504 02a0 1C000240 		.word	1073872924
 1505              	.L78:
 559:Core/Src/adc.c ****     PeriphClkInit.Adc345ClockSelection = RCC_ADC345CLKSOURCE_SYSCLK;
 1506              		.loc 1 559 5 view .LVU557
 559:Core/Src/adc.c ****     PeriphClkInit.Adc345ClockSelection = RCC_ADC345CLKSOURCE_SYSCLK;
ARM GAS  C:\Users\purdu\AppData\Local\Temp\ccdVItDm.s 			page 42


 1507              		.loc 1 559 40 is_stmt 0 view .LVU558
 1508 02a4 4FF48033 		mov	r3, #65536
 1509 02a8 0E93     		str	r3, [sp, #56]
 560:Core/Src/adc.c ****     if (HAL_RCCEx_PeriphCLKConfig(&PeriphClkInit) != HAL_OK)
 1510              		.loc 1 560 5 is_stmt 1 view .LVU559
 560:Core/Src/adc.c ****     if (HAL_RCCEx_PeriphCLKConfig(&PeriphClkInit) != HAL_OK)
 1511              		.loc 1 560 40 is_stmt 0 view .LVU560
 1512 02aa 4FF00043 		mov	r3, #-2147483648
 1513 02ae 2093     		str	r3, [sp, #128]
 561:Core/Src/adc.c ****     {
 1514              		.loc 1 561 5 is_stmt 1 view .LVU561
 561:Core/Src/adc.c ****     {
 1515              		.loc 1 561 9 is_stmt 0 view .LVU562
 1516 02b0 0EA8     		add	r0, sp, #56
 1517 02b2 FFF7FEFF 		bl	HAL_RCCEx_PeriphCLKConfig
 1518              	.LVL61:
 561:Core/Src/adc.c ****     {
 1519              		.loc 1 561 8 view .LVU563
 1520 02b6 0028     		cmp	r0, #0
 1521 02b8 2DD1     		bne	.L89
 1522              	.L70:
 567:Core/Src/adc.c ****     if(HAL_RCC_ADC345_CLK_ENABLED==1){
 1523              		.loc 1 567 5 is_stmt 1 view .LVU564
 567:Core/Src/adc.c ****     if(HAL_RCC_ADC345_CLK_ENABLED==1){
 1524              		.loc 1 567 31 is_stmt 0 view .LVU565
 1525 02ba 384A     		ldr	r2, .L95
 1526 02bc 1368     		ldr	r3, [r2]
 1527 02be 0133     		adds	r3, r3, #1
 1528 02c0 1360     		str	r3, [r2]
 568:Core/Src/adc.c ****       __HAL_RCC_ADC345_CLK_ENABLE();
 1529              		.loc 1 568 5 is_stmt 1 view .LVU566
 568:Core/Src/adc.c ****       __HAL_RCC_ADC345_CLK_ENABLE();
 1530              		.loc 1 568 7 is_stmt 0 view .LVU567
 1531 02c2 012B     		cmp	r3, #1
 1532 02c4 2AD0     		beq	.L90
 1533              	.L71:
 569:Core/Src/adc.c ****     }
 1534              		.loc 1 569 7 is_stmt 1 discriminator 1 view .LVU568
 572:Core/Src/adc.c ****     __HAL_RCC_GPIOD_CLK_ENABLE();
 1535              		.loc 1 572 5 discriminator 1 view .LVU569
 1536              	.LBB10:
 572:Core/Src/adc.c ****     __HAL_RCC_GPIOD_CLK_ENABLE();
 1537              		.loc 1 572 5 discriminator 1 view .LVU570
 572:Core/Src/adc.c ****     __HAL_RCC_GPIOD_CLK_ENABLE();
 1538              		.loc 1 572 5 discriminator 1 view .LVU571
 1539 02c6 364B     		ldr	r3, .L95+4
 1540 02c8 DA6C     		ldr	r2, [r3, #76]
 1541 02ca 42F00202 		orr	r2, r2, #2
 1542 02ce DA64     		str	r2, [r3, #76]
 572:Core/Src/adc.c ****     __HAL_RCC_GPIOD_CLK_ENABLE();
 1543              		.loc 1 572 5 discriminator 1 view .LVU572
 1544 02d0 DA6C     		ldr	r2, [r3, #76]
 1545 02d2 02F00202 		and	r2, r2, #2
 1546 02d6 0A92     		str	r2, [sp, #40]
 572:Core/Src/adc.c ****     __HAL_RCC_GPIOD_CLK_ENABLE();
 1547              		.loc 1 572 5 discriminator 1 view .LVU573
 1548 02d8 0A9A     		ldr	r2, [sp, #40]
ARM GAS  C:\Users\purdu\AppData\Local\Temp\ccdVItDm.s 			page 43


 1549              	.LBE10:
 572:Core/Src/adc.c ****     __HAL_RCC_GPIOD_CLK_ENABLE();
 1550              		.loc 1 572 5 discriminator 1 view .LVU574
 573:Core/Src/adc.c ****     /**ADC4 GPIO Configuration
 1551              		.loc 1 573 5 discriminator 1 view .LVU575
 1552              	.LBB11:
 573:Core/Src/adc.c ****     /**ADC4 GPIO Configuration
 1553              		.loc 1 573 5 discriminator 1 view .LVU576
 573:Core/Src/adc.c ****     /**ADC4 GPIO Configuration
 1554              		.loc 1 573 5 discriminator 1 view .LVU577
 1555 02da DA6C     		ldr	r2, [r3, #76]
 1556 02dc 42F00802 		orr	r2, r2, #8
 1557 02e0 DA64     		str	r2, [r3, #76]
 573:Core/Src/adc.c ****     /**ADC4 GPIO Configuration
 1558              		.loc 1 573 5 discriminator 1 view .LVU578
 1559 02e2 DB6C     		ldr	r3, [r3, #76]
 1560 02e4 03F00803 		and	r3, r3, #8
 1561 02e8 0B93     		str	r3, [sp, #44]
 573:Core/Src/adc.c ****     /**ADC4 GPIO Configuration
 1562              		.loc 1 573 5 discriminator 1 view .LVU579
 1563 02ea 0B9B     		ldr	r3, [sp, #44]
 1564              	.LBE11:
 573:Core/Src/adc.c ****     /**ADC4 GPIO Configuration
 1565              		.loc 1 573 5 discriminator 1 view .LVU580
 578:Core/Src/adc.c ****     GPIO_InitStruct.Mode = GPIO_MODE_ANALOG;
 1566              		.loc 1 578 5 discriminator 1 view .LVU581
 578:Core/Src/adc.c ****     GPIO_InitStruct.Mode = GPIO_MODE_ANALOG;
 1567              		.loc 1 578 25 is_stmt 0 discriminator 1 view .LVU582
 1568 02ec 4FF48053 		mov	r3, #4096
 1569 02f0 2393     		str	r3, [sp, #140]
 579:Core/Src/adc.c ****     GPIO_InitStruct.Pull = GPIO_NOPULL;
 1570              		.loc 1 579 5 is_stmt 1 discriminator 1 view .LVU583
 579:Core/Src/adc.c ****     GPIO_InitStruct.Pull = GPIO_NOPULL;
 1571              		.loc 1 579 26 is_stmt 0 discriminator 1 view .LVU584
 1572 02f2 0325     		movs	r5, #3
 1573 02f4 2495     		str	r5, [sp, #144]
 580:Core/Src/adc.c ****     HAL_GPIO_Init(GPIOB, &GPIO_InitStruct);
 1574              		.loc 1 580 5 is_stmt 1 discriminator 1 view .LVU585
 580:Core/Src/adc.c ****     HAL_GPIO_Init(GPIOB, &GPIO_InitStruct);
 1575              		.loc 1 580 26 is_stmt 0 discriminator 1 view .LVU586
 1576 02f6 0024     		movs	r4, #0
 1577              	.LVL62:
 580:Core/Src/adc.c ****     HAL_GPIO_Init(GPIOB, &GPIO_InitStruct);
 1578              		.loc 1 580 26 discriminator 1 view .LVU587
 1579 02f8 2594     		str	r4, [sp, #148]
 581:Core/Src/adc.c **** 
 1580              		.loc 1 581 5 is_stmt 1 discriminator 1 view .LVU588
 1581 02fa 23A9     		add	r1, sp, #140
 1582 02fc 2948     		ldr	r0, .L95+8
 1583 02fe FFF7FEFF 		bl	HAL_GPIO_Init
 1584              	.LVL63:
 583:Core/Src/adc.c ****     GPIO_InitStruct.Mode = GPIO_MODE_ANALOG;
 1585              		.loc 1 583 5 discriminator 1 view .LVU589
 583:Core/Src/adc.c ****     GPIO_InitStruct.Mode = GPIO_MODE_ANALOG;
 1586              		.loc 1 583 25 is_stmt 0 discriminator 1 view .LVU590
 1587 0302 4FF48073 		mov	r3, #256
 1588 0306 2393     		str	r3, [sp, #140]
ARM GAS  C:\Users\purdu\AppData\Local\Temp\ccdVItDm.s 			page 44


 584:Core/Src/adc.c ****     GPIO_InitStruct.Pull = GPIO_NOPULL;
 1589              		.loc 1 584 5 is_stmt 1 discriminator 1 view .LVU591
 584:Core/Src/adc.c ****     GPIO_InitStruct.Pull = GPIO_NOPULL;
 1590              		.loc 1 584 26 is_stmt 0 discriminator 1 view .LVU592
 1591 0308 2495     		str	r5, [sp, #144]
 585:Core/Src/adc.c ****     HAL_GPIO_Init(GPIOD, &GPIO_InitStruct);
 1592              		.loc 1 585 5 is_stmt 1 discriminator 1 view .LVU593
 585:Core/Src/adc.c ****     HAL_GPIO_Init(GPIOD, &GPIO_InitStruct);
 1593              		.loc 1 585 26 is_stmt 0 discriminator 1 view .LVU594
 1594 030a 2594     		str	r4, [sp, #148]
 586:Core/Src/adc.c **** 
 1595              		.loc 1 586 5 is_stmt 1 discriminator 1 view .LVU595
 1596 030c 23A9     		add	r1, sp, #140
 1597 030e 2648     		ldr	r0, .L95+12
 1598 0310 FFF7FEFF 		bl	HAL_GPIO_Init
 1599              	.LVL64:
 1600 0314 94E6     		b	.L55
 1601              	.LVL65:
 1602              	.L89:
 563:Core/Src/adc.c ****     }
 1603              		.loc 1 563 7 view .LVU596
 1604 0316 FFF7FEFF 		bl	Error_Handler
 1605              	.LVL66:
 1606 031a CEE7     		b	.L70
 1607              	.L90:
 569:Core/Src/adc.c ****     }
 1608              		.loc 1 569 7 view .LVU597
 1609              	.LBB12:
 569:Core/Src/adc.c ****     }
 1610              		.loc 1 569 7 view .LVU598
 569:Core/Src/adc.c ****     }
 1611              		.loc 1 569 7 view .LVU599
 1612 031c 204B     		ldr	r3, .L95+4
 1613 031e DA6C     		ldr	r2, [r3, #76]
 1614 0320 42F48042 		orr	r2, r2, #16384
 1615 0324 DA64     		str	r2, [r3, #76]
 569:Core/Src/adc.c ****     }
 1616              		.loc 1 569 7 view .LVU600
 1617 0326 DB6C     		ldr	r3, [r3, #76]
 1618 0328 03F48043 		and	r3, r3, #16384
 1619 032c 0993     		str	r3, [sp, #36]
 569:Core/Src/adc.c ****     }
 1620              		.loc 1 569 7 view .LVU601
 1621 032e 099B     		ldr	r3, [sp, #36]
 1622 0330 C9E7     		b	.L71
 1623              	.L79:
 1624              	.LBE12:
 600:Core/Src/adc.c ****     PeriphClkInit.Adc345ClockSelection = RCC_ADC345CLKSOURCE_SYSCLK;
 1625              		.loc 1 600 5 view .LVU602
 600:Core/Src/adc.c ****     PeriphClkInit.Adc345ClockSelection = RCC_ADC345CLKSOURCE_SYSCLK;
 1626              		.loc 1 600 40 is_stmt 0 view .LVU603
 1627 0332 4FF48033 		mov	r3, #65536
 1628 0336 0E93     		str	r3, [sp, #56]
 601:Core/Src/adc.c ****     if (HAL_RCCEx_PeriphCLKConfig(&PeriphClkInit) != HAL_OK)
 1629              		.loc 1 601 5 is_stmt 1 view .LVU604
 601:Core/Src/adc.c ****     if (HAL_RCCEx_PeriphCLKConfig(&PeriphClkInit) != HAL_OK)
 1630              		.loc 1 601 40 is_stmt 0 view .LVU605
ARM GAS  C:\Users\purdu\AppData\Local\Temp\ccdVItDm.s 			page 45


 1631 0338 4FF00043 		mov	r3, #-2147483648
 1632 033c 2093     		str	r3, [sp, #128]
 602:Core/Src/adc.c ****     {
 1633              		.loc 1 602 5 is_stmt 1 view .LVU606
 602:Core/Src/adc.c ****     {
 1634              		.loc 1 602 9 is_stmt 0 view .LVU607
 1635 033e 0EA8     		add	r0, sp, #56
 1636 0340 FFF7FEFF 		bl	HAL_RCCEx_PeriphCLKConfig
 1637              	.LVL67:
 602:Core/Src/adc.c ****     {
 1638              		.loc 1 602 8 view .LVU608
 1639 0344 E0B9     		cbnz	r0, .L91
 1640              	.L72:
 608:Core/Src/adc.c ****     if(HAL_RCC_ADC345_CLK_ENABLED==1){
 1641              		.loc 1 608 5 is_stmt 1 view .LVU609
 608:Core/Src/adc.c ****     if(HAL_RCC_ADC345_CLK_ENABLED==1){
 1642              		.loc 1 608 31 is_stmt 0 view .LVU610
 1643 0346 154A     		ldr	r2, .L95
 1644 0348 1368     		ldr	r3, [r2]
 1645 034a 0133     		adds	r3, r3, #1
 1646 034c 1360     		str	r3, [r2]
 609:Core/Src/adc.c ****       __HAL_RCC_ADC345_CLK_ENABLE();
 1647              		.loc 1 609 5 is_stmt 1 view .LVU611
 609:Core/Src/adc.c ****       __HAL_RCC_ADC345_CLK_ENABLE();
 1648              		.loc 1 609 7 is_stmt 0 view .LVU612
 1649 034e 012B     		cmp	r3, #1
 1650 0350 19D0     		beq	.L92
 1651              	.L73:
 610:Core/Src/adc.c ****     }
 1652              		.loc 1 610 7 is_stmt 1 discriminator 1 view .LVU613
 613:Core/Src/adc.c ****     /**ADC5 GPIO Configuration
 1653              		.loc 1 613 5 discriminator 1 view .LVU614
 1654              	.LBB13:
 613:Core/Src/adc.c ****     /**ADC5 GPIO Configuration
 1655              		.loc 1 613 5 discriminator 1 view .LVU615
 613:Core/Src/adc.c ****     /**ADC5 GPIO Configuration
 1656              		.loc 1 613 5 discriminator 1 view .LVU616
 1657 0352 134B     		ldr	r3, .L95+4
 1658 0354 DA6C     		ldr	r2, [r3, #76]
 1659 0356 42F00102 		orr	r2, r2, #1
 1660 035a DA64     		str	r2, [r3, #76]
 613:Core/Src/adc.c ****     /**ADC5 GPIO Configuration
 1661              		.loc 1 613 5 discriminator 1 view .LVU617
 1662 035c DB6C     		ldr	r3, [r3, #76]
 1663 035e 03F00103 		and	r3, r3, #1
 1664 0362 0D93     		str	r3, [sp, #52]
 613:Core/Src/adc.c ****     /**ADC5 GPIO Configuration
 1665              		.loc 1 613 5 discriminator 1 view .LVU618
 1666 0364 0D9B     		ldr	r3, [sp, #52]
 1667              	.LBE13:
 613:Core/Src/adc.c ****     /**ADC5 GPIO Configuration
 1668              		.loc 1 613 5 discriminator 1 view .LVU619
 617:Core/Src/adc.c ****     GPIO_InitStruct.Mode = GPIO_MODE_ANALOG;
 1669              		.loc 1 617 5 discriminator 1 view .LVU620
 617:Core/Src/adc.c ****     GPIO_InitStruct.Mode = GPIO_MODE_ANALOG;
 1670              		.loc 1 617 25 is_stmt 0 discriminator 1 view .LVU621
 1671 0366 4FF48073 		mov	r3, #256
ARM GAS  C:\Users\purdu\AppData\Local\Temp\ccdVItDm.s 			page 46


 1672 036a 2393     		str	r3, [sp, #140]
 618:Core/Src/adc.c ****     GPIO_InitStruct.Pull = GPIO_NOPULL;
 1673              		.loc 1 618 5 is_stmt 1 discriminator 1 view .LVU622
 618:Core/Src/adc.c ****     GPIO_InitStruct.Pull = GPIO_NOPULL;
 1674              		.loc 1 618 26 is_stmt 0 discriminator 1 view .LVU623
 1675 036c 0323     		movs	r3, #3
 1676 036e 2493     		str	r3, [sp, #144]
 619:Core/Src/adc.c ****     HAL_GPIO_Init(GPIOA, &GPIO_InitStruct);
 1677              		.loc 1 619 5 is_stmt 1 discriminator 1 view .LVU624
 619:Core/Src/adc.c ****     HAL_GPIO_Init(GPIOA, &GPIO_InitStruct);
 1678              		.loc 1 619 26 is_stmt 0 discriminator 1 view .LVU625
 1679 0370 0023     		movs	r3, #0
 1680 0372 2593     		str	r3, [sp, #148]
 620:Core/Src/adc.c **** 
 1681              		.loc 1 620 5 is_stmt 1 discriminator 1 view .LVU626
 1682 0374 23A9     		add	r1, sp, #140
 1683 0376 4FF09040 		mov	r0, #1207959552
 1684 037a FFF7FEFF 		bl	HAL_GPIO_Init
 1685              	.LVL68:
 1686              		.loc 1 626 1 is_stmt 0 discriminator 1 view .LVU627
 1687 037e 5FE6     		b	.L55
 1688              	.L91:
 604:Core/Src/adc.c ****     }
 1689              		.loc 1 604 7 is_stmt 1 view .LVU628
 1690 0380 FFF7FEFF 		bl	Error_Handler
 1691              	.LVL69:
 1692 0384 DFE7     		b	.L72
 1693              	.L92:
 610:Core/Src/adc.c ****     }
 1694              		.loc 1 610 7 view .LVU629
 1695              	.LBB14:
 610:Core/Src/adc.c ****     }
 1696              		.loc 1 610 7 view .LVU630
 610:Core/Src/adc.c ****     }
 1697              		.loc 1 610 7 view .LVU631
 1698 0386 064B     		ldr	r3, .L95+4
 1699 0388 DA6C     		ldr	r2, [r3, #76]
 1700 038a 42F48042 		orr	r2, r2, #16384
 1701 038e DA64     		str	r2, [r3, #76]
 610:Core/Src/adc.c ****     }
 1702              		.loc 1 610 7 view .LVU632
 1703 0390 DB6C     		ldr	r3, [r3, #76]
 1704 0392 03F48043 		and	r3, r3, #16384
 1705 0396 0C93     		str	r3, [sp, #48]
 610:Core/Src/adc.c ****     }
 1706              		.loc 1 610 7 view .LVU633
 1707 0398 0C9B     		ldr	r3, [sp, #48]
 1708 039a DAE7     		b	.L73
 1709              	.L96:
 1710              		.align	2
 1711              	.L95:
 1712 039c 00000000 		.word	HAL_RCC_ADC345_CLK_ENABLED
 1713 03a0 00100240 		.word	1073876992
 1714 03a4 00040048 		.word	1207960576
 1715 03a8 000C0048 		.word	1207962624
 1716              	.LBE14:
 1717              		.cfi_endproc
ARM GAS  C:\Users\purdu\AppData\Local\Temp\ccdVItDm.s 			page 47


 1718              	.LFE334:
 1720              		.section	.text.HAL_ADC_MspDeInit,"ax",%progbits
 1721              		.align	1
 1722              		.global	HAL_ADC_MspDeInit
 1723              		.syntax unified
 1724              		.thumb
 1725              		.thumb_func
 1727              	HAL_ADC_MspDeInit:
 1728              	.LVL70:
 1729              	.LFB335:
 627:Core/Src/adc.c **** 
 628:Core/Src/adc.c **** void HAL_ADC_MspDeInit(ADC_HandleTypeDef* adcHandle)
 629:Core/Src/adc.c **** {
 1730              		.loc 1 629 1 view -0
 1731              		.cfi_startproc
 1732              		@ args = 0, pretend = 0, frame = 0
 1733              		@ frame_needed = 0, uses_anonymous_args = 0
 1734              		.loc 1 629 1 is_stmt 0 view .LVU635
 1735 0000 10B5     		push	{r4, lr}
 1736              	.LCFI24:
 1737              		.cfi_def_cfa_offset 8
 1738              		.cfi_offset 4, -8
 1739              		.cfi_offset 14, -4
 1740 0002 0446     		mov	r4, r0
 630:Core/Src/adc.c **** 
 631:Core/Src/adc.c ****   if(adcHandle->Instance==ADC1)
 1741              		.loc 1 631 3 is_stmt 1 view .LVU636
 1742              		.loc 1 631 15 is_stmt 0 view .LVU637
 1743 0004 0368     		ldr	r3, [r0]
 1744              		.loc 1 631 5 view .LVU638
 1745 0006 B3F1A04F 		cmp	r3, #1342177280
 1746 000a 1CD0     		beq	.L109
 632:Core/Src/adc.c ****   {
 633:Core/Src/adc.c ****   /* USER CODE BEGIN ADC1_MspDeInit 0 */
 634:Core/Src/adc.c **** 
 635:Core/Src/adc.c ****   /* USER CODE END ADC1_MspDeInit 0 */
 636:Core/Src/adc.c ****     /* Peripheral clock disable */
 637:Core/Src/adc.c ****     HAL_RCC_ADC12_CLK_ENABLED--;
 638:Core/Src/adc.c ****     if(HAL_RCC_ADC12_CLK_ENABLED==0){
 639:Core/Src/adc.c ****       __HAL_RCC_ADC12_CLK_DISABLE();
 640:Core/Src/adc.c ****     }
 641:Core/Src/adc.c **** 
 642:Core/Src/adc.c ****     /**ADC1 GPIO Configuration
 643:Core/Src/adc.c ****     PA0     ------> ADC1_IN1
 644:Core/Src/adc.c ****     PA1     ------> ADC1_IN2
 645:Core/Src/adc.c ****     */
 646:Core/Src/adc.c ****     HAL_GPIO_DeInit(GPIOA, GPIO_PIN_0|GPIO_PIN_1);
 647:Core/Src/adc.c **** 
 648:Core/Src/adc.c ****     /* ADC1 DMA DeInit */
 649:Core/Src/adc.c ****     HAL_DMA_DeInit(adcHandle->DMA_Handle);
 650:Core/Src/adc.c ****   /* USER CODE BEGIN ADC1_MspDeInit 1 */
 651:Core/Src/adc.c **** 
 652:Core/Src/adc.c ****   /* USER CODE END ADC1_MspDeInit 1 */
 653:Core/Src/adc.c ****   }
 654:Core/Src/adc.c ****   else if(adcHandle->Instance==ADC2)
 1747              		.loc 1 654 8 is_stmt 1 view .LVU639
 1748              		.loc 1 654 10 is_stmt 0 view .LVU640
ARM GAS  C:\Users\purdu\AppData\Local\Temp\ccdVItDm.s 			page 48


 1749 000c 394A     		ldr	r2, .L113
 1750 000e 9342     		cmp	r3, r2
 1751 0010 2CD0     		beq	.L110
 655:Core/Src/adc.c ****   {
 656:Core/Src/adc.c ****   /* USER CODE BEGIN ADC2_MspDeInit 0 */
 657:Core/Src/adc.c **** 
 658:Core/Src/adc.c ****   /* USER CODE END ADC2_MspDeInit 0 */
 659:Core/Src/adc.c ****     /* Peripheral clock disable */
 660:Core/Src/adc.c ****     HAL_RCC_ADC12_CLK_ENABLED--;
 661:Core/Src/adc.c ****     if(HAL_RCC_ADC12_CLK_ENABLED==0){
 662:Core/Src/adc.c ****       __HAL_RCC_ADC12_CLK_DISABLE();
 663:Core/Src/adc.c ****     }
 664:Core/Src/adc.c **** 
 665:Core/Src/adc.c ****     /**ADC2 GPIO Configuration
 666:Core/Src/adc.c ****     PA5     ------> ADC2_IN13
 667:Core/Src/adc.c ****     PC5     ------> ADC2_IN11
 668:Core/Src/adc.c ****     PB2     ------> ADC2_IN12
 669:Core/Src/adc.c ****     */
 670:Core/Src/adc.c ****     HAL_GPIO_DeInit(GPIOA, GPIO_PIN_5);
 671:Core/Src/adc.c **** 
 672:Core/Src/adc.c ****     HAL_GPIO_DeInit(GPIOC, GPIO_PIN_5);
 673:Core/Src/adc.c **** 
 674:Core/Src/adc.c ****     HAL_GPIO_DeInit(GPIOB, GPIO_PIN_2);
 675:Core/Src/adc.c **** 
 676:Core/Src/adc.c ****     /* ADC2 DMA DeInit */
 677:Core/Src/adc.c ****     HAL_DMA_DeInit(adcHandle->DMA_Handle);
 678:Core/Src/adc.c ****   /* USER CODE BEGIN ADC2_MspDeInit 1 */
 679:Core/Src/adc.c **** 
 680:Core/Src/adc.c ****   /* USER CODE END ADC2_MspDeInit 1 */
 681:Core/Src/adc.c ****   }
 682:Core/Src/adc.c ****   else if(adcHandle->Instance==ADC3)
 1752              		.loc 1 682 8 is_stmt 1 view .LVU641
 1753              		.loc 1 682 10 is_stmt 0 view .LVU642
 1754 0012 394A     		ldr	r2, .L113+4
 1755 0014 9342     		cmp	r3, r2
 1756 0016 44D0     		beq	.L111
 683:Core/Src/adc.c ****   {
 684:Core/Src/adc.c ****   /* USER CODE BEGIN ADC3_MspDeInit 0 */
 685:Core/Src/adc.c **** 
 686:Core/Src/adc.c ****   /* USER CODE END ADC3_MspDeInit 0 */
 687:Core/Src/adc.c ****     /* Peripheral clock disable */
 688:Core/Src/adc.c ****     HAL_RCC_ADC345_CLK_ENABLED--;
 689:Core/Src/adc.c ****     if(HAL_RCC_ADC345_CLK_ENABLED==0){
 690:Core/Src/adc.c ****       __HAL_RCC_ADC345_CLK_DISABLE();
 691:Core/Src/adc.c ****     }
 692:Core/Src/adc.c **** 
 693:Core/Src/adc.c ****     /**ADC3 GPIO Configuration
 694:Core/Src/adc.c ****     PE7     ------> ADC3_IN4
 695:Core/Src/adc.c ****     PE8     ------> ADC3_IN6
 696:Core/Src/adc.c ****     PE9     ------> ADC3_IN2
 697:Core/Src/adc.c ****     */
 698:Core/Src/adc.c ****     HAL_GPIO_DeInit(GPIOE, GPIO_PIN_7|GPIO_PIN_8|GPIO_PIN_9);
 699:Core/Src/adc.c **** 
 700:Core/Src/adc.c ****     /* ADC3 DMA DeInit */
 701:Core/Src/adc.c ****     HAL_DMA_DeInit(adcHandle->DMA_Handle);
 702:Core/Src/adc.c ****   /* USER CODE BEGIN ADC3_MspDeInit 1 */
 703:Core/Src/adc.c **** 
ARM GAS  C:\Users\purdu\AppData\Local\Temp\ccdVItDm.s 			page 49


 704:Core/Src/adc.c ****   /* USER CODE END ADC3_MspDeInit 1 */
 705:Core/Src/adc.c ****   }
 706:Core/Src/adc.c ****   else if(adcHandle->Instance==ADC4)
 1757              		.loc 1 706 8 is_stmt 1 view .LVU643
 1758              		.loc 1 706 10 is_stmt 0 view .LVU644
 1759 0018 384A     		ldr	r2, .L113+8
 1760 001a 9342     		cmp	r3, r2
 1761 001c 54D0     		beq	.L112
 707:Core/Src/adc.c ****   {
 708:Core/Src/adc.c ****   /* USER CODE BEGIN ADC4_MspDeInit 0 */
 709:Core/Src/adc.c **** 
 710:Core/Src/adc.c ****   /* USER CODE END ADC4_MspDeInit 0 */
 711:Core/Src/adc.c ****     /* Peripheral clock disable */
 712:Core/Src/adc.c ****     HAL_RCC_ADC345_CLK_ENABLED--;
 713:Core/Src/adc.c ****     if(HAL_RCC_ADC345_CLK_ENABLED==0){
 714:Core/Src/adc.c ****       __HAL_RCC_ADC345_CLK_DISABLE();
 715:Core/Src/adc.c ****     }
 716:Core/Src/adc.c **** 
 717:Core/Src/adc.c ****     /**ADC4 GPIO Configuration
 718:Core/Src/adc.c ****     PB12     ------> ADC4_IN3
 719:Core/Src/adc.c ****     PD8     ------> ADC4_IN12
 720:Core/Src/adc.c ****     */
 721:Core/Src/adc.c ****     HAL_GPIO_DeInit(GPIOB, GPIO_PIN_12);
 722:Core/Src/adc.c **** 
 723:Core/Src/adc.c ****     HAL_GPIO_DeInit(GPIOD, GPIO_PIN_8);
 724:Core/Src/adc.c **** 
 725:Core/Src/adc.c ****   /* USER CODE BEGIN ADC4_MspDeInit 1 */
 726:Core/Src/adc.c **** 
 727:Core/Src/adc.c ****   /* USER CODE END ADC4_MspDeInit 1 */
 728:Core/Src/adc.c ****   }
 729:Core/Src/adc.c ****   else if(adcHandle->Instance==ADC5)
 1762              		.loc 1 729 8 is_stmt 1 view .LVU645
 1763              		.loc 1 729 10 is_stmt 0 view .LVU646
 1764 001e 384A     		ldr	r2, .L113+12
 1765 0020 9342     		cmp	r3, r2
 1766 0022 22D1     		bne	.L97
 730:Core/Src/adc.c ****   {
 731:Core/Src/adc.c ****   /* USER CODE BEGIN ADC5_MspDeInit 0 */
 732:Core/Src/adc.c **** 
 733:Core/Src/adc.c ****   /* USER CODE END ADC5_MspDeInit 0 */
 734:Core/Src/adc.c ****     /* Peripheral clock disable */
 735:Core/Src/adc.c ****     HAL_RCC_ADC345_CLK_ENABLED--;
 1767              		.loc 1 735 5 is_stmt 1 view .LVU647
 1768              		.loc 1 735 31 is_stmt 0 view .LVU648
 1769 0024 374A     		ldr	r2, .L113+16
 1770 0026 1368     		ldr	r3, [r2]
 1771 0028 013B     		subs	r3, r3, #1
 1772 002a 1360     		str	r3, [r2]
 736:Core/Src/adc.c ****     if(HAL_RCC_ADC345_CLK_ENABLED==0){
 1773              		.loc 1 736 5 is_stmt 1 view .LVU649
 1774              		.loc 1 736 7 is_stmt 0 view .LVU650
 1775 002c 23B9     		cbnz	r3, .L107
 737:Core/Src/adc.c ****       __HAL_RCC_ADC345_CLK_DISABLE();
 1776              		.loc 1 737 7 is_stmt 1 view .LVU651
 1777 002e 364A     		ldr	r2, .L113+20
 1778 0030 D36C     		ldr	r3, [r2, #76]
 1779 0032 23F48043 		bic	r3, r3, #16384
ARM GAS  C:\Users\purdu\AppData\Local\Temp\ccdVItDm.s 			page 50


 1780 0036 D364     		str	r3, [r2, #76]
 1781              	.L107:
 738:Core/Src/adc.c ****     }
 739:Core/Src/adc.c **** 
 740:Core/Src/adc.c ****     /**ADC5 GPIO Configuration
 741:Core/Src/adc.c ****     PA8     ------> ADC5_IN1
 742:Core/Src/adc.c ****     */
 743:Core/Src/adc.c ****     HAL_GPIO_DeInit(GPIOA, GPIO_PIN_8);
 1782              		.loc 1 743 5 view .LVU652
 1783 0038 4FF48071 		mov	r1, #256
 1784 003c 4FF09040 		mov	r0, #1207959552
 1785              	.LVL71:
 1786              		.loc 1 743 5 is_stmt 0 view .LVU653
 1787 0040 FFF7FEFF 		bl	HAL_GPIO_DeInit
 1788              	.LVL72:
 744:Core/Src/adc.c **** 
 745:Core/Src/adc.c ****   /* USER CODE BEGIN ADC5_MspDeInit 1 */
 746:Core/Src/adc.c **** 
 747:Core/Src/adc.c ****   /* USER CODE END ADC5_MspDeInit 1 */
 748:Core/Src/adc.c ****   }
 749:Core/Src/adc.c **** }
 1789              		.loc 1 749 1 view .LVU654
 1790 0044 11E0     		b	.L97
 1791              	.LVL73:
 1792              	.L109:
 637:Core/Src/adc.c ****     if(HAL_RCC_ADC12_CLK_ENABLED==0){
 1793              		.loc 1 637 5 is_stmt 1 view .LVU655
 637:Core/Src/adc.c ****     if(HAL_RCC_ADC12_CLK_ENABLED==0){
 1794              		.loc 1 637 30 is_stmt 0 view .LVU656
 1795 0046 314A     		ldr	r2, .L113+24
 1796 0048 1368     		ldr	r3, [r2]
 1797 004a 013B     		subs	r3, r3, #1
 1798 004c 1360     		str	r3, [r2]
 638:Core/Src/adc.c ****       __HAL_RCC_ADC12_CLK_DISABLE();
 1799              		.loc 1 638 5 is_stmt 1 view .LVU657
 638:Core/Src/adc.c ****       __HAL_RCC_ADC12_CLK_DISABLE();
 1800              		.loc 1 638 7 is_stmt 0 view .LVU658
 1801 004e 23B9     		cbnz	r3, .L99
 639:Core/Src/adc.c ****     }
 1802              		.loc 1 639 7 is_stmt 1 view .LVU659
 1803 0050 2D4A     		ldr	r2, .L113+20
 1804 0052 D36C     		ldr	r3, [r2, #76]
 1805 0054 23F40053 		bic	r3, r3, #8192
 1806 0058 D364     		str	r3, [r2, #76]
 1807              	.L99:
 646:Core/Src/adc.c **** 
 1808              		.loc 1 646 5 view .LVU660
 1809 005a 0321     		movs	r1, #3
 1810 005c 4FF09040 		mov	r0, #1207959552
 1811              	.LVL74:
 646:Core/Src/adc.c **** 
 1812              		.loc 1 646 5 is_stmt 0 view .LVU661
 1813 0060 FFF7FEFF 		bl	HAL_GPIO_DeInit
 1814              	.LVL75:
 649:Core/Src/adc.c ****   /* USER CODE BEGIN ADC1_MspDeInit 1 */
 1815              		.loc 1 649 5 is_stmt 1 view .LVU662
 1816 0064 606D     		ldr	r0, [r4, #84]
ARM GAS  C:\Users\purdu\AppData\Local\Temp\ccdVItDm.s 			page 51


 1817 0066 FFF7FEFF 		bl	HAL_DMA_DeInit
 1818              	.LVL76:
 1819              	.L97:
 1820              		.loc 1 749 1 is_stmt 0 view .LVU663
 1821 006a 10BD     		pop	{r4, pc}
 1822              	.LVL77:
 1823              	.L110:
 660:Core/Src/adc.c ****     if(HAL_RCC_ADC12_CLK_ENABLED==0){
 1824              		.loc 1 660 5 is_stmt 1 view .LVU664
 660:Core/Src/adc.c ****     if(HAL_RCC_ADC12_CLK_ENABLED==0){
 1825              		.loc 1 660 30 is_stmt 0 view .LVU665
 1826 006c 274A     		ldr	r2, .L113+24
 1827 006e 1368     		ldr	r3, [r2]
 1828 0070 013B     		subs	r3, r3, #1
 1829 0072 1360     		str	r3, [r2]
 661:Core/Src/adc.c ****       __HAL_RCC_ADC12_CLK_DISABLE();
 1830              		.loc 1 661 5 is_stmt 1 view .LVU666
 661:Core/Src/adc.c ****       __HAL_RCC_ADC12_CLK_DISABLE();
 1831              		.loc 1 661 7 is_stmt 0 view .LVU667
 1832 0074 23B9     		cbnz	r3, .L102
 662:Core/Src/adc.c ****     }
 1833              		.loc 1 662 7 is_stmt 1 view .LVU668
 1834 0076 244A     		ldr	r2, .L113+20
 1835 0078 D36C     		ldr	r3, [r2, #76]
 1836 007a 23F40053 		bic	r3, r3, #8192
 1837 007e D364     		str	r3, [r2, #76]
 1838              	.L102:
 670:Core/Src/adc.c **** 
 1839              		.loc 1 670 5 view .LVU669
 1840 0080 2021     		movs	r1, #32
 1841 0082 4FF09040 		mov	r0, #1207959552
 1842              	.LVL78:
 670:Core/Src/adc.c **** 
 1843              		.loc 1 670 5 is_stmt 0 view .LVU670
 1844 0086 FFF7FEFF 		bl	HAL_GPIO_DeInit
 1845              	.LVL79:
 672:Core/Src/adc.c **** 
 1846              		.loc 1 672 5 is_stmt 1 view .LVU671
 1847 008a 2021     		movs	r1, #32
 1848 008c 2048     		ldr	r0, .L113+28
 1849 008e FFF7FEFF 		bl	HAL_GPIO_DeInit
 1850              	.LVL80:
 674:Core/Src/adc.c **** 
 1851              		.loc 1 674 5 view .LVU672
 1852 0092 0421     		movs	r1, #4
 1853 0094 1F48     		ldr	r0, .L113+32
 1854 0096 FFF7FEFF 		bl	HAL_GPIO_DeInit
 1855              	.LVL81:
 677:Core/Src/adc.c ****   /* USER CODE BEGIN ADC2_MspDeInit 1 */
 1856              		.loc 1 677 5 view .LVU673
 1857 009a 606D     		ldr	r0, [r4, #84]
 1858 009c FFF7FEFF 		bl	HAL_DMA_DeInit
 1859              	.LVL82:
 1860 00a0 E3E7     		b	.L97
 1861              	.LVL83:
 1862              	.L111:
 688:Core/Src/adc.c ****     if(HAL_RCC_ADC345_CLK_ENABLED==0){
ARM GAS  C:\Users\purdu\AppData\Local\Temp\ccdVItDm.s 			page 52


 1863              		.loc 1 688 5 view .LVU674
 688:Core/Src/adc.c ****     if(HAL_RCC_ADC345_CLK_ENABLED==0){
 1864              		.loc 1 688 31 is_stmt 0 view .LVU675
 1865 00a2 184A     		ldr	r2, .L113+16
 1866 00a4 1368     		ldr	r3, [r2]
 1867 00a6 013B     		subs	r3, r3, #1
 1868 00a8 1360     		str	r3, [r2]
 689:Core/Src/adc.c ****       __HAL_RCC_ADC345_CLK_DISABLE();
 1869              		.loc 1 689 5 is_stmt 1 view .LVU676
 689:Core/Src/adc.c ****       __HAL_RCC_ADC345_CLK_DISABLE();
 1870              		.loc 1 689 7 is_stmt 0 view .LVU677
 1871 00aa 23B9     		cbnz	r3, .L104
 690:Core/Src/adc.c ****     }
 1872              		.loc 1 690 7 is_stmt 1 view .LVU678
 1873 00ac 164A     		ldr	r2, .L113+20
 1874 00ae D36C     		ldr	r3, [r2, #76]
 1875 00b0 23F48043 		bic	r3, r3, #16384
 1876 00b4 D364     		str	r3, [r2, #76]
 1877              	.L104:
 698:Core/Src/adc.c **** 
 1878              		.loc 1 698 5 view .LVU679
 1879 00b6 4FF46071 		mov	r1, #896
 1880 00ba 1748     		ldr	r0, .L113+36
 1881              	.LVL84:
 698:Core/Src/adc.c **** 
 1882              		.loc 1 698 5 is_stmt 0 view .LVU680
 1883 00bc FFF7FEFF 		bl	HAL_GPIO_DeInit
 1884              	.LVL85:
 701:Core/Src/adc.c ****   /* USER CODE BEGIN ADC3_MspDeInit 1 */
 1885              		.loc 1 701 5 is_stmt 1 view .LVU681
 1886 00c0 606D     		ldr	r0, [r4, #84]
 1887 00c2 FFF7FEFF 		bl	HAL_DMA_DeInit
 1888              	.LVL86:
 1889 00c6 D0E7     		b	.L97
 1890              	.LVL87:
 1891              	.L112:
 712:Core/Src/adc.c ****     if(HAL_RCC_ADC345_CLK_ENABLED==0){
 1892              		.loc 1 712 5 view .LVU682
 712:Core/Src/adc.c ****     if(HAL_RCC_ADC345_CLK_ENABLED==0){
 1893              		.loc 1 712 31 is_stmt 0 view .LVU683
 1894 00c8 0E4A     		ldr	r2, .L113+16
 1895 00ca 1368     		ldr	r3, [r2]
 1896 00cc 013B     		subs	r3, r3, #1
 1897 00ce 1360     		str	r3, [r2]
 713:Core/Src/adc.c ****       __HAL_RCC_ADC345_CLK_DISABLE();
 1898              		.loc 1 713 5 is_stmt 1 view .LVU684
 713:Core/Src/adc.c ****       __HAL_RCC_ADC345_CLK_DISABLE();
 1899              		.loc 1 713 7 is_stmt 0 view .LVU685
 1900 00d0 23B9     		cbnz	r3, .L106
 714:Core/Src/adc.c ****     }
 1901              		.loc 1 714 7 is_stmt 1 view .LVU686
 1902 00d2 0D4A     		ldr	r2, .L113+20
 1903 00d4 D36C     		ldr	r3, [r2, #76]
 1904 00d6 23F48043 		bic	r3, r3, #16384
 1905 00da D364     		str	r3, [r2, #76]
 1906              	.L106:
 721:Core/Src/adc.c **** 
ARM GAS  C:\Users\purdu\AppData\Local\Temp\ccdVItDm.s 			page 53


 1907              		.loc 1 721 5 view .LVU687
 1908 00dc 4FF48051 		mov	r1, #4096
 1909 00e0 0C48     		ldr	r0, .L113+32
 1910              	.LVL88:
 721:Core/Src/adc.c **** 
 1911              		.loc 1 721 5 is_stmt 0 view .LVU688
 1912 00e2 FFF7FEFF 		bl	HAL_GPIO_DeInit
 1913              	.LVL89:
 723:Core/Src/adc.c **** 
 1914              		.loc 1 723 5 is_stmt 1 view .LVU689
 1915 00e6 4FF48071 		mov	r1, #256
 1916 00ea 0C48     		ldr	r0, .L113+40
 1917 00ec FFF7FEFF 		bl	HAL_GPIO_DeInit
 1918              	.LVL90:
 1919 00f0 BBE7     		b	.L97
 1920              	.L114:
 1921 00f2 00BF     		.align	2
 1922              	.L113:
 1923 00f4 00010050 		.word	1342177536
 1924 00f8 00040050 		.word	1342178304
 1925 00fc 00050050 		.word	1342178560
 1926 0100 00060050 		.word	1342178816
 1927 0104 00000000 		.word	HAL_RCC_ADC345_CLK_ENABLED
 1928 0108 00100240 		.word	1073876992
 1929 010c 00000000 		.word	HAL_RCC_ADC12_CLK_ENABLED
 1930 0110 00080048 		.word	1207961600
 1931 0114 00040048 		.word	1207960576
 1932 0118 00100048 		.word	1207963648
 1933 011c 000C0048 		.word	1207962624
 1934              		.cfi_endproc
 1935              	.LFE335:
 1937              		.section	.bss.HAL_RCC_ADC345_CLK_ENABLED,"aw",%nobits
 1938              		.align	2
 1941              	HAL_RCC_ADC345_CLK_ENABLED:
 1942 0000 00000000 		.space	4
 1943              		.section	.bss.HAL_RCC_ADC12_CLK_ENABLED,"aw",%nobits
 1944              		.align	2
 1947              	HAL_RCC_ADC12_CLK_ENABLED:
 1948 0000 00000000 		.space	4
 1949              		.global	hdma_adc3
 1950              		.section	.bss.hdma_adc3,"aw",%nobits
 1951              		.align	2
 1954              	hdma_adc3:
 1955 0000 00000000 		.space	96
 1955      00000000 
 1955      00000000 
 1955      00000000 
 1955      00000000 
 1956              		.global	hdma_adc2
 1957              		.section	.bss.hdma_adc2,"aw",%nobits
 1958              		.align	2
 1961              	hdma_adc2:
 1962 0000 00000000 		.space	96
 1962      00000000 
 1962      00000000 
 1962      00000000 
 1962      00000000 
ARM GAS  C:\Users\purdu\AppData\Local\Temp\ccdVItDm.s 			page 54


 1963              		.global	hdma_adc1
 1964              		.section	.bss.hdma_adc1,"aw",%nobits
 1965              		.align	2
 1968              	hdma_adc1:
 1969 0000 00000000 		.space	96
 1969      00000000 
 1969      00000000 
 1969      00000000 
 1969      00000000 
 1970              		.global	hadc5
 1971              		.section	.bss.hadc5,"aw",%nobits
 1972              		.align	2
 1975              	hadc5:
 1976 0000 00000000 		.space	108
 1976      00000000 
 1976      00000000 
 1976      00000000 
 1976      00000000 
 1977              		.global	hadc4
 1978              		.section	.bss.hadc4,"aw",%nobits
 1979              		.align	2
 1982              	hadc4:
 1983 0000 00000000 		.space	108
 1983      00000000 
 1983      00000000 
 1983      00000000 
 1983      00000000 
 1984              		.global	hadc3
 1985              		.section	.bss.hadc3,"aw",%nobits
 1986              		.align	2
 1989              	hadc3:
 1990 0000 00000000 		.space	108
 1990      00000000 
 1990      00000000 
 1990      00000000 
 1990      00000000 
 1991              		.global	hadc2
 1992              		.section	.bss.hadc2,"aw",%nobits
 1993              		.align	2
 1996              	hadc2:
 1997 0000 00000000 		.space	108
 1997      00000000 
 1997      00000000 
 1997      00000000 
 1997      00000000 
 1998              		.global	hadc1
 1999              		.section	.bss.hadc1,"aw",%nobits
 2000              		.align	2
 2003              	hadc1:
 2004 0000 00000000 		.space	108
 2004      00000000 
 2004      00000000 
 2004      00000000 
 2004      00000000 
 2005              		.text
 2006              	.Letext0:
 2007              		.file 2 "c:\\msys64\\mingw64\\arm-none-eabi\\include\\machine\\_default_types.h"
ARM GAS  C:\Users\purdu\AppData\Local\Temp\ccdVItDm.s 			page 55


 2008              		.file 3 "c:\\msys64\\mingw64\\arm-none-eabi\\include\\sys\\_stdint.h"
 2009              		.file 4 "Drivers/CMSIS/Device/ST/STM32G4xx/Include/stm32g473xx.h"
 2010              		.file 5 "Drivers/CMSIS/Device/ST/STM32G4xx/Include/stm32g4xx.h"
 2011              		.file 6 "Drivers/STM32G4xx_HAL_Driver/Inc/stm32g4xx_hal_def.h"
 2012              		.file 7 "Drivers/STM32G4xx_HAL_Driver/Inc/stm32g4xx_hal_rcc_ex.h"
 2013              		.file 8 "Drivers/STM32G4xx_HAL_Driver/Inc/stm32g4xx_hal_gpio.h"
 2014              		.file 9 "Drivers/STM32G4xx_HAL_Driver/Inc/stm32g4xx_hal_dma.h"
 2015              		.file 10 "Drivers/STM32G4xx_HAL_Driver/Inc/stm32g4xx_hal_adc.h"
 2016              		.file 11 "Drivers/STM32G4xx_HAL_Driver/Inc/stm32g4xx_hal_adc_ex.h"
 2017              		.file 12 "Core/Inc/adc.h"
 2018              		.file 13 "Core/Inc/main.h"
 2019              		.file 14 "<built-in>"
ARM GAS  C:\Users\purdu\AppData\Local\Temp\ccdVItDm.s 			page 56


DEFINED SYMBOLS
                            *ABS*:0000000000000000 adc.c
C:\Users\purdu\AppData\Local\Temp\ccdVItDm.s:21     .text.MX_ADC1_Init:0000000000000000 $t
C:\Users\purdu\AppData\Local\Temp\ccdVItDm.s:27     .text.MX_ADC1_Init:0000000000000000 MX_ADC1_Init
C:\Users\purdu\AppData\Local\Temp\ccdVItDm.s:210    .text.MX_ADC1_Init:00000000000000b0 $d
C:\Users\purdu\AppData\Local\Temp\ccdVItDm.s:2003   .bss.hadc1:0000000000000000 hadc1
C:\Users\purdu\AppData\Local\Temp\ccdVItDm.s:217    .text.MX_ADC2_Init:0000000000000000 $t
C:\Users\purdu\AppData\Local\Temp\ccdVItDm.s:223    .text.MX_ADC2_Init:0000000000000000 MX_ADC2_Init
C:\Users\purdu\AppData\Local\Temp\ccdVItDm.s:404    .text.MX_ADC2_Init:00000000000000ac $d
C:\Users\purdu\AppData\Local\Temp\ccdVItDm.s:1996   .bss.hadc2:0000000000000000 hadc2
C:\Users\purdu\AppData\Local\Temp\ccdVItDm.s:413    .text.MX_ADC3_Init:0000000000000000 $t
C:\Users\purdu\AppData\Local\Temp\ccdVItDm.s:419    .text.MX_ADC3_Init:0000000000000000 MX_ADC3_Init
C:\Users\purdu\AppData\Local\Temp\ccdVItDm.s:625    .text.MX_ADC3_Init:00000000000000c8 $d
C:\Users\purdu\AppData\Local\Temp\ccdVItDm.s:1989   .bss.hadc3:0000000000000000 hadc3
C:\Users\purdu\AppData\Local\Temp\ccdVItDm.s:634    .text.MX_ADC4_Init:0000000000000000 $t
C:\Users\purdu\AppData\Local\Temp\ccdVItDm.s:640    .text.MX_ADC4_Init:0000000000000000 MX_ADC4_Init
C:\Users\purdu\AppData\Local\Temp\ccdVItDm.s:776    .text.MX_ADC4_Init:000000000000007c $d
C:\Users\purdu\AppData\Local\Temp\ccdVItDm.s:1982   .bss.hadc4:0000000000000000 hadc4
C:\Users\purdu\AppData\Local\Temp\ccdVItDm.s:783    .text.MX_ADC5_Init:0000000000000000 $t
C:\Users\purdu\AppData\Local\Temp\ccdVItDm.s:789    .text.MX_ADC5_Init:0000000000000000 MX_ADC5_Init
C:\Users\purdu\AppData\Local\Temp\ccdVItDm.s:925    .text.MX_ADC5_Init:000000000000007c $d
C:\Users\purdu\AppData\Local\Temp\ccdVItDm.s:1975   .bss.hadc5:0000000000000000 hadc5
C:\Users\purdu\AppData\Local\Temp\ccdVItDm.s:932    .text.HAL_ADC_MspInit:0000000000000000 $t
C:\Users\purdu\AppData\Local\Temp\ccdVItDm.s:938    .text.HAL_ADC_MspInit:0000000000000000 HAL_ADC_MspInit
C:\Users\purdu\AppData\Local\Temp\ccdVItDm.s:1489   .text.HAL_ADC_MspInit:0000000000000264 $d
C:\Users\purdu\AppData\Local\Temp\ccdVItDm.s:1947   .bss.HAL_RCC_ADC12_CLK_ENABLED:0000000000000000 HAL_RCC_ADC12_CLK_ENABLED
C:\Users\purdu\AppData\Local\Temp\ccdVItDm.s:1968   .bss.hdma_adc1:0000000000000000 hdma_adc1
C:\Users\purdu\AppData\Local\Temp\ccdVItDm.s:1961   .bss.hdma_adc2:0000000000000000 hdma_adc2
C:\Users\purdu\AppData\Local\Temp\ccdVItDm.s:1941   .bss.HAL_RCC_ADC345_CLK_ENABLED:0000000000000000 HAL_RCC_ADC345_CLK_ENABLED
C:\Users\purdu\AppData\Local\Temp\ccdVItDm.s:1954   .bss.hdma_adc3:0000000000000000 hdma_adc3
C:\Users\purdu\AppData\Local\Temp\ccdVItDm.s:1508   .text.HAL_ADC_MspInit:00000000000002a4 $t
C:\Users\purdu\AppData\Local\Temp\ccdVItDm.s:1712   .text.HAL_ADC_MspInit:000000000000039c $d
C:\Users\purdu\AppData\Local\Temp\ccdVItDm.s:1721   .text.HAL_ADC_MspDeInit:0000000000000000 $t
C:\Users\purdu\AppData\Local\Temp\ccdVItDm.s:1727   .text.HAL_ADC_MspDeInit:0000000000000000 HAL_ADC_MspDeInit
C:\Users\purdu\AppData\Local\Temp\ccdVItDm.s:1923   .text.HAL_ADC_MspDeInit:00000000000000f4 $d
C:\Users\purdu\AppData\Local\Temp\ccdVItDm.s:1938   .bss.HAL_RCC_ADC345_CLK_ENABLED:0000000000000000 $d
C:\Users\purdu\AppData\Local\Temp\ccdVItDm.s:1944   .bss.HAL_RCC_ADC12_CLK_ENABLED:0000000000000000 $d
C:\Users\purdu\AppData\Local\Temp\ccdVItDm.s:1951   .bss.hdma_adc3:0000000000000000 $d
C:\Users\purdu\AppData\Local\Temp\ccdVItDm.s:1958   .bss.hdma_adc2:0000000000000000 $d
C:\Users\purdu\AppData\Local\Temp\ccdVItDm.s:1965   .bss.hdma_adc1:0000000000000000 $d
C:\Users\purdu\AppData\Local\Temp\ccdVItDm.s:1972   .bss.hadc5:0000000000000000 $d
C:\Users\purdu\AppData\Local\Temp\ccdVItDm.s:1979   .bss.hadc4:0000000000000000 $d
C:\Users\purdu\AppData\Local\Temp\ccdVItDm.s:1986   .bss.hadc3:0000000000000000 $d
C:\Users\purdu\AppData\Local\Temp\ccdVItDm.s:1993   .bss.hadc2:0000000000000000 $d
C:\Users\purdu\AppData\Local\Temp\ccdVItDm.s:2000   .bss.hadc1:0000000000000000 $d

UNDEFINED SYMBOLS
memset
HAL_ADC_Init
HAL_ADCEx_MultiModeConfigChannel
HAL_ADC_ConfigChannel
Error_Handler
HAL_RCCEx_PeriphCLKConfig
HAL_GPIO_Init
HAL_DMA_Init
HAL_GPIO_DeInit
HAL_DMA_DeInit
ARM GAS  C:\Users\purdu\AppData\Local\Temp\ccdVItDm.s 			page 57


