ARM GAS  C:\Users\purdu\AppData\Local\Temp\cc9o02Oa.s 			page 1


   1              		.cpu cortex-m4
   2              		.arch armv7e-m
   3              		.fpu fpv4-sp-d16
   4              		.eabi_attribute 27, 1
   5              		.eabi_attribute 28, 1
   6              		.eabi_attribute 20, 1
   7              		.eabi_attribute 21, 1
   8              		.eabi_attribute 23, 3
   9              		.eabi_attribute 24, 1
  10              		.eabi_attribute 25, 1
  11              		.eabi_attribute 26, 1
  12              		.eabi_attribute 30, 1
  13              		.eabi_attribute 34, 1
  14              		.eabi_attribute 18, 4
  15              		.file	"adc.c"
  16              		.text
  17              	.Ltext0:
  18              		.cfi_sections	.debug_frame
  19              		.file 1 "Core/Src/adc.c"
  20              		.section	.text.MX_ADC1_Init,"ax",%progbits
  21              		.align	1
  22              		.global	MX_ADC1_Init
  23              		.syntax unified
  24              		.thumb
  25              		.thumb_func
  27              	MX_ADC1_Init:
  28              	.LFB329:
   1:Core/Src/adc.c **** /* USER CODE BEGIN Header */
   2:Core/Src/adc.c **** /**
   3:Core/Src/adc.c ****   ******************************************************************************
   4:Core/Src/adc.c ****   * @file    adc.c
   5:Core/Src/adc.c ****   * @brief   This file provides code for the configuration
   6:Core/Src/adc.c ****   *          of the ADC instances.
   7:Core/Src/adc.c ****   ******************************************************************************
   8:Core/Src/adc.c ****   * @attention
   9:Core/Src/adc.c ****   *
  10:Core/Src/adc.c ****   * Copyright (c) 2024 STMicroelectronics.
  11:Core/Src/adc.c ****   * All rights reserved.
  12:Core/Src/adc.c ****   *
  13:Core/Src/adc.c ****   * This software is licensed under terms that can be found in the LICENSE file
  14:Core/Src/adc.c ****   * in the root directory of this software component.
  15:Core/Src/adc.c ****   * If no LICENSE file comes with this software, it is provided AS-IS.
  16:Core/Src/adc.c ****   *
  17:Core/Src/adc.c ****   ******************************************************************************
  18:Core/Src/adc.c ****   */
  19:Core/Src/adc.c **** /* USER CODE END Header */
  20:Core/Src/adc.c **** /* Includes ------------------------------------------------------------------*/
  21:Core/Src/adc.c **** #include "adc.h"
  22:Core/Src/adc.c **** 
  23:Core/Src/adc.c **** /* USER CODE BEGIN 0 */
  24:Core/Src/adc.c **** 
  25:Core/Src/adc.c **** /* USER CODE END 0 */
  26:Core/Src/adc.c **** 
  27:Core/Src/adc.c **** ADC_HandleTypeDef hadc1;
  28:Core/Src/adc.c **** ADC_HandleTypeDef hadc2;
  29:Core/Src/adc.c **** ADC_HandleTypeDef hadc3;
  30:Core/Src/adc.c **** ADC_HandleTypeDef hadc4;
ARM GAS  C:\Users\purdu\AppData\Local\Temp\cc9o02Oa.s 			page 2


  31:Core/Src/adc.c **** ADC_HandleTypeDef hadc5;
  32:Core/Src/adc.c **** DMA_HandleTypeDef hdma_adc1;
  33:Core/Src/adc.c **** DMA_HandleTypeDef hdma_adc2;
  34:Core/Src/adc.c **** DMA_HandleTypeDef hdma_adc3;
  35:Core/Src/adc.c **** 
  36:Core/Src/adc.c **** /* ADC1 init function */
  37:Core/Src/adc.c **** void MX_ADC1_Init(void)
  38:Core/Src/adc.c **** {
  29              		.loc 1 38 1 view -0
  30              		.cfi_startproc
  31              		@ args = 0, pretend = 0, frame = 48
  32              		@ frame_needed = 0, uses_anonymous_args = 0
  33 0000 10B5     		push	{r4, lr}
  34              	.LCFI0:
  35              		.cfi_def_cfa_offset 8
  36              		.cfi_offset 4, -8
  37              		.cfi_offset 14, -4
  38 0002 8CB0     		sub	sp, sp, #48
  39              	.LCFI1:
  40              		.cfi_def_cfa_offset 56
  39:Core/Src/adc.c **** 
  40:Core/Src/adc.c ****   /* USER CODE BEGIN ADC1_Init 0 */
  41:Core/Src/adc.c **** 
  42:Core/Src/adc.c ****   /* USER CODE END ADC1_Init 0 */
  43:Core/Src/adc.c **** 
  44:Core/Src/adc.c ****   ADC_MultiModeTypeDef multimode = {0};
  41              		.loc 1 44 3 view .LVU1
  42              		.loc 1 44 24 is_stmt 0 view .LVU2
  43 0004 0024     		movs	r4, #0
  44 0006 0994     		str	r4, [sp, #36]
  45 0008 0A94     		str	r4, [sp, #40]
  46 000a 0B94     		str	r4, [sp, #44]
  45:Core/Src/adc.c ****   ADC_ChannelConfTypeDef sConfig = {0};
  47              		.loc 1 45 3 is_stmt 1 view .LVU3
  48              		.loc 1 45 26 is_stmt 0 view .LVU4
  49 000c 2022     		movs	r2, #32
  50 000e 2146     		mov	r1, r4
  51 0010 01A8     		add	r0, sp, #4
  52 0012 FFF7FEFF 		bl	memset
  53              	.LVL0:
  46:Core/Src/adc.c **** 
  47:Core/Src/adc.c ****   /* USER CODE BEGIN ADC1_Init 1 */
  48:Core/Src/adc.c **** 
  49:Core/Src/adc.c ****   /* USER CODE END ADC1_Init 1 */
  50:Core/Src/adc.c **** 
  51:Core/Src/adc.c ****   /** Common config
  52:Core/Src/adc.c ****   */
  53:Core/Src/adc.c ****   hadc1.Instance = ADC1;
  54              		.loc 1 53 3 is_stmt 1 view .LVU5
  55              		.loc 1 53 18 is_stmt 0 view .LVU6
  56 0016 2648     		ldr	r0, .L11
  57 0018 4FF0A043 		mov	r3, #1342177280
  58 001c 0360     		str	r3, [r0]
  54:Core/Src/adc.c ****   hadc1.Init.ClockPrescaler = ADC_CLOCK_ASYNC_DIV2;
  59              		.loc 1 54 3 is_stmt 1 view .LVU7
  60              		.loc 1 54 29 is_stmt 0 view .LVU8
  61 001e 4FF48023 		mov	r3, #262144
ARM GAS  C:\Users\purdu\AppData\Local\Temp\cc9o02Oa.s 			page 3


  62 0022 4360     		str	r3, [r0, #4]
  55:Core/Src/adc.c ****   hadc1.Init.Resolution = ADC_RESOLUTION_12B;
  63              		.loc 1 55 3 is_stmt 1 view .LVU9
  64              		.loc 1 55 25 is_stmt 0 view .LVU10
  65 0024 8460     		str	r4, [r0, #8]
  56:Core/Src/adc.c ****   hadc1.Init.DataAlign = ADC_DATAALIGN_RIGHT;
  66              		.loc 1 56 3 is_stmt 1 view .LVU11
  67              		.loc 1 56 24 is_stmt 0 view .LVU12
  68 0026 C460     		str	r4, [r0, #12]
  57:Core/Src/adc.c ****   hadc1.Init.GainCompensation = 0;
  69              		.loc 1 57 3 is_stmt 1 view .LVU13
  70              		.loc 1 57 31 is_stmt 0 view .LVU14
  71 0028 0461     		str	r4, [r0, #16]
  58:Core/Src/adc.c ****   hadc1.Init.ScanConvMode = ADC_SCAN_ENABLE;
  72              		.loc 1 58 3 is_stmt 1 view .LVU15
  73              		.loc 1 58 27 is_stmt 0 view .LVU16
  74 002a 0123     		movs	r3, #1
  75 002c 4361     		str	r3, [r0, #20]
  59:Core/Src/adc.c ****   hadc1.Init.EOCSelection = ADC_EOC_SINGLE_CONV;
  76              		.loc 1 59 3 is_stmt 1 view .LVU17
  77              		.loc 1 59 27 is_stmt 0 view .LVU18
  78 002e 0422     		movs	r2, #4
  79 0030 8261     		str	r2, [r0, #24]
  60:Core/Src/adc.c ****   hadc1.Init.LowPowerAutoWait = DISABLE;
  80              		.loc 1 60 3 is_stmt 1 view .LVU19
  81              		.loc 1 60 31 is_stmt 0 view .LVU20
  82 0032 0477     		strb	r4, [r0, #28]
  61:Core/Src/adc.c ****   hadc1.Init.ContinuousConvMode = ENABLE;
  83              		.loc 1 61 3 is_stmt 1 view .LVU21
  84              		.loc 1 61 33 is_stmt 0 view .LVU22
  85 0034 4377     		strb	r3, [r0, #29]
  62:Core/Src/adc.c ****   hadc1.Init.NbrOfConversion = 2;
  86              		.loc 1 62 3 is_stmt 1 view .LVU23
  87              		.loc 1 62 30 is_stmt 0 view .LVU24
  88 0036 0222     		movs	r2, #2
  89 0038 0262     		str	r2, [r0, #32]
  63:Core/Src/adc.c ****   hadc1.Init.DiscontinuousConvMode = DISABLE;
  90              		.loc 1 63 3 is_stmt 1 view .LVU25
  91              		.loc 1 63 36 is_stmt 0 view .LVU26
  92 003a 80F82440 		strb	r4, [r0, #36]
  64:Core/Src/adc.c ****   hadc1.Init.ExternalTrigConv = ADC_SOFTWARE_START;
  93              		.loc 1 64 3 is_stmt 1 view .LVU27
  94              		.loc 1 64 31 is_stmt 0 view .LVU28
  95 003e C462     		str	r4, [r0, #44]
  65:Core/Src/adc.c ****   hadc1.Init.ExternalTrigConvEdge = ADC_EXTERNALTRIGCONVEDGE_NONE;
  96              		.loc 1 65 3 is_stmt 1 view .LVU29
  97              		.loc 1 65 35 is_stmt 0 view .LVU30
  98 0040 0463     		str	r4, [r0, #48]
  66:Core/Src/adc.c ****   hadc1.Init.DMAContinuousRequests = ENABLE;
  99              		.loc 1 66 3 is_stmt 1 view .LVU31
 100              		.loc 1 66 36 is_stmt 0 view .LVU32
 101 0042 80F83830 		strb	r3, [r0, #56]
  67:Core/Src/adc.c ****   hadc1.Init.Overrun = ADC_OVR_DATA_PRESERVED;
 102              		.loc 1 67 3 is_stmt 1 view .LVU33
 103              		.loc 1 67 22 is_stmt 0 view .LVU34
 104 0046 C463     		str	r4, [r0, #60]
  68:Core/Src/adc.c ****   hadc1.Init.OversamplingMode = DISABLE;
ARM GAS  C:\Users\purdu\AppData\Local\Temp\cc9o02Oa.s 			page 4


 105              		.loc 1 68 3 is_stmt 1 view .LVU35
 106              		.loc 1 68 31 is_stmt 0 view .LVU36
 107 0048 80F84040 		strb	r4, [r0, #64]
  69:Core/Src/adc.c ****   if (HAL_ADC_Init(&hadc1) != HAL_OK)
 108              		.loc 1 69 3 is_stmt 1 view .LVU37
 109              		.loc 1 69 7 is_stmt 0 view .LVU38
 110 004c FFF7FEFF 		bl	HAL_ADC_Init
 111              	.LVL1:
 112              		.loc 1 69 6 view .LVU39
 113 0050 10BB     		cbnz	r0, .L7
 114              	.L2:
  70:Core/Src/adc.c ****   {
  71:Core/Src/adc.c ****     Error_Handler();
  72:Core/Src/adc.c ****   }
  73:Core/Src/adc.c **** 
  74:Core/Src/adc.c ****   /** Configure the ADC multi-mode
  75:Core/Src/adc.c ****   */
  76:Core/Src/adc.c ****   multimode.Mode = ADC_MODE_INDEPENDENT;
 115              		.loc 1 76 3 is_stmt 1 view .LVU40
 116              		.loc 1 76 18 is_stmt 0 view .LVU41
 117 0052 0023     		movs	r3, #0
 118 0054 0993     		str	r3, [sp, #36]
  77:Core/Src/adc.c ****   if (HAL_ADCEx_MultiModeConfigChannel(&hadc1, &multimode) != HAL_OK)
 119              		.loc 1 77 3 is_stmt 1 view .LVU42
 120              		.loc 1 77 7 is_stmt 0 view .LVU43
 121 0056 09A9     		add	r1, sp, #36
 122 0058 1548     		ldr	r0, .L11
 123 005a FFF7FEFF 		bl	HAL_ADCEx_MultiModeConfigChannel
 124              	.LVL2:
 125              		.loc 1 77 6 view .LVU44
 126 005e F0B9     		cbnz	r0, .L8
 127              	.L3:
  78:Core/Src/adc.c ****   {
  79:Core/Src/adc.c ****     Error_Handler();
  80:Core/Src/adc.c ****   }
  81:Core/Src/adc.c **** 
  82:Core/Src/adc.c ****   /** Configure Regular Channel
  83:Core/Src/adc.c ****   */
  84:Core/Src/adc.c ****   sConfig.Channel = ADC_CHANNEL_1;
 128              		.loc 1 84 3 is_stmt 1 view .LVU45
 129              		.loc 1 84 19 is_stmt 0 view .LVU46
 130 0060 144B     		ldr	r3, .L11+4
 131 0062 0193     		str	r3, [sp, #4]
  85:Core/Src/adc.c ****   sConfig.Rank = ADC_REGULAR_RANK_1;
 132              		.loc 1 85 3 is_stmt 1 view .LVU47
 133              		.loc 1 85 16 is_stmt 0 view .LVU48
 134 0064 0623     		movs	r3, #6
 135 0066 0293     		str	r3, [sp, #8]
  86:Core/Src/adc.c ****   sConfig.SamplingTime = ADC_SAMPLETIME_2CYCLES_5;
 136              		.loc 1 86 3 is_stmt 1 view .LVU49
 137              		.loc 1 86 24 is_stmt 0 view .LVU50
 138 0068 0023     		movs	r3, #0
 139 006a 0393     		str	r3, [sp, #12]
  87:Core/Src/adc.c ****   sConfig.SingleDiff = ADC_SINGLE_ENDED;
 140              		.loc 1 87 3 is_stmt 1 view .LVU51
 141              		.loc 1 87 22 is_stmt 0 view .LVU52
 142 006c 7F22     		movs	r2, #127
ARM GAS  C:\Users\purdu\AppData\Local\Temp\cc9o02Oa.s 			page 5


 143 006e 0492     		str	r2, [sp, #16]
  88:Core/Src/adc.c ****   sConfig.OffsetNumber = ADC_OFFSET_NONE;
 144              		.loc 1 88 3 is_stmt 1 view .LVU53
 145              		.loc 1 88 24 is_stmt 0 view .LVU54
 146 0070 0422     		movs	r2, #4
 147 0072 0592     		str	r2, [sp, #20]
  89:Core/Src/adc.c ****   sConfig.Offset = 0;
 148              		.loc 1 89 3 is_stmt 1 view .LVU55
 149              		.loc 1 89 18 is_stmt 0 view .LVU56
 150 0074 0693     		str	r3, [sp, #24]
  90:Core/Src/adc.c ****   if (HAL_ADC_ConfigChannel(&hadc1, &sConfig) != HAL_OK)
 151              		.loc 1 90 3 is_stmt 1 view .LVU57
 152              		.loc 1 90 7 is_stmt 0 view .LVU58
 153 0076 0DEB0201 		add	r1, sp, r2
 154 007a 0D48     		ldr	r0, .L11
 155 007c FFF7FEFF 		bl	HAL_ADC_ConfigChannel
 156              	.LVL3:
 157              		.loc 1 90 6 view .LVU59
 158 0080 80B9     		cbnz	r0, .L9
 159              	.L4:
  91:Core/Src/adc.c ****   {
  92:Core/Src/adc.c ****     Error_Handler();
  93:Core/Src/adc.c ****   }
  94:Core/Src/adc.c **** 
  95:Core/Src/adc.c ****   /** Configure Regular Channel
  96:Core/Src/adc.c ****   */
  97:Core/Src/adc.c ****   sConfig.Channel = ADC_CHANNEL_2;
 160              		.loc 1 97 3 is_stmt 1 view .LVU60
 161              		.loc 1 97 19 is_stmt 0 view .LVU61
 162 0082 0D4B     		ldr	r3, .L11+8
 163 0084 0193     		str	r3, [sp, #4]
  98:Core/Src/adc.c ****   sConfig.Rank = ADC_REGULAR_RANK_2;
 164              		.loc 1 98 3 is_stmt 1 view .LVU62
 165              		.loc 1 98 16 is_stmt 0 view .LVU63
 166 0086 0C23     		movs	r3, #12
 167 0088 0293     		str	r3, [sp, #8]
  99:Core/Src/adc.c ****   if (HAL_ADC_ConfigChannel(&hadc1, &sConfig) != HAL_OK)
 168              		.loc 1 99 3 is_stmt 1 view .LVU64
 169              		.loc 1 99 7 is_stmt 0 view .LVU65
 170 008a 01A9     		add	r1, sp, #4
 171 008c 0848     		ldr	r0, .L11
 172 008e FFF7FEFF 		bl	HAL_ADC_ConfigChannel
 173              	.LVL4:
 174              		.loc 1 99 6 view .LVU66
 175 0092 50B9     		cbnz	r0, .L10
 176              	.L1:
 100:Core/Src/adc.c ****   {
 101:Core/Src/adc.c ****     Error_Handler();
 102:Core/Src/adc.c ****   }
 103:Core/Src/adc.c ****   /* USER CODE BEGIN ADC1_Init 2 */
 104:Core/Src/adc.c **** 
 105:Core/Src/adc.c ****   /* USER CODE END ADC1_Init 2 */
 106:Core/Src/adc.c **** 
 107:Core/Src/adc.c **** }
 177              		.loc 1 107 1 view .LVU67
 178 0094 0CB0     		add	sp, sp, #48
 179              	.LCFI2:
ARM GAS  C:\Users\purdu\AppData\Local\Temp\cc9o02Oa.s 			page 6


 180              		.cfi_remember_state
 181              		.cfi_def_cfa_offset 8
 182              		@ sp needed
 183 0096 10BD     		pop	{r4, pc}
 184              	.L7:
 185              	.LCFI3:
 186              		.cfi_restore_state
  71:Core/Src/adc.c ****   }
 187              		.loc 1 71 5 is_stmt 1 view .LVU68
 188 0098 FFF7FEFF 		bl	Error_Handler
 189              	.LVL5:
 190 009c D9E7     		b	.L2
 191              	.L8:
  79:Core/Src/adc.c ****   }
 192              		.loc 1 79 5 view .LVU69
 193 009e FFF7FEFF 		bl	Error_Handler
 194              	.LVL6:
 195 00a2 DDE7     		b	.L3
 196              	.L9:
  92:Core/Src/adc.c ****   }
 197              		.loc 1 92 5 view .LVU70
 198 00a4 FFF7FEFF 		bl	Error_Handler
 199              	.LVL7:
 200 00a8 EBE7     		b	.L4
 201              	.L10:
 101:Core/Src/adc.c ****   }
 202              		.loc 1 101 5 view .LVU71
 203 00aa FFF7FEFF 		bl	Error_Handler
 204              	.LVL8:
 205              		.loc 1 107 1 is_stmt 0 view .LVU72
 206 00ae F1E7     		b	.L1
 207              	.L12:
 208              		.align	2
 209              	.L11:
 210 00b0 00000000 		.word	hadc1
 211 00b4 02003004 		.word	70254594
 212 00b8 04006008 		.word	140509188
 213              		.cfi_endproc
 214              	.LFE329:
 216              		.section	.text.MX_ADC2_Init,"ax",%progbits
 217              		.align	1
 218              		.global	MX_ADC2_Init
 219              		.syntax unified
 220              		.thumb
 221              		.thumb_func
 223              	MX_ADC2_Init:
 224              	.LFB330:
 108:Core/Src/adc.c **** /* ADC2 init function */
 109:Core/Src/adc.c **** void MX_ADC2_Init(void)
 110:Core/Src/adc.c **** {
 225              		.loc 1 110 1 is_stmt 1 view -0
 226              		.cfi_startproc
 227              		@ args = 0, pretend = 0, frame = 32
 228              		@ frame_needed = 0, uses_anonymous_args = 0
 229 0000 00B5     		push	{lr}
 230              	.LCFI4:
 231              		.cfi_def_cfa_offset 4
ARM GAS  C:\Users\purdu\AppData\Local\Temp\cc9o02Oa.s 			page 7


 232              		.cfi_offset 14, -4
 233 0002 89B0     		sub	sp, sp, #36
 234              	.LCFI5:
 235              		.cfi_def_cfa_offset 40
 111:Core/Src/adc.c **** 
 112:Core/Src/adc.c ****   /* USER CODE BEGIN ADC2_Init 0 */
 113:Core/Src/adc.c **** 
 114:Core/Src/adc.c ****   /* USER CODE END ADC2_Init 0 */
 115:Core/Src/adc.c **** 
 116:Core/Src/adc.c ****   ADC_ChannelConfTypeDef sConfig = {0};
 236              		.loc 1 116 3 view .LVU74
 237              		.loc 1 116 26 is_stmt 0 view .LVU75
 238 0004 2022     		movs	r2, #32
 239 0006 0021     		movs	r1, #0
 240 0008 6846     		mov	r0, sp
 241 000a FFF7FEFF 		bl	memset
 242              	.LVL9:
 117:Core/Src/adc.c **** 
 118:Core/Src/adc.c ****   /* USER CODE BEGIN ADC2_Init 1 */
 119:Core/Src/adc.c **** 
 120:Core/Src/adc.c ****   /* USER CODE END ADC2_Init 1 */
 121:Core/Src/adc.c **** 
 122:Core/Src/adc.c ****   /** Common config
 123:Core/Src/adc.c ****   */
 124:Core/Src/adc.c ****   hadc2.Instance = ADC2;
 243              		.loc 1 124 3 is_stmt 1 view .LVU76
 244              		.loc 1 124 18 is_stmt 0 view .LVU77
 245 000e 2548     		ldr	r0, .L23
 246 0010 254B     		ldr	r3, .L23+4
 247 0012 0360     		str	r3, [r0]
 125:Core/Src/adc.c ****   hadc2.Init.ClockPrescaler = ADC_CLOCK_ASYNC_DIV2;
 248              		.loc 1 125 3 is_stmt 1 view .LVU78
 249              		.loc 1 125 29 is_stmt 0 view .LVU79
 250 0014 4FF48023 		mov	r3, #262144
 251 0018 4360     		str	r3, [r0, #4]
 126:Core/Src/adc.c ****   hadc2.Init.Resolution = ADC_RESOLUTION_12B;
 252              		.loc 1 126 3 is_stmt 1 view .LVU80
 253              		.loc 1 126 25 is_stmt 0 view .LVU81
 254 001a 0023     		movs	r3, #0
 255 001c 8360     		str	r3, [r0, #8]
 127:Core/Src/adc.c ****   hadc2.Init.DataAlign = ADC_DATAALIGN_RIGHT;
 256              		.loc 1 127 3 is_stmt 1 view .LVU82
 257              		.loc 1 127 24 is_stmt 0 view .LVU83
 258 001e C360     		str	r3, [r0, #12]
 128:Core/Src/adc.c ****   hadc2.Init.GainCompensation = 0;
 259              		.loc 1 128 3 is_stmt 1 view .LVU84
 260              		.loc 1 128 31 is_stmt 0 view .LVU85
 261 0020 0361     		str	r3, [r0, #16]
 129:Core/Src/adc.c ****   hadc2.Init.ScanConvMode = ADC_SCAN_ENABLE;
 262              		.loc 1 129 3 is_stmt 1 view .LVU86
 263              		.loc 1 129 27 is_stmt 0 view .LVU87
 264 0022 0122     		movs	r2, #1
 265 0024 4261     		str	r2, [r0, #20]
 130:Core/Src/adc.c ****   hadc2.Init.EOCSelection = ADC_EOC_SINGLE_CONV;
 266              		.loc 1 130 3 is_stmt 1 view .LVU88
 267              		.loc 1 130 27 is_stmt 0 view .LVU89
 268 0026 0421     		movs	r1, #4
ARM GAS  C:\Users\purdu\AppData\Local\Temp\cc9o02Oa.s 			page 8


 269 0028 8161     		str	r1, [r0, #24]
 131:Core/Src/adc.c ****   hadc2.Init.LowPowerAutoWait = DISABLE;
 270              		.loc 1 131 3 is_stmt 1 view .LVU90
 271              		.loc 1 131 31 is_stmt 0 view .LVU91
 272 002a 0377     		strb	r3, [r0, #28]
 132:Core/Src/adc.c ****   hadc2.Init.ContinuousConvMode = ENABLE;
 273              		.loc 1 132 3 is_stmt 1 view .LVU92
 274              		.loc 1 132 33 is_stmt 0 view .LVU93
 275 002c 4277     		strb	r2, [r0, #29]
 133:Core/Src/adc.c ****   hadc2.Init.NbrOfConversion = 3;
 276              		.loc 1 133 3 is_stmt 1 view .LVU94
 277              		.loc 1 133 30 is_stmt 0 view .LVU95
 278 002e 0321     		movs	r1, #3
 279 0030 0162     		str	r1, [r0, #32]
 134:Core/Src/adc.c ****   hadc2.Init.DiscontinuousConvMode = DISABLE;
 280              		.loc 1 134 3 is_stmt 1 view .LVU96
 281              		.loc 1 134 36 is_stmt 0 view .LVU97
 282 0032 80F82430 		strb	r3, [r0, #36]
 135:Core/Src/adc.c ****   hadc2.Init.ExternalTrigConv = ADC_SOFTWARE_START;
 283              		.loc 1 135 3 is_stmt 1 view .LVU98
 284              		.loc 1 135 31 is_stmt 0 view .LVU99
 285 0036 C362     		str	r3, [r0, #44]
 136:Core/Src/adc.c ****   hadc2.Init.ExternalTrigConvEdge = ADC_EXTERNALTRIGCONVEDGE_NONE;
 286              		.loc 1 136 3 is_stmt 1 view .LVU100
 287              		.loc 1 136 35 is_stmt 0 view .LVU101
 288 0038 0363     		str	r3, [r0, #48]
 137:Core/Src/adc.c ****   hadc2.Init.DMAContinuousRequests = ENABLE;
 289              		.loc 1 137 3 is_stmt 1 view .LVU102
 290              		.loc 1 137 36 is_stmt 0 view .LVU103
 291 003a 80F83820 		strb	r2, [r0, #56]
 138:Core/Src/adc.c ****   hadc2.Init.Overrun = ADC_OVR_DATA_PRESERVED;
 292              		.loc 1 138 3 is_stmt 1 view .LVU104
 293              		.loc 1 138 22 is_stmt 0 view .LVU105
 294 003e C363     		str	r3, [r0, #60]
 139:Core/Src/adc.c ****   hadc2.Init.OversamplingMode = DISABLE;
 295              		.loc 1 139 3 is_stmt 1 view .LVU106
 296              		.loc 1 139 31 is_stmt 0 view .LVU107
 297 0040 80F84030 		strb	r3, [r0, #64]
 140:Core/Src/adc.c ****   if (HAL_ADC_Init(&hadc2) != HAL_OK)
 298              		.loc 1 140 3 is_stmt 1 view .LVU108
 299              		.loc 1 140 7 is_stmt 0 view .LVU109
 300 0044 FFF7FEFF 		bl	HAL_ADC_Init
 301              	.LVL10:
 302              		.loc 1 140 6 view .LVU110
 303 0048 00BB     		cbnz	r0, .L19
 304              	.L14:
 141:Core/Src/adc.c ****   {
 142:Core/Src/adc.c ****     Error_Handler();
 143:Core/Src/adc.c ****   }
 144:Core/Src/adc.c **** 
 145:Core/Src/adc.c ****   /** Configure Regular Channel
 146:Core/Src/adc.c ****   */
 147:Core/Src/adc.c ****   sConfig.Channel = ADC_CHANNEL_11;
 305              		.loc 1 147 3 is_stmt 1 view .LVU111
 306              		.loc 1 147 19 is_stmt 0 view .LVU112
 307 004a 184B     		ldr	r3, .L23+8
 308 004c 0093     		str	r3, [sp]
ARM GAS  C:\Users\purdu\AppData\Local\Temp\cc9o02Oa.s 			page 9


 148:Core/Src/adc.c ****   sConfig.Rank = ADC_REGULAR_RANK_1;
 309              		.loc 1 148 3 is_stmt 1 view .LVU113
 310              		.loc 1 148 16 is_stmt 0 view .LVU114
 311 004e 0623     		movs	r3, #6
 312 0050 0193     		str	r3, [sp, #4]
 149:Core/Src/adc.c ****   sConfig.SamplingTime = ADC_SAMPLETIME_2CYCLES_5;
 313              		.loc 1 149 3 is_stmt 1 view .LVU115
 314              		.loc 1 149 24 is_stmt 0 view .LVU116
 315 0052 0023     		movs	r3, #0
 316 0054 0293     		str	r3, [sp, #8]
 150:Core/Src/adc.c ****   sConfig.SingleDiff = ADC_SINGLE_ENDED;
 317              		.loc 1 150 3 is_stmt 1 view .LVU117
 318              		.loc 1 150 22 is_stmt 0 view .LVU118
 319 0056 7F22     		movs	r2, #127
 320 0058 0392     		str	r2, [sp, #12]
 151:Core/Src/adc.c ****   sConfig.OffsetNumber = ADC_OFFSET_NONE;
 321              		.loc 1 151 3 is_stmt 1 view .LVU119
 322              		.loc 1 151 24 is_stmt 0 view .LVU120
 323 005a 0422     		movs	r2, #4
 324 005c 0492     		str	r2, [sp, #16]
 152:Core/Src/adc.c ****   sConfig.Offset = 0;
 325              		.loc 1 152 3 is_stmt 1 view .LVU121
 326              		.loc 1 152 18 is_stmt 0 view .LVU122
 327 005e 0593     		str	r3, [sp, #20]
 153:Core/Src/adc.c ****   if (HAL_ADC_ConfigChannel(&hadc2, &sConfig) != HAL_OK)
 328              		.loc 1 153 3 is_stmt 1 view .LVU123
 329              		.loc 1 153 7 is_stmt 0 view .LVU124
 330 0060 6946     		mov	r1, sp
 331 0062 1048     		ldr	r0, .L23
 332 0064 FFF7FEFF 		bl	HAL_ADC_ConfigChannel
 333              	.LVL11:
 334              		.loc 1 153 6 view .LVU125
 335 0068 98B9     		cbnz	r0, .L20
 336              	.L15:
 154:Core/Src/adc.c ****   {
 155:Core/Src/adc.c ****     Error_Handler();
 156:Core/Src/adc.c ****   }
 157:Core/Src/adc.c **** 
 158:Core/Src/adc.c ****   /** Configure Regular Channel
 159:Core/Src/adc.c ****   */
 160:Core/Src/adc.c ****   sConfig.Rank = ADC_REGULAR_RANK_2;
 337              		.loc 1 160 3 is_stmt 1 view .LVU126
 338              		.loc 1 160 16 is_stmt 0 view .LVU127
 339 006a 0C23     		movs	r3, #12
 340 006c 0193     		str	r3, [sp, #4]
 161:Core/Src/adc.c ****   if (HAL_ADC_ConfigChannel(&hadc2, &sConfig) != HAL_OK)
 341              		.loc 1 161 3 is_stmt 1 view .LVU128
 342              		.loc 1 161 7 is_stmt 0 view .LVU129
 343 006e 6946     		mov	r1, sp
 344 0070 0C48     		ldr	r0, .L23
 345 0072 FFF7FEFF 		bl	HAL_ADC_ConfigChannel
 346              	.LVL12:
 347              		.loc 1 161 6 view .LVU130
 348 0076 78B9     		cbnz	r0, .L21
 349              	.L16:
 162:Core/Src/adc.c ****   {
 163:Core/Src/adc.c ****     Error_Handler();
ARM GAS  C:\Users\purdu\AppData\Local\Temp\cc9o02Oa.s 			page 10


 164:Core/Src/adc.c ****   }
 165:Core/Src/adc.c **** 
 166:Core/Src/adc.c ****   /** Configure Regular Channel
 167:Core/Src/adc.c ****   */
 168:Core/Src/adc.c ****   sConfig.Rank = ADC_REGULAR_RANK_3;
 350              		.loc 1 168 3 is_stmt 1 view .LVU131
 351              		.loc 1 168 16 is_stmt 0 view .LVU132
 352 0078 1223     		movs	r3, #18
 353 007a 0193     		str	r3, [sp, #4]
 169:Core/Src/adc.c ****   if (HAL_ADC_ConfigChannel(&hadc2, &sConfig) != HAL_OK)
 354              		.loc 1 169 3 is_stmt 1 view .LVU133
 355              		.loc 1 169 7 is_stmt 0 view .LVU134
 356 007c 6946     		mov	r1, sp
 357 007e 0948     		ldr	r0, .L23
 358 0080 FFF7FEFF 		bl	HAL_ADC_ConfigChannel
 359              	.LVL13:
 360              		.loc 1 169 6 view .LVU135
 361 0084 58B9     		cbnz	r0, .L22
 362              	.L13:
 170:Core/Src/adc.c ****   {
 171:Core/Src/adc.c ****     Error_Handler();
 172:Core/Src/adc.c ****   }
 173:Core/Src/adc.c ****   /* USER CODE BEGIN ADC2_Init 2 */
 174:Core/Src/adc.c **** 
 175:Core/Src/adc.c ****   /* USER CODE END ADC2_Init 2 */
 176:Core/Src/adc.c **** 
 177:Core/Src/adc.c **** }
 363              		.loc 1 177 1 view .LVU136
 364 0086 09B0     		add	sp, sp, #36
 365              	.LCFI6:
 366              		.cfi_remember_state
 367              		.cfi_def_cfa_offset 4
 368              		@ sp needed
 369 0088 5DF804FB 		ldr	pc, [sp], #4
 370              	.L19:
 371              	.LCFI7:
 372              		.cfi_restore_state
 142:Core/Src/adc.c ****   }
 373              		.loc 1 142 5 is_stmt 1 view .LVU137
 374 008c FFF7FEFF 		bl	Error_Handler
 375              	.LVL14:
 376 0090 DBE7     		b	.L14
 377              	.L20:
 155:Core/Src/adc.c ****   }
 378              		.loc 1 155 5 view .LVU138
 379 0092 FFF7FEFF 		bl	Error_Handler
 380              	.LVL15:
 381 0096 E8E7     		b	.L15
 382              	.L21:
 163:Core/Src/adc.c ****   }
 383              		.loc 1 163 5 view .LVU139
 384 0098 FFF7FEFF 		bl	Error_Handler
 385              	.LVL16:
 386 009c ECE7     		b	.L16
 387              	.L22:
 171:Core/Src/adc.c ****   }
 388              		.loc 1 171 5 view .LVU140
ARM GAS  C:\Users\purdu\AppData\Local\Temp\cc9o02Oa.s 			page 11


 389 009e FFF7FEFF 		bl	Error_Handler
 390              	.LVL17:
 391              		.loc 1 177 1 is_stmt 0 view .LVU141
 392 00a2 F0E7     		b	.L13
 393              	.L24:
 394              		.align	2
 395              	.L23:
 396 00a4 00000000 		.word	hadc2
 397 00a8 00010050 		.word	1342177536
 398 00ac 0008302E 		.word	774899712
 399              		.cfi_endproc
 400              	.LFE330:
 402              		.section	.text.MX_ADC3_Init,"ax",%progbits
 403              		.align	1
 404              		.global	MX_ADC3_Init
 405              		.syntax unified
 406              		.thumb
 407              		.thumb_func
 409              	MX_ADC3_Init:
 410              	.LFB331:
 178:Core/Src/adc.c **** /* ADC3 init function */
 179:Core/Src/adc.c **** void MX_ADC3_Init(void)
 180:Core/Src/adc.c **** {
 411              		.loc 1 180 1 is_stmt 1 view -0
 412              		.cfi_startproc
 413              		@ args = 0, pretend = 0, frame = 48
 414              		@ frame_needed = 0, uses_anonymous_args = 0
 415 0000 10B5     		push	{r4, lr}
 416              	.LCFI8:
 417              		.cfi_def_cfa_offset 8
 418              		.cfi_offset 4, -8
 419              		.cfi_offset 14, -4
 420 0002 8CB0     		sub	sp, sp, #48
 421              	.LCFI9:
 422              		.cfi_def_cfa_offset 56
 181:Core/Src/adc.c **** 
 182:Core/Src/adc.c ****   /* USER CODE BEGIN ADC3_Init 0 */
 183:Core/Src/adc.c **** 
 184:Core/Src/adc.c ****   /* USER CODE END ADC3_Init 0 */
 185:Core/Src/adc.c **** 
 186:Core/Src/adc.c ****   ADC_MultiModeTypeDef multimode = {0};
 423              		.loc 1 186 3 view .LVU143
 424              		.loc 1 186 24 is_stmt 0 view .LVU144
 425 0004 0024     		movs	r4, #0
 426 0006 0994     		str	r4, [sp, #36]
 427 0008 0A94     		str	r4, [sp, #40]
 428 000a 0B94     		str	r4, [sp, #44]
 187:Core/Src/adc.c ****   ADC_ChannelConfTypeDef sConfig = {0};
 429              		.loc 1 187 3 is_stmt 1 view .LVU145
 430              		.loc 1 187 26 is_stmt 0 view .LVU146
 431 000c 2022     		movs	r2, #32
 432 000e 2146     		mov	r1, r4
 433 0010 01A8     		add	r0, sp, #4
 434 0012 FFF7FEFF 		bl	memset
 435              	.LVL18:
 188:Core/Src/adc.c **** 
 189:Core/Src/adc.c ****   /* USER CODE BEGIN ADC3_Init 1 */
ARM GAS  C:\Users\purdu\AppData\Local\Temp\cc9o02Oa.s 			page 12


 190:Core/Src/adc.c **** 
 191:Core/Src/adc.c ****   /* USER CODE END ADC3_Init 1 */
 192:Core/Src/adc.c **** 
 193:Core/Src/adc.c ****   /** Common config
 194:Core/Src/adc.c ****   */
 195:Core/Src/adc.c ****   hadc3.Instance = ADC3;
 436              		.loc 1 195 3 is_stmt 1 view .LVU147
 437              		.loc 1 195 18 is_stmt 0 view .LVU148
 438 0016 2B48     		ldr	r0, .L37
 439 0018 2B4B     		ldr	r3, .L37+4
 440 001a 0360     		str	r3, [r0]
 196:Core/Src/adc.c ****   hadc3.Init.ClockPrescaler = ADC_CLOCK_SYNC_PCLK_DIV2;
 441              		.loc 1 196 3 is_stmt 1 view .LVU149
 442              		.loc 1 196 29 is_stmt 0 view .LVU150
 443 001c 4FF40033 		mov	r3, #131072
 444 0020 4360     		str	r3, [r0, #4]
 197:Core/Src/adc.c ****   hadc3.Init.Resolution = ADC_RESOLUTION_12B;
 445              		.loc 1 197 3 is_stmt 1 view .LVU151
 446              		.loc 1 197 25 is_stmt 0 view .LVU152
 447 0022 8460     		str	r4, [r0, #8]
 198:Core/Src/adc.c ****   hadc3.Init.DataAlign = ADC_DATAALIGN_RIGHT;
 448              		.loc 1 198 3 is_stmt 1 view .LVU153
 449              		.loc 1 198 24 is_stmt 0 view .LVU154
 450 0024 C460     		str	r4, [r0, #12]
 199:Core/Src/adc.c ****   hadc3.Init.GainCompensation = 0;
 451              		.loc 1 199 3 is_stmt 1 view .LVU155
 452              		.loc 1 199 31 is_stmt 0 view .LVU156
 453 0026 0461     		str	r4, [r0, #16]
 200:Core/Src/adc.c ****   hadc3.Init.ScanConvMode = ADC_SCAN_ENABLE;
 454              		.loc 1 200 3 is_stmt 1 view .LVU157
 455              		.loc 1 200 27 is_stmt 0 view .LVU158
 456 0028 0123     		movs	r3, #1
 457 002a 4361     		str	r3, [r0, #20]
 201:Core/Src/adc.c ****   hadc3.Init.EOCSelection = ADC_EOC_SINGLE_CONV;
 458              		.loc 1 201 3 is_stmt 1 view .LVU159
 459              		.loc 1 201 27 is_stmt 0 view .LVU160
 460 002c 0422     		movs	r2, #4
 461 002e 8261     		str	r2, [r0, #24]
 202:Core/Src/adc.c ****   hadc3.Init.LowPowerAutoWait = DISABLE;
 462              		.loc 1 202 3 is_stmt 1 view .LVU161
 463              		.loc 1 202 31 is_stmt 0 view .LVU162
 464 0030 0477     		strb	r4, [r0, #28]
 203:Core/Src/adc.c ****   hadc3.Init.ContinuousConvMode = ENABLE;
 465              		.loc 1 203 3 is_stmt 1 view .LVU163
 466              		.loc 1 203 33 is_stmt 0 view .LVU164
 467 0032 4377     		strb	r3, [r0, #29]
 204:Core/Src/adc.c ****   hadc3.Init.NbrOfConversion = 3;
 468              		.loc 1 204 3 is_stmt 1 view .LVU165
 469              		.loc 1 204 30 is_stmt 0 view .LVU166
 470 0034 0322     		movs	r2, #3
 471 0036 0262     		str	r2, [r0, #32]
 205:Core/Src/adc.c ****   hadc3.Init.DiscontinuousConvMode = DISABLE;
 472              		.loc 1 205 3 is_stmt 1 view .LVU167
 473              		.loc 1 205 36 is_stmt 0 view .LVU168
 474 0038 80F82440 		strb	r4, [r0, #36]
 206:Core/Src/adc.c ****   hadc3.Init.ExternalTrigConv = ADC_SOFTWARE_START;
 475              		.loc 1 206 3 is_stmt 1 view .LVU169
ARM GAS  C:\Users\purdu\AppData\Local\Temp\cc9o02Oa.s 			page 13


 476              		.loc 1 206 31 is_stmt 0 view .LVU170
 477 003c C462     		str	r4, [r0, #44]
 207:Core/Src/adc.c ****   hadc3.Init.ExternalTrigConvEdge = ADC_EXTERNALTRIGCONVEDGE_NONE;
 478              		.loc 1 207 3 is_stmt 1 view .LVU171
 479              		.loc 1 207 35 is_stmt 0 view .LVU172
 480 003e 0463     		str	r4, [r0, #48]
 208:Core/Src/adc.c ****   hadc3.Init.DMAContinuousRequests = ENABLE;
 481              		.loc 1 208 3 is_stmt 1 view .LVU173
 482              		.loc 1 208 36 is_stmt 0 view .LVU174
 483 0040 80F83830 		strb	r3, [r0, #56]
 209:Core/Src/adc.c ****   hadc3.Init.Overrun = ADC_OVR_DATA_PRESERVED;
 484              		.loc 1 209 3 is_stmt 1 view .LVU175
 485              		.loc 1 209 22 is_stmt 0 view .LVU176
 486 0044 C463     		str	r4, [r0, #60]
 210:Core/Src/adc.c ****   hadc3.Init.OversamplingMode = DISABLE;
 487              		.loc 1 210 3 is_stmt 1 view .LVU177
 488              		.loc 1 210 31 is_stmt 0 view .LVU178
 489 0046 80F84040 		strb	r4, [r0, #64]
 211:Core/Src/adc.c ****   if (HAL_ADC_Init(&hadc3) != HAL_OK)
 490              		.loc 1 211 3 is_stmt 1 view .LVU179
 491              		.loc 1 211 7 is_stmt 0 view .LVU180
 492 004a FFF7FEFF 		bl	HAL_ADC_Init
 493              	.LVL19:
 494              		.loc 1 211 6 view .LVU181
 495 004e 48BB     		cbnz	r0, .L32
 496              	.L26:
 212:Core/Src/adc.c ****   {
 213:Core/Src/adc.c ****     Error_Handler();
 214:Core/Src/adc.c ****   }
 215:Core/Src/adc.c **** 
 216:Core/Src/adc.c ****   /** Configure the ADC multi-mode
 217:Core/Src/adc.c ****   */
 218:Core/Src/adc.c ****   multimode.Mode = ADC_MODE_INDEPENDENT;
 497              		.loc 1 218 3 is_stmt 1 view .LVU182
 498              		.loc 1 218 18 is_stmt 0 view .LVU183
 499 0050 0023     		movs	r3, #0
 500 0052 0993     		str	r3, [sp, #36]
 219:Core/Src/adc.c ****   if (HAL_ADCEx_MultiModeConfigChannel(&hadc3, &multimode) != HAL_OK)
 501              		.loc 1 219 3 is_stmt 1 view .LVU184
 502              		.loc 1 219 7 is_stmt 0 view .LVU185
 503 0054 09A9     		add	r1, sp, #36
 504 0056 1B48     		ldr	r0, .L37
 505 0058 FFF7FEFF 		bl	HAL_ADCEx_MultiModeConfigChannel
 506              	.LVL20:
 507              		.loc 1 219 6 view .LVU186
 508 005c 28BB     		cbnz	r0, .L33
 509              	.L27:
 220:Core/Src/adc.c ****   {
 221:Core/Src/adc.c ****     Error_Handler();
 222:Core/Src/adc.c ****   }
 223:Core/Src/adc.c **** 
 224:Core/Src/adc.c ****   /** Configure Regular Channel
 225:Core/Src/adc.c ****   */
 226:Core/Src/adc.c ****   sConfig.Channel = ADC_CHANNEL_4;
 510              		.loc 1 226 3 is_stmt 1 view .LVU187
 511              		.loc 1 226 19 is_stmt 0 view .LVU188
 512 005e 1B4B     		ldr	r3, .L37+8
ARM GAS  C:\Users\purdu\AppData\Local\Temp\cc9o02Oa.s 			page 14


 513 0060 0193     		str	r3, [sp, #4]
 227:Core/Src/adc.c ****   sConfig.Rank = ADC_REGULAR_RANK_1;
 514              		.loc 1 227 3 is_stmt 1 view .LVU189
 515              		.loc 1 227 16 is_stmt 0 view .LVU190
 516 0062 0623     		movs	r3, #6
 517 0064 0293     		str	r3, [sp, #8]
 228:Core/Src/adc.c ****   sConfig.SamplingTime = ADC_SAMPLETIME_2CYCLES_5;
 518              		.loc 1 228 3 is_stmt 1 view .LVU191
 519              		.loc 1 228 24 is_stmt 0 view .LVU192
 520 0066 0023     		movs	r3, #0
 521 0068 0393     		str	r3, [sp, #12]
 229:Core/Src/adc.c ****   sConfig.SingleDiff = ADC_SINGLE_ENDED;
 522              		.loc 1 229 3 is_stmt 1 view .LVU193
 523              		.loc 1 229 22 is_stmt 0 view .LVU194
 524 006a 7F22     		movs	r2, #127
 525 006c 0492     		str	r2, [sp, #16]
 230:Core/Src/adc.c ****   sConfig.OffsetNumber = ADC_OFFSET_NONE;
 526              		.loc 1 230 3 is_stmt 1 view .LVU195
 527              		.loc 1 230 24 is_stmt 0 view .LVU196
 528 006e 0422     		movs	r2, #4
 529 0070 0592     		str	r2, [sp, #20]
 231:Core/Src/adc.c ****   sConfig.Offset = 0;
 530              		.loc 1 231 3 is_stmt 1 view .LVU197
 531              		.loc 1 231 18 is_stmt 0 view .LVU198
 532 0072 0693     		str	r3, [sp, #24]
 232:Core/Src/adc.c ****   if (HAL_ADC_ConfigChannel(&hadc3, &sConfig) != HAL_OK)
 533              		.loc 1 232 3 is_stmt 1 view .LVU199
 534              		.loc 1 232 7 is_stmt 0 view .LVU200
 535 0074 0DEB0201 		add	r1, sp, r2
 536 0078 1248     		ldr	r0, .L37
 537 007a FFF7FEFF 		bl	HAL_ADC_ConfigChannel
 538              	.LVL21:
 539              		.loc 1 232 6 view .LVU201
 540 007e B8B9     		cbnz	r0, .L34
 541              	.L28:
 233:Core/Src/adc.c ****   {
 234:Core/Src/adc.c ****     Error_Handler();
 235:Core/Src/adc.c ****   }
 236:Core/Src/adc.c **** 
 237:Core/Src/adc.c ****   /** Configure Regular Channel
 238:Core/Src/adc.c ****   */
 239:Core/Src/adc.c ****   sConfig.Channel = ADC_CHANNEL_2;
 542              		.loc 1 239 3 is_stmt 1 view .LVU202
 543              		.loc 1 239 19 is_stmt 0 view .LVU203
 544 0080 134B     		ldr	r3, .L37+12
 545 0082 0193     		str	r3, [sp, #4]
 240:Core/Src/adc.c ****   sConfig.Rank = ADC_REGULAR_RANK_2;
 546              		.loc 1 240 3 is_stmt 1 view .LVU204
 547              		.loc 1 240 16 is_stmt 0 view .LVU205
 548 0084 0C23     		movs	r3, #12
 549 0086 0293     		str	r3, [sp, #8]
 241:Core/Src/adc.c ****   if (HAL_ADC_ConfigChannel(&hadc3, &sConfig) != HAL_OK)
 550              		.loc 1 241 3 is_stmt 1 view .LVU206
 551              		.loc 1 241 7 is_stmt 0 view .LVU207
 552 0088 01A9     		add	r1, sp, #4
 553 008a 0E48     		ldr	r0, .L37
 554 008c FFF7FEFF 		bl	HAL_ADC_ConfigChannel
ARM GAS  C:\Users\purdu\AppData\Local\Temp\cc9o02Oa.s 			page 15


 555              	.LVL22:
 556              		.loc 1 241 6 view .LVU208
 557 0090 88B9     		cbnz	r0, .L35
 558              	.L29:
 242:Core/Src/adc.c ****   {
 243:Core/Src/adc.c ****     Error_Handler();
 244:Core/Src/adc.c ****   }
 245:Core/Src/adc.c **** 
 246:Core/Src/adc.c ****   /** Configure Regular Channel
 247:Core/Src/adc.c ****   */
 248:Core/Src/adc.c ****   sConfig.Rank = ADC_REGULAR_RANK_3;
 559              		.loc 1 248 3 is_stmt 1 view .LVU209
 560              		.loc 1 248 16 is_stmt 0 view .LVU210
 561 0092 1223     		movs	r3, #18
 562 0094 0293     		str	r3, [sp, #8]
 249:Core/Src/adc.c ****   if (HAL_ADC_ConfigChannel(&hadc3, &sConfig) != HAL_OK)
 563              		.loc 1 249 3 is_stmt 1 view .LVU211
 564              		.loc 1 249 7 is_stmt 0 view .LVU212
 565 0096 01A9     		add	r1, sp, #4
 566 0098 0A48     		ldr	r0, .L37
 567 009a FFF7FEFF 		bl	HAL_ADC_ConfigChannel
 568              	.LVL23:
 569              		.loc 1 249 6 view .LVU213
 570 009e 68B9     		cbnz	r0, .L36
 571              	.L25:
 250:Core/Src/adc.c ****   {
 251:Core/Src/adc.c ****     Error_Handler();
 252:Core/Src/adc.c ****   }
 253:Core/Src/adc.c ****   /* USER CODE BEGIN ADC3_Init 2 */
 254:Core/Src/adc.c **** 
 255:Core/Src/adc.c ****   /* USER CODE END ADC3_Init 2 */
 256:Core/Src/adc.c **** 
 257:Core/Src/adc.c **** }
 572              		.loc 1 257 1 view .LVU214
 573 00a0 0CB0     		add	sp, sp, #48
 574              	.LCFI10:
 575              		.cfi_remember_state
 576              		.cfi_def_cfa_offset 8
 577              		@ sp needed
 578 00a2 10BD     		pop	{r4, pc}
 579              	.L32:
 580              	.LCFI11:
 581              		.cfi_restore_state
 213:Core/Src/adc.c ****   }
 582              		.loc 1 213 5 is_stmt 1 view .LVU215
 583 00a4 FFF7FEFF 		bl	Error_Handler
 584              	.LVL24:
 585 00a8 D2E7     		b	.L26
 586              	.L33:
 221:Core/Src/adc.c ****   }
 587              		.loc 1 221 5 view .LVU216
 588 00aa FFF7FEFF 		bl	Error_Handler
 589              	.LVL25:
 590 00ae D6E7     		b	.L27
 591              	.L34:
 234:Core/Src/adc.c ****   }
 592              		.loc 1 234 5 view .LVU217
ARM GAS  C:\Users\purdu\AppData\Local\Temp\cc9o02Oa.s 			page 16


 593 00b0 FFF7FEFF 		bl	Error_Handler
 594              	.LVL26:
 595 00b4 E4E7     		b	.L28
 596              	.L35:
 243:Core/Src/adc.c ****   }
 597              		.loc 1 243 5 view .LVU218
 598 00b6 FFF7FEFF 		bl	Error_Handler
 599              	.LVL27:
 600 00ba EAE7     		b	.L29
 601              	.L36:
 251:Core/Src/adc.c ****   }
 602              		.loc 1 251 5 view .LVU219
 603 00bc FFF7FEFF 		bl	Error_Handler
 604              	.LVL28:
 605              		.loc 1 257 1 is_stmt 0 view .LVU220
 606 00c0 EEE7     		b	.L25
 607              	.L38:
 608 00c2 00BF     		.align	2
 609              	.L37:
 610 00c4 00000000 		.word	hadc3
 611 00c8 00040050 		.word	1342178304
 612 00cc 1000C010 		.word	281018384
 613 00d0 04006008 		.word	140509188
 614              		.cfi_endproc
 615              	.LFE331:
 617              		.section	.text.MX_ADC4_Init,"ax",%progbits
 618              		.align	1
 619              		.global	MX_ADC4_Init
 620              		.syntax unified
 621              		.thumb
 622              		.thumb_func
 624              	MX_ADC4_Init:
 625              	.LFB332:
 258:Core/Src/adc.c **** /* ADC4 init function */
 259:Core/Src/adc.c **** void MX_ADC4_Init(void)
 260:Core/Src/adc.c **** {
 626              		.loc 1 260 1 is_stmt 1 view -0
 627              		.cfi_startproc
 628              		@ args = 0, pretend = 0, frame = 32
 629              		@ frame_needed = 0, uses_anonymous_args = 0
 630 0000 00B5     		push	{lr}
 631              	.LCFI12:
 632              		.cfi_def_cfa_offset 4
 633              		.cfi_offset 14, -4
 634 0002 89B0     		sub	sp, sp, #36
 635              	.LCFI13:
 636              		.cfi_def_cfa_offset 40
 261:Core/Src/adc.c **** 
 262:Core/Src/adc.c ****   /* USER CODE BEGIN ADC4_Init 0 */
 263:Core/Src/adc.c **** 
 264:Core/Src/adc.c ****   /* USER CODE END ADC4_Init 0 */
 265:Core/Src/adc.c **** 
 266:Core/Src/adc.c ****   ADC_ChannelConfTypeDef sConfig = {0};
 637              		.loc 1 266 3 view .LVU222
 638              		.loc 1 266 26 is_stmt 0 view .LVU223
 639 0004 2022     		movs	r2, #32
 640 0006 0021     		movs	r1, #0
ARM GAS  C:\Users\purdu\AppData\Local\Temp\cc9o02Oa.s 			page 17


 641 0008 6846     		mov	r0, sp
 642 000a FFF7FEFF 		bl	memset
 643              	.LVL29:
 267:Core/Src/adc.c **** 
 268:Core/Src/adc.c ****   /* USER CODE BEGIN ADC4_Init 1 */
 269:Core/Src/adc.c **** 
 270:Core/Src/adc.c ****   /* USER CODE END ADC4_Init 1 */
 271:Core/Src/adc.c **** 
 272:Core/Src/adc.c ****   /** Common config
 273:Core/Src/adc.c ****   */
 274:Core/Src/adc.c ****   hadc4.Instance = ADC4;
 644              		.loc 1 274 3 is_stmt 1 view .LVU224
 645              		.loc 1 274 18 is_stmt 0 view .LVU225
 646 000e 1B48     		ldr	r0, .L45
 647 0010 1B4B     		ldr	r3, .L45+4
 648 0012 0360     		str	r3, [r0]
 275:Core/Src/adc.c ****   hadc4.Init.ClockPrescaler = ADC_CLOCK_SYNC_PCLK_DIV2;
 649              		.loc 1 275 3 is_stmt 1 view .LVU226
 650              		.loc 1 275 29 is_stmt 0 view .LVU227
 651 0014 4FF40033 		mov	r3, #131072
 652 0018 4360     		str	r3, [r0, #4]
 276:Core/Src/adc.c ****   hadc4.Init.Resolution = ADC_RESOLUTION_12B;
 653              		.loc 1 276 3 is_stmt 1 view .LVU228
 654              		.loc 1 276 25 is_stmt 0 view .LVU229
 655 001a 0023     		movs	r3, #0
 656 001c 8360     		str	r3, [r0, #8]
 277:Core/Src/adc.c ****   hadc4.Init.DataAlign = ADC_DATAALIGN_RIGHT;
 657              		.loc 1 277 3 is_stmt 1 view .LVU230
 658              		.loc 1 277 24 is_stmt 0 view .LVU231
 659 001e C360     		str	r3, [r0, #12]
 278:Core/Src/adc.c ****   hadc4.Init.GainCompensation = 0;
 660              		.loc 1 278 3 is_stmt 1 view .LVU232
 661              		.loc 1 278 31 is_stmt 0 view .LVU233
 662 0020 0361     		str	r3, [r0, #16]
 279:Core/Src/adc.c ****   hadc4.Init.ScanConvMode = ADC_SCAN_DISABLE;
 663              		.loc 1 279 3 is_stmt 1 view .LVU234
 664              		.loc 1 279 27 is_stmt 0 view .LVU235
 665 0022 4361     		str	r3, [r0, #20]
 280:Core/Src/adc.c ****   hadc4.Init.EOCSelection = ADC_EOC_SINGLE_CONV;
 666              		.loc 1 280 3 is_stmt 1 view .LVU236
 667              		.loc 1 280 27 is_stmt 0 view .LVU237
 668 0024 0422     		movs	r2, #4
 669 0026 8261     		str	r2, [r0, #24]
 281:Core/Src/adc.c ****   hadc4.Init.LowPowerAutoWait = DISABLE;
 670              		.loc 1 281 3 is_stmt 1 view .LVU238
 671              		.loc 1 281 31 is_stmt 0 view .LVU239
 672 0028 0377     		strb	r3, [r0, #28]
 282:Core/Src/adc.c ****   hadc4.Init.ContinuousConvMode = DISABLE;
 673              		.loc 1 282 3 is_stmt 1 view .LVU240
 674              		.loc 1 282 33 is_stmt 0 view .LVU241
 675 002a 4377     		strb	r3, [r0, #29]
 283:Core/Src/adc.c ****   hadc4.Init.NbrOfConversion = 1;
 676              		.loc 1 283 3 is_stmt 1 view .LVU242
 677              		.loc 1 283 30 is_stmt 0 view .LVU243
 678 002c 0122     		movs	r2, #1
 679 002e 0262     		str	r2, [r0, #32]
 284:Core/Src/adc.c ****   hadc4.Init.DiscontinuousConvMode = DISABLE;
ARM GAS  C:\Users\purdu\AppData\Local\Temp\cc9o02Oa.s 			page 18


 680              		.loc 1 284 3 is_stmt 1 view .LVU244
 681              		.loc 1 284 36 is_stmt 0 view .LVU245
 682 0030 80F82430 		strb	r3, [r0, #36]
 285:Core/Src/adc.c ****   hadc4.Init.ExternalTrigConv = ADC_SOFTWARE_START;
 683              		.loc 1 285 3 is_stmt 1 view .LVU246
 684              		.loc 1 285 31 is_stmt 0 view .LVU247
 685 0034 C362     		str	r3, [r0, #44]
 286:Core/Src/adc.c ****   hadc4.Init.ExternalTrigConvEdge = ADC_EXTERNALTRIGCONVEDGE_NONE;
 686              		.loc 1 286 3 is_stmt 1 view .LVU248
 687              		.loc 1 286 35 is_stmt 0 view .LVU249
 688 0036 0363     		str	r3, [r0, #48]
 287:Core/Src/adc.c ****   hadc4.Init.DMAContinuousRequests = DISABLE;
 689              		.loc 1 287 3 is_stmt 1 view .LVU250
 690              		.loc 1 287 36 is_stmt 0 view .LVU251
 691 0038 80F83830 		strb	r3, [r0, #56]
 288:Core/Src/adc.c ****   hadc4.Init.Overrun = ADC_OVR_DATA_PRESERVED;
 692              		.loc 1 288 3 is_stmt 1 view .LVU252
 693              		.loc 1 288 22 is_stmt 0 view .LVU253
 694 003c C363     		str	r3, [r0, #60]
 289:Core/Src/adc.c ****   hadc4.Init.OversamplingMode = DISABLE;
 695              		.loc 1 289 3 is_stmt 1 view .LVU254
 696              		.loc 1 289 31 is_stmt 0 view .LVU255
 697 003e 80F84030 		strb	r3, [r0, #64]
 290:Core/Src/adc.c ****   if (HAL_ADC_Init(&hadc4) != HAL_OK)
 698              		.loc 1 290 3 is_stmt 1 view .LVU256
 699              		.loc 1 290 7 is_stmt 0 view .LVU257
 700 0042 FFF7FEFF 		bl	HAL_ADC_Init
 701              	.LVL30:
 702              		.loc 1 290 6 view .LVU258
 703 0046 90B9     		cbnz	r0, .L43
 704              	.L40:
 291:Core/Src/adc.c ****   {
 292:Core/Src/adc.c ****     Error_Handler();
 293:Core/Src/adc.c ****   }
 294:Core/Src/adc.c **** 
 295:Core/Src/adc.c ****   /** Configure Regular Channel
 296:Core/Src/adc.c ****   */
 297:Core/Src/adc.c ****   sConfig.Channel = ADC_CHANNEL_12;
 705              		.loc 1 297 3 is_stmt 1 view .LVU259
 706              		.loc 1 297 19 is_stmt 0 view .LVU260
 707 0048 0E4B     		ldr	r3, .L45+8
 708 004a 0093     		str	r3, [sp]
 298:Core/Src/adc.c ****   sConfig.Rank = ADC_REGULAR_RANK_1;
 709              		.loc 1 298 3 is_stmt 1 view .LVU261
 710              		.loc 1 298 16 is_stmt 0 view .LVU262
 711 004c 0623     		movs	r3, #6
 712 004e 0193     		str	r3, [sp, #4]
 299:Core/Src/adc.c ****   sConfig.SamplingTime = ADC_SAMPLETIME_2CYCLES_5;
 713              		.loc 1 299 3 is_stmt 1 view .LVU263
 714              		.loc 1 299 24 is_stmt 0 view .LVU264
 715 0050 0023     		movs	r3, #0
 716 0052 0293     		str	r3, [sp, #8]
 300:Core/Src/adc.c ****   sConfig.SingleDiff = ADC_SINGLE_ENDED;
 717              		.loc 1 300 3 is_stmt 1 view .LVU265
 718              		.loc 1 300 22 is_stmt 0 view .LVU266
 719 0054 7F22     		movs	r2, #127
 720 0056 0392     		str	r2, [sp, #12]
ARM GAS  C:\Users\purdu\AppData\Local\Temp\cc9o02Oa.s 			page 19


 301:Core/Src/adc.c ****   sConfig.OffsetNumber = ADC_OFFSET_NONE;
 721              		.loc 1 301 3 is_stmt 1 view .LVU267
 722              		.loc 1 301 24 is_stmt 0 view .LVU268
 723 0058 0422     		movs	r2, #4
 724 005a 0492     		str	r2, [sp, #16]
 302:Core/Src/adc.c ****   sConfig.Offset = 0;
 725              		.loc 1 302 3 is_stmt 1 view .LVU269
 726              		.loc 1 302 18 is_stmt 0 view .LVU270
 727 005c 0593     		str	r3, [sp, #20]
 303:Core/Src/adc.c ****   if (HAL_ADC_ConfigChannel(&hadc4, &sConfig) != HAL_OK)
 728              		.loc 1 303 3 is_stmt 1 view .LVU271
 729              		.loc 1 303 7 is_stmt 0 view .LVU272
 730 005e 6946     		mov	r1, sp
 731 0060 0648     		ldr	r0, .L45
 732 0062 FFF7FEFF 		bl	HAL_ADC_ConfigChannel
 733              	.LVL31:
 734              		.loc 1 303 6 view .LVU273
 735 0066 28B9     		cbnz	r0, .L44
 736              	.L39:
 304:Core/Src/adc.c ****   {
 305:Core/Src/adc.c ****     Error_Handler();
 306:Core/Src/adc.c ****   }
 307:Core/Src/adc.c ****   /* USER CODE BEGIN ADC4_Init 2 */
 308:Core/Src/adc.c **** 
 309:Core/Src/adc.c ****   /* USER CODE END ADC4_Init 2 */
 310:Core/Src/adc.c **** 
 311:Core/Src/adc.c **** }
 737              		.loc 1 311 1 view .LVU274
 738 0068 09B0     		add	sp, sp, #36
 739              	.LCFI14:
 740              		.cfi_remember_state
 741              		.cfi_def_cfa_offset 4
 742              		@ sp needed
 743 006a 5DF804FB 		ldr	pc, [sp], #4
 744              	.L43:
 745              	.LCFI15:
 746              		.cfi_restore_state
 292:Core/Src/adc.c ****   }
 747              		.loc 1 292 5 is_stmt 1 view .LVU275
 748 006e FFF7FEFF 		bl	Error_Handler
 749              	.LVL32:
 750 0072 E9E7     		b	.L40
 751              	.L44:
 305:Core/Src/adc.c ****   }
 752              		.loc 1 305 5 view .LVU276
 753 0074 FFF7FEFF 		bl	Error_Handler
 754              	.LVL33:
 755              		.loc 1 311 1 is_stmt 0 view .LVU277
 756 0078 F6E7     		b	.L39
 757              	.L46:
 758 007a 00BF     		.align	2
 759              	.L45:
 760 007c 00000000 		.word	hadc4
 761 0080 00050050 		.word	1342178560
 762 0084 00106032 		.word	845156352
 763              		.cfi_endproc
 764              	.LFE332:
ARM GAS  C:\Users\purdu\AppData\Local\Temp\cc9o02Oa.s 			page 20


 766              		.section	.text.MX_ADC5_Init,"ax",%progbits
 767              		.align	1
 768              		.global	MX_ADC5_Init
 769              		.syntax unified
 770              		.thumb
 771              		.thumb_func
 773              	MX_ADC5_Init:
 774              	.LFB333:
 312:Core/Src/adc.c **** /* ADC5 init function */
 313:Core/Src/adc.c **** void MX_ADC5_Init(void)
 314:Core/Src/adc.c **** {
 775              		.loc 1 314 1 is_stmt 1 view -0
 776              		.cfi_startproc
 777              		@ args = 0, pretend = 0, frame = 32
 778              		@ frame_needed = 0, uses_anonymous_args = 0
 779 0000 00B5     		push	{lr}
 780              	.LCFI16:
 781              		.cfi_def_cfa_offset 4
 782              		.cfi_offset 14, -4
 783 0002 89B0     		sub	sp, sp, #36
 784              	.LCFI17:
 785              		.cfi_def_cfa_offset 40
 315:Core/Src/adc.c **** 
 316:Core/Src/adc.c ****   /* USER CODE BEGIN ADC5_Init 0 */
 317:Core/Src/adc.c **** 
 318:Core/Src/adc.c ****   /* USER CODE END ADC5_Init 0 */
 319:Core/Src/adc.c **** 
 320:Core/Src/adc.c ****   ADC_ChannelConfTypeDef sConfig = {0};
 786              		.loc 1 320 3 view .LVU279
 787              		.loc 1 320 26 is_stmt 0 view .LVU280
 788 0004 2022     		movs	r2, #32
 789 0006 0021     		movs	r1, #0
 790 0008 6846     		mov	r0, sp
 791 000a FFF7FEFF 		bl	memset
 792              	.LVL34:
 321:Core/Src/adc.c **** 
 322:Core/Src/adc.c ****   /* USER CODE BEGIN ADC5_Init 1 */
 323:Core/Src/adc.c **** 
 324:Core/Src/adc.c ****   /* USER CODE END ADC5_Init 1 */
 325:Core/Src/adc.c **** 
 326:Core/Src/adc.c ****   /** Common config
 327:Core/Src/adc.c ****   */
 328:Core/Src/adc.c ****   hadc5.Instance = ADC5;
 793              		.loc 1 328 3 is_stmt 1 view .LVU281
 794              		.loc 1 328 18 is_stmt 0 view .LVU282
 795 000e 1B48     		ldr	r0, .L53
 796 0010 1B4B     		ldr	r3, .L53+4
 797 0012 0360     		str	r3, [r0]
 329:Core/Src/adc.c ****   hadc5.Init.ClockPrescaler = ADC_CLOCK_SYNC_PCLK_DIV2;
 798              		.loc 1 329 3 is_stmt 1 view .LVU283
 799              		.loc 1 329 29 is_stmt 0 view .LVU284
 800 0014 4FF40033 		mov	r3, #131072
 801 0018 4360     		str	r3, [r0, #4]
 330:Core/Src/adc.c ****   hadc5.Init.Resolution = ADC_RESOLUTION_12B;
 802              		.loc 1 330 3 is_stmt 1 view .LVU285
 803              		.loc 1 330 25 is_stmt 0 view .LVU286
 804 001a 0023     		movs	r3, #0
ARM GAS  C:\Users\purdu\AppData\Local\Temp\cc9o02Oa.s 			page 21


 805 001c 8360     		str	r3, [r0, #8]
 331:Core/Src/adc.c ****   hadc5.Init.DataAlign = ADC_DATAALIGN_RIGHT;
 806              		.loc 1 331 3 is_stmt 1 view .LVU287
 807              		.loc 1 331 24 is_stmt 0 view .LVU288
 808 001e C360     		str	r3, [r0, #12]
 332:Core/Src/adc.c ****   hadc5.Init.GainCompensation = 0;
 809              		.loc 1 332 3 is_stmt 1 view .LVU289
 810              		.loc 1 332 31 is_stmt 0 view .LVU290
 811 0020 0361     		str	r3, [r0, #16]
 333:Core/Src/adc.c ****   hadc5.Init.ScanConvMode = ADC_SCAN_DISABLE;
 812              		.loc 1 333 3 is_stmt 1 view .LVU291
 813              		.loc 1 333 27 is_stmt 0 view .LVU292
 814 0022 4361     		str	r3, [r0, #20]
 334:Core/Src/adc.c ****   hadc5.Init.EOCSelection = ADC_EOC_SINGLE_CONV;
 815              		.loc 1 334 3 is_stmt 1 view .LVU293
 816              		.loc 1 334 27 is_stmt 0 view .LVU294
 817 0024 0422     		movs	r2, #4
 818 0026 8261     		str	r2, [r0, #24]
 335:Core/Src/adc.c ****   hadc5.Init.LowPowerAutoWait = DISABLE;
 819              		.loc 1 335 3 is_stmt 1 view .LVU295
 820              		.loc 1 335 31 is_stmt 0 view .LVU296
 821 0028 0377     		strb	r3, [r0, #28]
 336:Core/Src/adc.c ****   hadc5.Init.ContinuousConvMode = DISABLE;
 822              		.loc 1 336 3 is_stmt 1 view .LVU297
 823              		.loc 1 336 33 is_stmt 0 view .LVU298
 824 002a 4377     		strb	r3, [r0, #29]
 337:Core/Src/adc.c ****   hadc5.Init.NbrOfConversion = 1;
 825              		.loc 1 337 3 is_stmt 1 view .LVU299
 826              		.loc 1 337 30 is_stmt 0 view .LVU300
 827 002c 0122     		movs	r2, #1
 828 002e 0262     		str	r2, [r0, #32]
 338:Core/Src/adc.c ****   hadc5.Init.DiscontinuousConvMode = DISABLE;
 829              		.loc 1 338 3 is_stmt 1 view .LVU301
 830              		.loc 1 338 36 is_stmt 0 view .LVU302
 831 0030 80F82430 		strb	r3, [r0, #36]
 339:Core/Src/adc.c ****   hadc5.Init.ExternalTrigConv = ADC_SOFTWARE_START;
 832              		.loc 1 339 3 is_stmt 1 view .LVU303
 833              		.loc 1 339 31 is_stmt 0 view .LVU304
 834 0034 C362     		str	r3, [r0, #44]
 340:Core/Src/adc.c ****   hadc5.Init.ExternalTrigConvEdge = ADC_EXTERNALTRIGCONVEDGE_NONE;
 835              		.loc 1 340 3 is_stmt 1 view .LVU305
 836              		.loc 1 340 35 is_stmt 0 view .LVU306
 837 0036 0363     		str	r3, [r0, #48]
 341:Core/Src/adc.c ****   hadc5.Init.DMAContinuousRequests = DISABLE;
 838              		.loc 1 341 3 is_stmt 1 view .LVU307
 839              		.loc 1 341 36 is_stmt 0 view .LVU308
 840 0038 80F83830 		strb	r3, [r0, #56]
 342:Core/Src/adc.c ****   hadc5.Init.Overrun = ADC_OVR_DATA_PRESERVED;
 841              		.loc 1 342 3 is_stmt 1 view .LVU309
 842              		.loc 1 342 22 is_stmt 0 view .LVU310
 843 003c C363     		str	r3, [r0, #60]
 343:Core/Src/adc.c ****   hadc5.Init.OversamplingMode = DISABLE;
 844              		.loc 1 343 3 is_stmt 1 view .LVU311
 845              		.loc 1 343 31 is_stmt 0 view .LVU312
 846 003e 80F84030 		strb	r3, [r0, #64]
 344:Core/Src/adc.c ****   if (HAL_ADC_Init(&hadc5) != HAL_OK)
 847              		.loc 1 344 3 is_stmt 1 view .LVU313
ARM GAS  C:\Users\purdu\AppData\Local\Temp\cc9o02Oa.s 			page 22


 848              		.loc 1 344 7 is_stmt 0 view .LVU314
 849 0042 FFF7FEFF 		bl	HAL_ADC_Init
 850              	.LVL35:
 851              		.loc 1 344 6 view .LVU315
 852 0046 90B9     		cbnz	r0, .L51
 853              	.L48:
 345:Core/Src/adc.c ****   {
 346:Core/Src/adc.c ****     Error_Handler();
 347:Core/Src/adc.c ****   }
 348:Core/Src/adc.c **** 
 349:Core/Src/adc.c ****   /** Configure Regular Channel
 350:Core/Src/adc.c ****   */
 351:Core/Src/adc.c ****   sConfig.Channel = ADC_CHANNEL_1;
 854              		.loc 1 351 3 is_stmt 1 view .LVU316
 855              		.loc 1 351 19 is_stmt 0 view .LVU317
 856 0048 0E4B     		ldr	r3, .L53+8
 857 004a 0093     		str	r3, [sp]
 352:Core/Src/adc.c ****   sConfig.Rank = ADC_REGULAR_RANK_1;
 858              		.loc 1 352 3 is_stmt 1 view .LVU318
 859              		.loc 1 352 16 is_stmt 0 view .LVU319
 860 004c 0623     		movs	r3, #6
 861 004e 0193     		str	r3, [sp, #4]
 353:Core/Src/adc.c ****   sConfig.SamplingTime = ADC_SAMPLETIME_2CYCLES_5;
 862              		.loc 1 353 3 is_stmt 1 view .LVU320
 863              		.loc 1 353 24 is_stmt 0 view .LVU321
 864 0050 0023     		movs	r3, #0
 865 0052 0293     		str	r3, [sp, #8]
 354:Core/Src/adc.c ****   sConfig.SingleDiff = ADC_SINGLE_ENDED;
 866              		.loc 1 354 3 is_stmt 1 view .LVU322
 867              		.loc 1 354 22 is_stmt 0 view .LVU323
 868 0054 7F22     		movs	r2, #127
 869 0056 0392     		str	r2, [sp, #12]
 355:Core/Src/adc.c ****   sConfig.OffsetNumber = ADC_OFFSET_NONE;
 870              		.loc 1 355 3 is_stmt 1 view .LVU324
 871              		.loc 1 355 24 is_stmt 0 view .LVU325
 872 0058 0422     		movs	r2, #4
 873 005a 0492     		str	r2, [sp, #16]
 356:Core/Src/adc.c ****   sConfig.Offset = 0;
 874              		.loc 1 356 3 is_stmt 1 view .LVU326
 875              		.loc 1 356 18 is_stmt 0 view .LVU327
 876 005c 0593     		str	r3, [sp, #20]
 357:Core/Src/adc.c ****   if (HAL_ADC_ConfigChannel(&hadc5, &sConfig) != HAL_OK)
 877              		.loc 1 357 3 is_stmt 1 view .LVU328
 878              		.loc 1 357 7 is_stmt 0 view .LVU329
 879 005e 6946     		mov	r1, sp
 880 0060 0648     		ldr	r0, .L53
 881 0062 FFF7FEFF 		bl	HAL_ADC_ConfigChannel
 882              	.LVL36:
 883              		.loc 1 357 6 view .LVU330
 884 0066 28B9     		cbnz	r0, .L52
 885              	.L47:
 358:Core/Src/adc.c ****   {
 359:Core/Src/adc.c ****     Error_Handler();
 360:Core/Src/adc.c ****   }
 361:Core/Src/adc.c ****   /* USER CODE BEGIN ADC5_Init 2 */
 362:Core/Src/adc.c **** 
 363:Core/Src/adc.c ****   /* USER CODE END ADC5_Init 2 */
ARM GAS  C:\Users\purdu\AppData\Local\Temp\cc9o02Oa.s 			page 23


 364:Core/Src/adc.c **** 
 365:Core/Src/adc.c **** }
 886              		.loc 1 365 1 view .LVU331
 887 0068 09B0     		add	sp, sp, #36
 888              	.LCFI18:
 889              		.cfi_remember_state
 890              		.cfi_def_cfa_offset 4
 891              		@ sp needed
 892 006a 5DF804FB 		ldr	pc, [sp], #4
 893              	.L51:
 894              	.LCFI19:
 895              		.cfi_restore_state
 346:Core/Src/adc.c ****   }
 896              		.loc 1 346 5 is_stmt 1 view .LVU332
 897 006e FFF7FEFF 		bl	Error_Handler
 898              	.LVL37:
 899 0072 E9E7     		b	.L48
 900              	.L52:
 359:Core/Src/adc.c ****   }
 901              		.loc 1 359 5 view .LVU333
 902 0074 FFF7FEFF 		bl	Error_Handler
 903              	.LVL38:
 904              		.loc 1 365 1 is_stmt 0 view .LVU334
 905 0078 F6E7     		b	.L47
 906              	.L54:
 907 007a 00BF     		.align	2
 908              	.L53:
 909 007c 00000000 		.word	hadc5
 910 0080 00060050 		.word	1342178816
 911 0084 02003004 		.word	70254594
 912              		.cfi_endproc
 913              	.LFE333:
 915              		.section	.text.HAL_ADC_MspInit,"ax",%progbits
 916              		.align	1
 917              		.global	HAL_ADC_MspInit
 918              		.syntax unified
 919              		.thumb
 920              		.thumb_func
 922              	HAL_ADC_MspInit:
 923              	.LVL39:
 924              	.LFB334:
 366:Core/Src/adc.c **** 
 367:Core/Src/adc.c **** static uint32_t HAL_RCC_ADC12_CLK_ENABLED=0;
 368:Core/Src/adc.c **** static uint32_t HAL_RCC_ADC345_CLK_ENABLED=0;
 369:Core/Src/adc.c **** 
 370:Core/Src/adc.c **** void HAL_ADC_MspInit(ADC_HandleTypeDef* adcHandle)
 371:Core/Src/adc.c **** {
 925              		.loc 1 371 1 is_stmt 1 view -0
 926              		.cfi_startproc
 927              		@ args = 0, pretend = 0, frame = 160
 928              		@ frame_needed = 0, uses_anonymous_args = 0
 929              		.loc 1 371 1 is_stmt 0 view .LVU336
 930 0000 F0B5     		push	{r4, r5, r6, r7, lr}
 931              	.LCFI20:
 932              		.cfi_def_cfa_offset 20
 933              		.cfi_offset 4, -20
 934              		.cfi_offset 5, -16
ARM GAS  C:\Users\purdu\AppData\Local\Temp\cc9o02Oa.s 			page 24


 935              		.cfi_offset 6, -12
 936              		.cfi_offset 7, -8
 937              		.cfi_offset 14, -4
 938 0002 A9B0     		sub	sp, sp, #164
 939              	.LCFI21:
 940              		.cfi_def_cfa_offset 184
 941 0004 0446     		mov	r4, r0
 372:Core/Src/adc.c **** 
 373:Core/Src/adc.c ****   GPIO_InitTypeDef GPIO_InitStruct = {0};
 942              		.loc 1 373 3 is_stmt 1 view .LVU337
 943              		.loc 1 373 20 is_stmt 0 view .LVU338
 944 0006 0021     		movs	r1, #0
 945 0008 2391     		str	r1, [sp, #140]
 946 000a 2491     		str	r1, [sp, #144]
 947 000c 2591     		str	r1, [sp, #148]
 948 000e 2691     		str	r1, [sp, #152]
 949 0010 2791     		str	r1, [sp, #156]
 374:Core/Src/adc.c ****   RCC_PeriphCLKInitTypeDef PeriphClkInit = {0};
 950              		.loc 1 374 3 is_stmt 1 view .LVU339
 951              		.loc 1 374 28 is_stmt 0 view .LVU340
 952 0012 5422     		movs	r2, #84
 953 0014 0EA8     		add	r0, sp, #56
 954              	.LVL40:
 955              		.loc 1 374 28 view .LVU341
 956 0016 FFF7FEFF 		bl	memset
 957              	.LVL41:
 375:Core/Src/adc.c ****   if(adcHandle->Instance==ADC1)
 958              		.loc 1 375 3 is_stmt 1 view .LVU342
 959              		.loc 1 375 15 is_stmt 0 view .LVU343
 960 001a 2368     		ldr	r3, [r4]
 961              		.loc 1 375 5 view .LVU344
 962 001c B3F1A04F 		cmp	r3, #1342177280
 963 0020 10D0     		beq	.L75
 376:Core/Src/adc.c ****   {
 377:Core/Src/adc.c ****   /* USER CODE BEGIN ADC1_MspInit 0 */
 378:Core/Src/adc.c **** 
 379:Core/Src/adc.c ****   /* USER CODE END ADC1_MspInit 0 */
 380:Core/Src/adc.c **** 
 381:Core/Src/adc.c ****   /** Initializes the peripherals clocks
 382:Core/Src/adc.c ****   */
 383:Core/Src/adc.c ****     PeriphClkInit.PeriphClockSelection = RCC_PERIPHCLK_ADC12;
 384:Core/Src/adc.c ****     PeriphClkInit.Adc12ClockSelection = RCC_ADC12CLKSOURCE_SYSCLK;
 385:Core/Src/adc.c ****     if (HAL_RCCEx_PeriphCLKConfig(&PeriphClkInit) != HAL_OK)
 386:Core/Src/adc.c ****     {
 387:Core/Src/adc.c ****       Error_Handler();
 388:Core/Src/adc.c ****     }
 389:Core/Src/adc.c **** 
 390:Core/Src/adc.c ****     /* ADC1 clock enable */
 391:Core/Src/adc.c ****     HAL_RCC_ADC12_CLK_ENABLED++;
 392:Core/Src/adc.c ****     if(HAL_RCC_ADC12_CLK_ENABLED==1){
 393:Core/Src/adc.c ****       __HAL_RCC_ADC12_CLK_ENABLE();
 394:Core/Src/adc.c ****     }
 395:Core/Src/adc.c **** 
 396:Core/Src/adc.c ****     __HAL_RCC_GPIOA_CLK_ENABLE();
 397:Core/Src/adc.c ****     /**ADC1 GPIO Configuration
 398:Core/Src/adc.c ****     PA0     ------> ADC1_IN1
 399:Core/Src/adc.c ****     PA1     ------> ADC1_IN2
ARM GAS  C:\Users\purdu\AppData\Local\Temp\cc9o02Oa.s 			page 25


 400:Core/Src/adc.c ****     */
 401:Core/Src/adc.c ****     GPIO_InitStruct.Pin = GPIO_PIN_0|GPIO_PIN_1;
 402:Core/Src/adc.c ****     GPIO_InitStruct.Mode = GPIO_MODE_ANALOG;
 403:Core/Src/adc.c ****     GPIO_InitStruct.Pull = GPIO_NOPULL;
 404:Core/Src/adc.c ****     HAL_GPIO_Init(GPIOA, &GPIO_InitStruct);
 405:Core/Src/adc.c **** 
 406:Core/Src/adc.c ****     /* ADC1 DMA Init */
 407:Core/Src/adc.c ****     /* ADC1 Init */
 408:Core/Src/adc.c ****     hdma_adc1.Instance = DMA2_Channel1;
 409:Core/Src/adc.c ****     hdma_adc1.Init.Request = DMA_REQUEST_ADC1;
 410:Core/Src/adc.c ****     hdma_adc1.Init.Direction = DMA_PERIPH_TO_MEMORY;
 411:Core/Src/adc.c ****     hdma_adc1.Init.PeriphInc = DMA_PINC_DISABLE;
 412:Core/Src/adc.c ****     hdma_adc1.Init.MemInc = DMA_MINC_ENABLE;
 413:Core/Src/adc.c ****     hdma_adc1.Init.PeriphDataAlignment = DMA_PDATAALIGN_HALFWORD;
 414:Core/Src/adc.c ****     hdma_adc1.Init.MemDataAlignment = DMA_MDATAALIGN_HALFWORD;
 415:Core/Src/adc.c ****     hdma_adc1.Init.Mode = DMA_CIRCULAR;
 416:Core/Src/adc.c ****     hdma_adc1.Init.Priority = DMA_PRIORITY_LOW;
 417:Core/Src/adc.c ****     if (HAL_DMA_Init(&hdma_adc1) != HAL_OK)
 418:Core/Src/adc.c ****     {
 419:Core/Src/adc.c ****       Error_Handler();
 420:Core/Src/adc.c ****     }
 421:Core/Src/adc.c **** 
 422:Core/Src/adc.c ****     __HAL_LINKDMA(adcHandle,DMA_Handle,hdma_adc1);
 423:Core/Src/adc.c **** 
 424:Core/Src/adc.c ****   /* USER CODE BEGIN ADC1_MspInit 1 */
 425:Core/Src/adc.c **** 
 426:Core/Src/adc.c ****   /* USER CODE END ADC1_MspInit 1 */
 427:Core/Src/adc.c ****   }
 428:Core/Src/adc.c ****   else if(adcHandle->Instance==ADC2)
 964              		.loc 1 428 8 is_stmt 1 view .LVU345
 965              		.loc 1 428 10 is_stmt 0 view .LVU346
 966 0022 904A     		ldr	r2, .L93
 967 0024 9342     		cmp	r3, r2
 968 0026 5CD0     		beq	.L76
 429:Core/Src/adc.c ****   {
 430:Core/Src/adc.c ****   /* USER CODE BEGIN ADC2_MspInit 0 */
 431:Core/Src/adc.c **** 
 432:Core/Src/adc.c ****   /* USER CODE END ADC2_MspInit 0 */
 433:Core/Src/adc.c **** 
 434:Core/Src/adc.c ****   /** Initializes the peripherals clocks
 435:Core/Src/adc.c ****   */
 436:Core/Src/adc.c ****     PeriphClkInit.PeriphClockSelection = RCC_PERIPHCLK_ADC12;
 437:Core/Src/adc.c ****     PeriphClkInit.Adc12ClockSelection = RCC_ADC12CLKSOURCE_SYSCLK;
 438:Core/Src/adc.c ****     if (HAL_RCCEx_PeriphCLKConfig(&PeriphClkInit) != HAL_OK)
 439:Core/Src/adc.c ****     {
 440:Core/Src/adc.c ****       Error_Handler();
 441:Core/Src/adc.c ****     }
 442:Core/Src/adc.c **** 
 443:Core/Src/adc.c ****     /* ADC2 clock enable */
 444:Core/Src/adc.c ****     HAL_RCC_ADC12_CLK_ENABLED++;
 445:Core/Src/adc.c ****     if(HAL_RCC_ADC12_CLK_ENABLED==1){
 446:Core/Src/adc.c ****       __HAL_RCC_ADC12_CLK_ENABLE();
 447:Core/Src/adc.c ****     }
 448:Core/Src/adc.c **** 
 449:Core/Src/adc.c ****     __HAL_RCC_GPIOA_CLK_ENABLE();
 450:Core/Src/adc.c ****     __HAL_RCC_GPIOC_CLK_ENABLE();
 451:Core/Src/adc.c ****     __HAL_RCC_GPIOB_CLK_ENABLE();
ARM GAS  C:\Users\purdu\AppData\Local\Temp\cc9o02Oa.s 			page 26


 452:Core/Src/adc.c ****     /**ADC2 GPIO Configuration
 453:Core/Src/adc.c ****     PA5     ------> ADC2_IN13
 454:Core/Src/adc.c ****     PC5     ------> ADC2_IN11
 455:Core/Src/adc.c ****     PB2     ------> ADC2_IN12
 456:Core/Src/adc.c ****     */
 457:Core/Src/adc.c ****     GPIO_InitStruct.Pin = GPIO_PIN_5;
 458:Core/Src/adc.c ****     GPIO_InitStruct.Mode = GPIO_MODE_ANALOG;
 459:Core/Src/adc.c ****     GPIO_InitStruct.Pull = GPIO_NOPULL;
 460:Core/Src/adc.c ****     HAL_GPIO_Init(GPIOA, &GPIO_InitStruct);
 461:Core/Src/adc.c **** 
 462:Core/Src/adc.c ****     GPIO_InitStruct.Pin = GPIO_PIN_5;
 463:Core/Src/adc.c ****     GPIO_InitStruct.Mode = GPIO_MODE_ANALOG;
 464:Core/Src/adc.c ****     GPIO_InitStruct.Pull = GPIO_NOPULL;
 465:Core/Src/adc.c ****     HAL_GPIO_Init(GPIOC, &GPIO_InitStruct);
 466:Core/Src/adc.c **** 
 467:Core/Src/adc.c ****     GPIO_InitStruct.Pin = GPIO_PIN_2;
 468:Core/Src/adc.c ****     GPIO_InitStruct.Mode = GPIO_MODE_ANALOG;
 469:Core/Src/adc.c ****     GPIO_InitStruct.Pull = GPIO_NOPULL;
 470:Core/Src/adc.c ****     HAL_GPIO_Init(GPIOB, &GPIO_InitStruct);
 471:Core/Src/adc.c **** 
 472:Core/Src/adc.c ****     /* ADC2 DMA Init */
 473:Core/Src/adc.c ****     /* ADC2 Init */
 474:Core/Src/adc.c ****     hdma_adc2.Instance = DMA1_Channel1;
 475:Core/Src/adc.c ****     hdma_adc2.Init.Request = DMA_REQUEST_ADC2;
 476:Core/Src/adc.c ****     hdma_adc2.Init.Direction = DMA_PERIPH_TO_MEMORY;
 477:Core/Src/adc.c ****     hdma_adc2.Init.PeriphInc = DMA_PINC_DISABLE;
 478:Core/Src/adc.c ****     hdma_adc2.Init.MemInc = DMA_MINC_ENABLE;
 479:Core/Src/adc.c ****     hdma_adc2.Init.PeriphDataAlignment = DMA_PDATAALIGN_HALFWORD;
 480:Core/Src/adc.c ****     hdma_adc2.Init.MemDataAlignment = DMA_MDATAALIGN_HALFWORD;
 481:Core/Src/adc.c ****     hdma_adc2.Init.Mode = DMA_CIRCULAR;
 482:Core/Src/adc.c ****     hdma_adc2.Init.Priority = DMA_PRIORITY_LOW;
 483:Core/Src/adc.c ****     if (HAL_DMA_Init(&hdma_adc2) != HAL_OK)
 484:Core/Src/adc.c ****     {
 485:Core/Src/adc.c ****       Error_Handler();
 486:Core/Src/adc.c ****     }
 487:Core/Src/adc.c **** 
 488:Core/Src/adc.c ****     __HAL_LINKDMA(adcHandle,DMA_Handle,hdma_adc2);
 489:Core/Src/adc.c **** 
 490:Core/Src/adc.c ****   /* USER CODE BEGIN ADC2_MspInit 1 */
 491:Core/Src/adc.c **** 
 492:Core/Src/adc.c ****   /* USER CODE END ADC2_MspInit 1 */
 493:Core/Src/adc.c ****   }
 494:Core/Src/adc.c ****   else if(adcHandle->Instance==ADC3)
 969              		.loc 1 494 8 is_stmt 1 view .LVU347
 970              		.loc 1 494 10 is_stmt 0 view .LVU348
 971 0028 8F4A     		ldr	r2, .L93+4
 972 002a 9342     		cmp	r3, r2
 973 002c 00F0C980 		beq	.L77
 495:Core/Src/adc.c ****   {
 496:Core/Src/adc.c ****   /* USER CODE BEGIN ADC3_MspInit 0 */
 497:Core/Src/adc.c **** 
 498:Core/Src/adc.c ****   /* USER CODE END ADC3_MspInit 0 */
 499:Core/Src/adc.c **** 
 500:Core/Src/adc.c ****   /** Initializes the peripherals clocks
 501:Core/Src/adc.c ****   */
 502:Core/Src/adc.c ****     PeriphClkInit.PeriphClockSelection = RCC_PERIPHCLK_ADC345;
 503:Core/Src/adc.c ****     PeriphClkInit.Adc345ClockSelection = RCC_ADC345CLKSOURCE_SYSCLK;
ARM GAS  C:\Users\purdu\AppData\Local\Temp\cc9o02Oa.s 			page 27


 504:Core/Src/adc.c ****     if (HAL_RCCEx_PeriphCLKConfig(&PeriphClkInit) != HAL_OK)
 505:Core/Src/adc.c ****     {
 506:Core/Src/adc.c ****       Error_Handler();
 507:Core/Src/adc.c ****     }
 508:Core/Src/adc.c **** 
 509:Core/Src/adc.c ****     /* ADC3 clock enable */
 510:Core/Src/adc.c ****     HAL_RCC_ADC345_CLK_ENABLED++;
 511:Core/Src/adc.c ****     if(HAL_RCC_ADC345_CLK_ENABLED==1){
 512:Core/Src/adc.c ****       __HAL_RCC_ADC345_CLK_ENABLE();
 513:Core/Src/adc.c ****     }
 514:Core/Src/adc.c **** 
 515:Core/Src/adc.c ****     __HAL_RCC_GPIOE_CLK_ENABLE();
 516:Core/Src/adc.c ****     /**ADC3 GPIO Configuration
 517:Core/Src/adc.c ****     PE7     ------> ADC3_IN4
 518:Core/Src/adc.c ****     PE8     ------> ADC3_IN6
 519:Core/Src/adc.c ****     PE9     ------> ADC3_IN2
 520:Core/Src/adc.c ****     */
 521:Core/Src/adc.c ****     GPIO_InitStruct.Pin = GPIO_PIN_7|GPIO_PIN_8|GPIO_PIN_9;
 522:Core/Src/adc.c ****     GPIO_InitStruct.Mode = GPIO_MODE_ANALOG;
 523:Core/Src/adc.c ****     GPIO_InitStruct.Pull = GPIO_NOPULL;
 524:Core/Src/adc.c ****     HAL_GPIO_Init(GPIOE, &GPIO_InitStruct);
 525:Core/Src/adc.c **** 
 526:Core/Src/adc.c ****     /* ADC3 DMA Init */
 527:Core/Src/adc.c ****     /* ADC3 Init */
 528:Core/Src/adc.c ****     hdma_adc3.Instance = DMA1_Channel2;
 529:Core/Src/adc.c ****     hdma_adc3.Init.Request = DMA_REQUEST_ADC3;
 530:Core/Src/adc.c ****     hdma_adc3.Init.Direction = DMA_PERIPH_TO_MEMORY;
 531:Core/Src/adc.c ****     hdma_adc3.Init.PeriphInc = DMA_PINC_DISABLE;
 532:Core/Src/adc.c ****     hdma_adc3.Init.MemInc = DMA_MINC_ENABLE;
 533:Core/Src/adc.c ****     hdma_adc3.Init.PeriphDataAlignment = DMA_PDATAALIGN_HALFWORD;
 534:Core/Src/adc.c ****     hdma_adc3.Init.MemDataAlignment = DMA_MDATAALIGN_HALFWORD;
 535:Core/Src/adc.c ****     hdma_adc3.Init.Mode = DMA_CIRCULAR;
 536:Core/Src/adc.c ****     hdma_adc3.Init.Priority = DMA_PRIORITY_LOW;
 537:Core/Src/adc.c ****     if (HAL_DMA_Init(&hdma_adc3) != HAL_OK)
 538:Core/Src/adc.c ****     {
 539:Core/Src/adc.c ****       Error_Handler();
 540:Core/Src/adc.c ****     }
 541:Core/Src/adc.c **** 
 542:Core/Src/adc.c ****     __HAL_LINKDMA(adcHandle,DMA_Handle,hdma_adc3);
 543:Core/Src/adc.c **** 
 544:Core/Src/adc.c ****   /* USER CODE BEGIN ADC3_MspInit 1 */
 545:Core/Src/adc.c **** 
 546:Core/Src/adc.c ****   /* USER CODE END ADC3_MspInit 1 */
 547:Core/Src/adc.c ****   }
 548:Core/Src/adc.c ****   else if(adcHandle->Instance==ADC4)
 974              		.loc 1 548 8 is_stmt 1 view .LVU349
 975              		.loc 1 548 10 is_stmt 0 view .LVU350
 976 0030 8E4A     		ldr	r2, .L93+8
 977 0032 9342     		cmp	r3, r2
 978 0034 00F03681 		beq	.L78
 549:Core/Src/adc.c ****   {
 550:Core/Src/adc.c ****   /* USER CODE BEGIN ADC4_MspInit 0 */
 551:Core/Src/adc.c **** 
 552:Core/Src/adc.c ****   /* USER CODE END ADC4_MspInit 0 */
 553:Core/Src/adc.c **** 
 554:Core/Src/adc.c ****   /** Initializes the peripherals clocks
 555:Core/Src/adc.c ****   */
ARM GAS  C:\Users\purdu\AppData\Local\Temp\cc9o02Oa.s 			page 28


 556:Core/Src/adc.c ****     PeriphClkInit.PeriphClockSelection = RCC_PERIPHCLK_ADC345;
 557:Core/Src/adc.c ****     PeriphClkInit.Adc345ClockSelection = RCC_ADC345CLKSOURCE_SYSCLK;
 558:Core/Src/adc.c ****     if (HAL_RCCEx_PeriphCLKConfig(&PeriphClkInit) != HAL_OK)
 559:Core/Src/adc.c ****     {
 560:Core/Src/adc.c ****       Error_Handler();
 561:Core/Src/adc.c ****     }
 562:Core/Src/adc.c **** 
 563:Core/Src/adc.c ****     /* ADC4 clock enable */
 564:Core/Src/adc.c ****     HAL_RCC_ADC345_CLK_ENABLED++;
 565:Core/Src/adc.c ****     if(HAL_RCC_ADC345_CLK_ENABLED==1){
 566:Core/Src/adc.c ****       __HAL_RCC_ADC345_CLK_ENABLE();
 567:Core/Src/adc.c ****     }
 568:Core/Src/adc.c **** 
 569:Core/Src/adc.c ****     __HAL_RCC_GPIOB_CLK_ENABLE();
 570:Core/Src/adc.c ****     __HAL_RCC_GPIOD_CLK_ENABLE();
 571:Core/Src/adc.c ****     /**ADC4 GPIO Configuration
 572:Core/Src/adc.c ****     PB12     ------> ADC4_IN3
 573:Core/Src/adc.c ****     PD8     ------> ADC4_IN12
 574:Core/Src/adc.c ****     */
 575:Core/Src/adc.c ****     GPIO_InitStruct.Pin = GPIO_PIN_12;
 576:Core/Src/adc.c ****     GPIO_InitStruct.Mode = GPIO_MODE_ANALOG;
 577:Core/Src/adc.c ****     GPIO_InitStruct.Pull = GPIO_NOPULL;
 578:Core/Src/adc.c ****     HAL_GPIO_Init(GPIOB, &GPIO_InitStruct);
 579:Core/Src/adc.c **** 
 580:Core/Src/adc.c ****     GPIO_InitStruct.Pin = GPIO_PIN_8;
 581:Core/Src/adc.c ****     GPIO_InitStruct.Mode = GPIO_MODE_ANALOG;
 582:Core/Src/adc.c ****     GPIO_InitStruct.Pull = GPIO_NOPULL;
 583:Core/Src/adc.c ****     HAL_GPIO_Init(GPIOD, &GPIO_InitStruct);
 584:Core/Src/adc.c **** 
 585:Core/Src/adc.c ****   /* USER CODE BEGIN ADC4_MspInit 1 */
 586:Core/Src/adc.c **** 
 587:Core/Src/adc.c ****   /* USER CODE END ADC4_MspInit 1 */
 588:Core/Src/adc.c ****   }
 589:Core/Src/adc.c ****   else if(adcHandle->Instance==ADC5)
 979              		.loc 1 589 8 is_stmt 1 view .LVU351
 980              		.loc 1 589 10 is_stmt 0 view .LVU352
 981 0038 8D4A     		ldr	r2, .L93+12
 982 003a 9342     		cmp	r3, r2
 983 003c 00F07981 		beq	.L79
 984              	.LVL42:
 985              	.L55:
 590:Core/Src/adc.c ****   {
 591:Core/Src/adc.c ****   /* USER CODE BEGIN ADC5_MspInit 0 */
 592:Core/Src/adc.c **** 
 593:Core/Src/adc.c ****   /* USER CODE END ADC5_MspInit 0 */
 594:Core/Src/adc.c **** 
 595:Core/Src/adc.c ****   /** Initializes the peripherals clocks
 596:Core/Src/adc.c ****   */
 597:Core/Src/adc.c ****     PeriphClkInit.PeriphClockSelection = RCC_PERIPHCLK_ADC345;
 598:Core/Src/adc.c ****     PeriphClkInit.Adc345ClockSelection = RCC_ADC345CLKSOURCE_SYSCLK;
 599:Core/Src/adc.c ****     if (HAL_RCCEx_PeriphCLKConfig(&PeriphClkInit) != HAL_OK)
 600:Core/Src/adc.c ****     {
 601:Core/Src/adc.c ****       Error_Handler();
 602:Core/Src/adc.c ****     }
 603:Core/Src/adc.c **** 
 604:Core/Src/adc.c ****     /* ADC5 clock enable */
 605:Core/Src/adc.c ****     HAL_RCC_ADC345_CLK_ENABLED++;
ARM GAS  C:\Users\purdu\AppData\Local\Temp\cc9o02Oa.s 			page 29


 606:Core/Src/adc.c ****     if(HAL_RCC_ADC345_CLK_ENABLED==1){
 607:Core/Src/adc.c ****       __HAL_RCC_ADC345_CLK_ENABLE();
 608:Core/Src/adc.c ****     }
 609:Core/Src/adc.c **** 
 610:Core/Src/adc.c ****     __HAL_RCC_GPIOA_CLK_ENABLE();
 611:Core/Src/adc.c ****     /**ADC5 GPIO Configuration
 612:Core/Src/adc.c ****     PA8     ------> ADC5_IN1
 613:Core/Src/adc.c ****     */
 614:Core/Src/adc.c ****     GPIO_InitStruct.Pin = GPIO_PIN_8;
 615:Core/Src/adc.c ****     GPIO_InitStruct.Mode = GPIO_MODE_ANALOG;
 616:Core/Src/adc.c ****     GPIO_InitStruct.Pull = GPIO_NOPULL;
 617:Core/Src/adc.c ****     HAL_GPIO_Init(GPIOA, &GPIO_InitStruct);
 618:Core/Src/adc.c **** 
 619:Core/Src/adc.c ****   /* USER CODE BEGIN ADC5_MspInit 1 */
 620:Core/Src/adc.c **** 
 621:Core/Src/adc.c ****   /* USER CODE END ADC5_MspInit 1 */
 622:Core/Src/adc.c ****   }
 623:Core/Src/adc.c **** }
 986              		.loc 1 623 1 view .LVU353
 987 0040 29B0     		add	sp, sp, #164
 988              	.LCFI22:
 989              		.cfi_remember_state
 990              		.cfi_def_cfa_offset 20
 991              		@ sp needed
 992 0042 F0BD     		pop	{r4, r5, r6, r7, pc}
 993              	.LVL43:
 994              	.L75:
 995              	.LCFI23:
 996              		.cfi_restore_state
 383:Core/Src/adc.c ****     PeriphClkInit.Adc12ClockSelection = RCC_ADC12CLKSOURCE_SYSCLK;
 997              		.loc 1 383 5 is_stmt 1 view .LVU354
 383:Core/Src/adc.c ****     PeriphClkInit.Adc12ClockSelection = RCC_ADC12CLKSOURCE_SYSCLK;
 998              		.loc 1 383 40 is_stmt 0 view .LVU355
 999 0044 4FF40043 		mov	r3, #32768
 1000 0048 0E93     		str	r3, [sp, #56]
 384:Core/Src/adc.c ****     if (HAL_RCCEx_PeriphCLKConfig(&PeriphClkInit) != HAL_OK)
 1001              		.loc 1 384 5 is_stmt 1 view .LVU356
 384:Core/Src/adc.c ****     if (HAL_RCCEx_PeriphCLKConfig(&PeriphClkInit) != HAL_OK)
 1002              		.loc 1 384 39 is_stmt 0 view .LVU357
 1003 004a 4FF00053 		mov	r3, #536870912
 1004 004e 1F93     		str	r3, [sp, #124]
 385:Core/Src/adc.c ****     {
 1005              		.loc 1 385 5 is_stmt 1 view .LVU358
 385:Core/Src/adc.c ****     {
 1006              		.loc 1 385 9 is_stmt 0 view .LVU359
 1007 0050 0EA8     		add	r0, sp, #56
 1008 0052 FFF7FEFF 		bl	HAL_RCCEx_PeriphCLKConfig
 1009              	.LVL44:
 385:Core/Src/adc.c ****     {
 1010              		.loc 1 385 8 view .LVU360
 1011 0056 0028     		cmp	r0, #0
 1012 0058 32D1     		bne	.L80
 1013              	.L57:
 391:Core/Src/adc.c ****     if(HAL_RCC_ADC12_CLK_ENABLED==1){
 1014              		.loc 1 391 5 is_stmt 1 view .LVU361
 391:Core/Src/adc.c ****     if(HAL_RCC_ADC12_CLK_ENABLED==1){
 1015              		.loc 1 391 30 is_stmt 0 view .LVU362
ARM GAS  C:\Users\purdu\AppData\Local\Temp\cc9o02Oa.s 			page 30


 1016 005a 864A     		ldr	r2, .L93+16
 1017 005c 1368     		ldr	r3, [r2]
 1018 005e 0133     		adds	r3, r3, #1
 1019 0060 1360     		str	r3, [r2]
 392:Core/Src/adc.c ****       __HAL_RCC_ADC12_CLK_ENABLE();
 1020              		.loc 1 392 5 is_stmt 1 view .LVU363
 392:Core/Src/adc.c ****       __HAL_RCC_ADC12_CLK_ENABLE();
 1021              		.loc 1 392 7 is_stmt 0 view .LVU364
 1022 0062 012B     		cmp	r3, #1
 1023 0064 2FD0     		beq	.L81
 1024              	.L58:
 393:Core/Src/adc.c ****     }
 1025              		.loc 1 393 7 is_stmt 1 discriminator 1 view .LVU365
 396:Core/Src/adc.c ****     /**ADC1 GPIO Configuration
 1026              		.loc 1 396 5 discriminator 1 view .LVU366
 1027              	.LBB2:
 396:Core/Src/adc.c ****     /**ADC1 GPIO Configuration
 1028              		.loc 1 396 5 discriminator 1 view .LVU367
 396:Core/Src/adc.c ****     /**ADC1 GPIO Configuration
 1029              		.loc 1 396 5 discriminator 1 view .LVU368
 1030 0066 844B     		ldr	r3, .L93+20
 1031 0068 DA6C     		ldr	r2, [r3, #76]
 1032 006a 42F00102 		orr	r2, r2, #1
 1033 006e DA64     		str	r2, [r3, #76]
 396:Core/Src/adc.c ****     /**ADC1 GPIO Configuration
 1034              		.loc 1 396 5 discriminator 1 view .LVU369
 1035 0070 DB6C     		ldr	r3, [r3, #76]
 1036 0072 03F00103 		and	r3, r3, #1
 1037 0076 0293     		str	r3, [sp, #8]
 396:Core/Src/adc.c ****     /**ADC1 GPIO Configuration
 1038              		.loc 1 396 5 discriminator 1 view .LVU370
 1039 0078 029B     		ldr	r3, [sp, #8]
 1040              	.LBE2:
 396:Core/Src/adc.c ****     /**ADC1 GPIO Configuration
 1041              		.loc 1 396 5 discriminator 1 view .LVU371
 401:Core/Src/adc.c ****     GPIO_InitStruct.Mode = GPIO_MODE_ANALOG;
 1042              		.loc 1 401 5 discriminator 1 view .LVU372
 401:Core/Src/adc.c ****     GPIO_InitStruct.Mode = GPIO_MODE_ANALOG;
 1043              		.loc 1 401 25 is_stmt 0 discriminator 1 view .LVU373
 1044 007a 0323     		movs	r3, #3
 1045 007c 2393     		str	r3, [sp, #140]
 402:Core/Src/adc.c ****     GPIO_InitStruct.Pull = GPIO_NOPULL;
 1046              		.loc 1 402 5 is_stmt 1 discriminator 1 view .LVU374
 402:Core/Src/adc.c ****     GPIO_InitStruct.Pull = GPIO_NOPULL;
 1047              		.loc 1 402 26 is_stmt 0 discriminator 1 view .LVU375
 1048 007e 2493     		str	r3, [sp, #144]
 403:Core/Src/adc.c ****     HAL_GPIO_Init(GPIOA, &GPIO_InitStruct);
 1049              		.loc 1 403 5 is_stmt 1 discriminator 1 view .LVU376
 403:Core/Src/adc.c ****     HAL_GPIO_Init(GPIOA, &GPIO_InitStruct);
 1050              		.loc 1 403 26 is_stmt 0 discriminator 1 view .LVU377
 1051 0080 0025     		movs	r5, #0
 1052 0082 2595     		str	r5, [sp, #148]
 404:Core/Src/adc.c **** 
 1053              		.loc 1 404 5 is_stmt 1 discriminator 1 view .LVU378
 1054 0084 23A9     		add	r1, sp, #140
 1055 0086 4FF09040 		mov	r0, #1207959552
 1056 008a FFF7FEFF 		bl	HAL_GPIO_Init
ARM GAS  C:\Users\purdu\AppData\Local\Temp\cc9o02Oa.s 			page 31


 1057              	.LVL45:
 408:Core/Src/adc.c ****     hdma_adc1.Init.Request = DMA_REQUEST_ADC1;
 1058              		.loc 1 408 5 discriminator 1 view .LVU379
 408:Core/Src/adc.c ****     hdma_adc1.Init.Request = DMA_REQUEST_ADC1;
 1059              		.loc 1 408 24 is_stmt 0 discriminator 1 view .LVU380
 1060 008e 7B48     		ldr	r0, .L93+24
 1061 0090 7B4B     		ldr	r3, .L93+28
 1062 0092 0360     		str	r3, [r0]
 409:Core/Src/adc.c ****     hdma_adc1.Init.Direction = DMA_PERIPH_TO_MEMORY;
 1063              		.loc 1 409 5 is_stmt 1 discriminator 1 view .LVU381
 409:Core/Src/adc.c ****     hdma_adc1.Init.Direction = DMA_PERIPH_TO_MEMORY;
 1064              		.loc 1 409 28 is_stmt 0 discriminator 1 view .LVU382
 1065 0094 0523     		movs	r3, #5
 1066 0096 4360     		str	r3, [r0, #4]
 410:Core/Src/adc.c ****     hdma_adc1.Init.PeriphInc = DMA_PINC_DISABLE;
 1067              		.loc 1 410 5 is_stmt 1 discriminator 1 view .LVU383
 410:Core/Src/adc.c ****     hdma_adc1.Init.PeriphInc = DMA_PINC_DISABLE;
 1068              		.loc 1 410 30 is_stmt 0 discriminator 1 view .LVU384
 1069 0098 8560     		str	r5, [r0, #8]
 411:Core/Src/adc.c ****     hdma_adc1.Init.MemInc = DMA_MINC_ENABLE;
 1070              		.loc 1 411 5 is_stmt 1 discriminator 1 view .LVU385
 411:Core/Src/adc.c ****     hdma_adc1.Init.MemInc = DMA_MINC_ENABLE;
 1071              		.loc 1 411 30 is_stmt 0 discriminator 1 view .LVU386
 1072 009a C560     		str	r5, [r0, #12]
 412:Core/Src/adc.c ****     hdma_adc1.Init.PeriphDataAlignment = DMA_PDATAALIGN_HALFWORD;
 1073              		.loc 1 412 5 is_stmt 1 discriminator 1 view .LVU387
 412:Core/Src/adc.c ****     hdma_adc1.Init.PeriphDataAlignment = DMA_PDATAALIGN_HALFWORD;
 1074              		.loc 1 412 27 is_stmt 0 discriminator 1 view .LVU388
 1075 009c 8023     		movs	r3, #128
 1076 009e 0361     		str	r3, [r0, #16]
 413:Core/Src/adc.c ****     hdma_adc1.Init.MemDataAlignment = DMA_MDATAALIGN_HALFWORD;
 1077              		.loc 1 413 5 is_stmt 1 discriminator 1 view .LVU389
 413:Core/Src/adc.c ****     hdma_adc1.Init.MemDataAlignment = DMA_MDATAALIGN_HALFWORD;
 1078              		.loc 1 413 40 is_stmt 0 discriminator 1 view .LVU390
 1079 00a0 4FF48073 		mov	r3, #256
 1080 00a4 4361     		str	r3, [r0, #20]
 414:Core/Src/adc.c ****     hdma_adc1.Init.Mode = DMA_CIRCULAR;
 1081              		.loc 1 414 5 is_stmt 1 discriminator 1 view .LVU391
 414:Core/Src/adc.c ****     hdma_adc1.Init.Mode = DMA_CIRCULAR;
 1082              		.loc 1 414 37 is_stmt 0 discriminator 1 view .LVU392
 1083 00a6 4FF48063 		mov	r3, #1024
 1084 00aa 8361     		str	r3, [r0, #24]
 415:Core/Src/adc.c ****     hdma_adc1.Init.Priority = DMA_PRIORITY_LOW;
 1085              		.loc 1 415 5 is_stmt 1 discriminator 1 view .LVU393
 415:Core/Src/adc.c ****     hdma_adc1.Init.Priority = DMA_PRIORITY_LOW;
 1086              		.loc 1 415 25 is_stmt 0 discriminator 1 view .LVU394
 1087 00ac 2023     		movs	r3, #32
 1088 00ae C361     		str	r3, [r0, #28]
 416:Core/Src/adc.c ****     if (HAL_DMA_Init(&hdma_adc1) != HAL_OK)
 1089              		.loc 1 416 5 is_stmt 1 discriminator 1 view .LVU395
 416:Core/Src/adc.c ****     if (HAL_DMA_Init(&hdma_adc1) != HAL_OK)
 1090              		.loc 1 416 29 is_stmt 0 discriminator 1 view .LVU396
 1091 00b0 0562     		str	r5, [r0, #32]
 417:Core/Src/adc.c ****     {
 1092              		.loc 1 417 5 is_stmt 1 discriminator 1 view .LVU397
 417:Core/Src/adc.c ****     {
 1093              		.loc 1 417 9 is_stmt 0 discriminator 1 view .LVU398
ARM GAS  C:\Users\purdu\AppData\Local\Temp\cc9o02Oa.s 			page 32


 1094 00b2 FFF7FEFF 		bl	HAL_DMA_Init
 1095              	.LVL46:
 417:Core/Src/adc.c ****     {
 1096              		.loc 1 417 8 discriminator 1 view .LVU399
 1097 00b6 88B9     		cbnz	r0, .L82
 1098              	.L59:
 422:Core/Src/adc.c **** 
 1099              		.loc 1 422 5 is_stmt 1 view .LVU400
 422:Core/Src/adc.c **** 
 1100              		.loc 1 422 5 view .LVU401
 1101 00b8 704B     		ldr	r3, .L93+24
 1102 00ba 6365     		str	r3, [r4, #84]
 422:Core/Src/adc.c **** 
 1103              		.loc 1 422 5 view .LVU402
 1104 00bc 9C62     		str	r4, [r3, #40]
 422:Core/Src/adc.c **** 
 1105              		.loc 1 422 5 view .LVU403
 1106 00be BFE7     		b	.L55
 1107              	.L80:
 387:Core/Src/adc.c ****     }
 1108              		.loc 1 387 7 view .LVU404
 1109 00c0 FFF7FEFF 		bl	Error_Handler
 1110              	.LVL47:
 1111 00c4 C9E7     		b	.L57
 1112              	.L81:
 393:Core/Src/adc.c ****     }
 1113              		.loc 1 393 7 view .LVU405
 1114              	.LBB3:
 393:Core/Src/adc.c ****     }
 1115              		.loc 1 393 7 view .LVU406
 393:Core/Src/adc.c ****     }
 1116              		.loc 1 393 7 view .LVU407
 1117 00c6 6C4B     		ldr	r3, .L93+20
 1118 00c8 DA6C     		ldr	r2, [r3, #76]
 1119 00ca 42F40052 		orr	r2, r2, #8192
 1120 00ce DA64     		str	r2, [r3, #76]
 393:Core/Src/adc.c ****     }
 1121              		.loc 1 393 7 view .LVU408
 1122 00d0 DB6C     		ldr	r3, [r3, #76]
 1123 00d2 03F40053 		and	r3, r3, #8192
 1124 00d6 0193     		str	r3, [sp, #4]
 393:Core/Src/adc.c ****     }
 1125              		.loc 1 393 7 view .LVU409
 1126 00d8 019B     		ldr	r3, [sp, #4]
 1127 00da C4E7     		b	.L58
 1128              	.L82:
 1129              	.LBE3:
 419:Core/Src/adc.c ****     }
 1130              		.loc 1 419 7 view .LVU410
 1131 00dc FFF7FEFF 		bl	Error_Handler
 1132              	.LVL48:
 1133 00e0 EAE7     		b	.L59
 1134              	.L76:
 436:Core/Src/adc.c ****     PeriphClkInit.Adc12ClockSelection = RCC_ADC12CLKSOURCE_SYSCLK;
 1135              		.loc 1 436 5 view .LVU411
 436:Core/Src/adc.c ****     PeriphClkInit.Adc12ClockSelection = RCC_ADC12CLKSOURCE_SYSCLK;
 1136              		.loc 1 436 40 is_stmt 0 view .LVU412
ARM GAS  C:\Users\purdu\AppData\Local\Temp\cc9o02Oa.s 			page 33


 1137 00e2 4FF40043 		mov	r3, #32768
 1138 00e6 0E93     		str	r3, [sp, #56]
 437:Core/Src/adc.c ****     if (HAL_RCCEx_PeriphCLKConfig(&PeriphClkInit) != HAL_OK)
 1139              		.loc 1 437 5 is_stmt 1 view .LVU413
 437:Core/Src/adc.c ****     if (HAL_RCCEx_PeriphCLKConfig(&PeriphClkInit) != HAL_OK)
 1140              		.loc 1 437 39 is_stmt 0 view .LVU414
 1141 00e8 4FF00053 		mov	r3, #536870912
 1142 00ec 1F93     		str	r3, [sp, #124]
 438:Core/Src/adc.c ****     {
 1143              		.loc 1 438 5 is_stmt 1 view .LVU415
 438:Core/Src/adc.c ****     {
 1144              		.loc 1 438 9 is_stmt 0 view .LVU416
 1145 00ee 0EA8     		add	r0, sp, #56
 1146 00f0 FFF7FEFF 		bl	HAL_RCCEx_PeriphCLKConfig
 1147              	.LVL49:
 438:Core/Src/adc.c ****     {
 1148              		.loc 1 438 8 view .LVU417
 1149 00f4 0028     		cmp	r0, #0
 1150 00f6 53D1     		bne	.L83
 1151              	.L62:
 444:Core/Src/adc.c ****     if(HAL_RCC_ADC12_CLK_ENABLED==1){
 1152              		.loc 1 444 5 is_stmt 1 view .LVU418
 444:Core/Src/adc.c ****     if(HAL_RCC_ADC12_CLK_ENABLED==1){
 1153              		.loc 1 444 30 is_stmt 0 view .LVU419
 1154 00f8 5E4A     		ldr	r2, .L93+16
 1155 00fa 1368     		ldr	r3, [r2]
 1156 00fc 0133     		adds	r3, r3, #1
 1157 00fe 1360     		str	r3, [r2]
 445:Core/Src/adc.c ****       __HAL_RCC_ADC12_CLK_ENABLE();
 1158              		.loc 1 445 5 is_stmt 1 view .LVU420
 445:Core/Src/adc.c ****       __HAL_RCC_ADC12_CLK_ENABLE();
 1159              		.loc 1 445 7 is_stmt 0 view .LVU421
 1160 0100 012B     		cmp	r3, #1
 1161 0102 50D0     		beq	.L84
 1162              	.L63:
 446:Core/Src/adc.c ****     }
 1163              		.loc 1 446 7 is_stmt 1 discriminator 1 view .LVU422
 449:Core/Src/adc.c ****     __HAL_RCC_GPIOC_CLK_ENABLE();
 1164              		.loc 1 449 5 discriminator 1 view .LVU423
 1165              	.LBB4:
 449:Core/Src/adc.c ****     __HAL_RCC_GPIOC_CLK_ENABLE();
 1166              		.loc 1 449 5 discriminator 1 view .LVU424
 449:Core/Src/adc.c ****     __HAL_RCC_GPIOC_CLK_ENABLE();
 1167              		.loc 1 449 5 discriminator 1 view .LVU425
 1168 0104 5C4B     		ldr	r3, .L93+20
 1169 0106 DA6C     		ldr	r2, [r3, #76]
 1170 0108 42F00102 		orr	r2, r2, #1
 1171 010c DA64     		str	r2, [r3, #76]
 449:Core/Src/adc.c ****     __HAL_RCC_GPIOC_CLK_ENABLE();
 1172              		.loc 1 449 5 discriminator 1 view .LVU426
 1173 010e DA6C     		ldr	r2, [r3, #76]
 1174 0110 02F00102 		and	r2, r2, #1
 1175 0114 0492     		str	r2, [sp, #16]
 449:Core/Src/adc.c ****     __HAL_RCC_GPIOC_CLK_ENABLE();
 1176              		.loc 1 449 5 discriminator 1 view .LVU427
 1177 0116 049A     		ldr	r2, [sp, #16]
 1178              	.LBE4:
ARM GAS  C:\Users\purdu\AppData\Local\Temp\cc9o02Oa.s 			page 34


 449:Core/Src/adc.c ****     __HAL_RCC_GPIOC_CLK_ENABLE();
 1179              		.loc 1 449 5 discriminator 1 view .LVU428
 450:Core/Src/adc.c ****     __HAL_RCC_GPIOB_CLK_ENABLE();
 1180              		.loc 1 450 5 discriminator 1 view .LVU429
 1181              	.LBB5:
 450:Core/Src/adc.c ****     __HAL_RCC_GPIOB_CLK_ENABLE();
 1182              		.loc 1 450 5 discriminator 1 view .LVU430
 450:Core/Src/adc.c ****     __HAL_RCC_GPIOB_CLK_ENABLE();
 1183              		.loc 1 450 5 discriminator 1 view .LVU431
 1184 0118 DA6C     		ldr	r2, [r3, #76]
 1185 011a 42F00402 		orr	r2, r2, #4
 1186 011e DA64     		str	r2, [r3, #76]
 450:Core/Src/adc.c ****     __HAL_RCC_GPIOB_CLK_ENABLE();
 1187              		.loc 1 450 5 discriminator 1 view .LVU432
 1188 0120 DA6C     		ldr	r2, [r3, #76]
 1189 0122 02F00402 		and	r2, r2, #4
 1190 0126 0592     		str	r2, [sp, #20]
 450:Core/Src/adc.c ****     __HAL_RCC_GPIOB_CLK_ENABLE();
 1191              		.loc 1 450 5 discriminator 1 view .LVU433
 1192 0128 059A     		ldr	r2, [sp, #20]
 1193              	.LBE5:
 450:Core/Src/adc.c ****     __HAL_RCC_GPIOB_CLK_ENABLE();
 1194              		.loc 1 450 5 discriminator 1 view .LVU434
 451:Core/Src/adc.c ****     /**ADC2 GPIO Configuration
 1195              		.loc 1 451 5 discriminator 1 view .LVU435
 1196              	.LBB6:
 451:Core/Src/adc.c ****     /**ADC2 GPIO Configuration
 1197              		.loc 1 451 5 discriminator 1 view .LVU436
 451:Core/Src/adc.c ****     /**ADC2 GPIO Configuration
 1198              		.loc 1 451 5 discriminator 1 view .LVU437
 1199 012a DA6C     		ldr	r2, [r3, #76]
 1200 012c 42F00202 		orr	r2, r2, #2
 1201 0130 DA64     		str	r2, [r3, #76]
 451:Core/Src/adc.c ****     /**ADC2 GPIO Configuration
 1202              		.loc 1 451 5 discriminator 1 view .LVU438
 1203 0132 DB6C     		ldr	r3, [r3, #76]
 1204 0134 03F00203 		and	r3, r3, #2
 1205 0138 0693     		str	r3, [sp, #24]
 451:Core/Src/adc.c ****     /**ADC2 GPIO Configuration
 1206              		.loc 1 451 5 discriminator 1 view .LVU439
 1207 013a 069B     		ldr	r3, [sp, #24]
 1208              	.LBE6:
 451:Core/Src/adc.c ****     /**ADC2 GPIO Configuration
 1209              		.loc 1 451 5 discriminator 1 view .LVU440
 457:Core/Src/adc.c ****     GPIO_InitStruct.Mode = GPIO_MODE_ANALOG;
 1210              		.loc 1 457 5 discriminator 1 view .LVU441
 457:Core/Src/adc.c ****     GPIO_InitStruct.Mode = GPIO_MODE_ANALOG;
 1211              		.loc 1 457 25 is_stmt 0 discriminator 1 view .LVU442
 1212 013c 2026     		movs	r6, #32
 1213 013e 2396     		str	r6, [sp, #140]
 458:Core/Src/adc.c ****     GPIO_InitStruct.Pull = GPIO_NOPULL;
 1214              		.loc 1 458 5 is_stmt 1 discriminator 1 view .LVU443
 458:Core/Src/adc.c ****     GPIO_InitStruct.Pull = GPIO_NOPULL;
 1215              		.loc 1 458 26 is_stmt 0 discriminator 1 view .LVU444
 1216 0140 0327     		movs	r7, #3
 1217 0142 2497     		str	r7, [sp, #144]
 459:Core/Src/adc.c ****     HAL_GPIO_Init(GPIOA, &GPIO_InitStruct);
ARM GAS  C:\Users\purdu\AppData\Local\Temp\cc9o02Oa.s 			page 35


 1218              		.loc 1 459 5 is_stmt 1 discriminator 1 view .LVU445
 459:Core/Src/adc.c ****     HAL_GPIO_Init(GPIOA, &GPIO_InitStruct);
 1219              		.loc 1 459 26 is_stmt 0 discriminator 1 view .LVU446
 1220 0144 0025     		movs	r5, #0
 1221 0146 2595     		str	r5, [sp, #148]
 460:Core/Src/adc.c **** 
 1222              		.loc 1 460 5 is_stmt 1 discriminator 1 view .LVU447
 1223 0148 23A9     		add	r1, sp, #140
 1224 014a 4FF09040 		mov	r0, #1207959552
 1225 014e FFF7FEFF 		bl	HAL_GPIO_Init
 1226              	.LVL50:
 462:Core/Src/adc.c ****     GPIO_InitStruct.Mode = GPIO_MODE_ANALOG;
 1227              		.loc 1 462 5 discriminator 1 view .LVU448
 462:Core/Src/adc.c ****     GPIO_InitStruct.Mode = GPIO_MODE_ANALOG;
 1228              		.loc 1 462 25 is_stmt 0 discriminator 1 view .LVU449
 1229 0152 2396     		str	r6, [sp, #140]
 463:Core/Src/adc.c ****     GPIO_InitStruct.Pull = GPIO_NOPULL;
 1230              		.loc 1 463 5 is_stmt 1 discriminator 1 view .LVU450
 463:Core/Src/adc.c ****     GPIO_InitStruct.Pull = GPIO_NOPULL;
 1231              		.loc 1 463 26 is_stmt 0 discriminator 1 view .LVU451
 1232 0154 2497     		str	r7, [sp, #144]
 464:Core/Src/adc.c ****     HAL_GPIO_Init(GPIOC, &GPIO_InitStruct);
 1233              		.loc 1 464 5 is_stmt 1 discriminator 1 view .LVU452
 464:Core/Src/adc.c ****     HAL_GPIO_Init(GPIOC, &GPIO_InitStruct);
 1234              		.loc 1 464 26 is_stmt 0 discriminator 1 view .LVU453
 1235 0156 2595     		str	r5, [sp, #148]
 465:Core/Src/adc.c **** 
 1236              		.loc 1 465 5 is_stmt 1 discriminator 1 view .LVU454
 1237 0158 23A9     		add	r1, sp, #140
 1238 015a 4A48     		ldr	r0, .L93+32
 1239 015c FFF7FEFF 		bl	HAL_GPIO_Init
 1240              	.LVL51:
 467:Core/Src/adc.c ****     GPIO_InitStruct.Mode = GPIO_MODE_ANALOG;
 1241              		.loc 1 467 5 discriminator 1 view .LVU455
 467:Core/Src/adc.c ****     GPIO_InitStruct.Mode = GPIO_MODE_ANALOG;
 1242              		.loc 1 467 25 is_stmt 0 discriminator 1 view .LVU456
 1243 0160 0423     		movs	r3, #4
 1244 0162 2393     		str	r3, [sp, #140]
 468:Core/Src/adc.c ****     GPIO_InitStruct.Pull = GPIO_NOPULL;
 1245              		.loc 1 468 5 is_stmt 1 discriminator 1 view .LVU457
 468:Core/Src/adc.c ****     GPIO_InitStruct.Pull = GPIO_NOPULL;
 1246              		.loc 1 468 26 is_stmt 0 discriminator 1 view .LVU458
 1247 0164 2497     		str	r7, [sp, #144]
 469:Core/Src/adc.c ****     HAL_GPIO_Init(GPIOB, &GPIO_InitStruct);
 1248              		.loc 1 469 5 is_stmt 1 discriminator 1 view .LVU459
 469:Core/Src/adc.c ****     HAL_GPIO_Init(GPIOB, &GPIO_InitStruct);
 1249              		.loc 1 469 26 is_stmt 0 discriminator 1 view .LVU460
 1250 0166 2595     		str	r5, [sp, #148]
 470:Core/Src/adc.c **** 
 1251              		.loc 1 470 5 is_stmt 1 discriminator 1 view .LVU461
 1252 0168 23A9     		add	r1, sp, #140
 1253 016a 4748     		ldr	r0, .L93+36
 1254 016c FFF7FEFF 		bl	HAL_GPIO_Init
 1255              	.LVL52:
 474:Core/Src/adc.c ****     hdma_adc2.Init.Request = DMA_REQUEST_ADC2;
 1256              		.loc 1 474 5 discriminator 1 view .LVU462
 474:Core/Src/adc.c ****     hdma_adc2.Init.Request = DMA_REQUEST_ADC2;
ARM GAS  C:\Users\purdu\AppData\Local\Temp\cc9o02Oa.s 			page 36


 1257              		.loc 1 474 24 is_stmt 0 discriminator 1 view .LVU463
 1258 0170 4648     		ldr	r0, .L93+40
 1259 0172 474B     		ldr	r3, .L93+44
 1260 0174 0360     		str	r3, [r0]
 475:Core/Src/adc.c ****     hdma_adc2.Init.Direction = DMA_PERIPH_TO_MEMORY;
 1261              		.loc 1 475 5 is_stmt 1 discriminator 1 view .LVU464
 475:Core/Src/adc.c ****     hdma_adc2.Init.Direction = DMA_PERIPH_TO_MEMORY;
 1262              		.loc 1 475 28 is_stmt 0 discriminator 1 view .LVU465
 1263 0176 2423     		movs	r3, #36
 1264 0178 4360     		str	r3, [r0, #4]
 476:Core/Src/adc.c ****     hdma_adc2.Init.PeriphInc = DMA_PINC_DISABLE;
 1265              		.loc 1 476 5 is_stmt 1 discriminator 1 view .LVU466
 476:Core/Src/adc.c ****     hdma_adc2.Init.PeriphInc = DMA_PINC_DISABLE;
 1266              		.loc 1 476 30 is_stmt 0 discriminator 1 view .LVU467
 1267 017a 8560     		str	r5, [r0, #8]
 477:Core/Src/adc.c ****     hdma_adc2.Init.MemInc = DMA_MINC_ENABLE;
 1268              		.loc 1 477 5 is_stmt 1 discriminator 1 view .LVU468
 477:Core/Src/adc.c ****     hdma_adc2.Init.MemInc = DMA_MINC_ENABLE;
 1269              		.loc 1 477 30 is_stmt 0 discriminator 1 view .LVU469
 1270 017c C560     		str	r5, [r0, #12]
 478:Core/Src/adc.c ****     hdma_adc2.Init.PeriphDataAlignment = DMA_PDATAALIGN_HALFWORD;
 1271              		.loc 1 478 5 is_stmt 1 discriminator 1 view .LVU470
 478:Core/Src/adc.c ****     hdma_adc2.Init.PeriphDataAlignment = DMA_PDATAALIGN_HALFWORD;
 1272              		.loc 1 478 27 is_stmt 0 discriminator 1 view .LVU471
 1273 017e 8023     		movs	r3, #128
 1274 0180 0361     		str	r3, [r0, #16]
 479:Core/Src/adc.c ****     hdma_adc2.Init.MemDataAlignment = DMA_MDATAALIGN_HALFWORD;
 1275              		.loc 1 479 5 is_stmt 1 discriminator 1 view .LVU472
 479:Core/Src/adc.c ****     hdma_adc2.Init.MemDataAlignment = DMA_MDATAALIGN_HALFWORD;
 1276              		.loc 1 479 40 is_stmt 0 discriminator 1 view .LVU473
 1277 0182 4FF48073 		mov	r3, #256
 1278 0186 4361     		str	r3, [r0, #20]
 480:Core/Src/adc.c ****     hdma_adc2.Init.Mode = DMA_CIRCULAR;
 1279              		.loc 1 480 5 is_stmt 1 discriminator 1 view .LVU474
 480:Core/Src/adc.c ****     hdma_adc2.Init.Mode = DMA_CIRCULAR;
 1280              		.loc 1 480 37 is_stmt 0 discriminator 1 view .LVU475
 1281 0188 4FF48063 		mov	r3, #1024
 1282 018c 8361     		str	r3, [r0, #24]
 481:Core/Src/adc.c ****     hdma_adc2.Init.Priority = DMA_PRIORITY_LOW;
 1283              		.loc 1 481 5 is_stmt 1 discriminator 1 view .LVU476
 481:Core/Src/adc.c ****     hdma_adc2.Init.Priority = DMA_PRIORITY_LOW;
 1284              		.loc 1 481 25 is_stmt 0 discriminator 1 view .LVU477
 1285 018e C661     		str	r6, [r0, #28]
 482:Core/Src/adc.c ****     if (HAL_DMA_Init(&hdma_adc2) != HAL_OK)
 1286              		.loc 1 482 5 is_stmt 1 discriminator 1 view .LVU478
 482:Core/Src/adc.c ****     if (HAL_DMA_Init(&hdma_adc2) != HAL_OK)
 1287              		.loc 1 482 29 is_stmt 0 discriminator 1 view .LVU479
 1288 0190 0562     		str	r5, [r0, #32]
 483:Core/Src/adc.c ****     {
 1289              		.loc 1 483 5 is_stmt 1 discriminator 1 view .LVU480
 483:Core/Src/adc.c ****     {
 1290              		.loc 1 483 9 is_stmt 0 discriminator 1 view .LVU481
 1291 0192 FFF7FEFF 		bl	HAL_DMA_Init
 1292              	.LVL53:
 483:Core/Src/adc.c ****     {
 1293              		.loc 1 483 8 discriminator 1 view .LVU482
 1294 0196 88B9     		cbnz	r0, .L85
ARM GAS  C:\Users\purdu\AppData\Local\Temp\cc9o02Oa.s 			page 37


 1295              	.L64:
 488:Core/Src/adc.c **** 
 1296              		.loc 1 488 5 is_stmt 1 view .LVU483
 488:Core/Src/adc.c **** 
 1297              		.loc 1 488 5 view .LVU484
 1298 0198 3C4B     		ldr	r3, .L93+40
 1299 019a 6365     		str	r3, [r4, #84]
 488:Core/Src/adc.c **** 
 1300              		.loc 1 488 5 view .LVU485
 1301 019c 9C62     		str	r4, [r3, #40]
 488:Core/Src/adc.c **** 
 1302              		.loc 1 488 5 view .LVU486
 1303 019e 4FE7     		b	.L55
 1304              	.L83:
 440:Core/Src/adc.c ****     }
 1305              		.loc 1 440 7 view .LVU487
 1306 01a0 FFF7FEFF 		bl	Error_Handler
 1307              	.LVL54:
 1308 01a4 A8E7     		b	.L62
 1309              	.L84:
 446:Core/Src/adc.c ****     }
 1310              		.loc 1 446 7 view .LVU488
 1311              	.LBB7:
 446:Core/Src/adc.c ****     }
 1312              		.loc 1 446 7 view .LVU489
 446:Core/Src/adc.c ****     }
 1313              		.loc 1 446 7 view .LVU490
 1314 01a6 344B     		ldr	r3, .L93+20
 1315 01a8 DA6C     		ldr	r2, [r3, #76]
 1316 01aa 42F40052 		orr	r2, r2, #8192
 1317 01ae DA64     		str	r2, [r3, #76]
 446:Core/Src/adc.c ****     }
 1318              		.loc 1 446 7 view .LVU491
 1319 01b0 DB6C     		ldr	r3, [r3, #76]
 1320 01b2 03F40053 		and	r3, r3, #8192
 1321 01b6 0393     		str	r3, [sp, #12]
 446:Core/Src/adc.c ****     }
 1322              		.loc 1 446 7 view .LVU492
 1323 01b8 039B     		ldr	r3, [sp, #12]
 1324 01ba A3E7     		b	.L63
 1325              	.L85:
 1326              	.LBE7:
 485:Core/Src/adc.c ****     }
 1327              		.loc 1 485 7 view .LVU493
 1328 01bc FFF7FEFF 		bl	Error_Handler
 1329              	.LVL55:
 1330 01c0 EAE7     		b	.L64
 1331              	.L77:
 502:Core/Src/adc.c ****     PeriphClkInit.Adc345ClockSelection = RCC_ADC345CLKSOURCE_SYSCLK;
 1332              		.loc 1 502 5 view .LVU494
 502:Core/Src/adc.c ****     PeriphClkInit.Adc345ClockSelection = RCC_ADC345CLKSOURCE_SYSCLK;
 1333              		.loc 1 502 40 is_stmt 0 view .LVU495
 1334 01c2 4FF48033 		mov	r3, #65536
 1335 01c6 0E93     		str	r3, [sp, #56]
 503:Core/Src/adc.c ****     if (HAL_RCCEx_PeriphCLKConfig(&PeriphClkInit) != HAL_OK)
 1336              		.loc 1 503 5 is_stmt 1 view .LVU496
 503:Core/Src/adc.c ****     if (HAL_RCCEx_PeriphCLKConfig(&PeriphClkInit) != HAL_OK)
ARM GAS  C:\Users\purdu\AppData\Local\Temp\cc9o02Oa.s 			page 38


 1337              		.loc 1 503 40 is_stmt 0 view .LVU497
 1338 01c8 4FF00043 		mov	r3, #-2147483648
 1339 01cc 2093     		str	r3, [sp, #128]
 504:Core/Src/adc.c ****     {
 1340              		.loc 1 504 5 is_stmt 1 view .LVU498
 504:Core/Src/adc.c ****     {
 1341              		.loc 1 504 9 is_stmt 0 view .LVU499
 1342 01ce 0EA8     		add	r0, sp, #56
 1343 01d0 FFF7FEFF 		bl	HAL_RCCEx_PeriphCLKConfig
 1344              	.LVL56:
 504:Core/Src/adc.c ****     {
 1345              		.loc 1 504 8 view .LVU500
 1346 01d4 0028     		cmp	r0, #0
 1347 01d6 33D1     		bne	.L86
 1348              	.L66:
 510:Core/Src/adc.c ****     if(HAL_RCC_ADC345_CLK_ENABLED==1){
 1349              		.loc 1 510 5 is_stmt 1 view .LVU501
 510:Core/Src/adc.c ****     if(HAL_RCC_ADC345_CLK_ENABLED==1){
 1350              		.loc 1 510 31 is_stmt 0 view .LVU502
 1351 01d8 2E4A     		ldr	r2, .L93+48
 1352 01da 1368     		ldr	r3, [r2]
 1353 01dc 0133     		adds	r3, r3, #1
 1354 01de 1360     		str	r3, [r2]
 511:Core/Src/adc.c ****       __HAL_RCC_ADC345_CLK_ENABLE();
 1355              		.loc 1 511 5 is_stmt 1 view .LVU503
 511:Core/Src/adc.c ****       __HAL_RCC_ADC345_CLK_ENABLE();
 1356              		.loc 1 511 7 is_stmt 0 view .LVU504
 1357 01e0 012B     		cmp	r3, #1
 1358 01e2 30D0     		beq	.L87
 1359              	.L67:
 512:Core/Src/adc.c ****     }
 1360              		.loc 1 512 7 is_stmt 1 discriminator 1 view .LVU505
 515:Core/Src/adc.c ****     /**ADC3 GPIO Configuration
 1361              		.loc 1 515 5 discriminator 1 view .LVU506
 1362              	.LBB8:
 515:Core/Src/adc.c ****     /**ADC3 GPIO Configuration
 1363              		.loc 1 515 5 discriminator 1 view .LVU507
 515:Core/Src/adc.c ****     /**ADC3 GPIO Configuration
 1364              		.loc 1 515 5 discriminator 1 view .LVU508
 1365 01e4 244B     		ldr	r3, .L93+20
 1366 01e6 DA6C     		ldr	r2, [r3, #76]
 1367 01e8 42F01002 		orr	r2, r2, #16
 1368 01ec DA64     		str	r2, [r3, #76]
 515:Core/Src/adc.c ****     /**ADC3 GPIO Configuration
 1369              		.loc 1 515 5 discriminator 1 view .LVU509
 1370 01ee DB6C     		ldr	r3, [r3, #76]
 1371 01f0 03F01003 		and	r3, r3, #16
 1372 01f4 0893     		str	r3, [sp, #32]
 515:Core/Src/adc.c ****     /**ADC3 GPIO Configuration
 1373              		.loc 1 515 5 discriminator 1 view .LVU510
 1374 01f6 089B     		ldr	r3, [sp, #32]
 1375              	.LBE8:
 515:Core/Src/adc.c ****     /**ADC3 GPIO Configuration
 1376              		.loc 1 515 5 discriminator 1 view .LVU511
 521:Core/Src/adc.c ****     GPIO_InitStruct.Mode = GPIO_MODE_ANALOG;
 1377              		.loc 1 521 5 discriminator 1 view .LVU512
 521:Core/Src/adc.c ****     GPIO_InitStruct.Mode = GPIO_MODE_ANALOG;
ARM GAS  C:\Users\purdu\AppData\Local\Temp\cc9o02Oa.s 			page 39


 1378              		.loc 1 521 25 is_stmt 0 discriminator 1 view .LVU513
 1379 01f8 4FF46073 		mov	r3, #896
 1380 01fc 2393     		str	r3, [sp, #140]
 522:Core/Src/adc.c ****     GPIO_InitStruct.Pull = GPIO_NOPULL;
 1381              		.loc 1 522 5 is_stmt 1 discriminator 1 view .LVU514
 522:Core/Src/adc.c ****     GPIO_InitStruct.Pull = GPIO_NOPULL;
 1382              		.loc 1 522 26 is_stmt 0 discriminator 1 view .LVU515
 1383 01fe 0323     		movs	r3, #3
 1384 0200 2493     		str	r3, [sp, #144]
 523:Core/Src/adc.c ****     HAL_GPIO_Init(GPIOE, &GPIO_InitStruct);
 1385              		.loc 1 523 5 is_stmt 1 discriminator 1 view .LVU516
 523:Core/Src/adc.c ****     HAL_GPIO_Init(GPIOE, &GPIO_InitStruct);
 1386              		.loc 1 523 26 is_stmt 0 discriminator 1 view .LVU517
 1387 0202 0025     		movs	r5, #0
 1388 0204 2595     		str	r5, [sp, #148]
 524:Core/Src/adc.c **** 
 1389              		.loc 1 524 5 is_stmt 1 discriminator 1 view .LVU518
 1390 0206 23A9     		add	r1, sp, #140
 1391 0208 2348     		ldr	r0, .L93+52
 1392 020a FFF7FEFF 		bl	HAL_GPIO_Init
 1393              	.LVL57:
 528:Core/Src/adc.c ****     hdma_adc3.Init.Request = DMA_REQUEST_ADC3;
 1394              		.loc 1 528 5 discriminator 1 view .LVU519
 528:Core/Src/adc.c ****     hdma_adc3.Init.Request = DMA_REQUEST_ADC3;
 1395              		.loc 1 528 24 is_stmt 0 discriminator 1 view .LVU520
 1396 020e 2348     		ldr	r0, .L93+56
 1397 0210 234B     		ldr	r3, .L93+60
 1398 0212 0360     		str	r3, [r0]
 529:Core/Src/adc.c ****     hdma_adc3.Init.Direction = DMA_PERIPH_TO_MEMORY;
 1399              		.loc 1 529 5 is_stmt 1 discriminator 1 view .LVU521
 529:Core/Src/adc.c ****     hdma_adc3.Init.Direction = DMA_PERIPH_TO_MEMORY;
 1400              		.loc 1 529 28 is_stmt 0 discriminator 1 view .LVU522
 1401 0214 2523     		movs	r3, #37
 1402 0216 4360     		str	r3, [r0, #4]
 530:Core/Src/adc.c ****     hdma_adc3.Init.PeriphInc = DMA_PINC_DISABLE;
 1403              		.loc 1 530 5 is_stmt 1 discriminator 1 view .LVU523
 530:Core/Src/adc.c ****     hdma_adc3.Init.PeriphInc = DMA_PINC_DISABLE;
 1404              		.loc 1 530 30 is_stmt 0 discriminator 1 view .LVU524
 1405 0218 8560     		str	r5, [r0, #8]
 531:Core/Src/adc.c ****     hdma_adc3.Init.MemInc = DMA_MINC_ENABLE;
 1406              		.loc 1 531 5 is_stmt 1 discriminator 1 view .LVU525
 531:Core/Src/adc.c ****     hdma_adc3.Init.MemInc = DMA_MINC_ENABLE;
 1407              		.loc 1 531 30 is_stmt 0 discriminator 1 view .LVU526
 1408 021a C560     		str	r5, [r0, #12]
 532:Core/Src/adc.c ****     hdma_adc3.Init.PeriphDataAlignment = DMA_PDATAALIGN_HALFWORD;
 1409              		.loc 1 532 5 is_stmt 1 discriminator 1 view .LVU527
 532:Core/Src/adc.c ****     hdma_adc3.Init.PeriphDataAlignment = DMA_PDATAALIGN_HALFWORD;
 1410              		.loc 1 532 27 is_stmt 0 discriminator 1 view .LVU528
 1411 021c 8023     		movs	r3, #128
 1412 021e 0361     		str	r3, [r0, #16]
 533:Core/Src/adc.c ****     hdma_adc3.Init.MemDataAlignment = DMA_MDATAALIGN_HALFWORD;
 1413              		.loc 1 533 5 is_stmt 1 discriminator 1 view .LVU529
 533:Core/Src/adc.c ****     hdma_adc3.Init.MemDataAlignment = DMA_MDATAALIGN_HALFWORD;
 1414              		.loc 1 533 40 is_stmt 0 discriminator 1 view .LVU530
 1415 0220 4FF48073 		mov	r3, #256
 1416 0224 4361     		str	r3, [r0, #20]
 534:Core/Src/adc.c ****     hdma_adc3.Init.Mode = DMA_CIRCULAR;
ARM GAS  C:\Users\purdu\AppData\Local\Temp\cc9o02Oa.s 			page 40


 1417              		.loc 1 534 5 is_stmt 1 discriminator 1 view .LVU531
 534:Core/Src/adc.c ****     hdma_adc3.Init.Mode = DMA_CIRCULAR;
 1418              		.loc 1 534 37 is_stmt 0 discriminator 1 view .LVU532
 1419 0226 4FF48063 		mov	r3, #1024
 1420 022a 8361     		str	r3, [r0, #24]
 535:Core/Src/adc.c ****     hdma_adc3.Init.Priority = DMA_PRIORITY_LOW;
 1421              		.loc 1 535 5 is_stmt 1 discriminator 1 view .LVU533
 535:Core/Src/adc.c ****     hdma_adc3.Init.Priority = DMA_PRIORITY_LOW;
 1422              		.loc 1 535 25 is_stmt 0 discriminator 1 view .LVU534
 1423 022c 2023     		movs	r3, #32
 1424 022e C361     		str	r3, [r0, #28]
 536:Core/Src/adc.c ****     if (HAL_DMA_Init(&hdma_adc3) != HAL_OK)
 1425              		.loc 1 536 5 is_stmt 1 discriminator 1 view .LVU535
 536:Core/Src/adc.c ****     if (HAL_DMA_Init(&hdma_adc3) != HAL_OK)
 1426              		.loc 1 536 29 is_stmt 0 discriminator 1 view .LVU536
 1427 0230 0562     		str	r5, [r0, #32]
 537:Core/Src/adc.c ****     {
 1428              		.loc 1 537 5 is_stmt 1 discriminator 1 view .LVU537
 537:Core/Src/adc.c ****     {
 1429              		.loc 1 537 9 is_stmt 0 discriminator 1 view .LVU538
 1430 0232 FFF7FEFF 		bl	HAL_DMA_Init
 1431              	.LVL58:
 537:Core/Src/adc.c ****     {
 1432              		.loc 1 537 8 discriminator 1 view .LVU539
 1433 0236 88B9     		cbnz	r0, .L88
 1434              	.L68:
 542:Core/Src/adc.c **** 
 1435              		.loc 1 542 5 is_stmt 1 view .LVU540
 542:Core/Src/adc.c **** 
 1436              		.loc 1 542 5 view .LVU541
 1437 0238 184B     		ldr	r3, .L93+56
 1438 023a 6365     		str	r3, [r4, #84]
 542:Core/Src/adc.c **** 
 1439              		.loc 1 542 5 view .LVU542
 1440 023c 9C62     		str	r4, [r3, #40]
 542:Core/Src/adc.c **** 
 1441              		.loc 1 542 5 view .LVU543
 1442 023e FFE6     		b	.L55
 1443              	.L86:
 506:Core/Src/adc.c ****     }
 1444              		.loc 1 506 7 view .LVU544
 1445 0240 FFF7FEFF 		bl	Error_Handler
 1446              	.LVL59:
 1447 0244 C8E7     		b	.L66
 1448              	.L87:
 512:Core/Src/adc.c ****     }
 1449              		.loc 1 512 7 view .LVU545
 1450              	.LBB9:
 512:Core/Src/adc.c ****     }
 1451              		.loc 1 512 7 view .LVU546
 512:Core/Src/adc.c ****     }
 1452              		.loc 1 512 7 view .LVU547
 1453 0246 0C4B     		ldr	r3, .L93+20
 1454 0248 DA6C     		ldr	r2, [r3, #76]
 1455 024a 42F48042 		orr	r2, r2, #16384
 1456 024e DA64     		str	r2, [r3, #76]
 512:Core/Src/adc.c ****     }
ARM GAS  C:\Users\purdu\AppData\Local\Temp\cc9o02Oa.s 			page 41


 1457              		.loc 1 512 7 view .LVU548
 1458 0250 DB6C     		ldr	r3, [r3, #76]
 1459 0252 03F48043 		and	r3, r3, #16384
 1460 0256 0793     		str	r3, [sp, #28]
 512:Core/Src/adc.c ****     }
 1461              		.loc 1 512 7 view .LVU549
 1462 0258 079B     		ldr	r3, [sp, #28]
 1463 025a C3E7     		b	.L67
 1464              	.L88:
 1465              	.LBE9:
 539:Core/Src/adc.c ****     }
 1466              		.loc 1 539 7 view .LVU550
 1467 025c FFF7FEFF 		bl	Error_Handler
 1468              	.LVL60:
 1469 0260 EAE7     		b	.L68
 1470              	.L94:
 1471 0262 00BF     		.align	2
 1472              	.L93:
 1473 0264 00010050 		.word	1342177536
 1474 0268 00040050 		.word	1342178304
 1475 026c 00050050 		.word	1342178560
 1476 0270 00060050 		.word	1342178816
 1477 0274 00000000 		.word	HAL_RCC_ADC12_CLK_ENABLED
 1478 0278 00100240 		.word	1073876992
 1479 027c 00000000 		.word	hdma_adc1
 1480 0280 08040240 		.word	1073873928
 1481 0284 00080048 		.word	1207961600
 1482 0288 00040048 		.word	1207960576
 1483 028c 00000000 		.word	hdma_adc2
 1484 0290 08000240 		.word	1073872904
 1485 0294 00000000 		.word	HAL_RCC_ADC345_CLK_ENABLED
 1486 0298 00100048 		.word	1207963648
 1487 029c 00000000 		.word	hdma_adc3
 1488 02a0 1C000240 		.word	1073872924
 1489              	.L78:
 556:Core/Src/adc.c ****     PeriphClkInit.Adc345ClockSelection = RCC_ADC345CLKSOURCE_SYSCLK;
 1490              		.loc 1 556 5 view .LVU551
 556:Core/Src/adc.c ****     PeriphClkInit.Adc345ClockSelection = RCC_ADC345CLKSOURCE_SYSCLK;
 1491              		.loc 1 556 40 is_stmt 0 view .LVU552
 1492 02a4 4FF48033 		mov	r3, #65536
 1493 02a8 0E93     		str	r3, [sp, #56]
 557:Core/Src/adc.c ****     if (HAL_RCCEx_PeriphCLKConfig(&PeriphClkInit) != HAL_OK)
 1494              		.loc 1 557 5 is_stmt 1 view .LVU553
 557:Core/Src/adc.c ****     if (HAL_RCCEx_PeriphCLKConfig(&PeriphClkInit) != HAL_OK)
 1495              		.loc 1 557 40 is_stmt 0 view .LVU554
 1496 02aa 4FF00043 		mov	r3, #-2147483648
 1497 02ae 2093     		str	r3, [sp, #128]
 558:Core/Src/adc.c ****     {
 1498              		.loc 1 558 5 is_stmt 1 view .LVU555
 558:Core/Src/adc.c ****     {
 1499              		.loc 1 558 9 is_stmt 0 view .LVU556
 1500 02b0 0EA8     		add	r0, sp, #56
 1501 02b2 FFF7FEFF 		bl	HAL_RCCEx_PeriphCLKConfig
 1502              	.LVL61:
 558:Core/Src/adc.c ****     {
 1503              		.loc 1 558 8 view .LVU557
 1504 02b6 0028     		cmp	r0, #0
ARM GAS  C:\Users\purdu\AppData\Local\Temp\cc9o02Oa.s 			page 42


 1505 02b8 2DD1     		bne	.L89
 1506              	.L70:
 564:Core/Src/adc.c ****     if(HAL_RCC_ADC345_CLK_ENABLED==1){
 1507              		.loc 1 564 5 is_stmt 1 view .LVU558
 564:Core/Src/adc.c ****     if(HAL_RCC_ADC345_CLK_ENABLED==1){
 1508              		.loc 1 564 31 is_stmt 0 view .LVU559
 1509 02ba 384A     		ldr	r2, .L95
 1510 02bc 1368     		ldr	r3, [r2]
 1511 02be 0133     		adds	r3, r3, #1
 1512 02c0 1360     		str	r3, [r2]
 565:Core/Src/adc.c ****       __HAL_RCC_ADC345_CLK_ENABLE();
 1513              		.loc 1 565 5 is_stmt 1 view .LVU560
 565:Core/Src/adc.c ****       __HAL_RCC_ADC345_CLK_ENABLE();
 1514              		.loc 1 565 7 is_stmt 0 view .LVU561
 1515 02c2 012B     		cmp	r3, #1
 1516 02c4 2AD0     		beq	.L90
 1517              	.L71:
 566:Core/Src/adc.c ****     }
 1518              		.loc 1 566 7 is_stmt 1 discriminator 1 view .LVU562
 569:Core/Src/adc.c ****     __HAL_RCC_GPIOD_CLK_ENABLE();
 1519              		.loc 1 569 5 discriminator 1 view .LVU563
 1520              	.LBB10:
 569:Core/Src/adc.c ****     __HAL_RCC_GPIOD_CLK_ENABLE();
 1521              		.loc 1 569 5 discriminator 1 view .LVU564
 569:Core/Src/adc.c ****     __HAL_RCC_GPIOD_CLK_ENABLE();
 1522              		.loc 1 569 5 discriminator 1 view .LVU565
 1523 02c6 364B     		ldr	r3, .L95+4
 1524 02c8 DA6C     		ldr	r2, [r3, #76]
 1525 02ca 42F00202 		orr	r2, r2, #2
 1526 02ce DA64     		str	r2, [r3, #76]
 569:Core/Src/adc.c ****     __HAL_RCC_GPIOD_CLK_ENABLE();
 1527              		.loc 1 569 5 discriminator 1 view .LVU566
 1528 02d0 DA6C     		ldr	r2, [r3, #76]
 1529 02d2 02F00202 		and	r2, r2, #2
 1530 02d6 0A92     		str	r2, [sp, #40]
 569:Core/Src/adc.c ****     __HAL_RCC_GPIOD_CLK_ENABLE();
 1531              		.loc 1 569 5 discriminator 1 view .LVU567
 1532 02d8 0A9A     		ldr	r2, [sp, #40]
 1533              	.LBE10:
 569:Core/Src/adc.c ****     __HAL_RCC_GPIOD_CLK_ENABLE();
 1534              		.loc 1 569 5 discriminator 1 view .LVU568
 570:Core/Src/adc.c ****     /**ADC4 GPIO Configuration
 1535              		.loc 1 570 5 discriminator 1 view .LVU569
 1536              	.LBB11:
 570:Core/Src/adc.c ****     /**ADC4 GPIO Configuration
 1537              		.loc 1 570 5 discriminator 1 view .LVU570
 570:Core/Src/adc.c ****     /**ADC4 GPIO Configuration
 1538              		.loc 1 570 5 discriminator 1 view .LVU571
 1539 02da DA6C     		ldr	r2, [r3, #76]
 1540 02dc 42F00802 		orr	r2, r2, #8
 1541 02e0 DA64     		str	r2, [r3, #76]
 570:Core/Src/adc.c ****     /**ADC4 GPIO Configuration
 1542              		.loc 1 570 5 discriminator 1 view .LVU572
 1543 02e2 DB6C     		ldr	r3, [r3, #76]
 1544 02e4 03F00803 		and	r3, r3, #8
 1545 02e8 0B93     		str	r3, [sp, #44]
 570:Core/Src/adc.c ****     /**ADC4 GPIO Configuration
ARM GAS  C:\Users\purdu\AppData\Local\Temp\cc9o02Oa.s 			page 43


 1546              		.loc 1 570 5 discriminator 1 view .LVU573
 1547 02ea 0B9B     		ldr	r3, [sp, #44]
 1548              	.LBE11:
 570:Core/Src/adc.c ****     /**ADC4 GPIO Configuration
 1549              		.loc 1 570 5 discriminator 1 view .LVU574
 575:Core/Src/adc.c ****     GPIO_InitStruct.Mode = GPIO_MODE_ANALOG;
 1550              		.loc 1 575 5 discriminator 1 view .LVU575
 575:Core/Src/adc.c ****     GPIO_InitStruct.Mode = GPIO_MODE_ANALOG;
 1551              		.loc 1 575 25 is_stmt 0 discriminator 1 view .LVU576
 1552 02ec 4FF48053 		mov	r3, #4096
 1553 02f0 2393     		str	r3, [sp, #140]
 576:Core/Src/adc.c ****     GPIO_InitStruct.Pull = GPIO_NOPULL;
 1554              		.loc 1 576 5 is_stmt 1 discriminator 1 view .LVU577
 576:Core/Src/adc.c ****     GPIO_InitStruct.Pull = GPIO_NOPULL;
 1555              		.loc 1 576 26 is_stmt 0 discriminator 1 view .LVU578
 1556 02f2 0325     		movs	r5, #3
 1557 02f4 2495     		str	r5, [sp, #144]
 577:Core/Src/adc.c ****     HAL_GPIO_Init(GPIOB, &GPIO_InitStruct);
 1558              		.loc 1 577 5 is_stmt 1 discriminator 1 view .LVU579
 577:Core/Src/adc.c ****     HAL_GPIO_Init(GPIOB, &GPIO_InitStruct);
 1559              		.loc 1 577 26 is_stmt 0 discriminator 1 view .LVU580
 1560 02f6 0024     		movs	r4, #0
 1561              	.LVL62:
 577:Core/Src/adc.c ****     HAL_GPIO_Init(GPIOB, &GPIO_InitStruct);
 1562              		.loc 1 577 26 discriminator 1 view .LVU581
 1563 02f8 2594     		str	r4, [sp, #148]
 578:Core/Src/adc.c **** 
 1564              		.loc 1 578 5 is_stmt 1 discriminator 1 view .LVU582
 1565 02fa 23A9     		add	r1, sp, #140
 1566 02fc 2948     		ldr	r0, .L95+8
 1567 02fe FFF7FEFF 		bl	HAL_GPIO_Init
 1568              	.LVL63:
 580:Core/Src/adc.c ****     GPIO_InitStruct.Mode = GPIO_MODE_ANALOG;
 1569              		.loc 1 580 5 discriminator 1 view .LVU583
 580:Core/Src/adc.c ****     GPIO_InitStruct.Mode = GPIO_MODE_ANALOG;
 1570              		.loc 1 580 25 is_stmt 0 discriminator 1 view .LVU584
 1571 0302 4FF48073 		mov	r3, #256
 1572 0306 2393     		str	r3, [sp, #140]
 581:Core/Src/adc.c ****     GPIO_InitStruct.Pull = GPIO_NOPULL;
 1573              		.loc 1 581 5 is_stmt 1 discriminator 1 view .LVU585
 581:Core/Src/adc.c ****     GPIO_InitStruct.Pull = GPIO_NOPULL;
 1574              		.loc 1 581 26 is_stmt 0 discriminator 1 view .LVU586
 1575 0308 2495     		str	r5, [sp, #144]
 582:Core/Src/adc.c ****     HAL_GPIO_Init(GPIOD, &GPIO_InitStruct);
 1576              		.loc 1 582 5 is_stmt 1 discriminator 1 view .LVU587
 582:Core/Src/adc.c ****     HAL_GPIO_Init(GPIOD, &GPIO_InitStruct);
 1577              		.loc 1 582 26 is_stmt 0 discriminator 1 view .LVU588
 1578 030a 2594     		str	r4, [sp, #148]
 583:Core/Src/adc.c **** 
 1579              		.loc 1 583 5 is_stmt 1 discriminator 1 view .LVU589
 1580 030c 23A9     		add	r1, sp, #140
 1581 030e 2648     		ldr	r0, .L95+12
 1582 0310 FFF7FEFF 		bl	HAL_GPIO_Init
 1583              	.LVL64:
 1584 0314 94E6     		b	.L55
 1585              	.LVL65:
 1586              	.L89:
ARM GAS  C:\Users\purdu\AppData\Local\Temp\cc9o02Oa.s 			page 44


 560:Core/Src/adc.c ****     }
 1587              		.loc 1 560 7 view .LVU590
 1588 0316 FFF7FEFF 		bl	Error_Handler
 1589              	.LVL66:
 1590 031a CEE7     		b	.L70
 1591              	.L90:
 566:Core/Src/adc.c ****     }
 1592              		.loc 1 566 7 view .LVU591
 1593              	.LBB12:
 566:Core/Src/adc.c ****     }
 1594              		.loc 1 566 7 view .LVU592
 566:Core/Src/adc.c ****     }
 1595              		.loc 1 566 7 view .LVU593
 1596 031c 204B     		ldr	r3, .L95+4
 1597 031e DA6C     		ldr	r2, [r3, #76]
 1598 0320 42F48042 		orr	r2, r2, #16384
 1599 0324 DA64     		str	r2, [r3, #76]
 566:Core/Src/adc.c ****     }
 1600              		.loc 1 566 7 view .LVU594
 1601 0326 DB6C     		ldr	r3, [r3, #76]
 1602 0328 03F48043 		and	r3, r3, #16384
 1603 032c 0993     		str	r3, [sp, #36]
 566:Core/Src/adc.c ****     }
 1604              		.loc 1 566 7 view .LVU595
 1605 032e 099B     		ldr	r3, [sp, #36]
 1606 0330 C9E7     		b	.L71
 1607              	.L79:
 1608              	.LBE12:
 597:Core/Src/adc.c ****     PeriphClkInit.Adc345ClockSelection = RCC_ADC345CLKSOURCE_SYSCLK;
 1609              		.loc 1 597 5 view .LVU596
 597:Core/Src/adc.c ****     PeriphClkInit.Adc345ClockSelection = RCC_ADC345CLKSOURCE_SYSCLK;
 1610              		.loc 1 597 40 is_stmt 0 view .LVU597
 1611 0332 4FF48033 		mov	r3, #65536
 1612 0336 0E93     		str	r3, [sp, #56]
 598:Core/Src/adc.c ****     if (HAL_RCCEx_PeriphCLKConfig(&PeriphClkInit) != HAL_OK)
 1613              		.loc 1 598 5 is_stmt 1 view .LVU598
 598:Core/Src/adc.c ****     if (HAL_RCCEx_PeriphCLKConfig(&PeriphClkInit) != HAL_OK)
 1614              		.loc 1 598 40 is_stmt 0 view .LVU599
 1615 0338 4FF00043 		mov	r3, #-2147483648
 1616 033c 2093     		str	r3, [sp, #128]
 599:Core/Src/adc.c ****     {
 1617              		.loc 1 599 5 is_stmt 1 view .LVU600
 599:Core/Src/adc.c ****     {
 1618              		.loc 1 599 9 is_stmt 0 view .LVU601
 1619 033e 0EA8     		add	r0, sp, #56
 1620 0340 FFF7FEFF 		bl	HAL_RCCEx_PeriphCLKConfig
 1621              	.LVL67:
 599:Core/Src/adc.c ****     {
 1622              		.loc 1 599 8 view .LVU602
 1623 0344 E0B9     		cbnz	r0, .L91
 1624              	.L72:
 605:Core/Src/adc.c ****     if(HAL_RCC_ADC345_CLK_ENABLED==1){
 1625              		.loc 1 605 5 is_stmt 1 view .LVU603
 605:Core/Src/adc.c ****     if(HAL_RCC_ADC345_CLK_ENABLED==1){
 1626              		.loc 1 605 31 is_stmt 0 view .LVU604
 1627 0346 154A     		ldr	r2, .L95
 1628 0348 1368     		ldr	r3, [r2]
ARM GAS  C:\Users\purdu\AppData\Local\Temp\cc9o02Oa.s 			page 45


 1629 034a 0133     		adds	r3, r3, #1
 1630 034c 1360     		str	r3, [r2]
 606:Core/Src/adc.c ****       __HAL_RCC_ADC345_CLK_ENABLE();
 1631              		.loc 1 606 5 is_stmt 1 view .LVU605
 606:Core/Src/adc.c ****       __HAL_RCC_ADC345_CLK_ENABLE();
 1632              		.loc 1 606 7 is_stmt 0 view .LVU606
 1633 034e 012B     		cmp	r3, #1
 1634 0350 19D0     		beq	.L92
 1635              	.L73:
 607:Core/Src/adc.c ****     }
 1636              		.loc 1 607 7 is_stmt 1 discriminator 1 view .LVU607
 610:Core/Src/adc.c ****     /**ADC5 GPIO Configuration
 1637              		.loc 1 610 5 discriminator 1 view .LVU608
 1638              	.LBB13:
 610:Core/Src/adc.c ****     /**ADC5 GPIO Configuration
 1639              		.loc 1 610 5 discriminator 1 view .LVU609
 610:Core/Src/adc.c ****     /**ADC5 GPIO Configuration
 1640              		.loc 1 610 5 discriminator 1 view .LVU610
 1641 0352 134B     		ldr	r3, .L95+4
 1642 0354 DA6C     		ldr	r2, [r3, #76]
 1643 0356 42F00102 		orr	r2, r2, #1
 1644 035a DA64     		str	r2, [r3, #76]
 610:Core/Src/adc.c ****     /**ADC5 GPIO Configuration
 1645              		.loc 1 610 5 discriminator 1 view .LVU611
 1646 035c DB6C     		ldr	r3, [r3, #76]
 1647 035e 03F00103 		and	r3, r3, #1
 1648 0362 0D93     		str	r3, [sp, #52]
 610:Core/Src/adc.c ****     /**ADC5 GPIO Configuration
 1649              		.loc 1 610 5 discriminator 1 view .LVU612
 1650 0364 0D9B     		ldr	r3, [sp, #52]
 1651              	.LBE13:
 610:Core/Src/adc.c ****     /**ADC5 GPIO Configuration
 1652              		.loc 1 610 5 discriminator 1 view .LVU613
 614:Core/Src/adc.c ****     GPIO_InitStruct.Mode = GPIO_MODE_ANALOG;
 1653              		.loc 1 614 5 discriminator 1 view .LVU614
 614:Core/Src/adc.c ****     GPIO_InitStruct.Mode = GPIO_MODE_ANALOG;
 1654              		.loc 1 614 25 is_stmt 0 discriminator 1 view .LVU615
 1655 0366 4FF48073 		mov	r3, #256
 1656 036a 2393     		str	r3, [sp, #140]
 615:Core/Src/adc.c ****     GPIO_InitStruct.Pull = GPIO_NOPULL;
 1657              		.loc 1 615 5 is_stmt 1 discriminator 1 view .LVU616
 615:Core/Src/adc.c ****     GPIO_InitStruct.Pull = GPIO_NOPULL;
 1658              		.loc 1 615 26 is_stmt 0 discriminator 1 view .LVU617
 1659 036c 0323     		movs	r3, #3
 1660 036e 2493     		str	r3, [sp, #144]
 616:Core/Src/adc.c ****     HAL_GPIO_Init(GPIOA, &GPIO_InitStruct);
 1661              		.loc 1 616 5 is_stmt 1 discriminator 1 view .LVU618
 616:Core/Src/adc.c ****     HAL_GPIO_Init(GPIOA, &GPIO_InitStruct);
 1662              		.loc 1 616 26 is_stmt 0 discriminator 1 view .LVU619
 1663 0370 0023     		movs	r3, #0
 1664 0372 2593     		str	r3, [sp, #148]
 617:Core/Src/adc.c **** 
 1665              		.loc 1 617 5 is_stmt 1 discriminator 1 view .LVU620
 1666 0374 23A9     		add	r1, sp, #140
 1667 0376 4FF09040 		mov	r0, #1207959552
 1668 037a FFF7FEFF 		bl	HAL_GPIO_Init
 1669              	.LVL68:
ARM GAS  C:\Users\purdu\AppData\Local\Temp\cc9o02Oa.s 			page 46


 1670              		.loc 1 623 1 is_stmt 0 discriminator 1 view .LVU621
 1671 037e 5FE6     		b	.L55
 1672              	.L91:
 601:Core/Src/adc.c ****     }
 1673              		.loc 1 601 7 is_stmt 1 view .LVU622
 1674 0380 FFF7FEFF 		bl	Error_Handler
 1675              	.LVL69:
 1676 0384 DFE7     		b	.L72
 1677              	.L92:
 607:Core/Src/adc.c ****     }
 1678              		.loc 1 607 7 view .LVU623
 1679              	.LBB14:
 607:Core/Src/adc.c ****     }
 1680              		.loc 1 607 7 view .LVU624
 607:Core/Src/adc.c ****     }
 1681              		.loc 1 607 7 view .LVU625
 1682 0386 064B     		ldr	r3, .L95+4
 1683 0388 DA6C     		ldr	r2, [r3, #76]
 1684 038a 42F48042 		orr	r2, r2, #16384
 1685 038e DA64     		str	r2, [r3, #76]
 607:Core/Src/adc.c ****     }
 1686              		.loc 1 607 7 view .LVU626
 1687 0390 DB6C     		ldr	r3, [r3, #76]
 1688 0392 03F48043 		and	r3, r3, #16384
 1689 0396 0C93     		str	r3, [sp, #48]
 607:Core/Src/adc.c ****     }
 1690              		.loc 1 607 7 view .LVU627
 1691 0398 0C9B     		ldr	r3, [sp, #48]
 1692 039a DAE7     		b	.L73
 1693              	.L96:
 1694              		.align	2
 1695              	.L95:
 1696 039c 00000000 		.word	HAL_RCC_ADC345_CLK_ENABLED
 1697 03a0 00100240 		.word	1073876992
 1698 03a4 00040048 		.word	1207960576
 1699 03a8 000C0048 		.word	1207962624
 1700              	.LBE14:
 1701              		.cfi_endproc
 1702              	.LFE334:
 1704              		.section	.text.HAL_ADC_MspDeInit,"ax",%progbits
 1705              		.align	1
 1706              		.global	HAL_ADC_MspDeInit
 1707              		.syntax unified
 1708              		.thumb
 1709              		.thumb_func
 1711              	HAL_ADC_MspDeInit:
 1712              	.LVL70:
 1713              	.LFB335:
 624:Core/Src/adc.c **** 
 625:Core/Src/adc.c **** void HAL_ADC_MspDeInit(ADC_HandleTypeDef* adcHandle)
 626:Core/Src/adc.c **** {
 1714              		.loc 1 626 1 view -0
 1715              		.cfi_startproc
 1716              		@ args = 0, pretend = 0, frame = 0
 1717              		@ frame_needed = 0, uses_anonymous_args = 0
 1718              		.loc 1 626 1 is_stmt 0 view .LVU629
 1719 0000 10B5     		push	{r4, lr}
ARM GAS  C:\Users\purdu\AppData\Local\Temp\cc9o02Oa.s 			page 47


 1720              	.LCFI24:
 1721              		.cfi_def_cfa_offset 8
 1722              		.cfi_offset 4, -8
 1723              		.cfi_offset 14, -4
 1724 0002 0446     		mov	r4, r0
 627:Core/Src/adc.c **** 
 628:Core/Src/adc.c ****   if(adcHandle->Instance==ADC1)
 1725              		.loc 1 628 3 is_stmt 1 view .LVU630
 1726              		.loc 1 628 15 is_stmt 0 view .LVU631
 1727 0004 0368     		ldr	r3, [r0]
 1728              		.loc 1 628 5 view .LVU632
 1729 0006 B3F1A04F 		cmp	r3, #1342177280
 1730 000a 1CD0     		beq	.L109
 629:Core/Src/adc.c ****   {
 630:Core/Src/adc.c ****   /* USER CODE BEGIN ADC1_MspDeInit 0 */
 631:Core/Src/adc.c **** 
 632:Core/Src/adc.c ****   /* USER CODE END ADC1_MspDeInit 0 */
 633:Core/Src/adc.c ****     /* Peripheral clock disable */
 634:Core/Src/adc.c ****     HAL_RCC_ADC12_CLK_ENABLED--;
 635:Core/Src/adc.c ****     if(HAL_RCC_ADC12_CLK_ENABLED==0){
 636:Core/Src/adc.c ****       __HAL_RCC_ADC12_CLK_DISABLE();
 637:Core/Src/adc.c ****     }
 638:Core/Src/adc.c **** 
 639:Core/Src/adc.c ****     /**ADC1 GPIO Configuration
 640:Core/Src/adc.c ****     PA0     ------> ADC1_IN1
 641:Core/Src/adc.c ****     PA1     ------> ADC1_IN2
 642:Core/Src/adc.c ****     */
 643:Core/Src/adc.c ****     HAL_GPIO_DeInit(GPIOA, GPIO_PIN_0|GPIO_PIN_1);
 644:Core/Src/adc.c **** 
 645:Core/Src/adc.c ****     /* ADC1 DMA DeInit */
 646:Core/Src/adc.c ****     HAL_DMA_DeInit(adcHandle->DMA_Handle);
 647:Core/Src/adc.c ****   /* USER CODE BEGIN ADC1_MspDeInit 1 */
 648:Core/Src/adc.c **** 
 649:Core/Src/adc.c ****   /* USER CODE END ADC1_MspDeInit 1 */
 650:Core/Src/adc.c ****   }
 651:Core/Src/adc.c ****   else if(adcHandle->Instance==ADC2)
 1731              		.loc 1 651 8 is_stmt 1 view .LVU633
 1732              		.loc 1 651 10 is_stmt 0 view .LVU634
 1733 000c 394A     		ldr	r2, .L113
 1734 000e 9342     		cmp	r3, r2
 1735 0010 2CD0     		beq	.L110
 652:Core/Src/adc.c ****   {
 653:Core/Src/adc.c ****   /* USER CODE BEGIN ADC2_MspDeInit 0 */
 654:Core/Src/adc.c **** 
 655:Core/Src/adc.c ****   /* USER CODE END ADC2_MspDeInit 0 */
 656:Core/Src/adc.c ****     /* Peripheral clock disable */
 657:Core/Src/adc.c ****     HAL_RCC_ADC12_CLK_ENABLED--;
 658:Core/Src/adc.c ****     if(HAL_RCC_ADC12_CLK_ENABLED==0){
 659:Core/Src/adc.c ****       __HAL_RCC_ADC12_CLK_DISABLE();
 660:Core/Src/adc.c ****     }
 661:Core/Src/adc.c **** 
 662:Core/Src/adc.c ****     /**ADC2 GPIO Configuration
 663:Core/Src/adc.c ****     PA5     ------> ADC2_IN13
 664:Core/Src/adc.c ****     PC5     ------> ADC2_IN11
 665:Core/Src/adc.c ****     PB2     ------> ADC2_IN12
 666:Core/Src/adc.c ****     */
 667:Core/Src/adc.c ****     HAL_GPIO_DeInit(GPIOA, GPIO_PIN_5);
ARM GAS  C:\Users\purdu\AppData\Local\Temp\cc9o02Oa.s 			page 48


 668:Core/Src/adc.c **** 
 669:Core/Src/adc.c ****     HAL_GPIO_DeInit(GPIOC, GPIO_PIN_5);
 670:Core/Src/adc.c **** 
 671:Core/Src/adc.c ****     HAL_GPIO_DeInit(GPIOB, GPIO_PIN_2);
 672:Core/Src/adc.c **** 
 673:Core/Src/adc.c ****     /* ADC2 DMA DeInit */
 674:Core/Src/adc.c ****     HAL_DMA_DeInit(adcHandle->DMA_Handle);
 675:Core/Src/adc.c ****   /* USER CODE BEGIN ADC2_MspDeInit 1 */
 676:Core/Src/adc.c **** 
 677:Core/Src/adc.c ****   /* USER CODE END ADC2_MspDeInit 1 */
 678:Core/Src/adc.c ****   }
 679:Core/Src/adc.c ****   else if(adcHandle->Instance==ADC3)
 1736              		.loc 1 679 8 is_stmt 1 view .LVU635
 1737              		.loc 1 679 10 is_stmt 0 view .LVU636
 1738 0012 394A     		ldr	r2, .L113+4
 1739 0014 9342     		cmp	r3, r2
 1740 0016 44D0     		beq	.L111
 680:Core/Src/adc.c ****   {
 681:Core/Src/adc.c ****   /* USER CODE BEGIN ADC3_MspDeInit 0 */
 682:Core/Src/adc.c **** 
 683:Core/Src/adc.c ****   /* USER CODE END ADC3_MspDeInit 0 */
 684:Core/Src/adc.c ****     /* Peripheral clock disable */
 685:Core/Src/adc.c ****     HAL_RCC_ADC345_CLK_ENABLED--;
 686:Core/Src/adc.c ****     if(HAL_RCC_ADC345_CLK_ENABLED==0){
 687:Core/Src/adc.c ****       __HAL_RCC_ADC345_CLK_DISABLE();
 688:Core/Src/adc.c ****     }
 689:Core/Src/adc.c **** 
 690:Core/Src/adc.c ****     /**ADC3 GPIO Configuration
 691:Core/Src/adc.c ****     PE7     ------> ADC3_IN4
 692:Core/Src/adc.c ****     PE8     ------> ADC3_IN6
 693:Core/Src/adc.c ****     PE9     ------> ADC3_IN2
 694:Core/Src/adc.c ****     */
 695:Core/Src/adc.c ****     HAL_GPIO_DeInit(GPIOE, GPIO_PIN_7|GPIO_PIN_8|GPIO_PIN_9);
 696:Core/Src/adc.c **** 
 697:Core/Src/adc.c ****     /* ADC3 DMA DeInit */
 698:Core/Src/adc.c ****     HAL_DMA_DeInit(adcHandle->DMA_Handle);
 699:Core/Src/adc.c ****   /* USER CODE BEGIN ADC3_MspDeInit 1 */
 700:Core/Src/adc.c **** 
 701:Core/Src/adc.c ****   /* USER CODE END ADC3_MspDeInit 1 */
 702:Core/Src/adc.c ****   }
 703:Core/Src/adc.c ****   else if(adcHandle->Instance==ADC4)
 1741              		.loc 1 703 8 is_stmt 1 view .LVU637
 1742              		.loc 1 703 10 is_stmt 0 view .LVU638
 1743 0018 384A     		ldr	r2, .L113+8
 1744 001a 9342     		cmp	r3, r2
 1745 001c 54D0     		beq	.L112
 704:Core/Src/adc.c ****   {
 705:Core/Src/adc.c ****   /* USER CODE BEGIN ADC4_MspDeInit 0 */
 706:Core/Src/adc.c **** 
 707:Core/Src/adc.c ****   /* USER CODE END ADC4_MspDeInit 0 */
 708:Core/Src/adc.c ****     /* Peripheral clock disable */
 709:Core/Src/adc.c ****     HAL_RCC_ADC345_CLK_ENABLED--;
 710:Core/Src/adc.c ****     if(HAL_RCC_ADC345_CLK_ENABLED==0){
 711:Core/Src/adc.c ****       __HAL_RCC_ADC345_CLK_DISABLE();
 712:Core/Src/adc.c ****     }
 713:Core/Src/adc.c **** 
 714:Core/Src/adc.c ****     /**ADC4 GPIO Configuration
ARM GAS  C:\Users\purdu\AppData\Local\Temp\cc9o02Oa.s 			page 49


 715:Core/Src/adc.c ****     PB12     ------> ADC4_IN3
 716:Core/Src/adc.c ****     PD8     ------> ADC4_IN12
 717:Core/Src/adc.c ****     */
 718:Core/Src/adc.c ****     HAL_GPIO_DeInit(GPIOB, GPIO_PIN_12);
 719:Core/Src/adc.c **** 
 720:Core/Src/adc.c ****     HAL_GPIO_DeInit(GPIOD, GPIO_PIN_8);
 721:Core/Src/adc.c **** 
 722:Core/Src/adc.c ****   /* USER CODE BEGIN ADC4_MspDeInit 1 */
 723:Core/Src/adc.c **** 
 724:Core/Src/adc.c ****   /* USER CODE END ADC4_MspDeInit 1 */
 725:Core/Src/adc.c ****   }
 726:Core/Src/adc.c ****   else if(adcHandle->Instance==ADC5)
 1746              		.loc 1 726 8 is_stmt 1 view .LVU639
 1747              		.loc 1 726 10 is_stmt 0 view .LVU640
 1748 001e 384A     		ldr	r2, .L113+12
 1749 0020 9342     		cmp	r3, r2
 1750 0022 22D1     		bne	.L97
 727:Core/Src/adc.c ****   {
 728:Core/Src/adc.c ****   /* USER CODE BEGIN ADC5_MspDeInit 0 */
 729:Core/Src/adc.c **** 
 730:Core/Src/adc.c ****   /* USER CODE END ADC5_MspDeInit 0 */
 731:Core/Src/adc.c ****     /* Peripheral clock disable */
 732:Core/Src/adc.c ****     HAL_RCC_ADC345_CLK_ENABLED--;
 1751              		.loc 1 732 5 is_stmt 1 view .LVU641
 1752              		.loc 1 732 31 is_stmt 0 view .LVU642
 1753 0024 374A     		ldr	r2, .L113+16
 1754 0026 1368     		ldr	r3, [r2]
 1755 0028 013B     		subs	r3, r3, #1
 1756 002a 1360     		str	r3, [r2]
 733:Core/Src/adc.c ****     if(HAL_RCC_ADC345_CLK_ENABLED==0){
 1757              		.loc 1 733 5 is_stmt 1 view .LVU643
 1758              		.loc 1 733 7 is_stmt 0 view .LVU644
 1759 002c 23B9     		cbnz	r3, .L107
 734:Core/Src/adc.c ****       __HAL_RCC_ADC345_CLK_DISABLE();
 1760              		.loc 1 734 7 is_stmt 1 view .LVU645
 1761 002e 364A     		ldr	r2, .L113+20
 1762 0030 D36C     		ldr	r3, [r2, #76]
 1763 0032 23F48043 		bic	r3, r3, #16384
 1764 0036 D364     		str	r3, [r2, #76]
 1765              	.L107:
 735:Core/Src/adc.c ****     }
 736:Core/Src/adc.c **** 
 737:Core/Src/adc.c ****     /**ADC5 GPIO Configuration
 738:Core/Src/adc.c ****     PA8     ------> ADC5_IN1
 739:Core/Src/adc.c ****     */
 740:Core/Src/adc.c ****     HAL_GPIO_DeInit(GPIOA, GPIO_PIN_8);
 1766              		.loc 1 740 5 view .LVU646
 1767 0038 4FF48071 		mov	r1, #256
 1768 003c 4FF09040 		mov	r0, #1207959552
 1769              	.LVL71:
 1770              		.loc 1 740 5 is_stmt 0 view .LVU647
 1771 0040 FFF7FEFF 		bl	HAL_GPIO_DeInit
 1772              	.LVL72:
 741:Core/Src/adc.c **** 
 742:Core/Src/adc.c ****   /* USER CODE BEGIN ADC5_MspDeInit 1 */
 743:Core/Src/adc.c **** 
 744:Core/Src/adc.c ****   /* USER CODE END ADC5_MspDeInit 1 */
ARM GAS  C:\Users\purdu\AppData\Local\Temp\cc9o02Oa.s 			page 50


 745:Core/Src/adc.c ****   }
 746:Core/Src/adc.c **** }
 1773              		.loc 1 746 1 view .LVU648
 1774 0044 11E0     		b	.L97
 1775              	.LVL73:
 1776              	.L109:
 634:Core/Src/adc.c ****     if(HAL_RCC_ADC12_CLK_ENABLED==0){
 1777              		.loc 1 634 5 is_stmt 1 view .LVU649
 634:Core/Src/adc.c ****     if(HAL_RCC_ADC12_CLK_ENABLED==0){
 1778              		.loc 1 634 30 is_stmt 0 view .LVU650
 1779 0046 314A     		ldr	r2, .L113+24
 1780 0048 1368     		ldr	r3, [r2]
 1781 004a 013B     		subs	r3, r3, #1
 1782 004c 1360     		str	r3, [r2]
 635:Core/Src/adc.c ****       __HAL_RCC_ADC12_CLK_DISABLE();
 1783              		.loc 1 635 5 is_stmt 1 view .LVU651
 635:Core/Src/adc.c ****       __HAL_RCC_ADC12_CLK_DISABLE();
 1784              		.loc 1 635 7 is_stmt 0 view .LVU652
 1785 004e 23B9     		cbnz	r3, .L99
 636:Core/Src/adc.c ****     }
 1786              		.loc 1 636 7 is_stmt 1 view .LVU653
 1787 0050 2D4A     		ldr	r2, .L113+20
 1788 0052 D36C     		ldr	r3, [r2, #76]
 1789 0054 23F40053 		bic	r3, r3, #8192
 1790 0058 D364     		str	r3, [r2, #76]
 1791              	.L99:
 643:Core/Src/adc.c **** 
 1792              		.loc 1 643 5 view .LVU654
 1793 005a 0321     		movs	r1, #3
 1794 005c 4FF09040 		mov	r0, #1207959552
 1795              	.LVL74:
 643:Core/Src/adc.c **** 
 1796              		.loc 1 643 5 is_stmt 0 view .LVU655
 1797 0060 FFF7FEFF 		bl	HAL_GPIO_DeInit
 1798              	.LVL75:
 646:Core/Src/adc.c ****   /* USER CODE BEGIN ADC1_MspDeInit 1 */
 1799              		.loc 1 646 5 is_stmt 1 view .LVU656
 1800 0064 606D     		ldr	r0, [r4, #84]
 1801 0066 FFF7FEFF 		bl	HAL_DMA_DeInit
 1802              	.LVL76:
 1803              	.L97:
 1804              		.loc 1 746 1 is_stmt 0 view .LVU657
 1805 006a 10BD     		pop	{r4, pc}
 1806              	.LVL77:
 1807              	.L110:
 657:Core/Src/adc.c ****     if(HAL_RCC_ADC12_CLK_ENABLED==0){
 1808              		.loc 1 657 5 is_stmt 1 view .LVU658
 657:Core/Src/adc.c ****     if(HAL_RCC_ADC12_CLK_ENABLED==0){
 1809              		.loc 1 657 30 is_stmt 0 view .LVU659
 1810 006c 274A     		ldr	r2, .L113+24
 1811 006e 1368     		ldr	r3, [r2]
 1812 0070 013B     		subs	r3, r3, #1
 1813 0072 1360     		str	r3, [r2]
 658:Core/Src/adc.c ****       __HAL_RCC_ADC12_CLK_DISABLE();
 1814              		.loc 1 658 5 is_stmt 1 view .LVU660
 658:Core/Src/adc.c ****       __HAL_RCC_ADC12_CLK_DISABLE();
 1815              		.loc 1 658 7 is_stmt 0 view .LVU661
ARM GAS  C:\Users\purdu\AppData\Local\Temp\cc9o02Oa.s 			page 51


 1816 0074 23B9     		cbnz	r3, .L102
 659:Core/Src/adc.c ****     }
 1817              		.loc 1 659 7 is_stmt 1 view .LVU662
 1818 0076 244A     		ldr	r2, .L113+20
 1819 0078 D36C     		ldr	r3, [r2, #76]
 1820 007a 23F40053 		bic	r3, r3, #8192
 1821 007e D364     		str	r3, [r2, #76]
 1822              	.L102:
 667:Core/Src/adc.c **** 
 1823              		.loc 1 667 5 view .LVU663
 1824 0080 2021     		movs	r1, #32
 1825 0082 4FF09040 		mov	r0, #1207959552
 1826              	.LVL78:
 667:Core/Src/adc.c **** 
 1827              		.loc 1 667 5 is_stmt 0 view .LVU664
 1828 0086 FFF7FEFF 		bl	HAL_GPIO_DeInit
 1829              	.LVL79:
 669:Core/Src/adc.c **** 
 1830              		.loc 1 669 5 is_stmt 1 view .LVU665
 1831 008a 2021     		movs	r1, #32
 1832 008c 2048     		ldr	r0, .L113+28
 1833 008e FFF7FEFF 		bl	HAL_GPIO_DeInit
 1834              	.LVL80:
 671:Core/Src/adc.c **** 
 1835              		.loc 1 671 5 view .LVU666
 1836 0092 0421     		movs	r1, #4
 1837 0094 1F48     		ldr	r0, .L113+32
 1838 0096 FFF7FEFF 		bl	HAL_GPIO_DeInit
 1839              	.LVL81:
 674:Core/Src/adc.c ****   /* USER CODE BEGIN ADC2_MspDeInit 1 */
 1840              		.loc 1 674 5 view .LVU667
 1841 009a 606D     		ldr	r0, [r4, #84]
 1842 009c FFF7FEFF 		bl	HAL_DMA_DeInit
 1843              	.LVL82:
 1844 00a0 E3E7     		b	.L97
 1845              	.LVL83:
 1846              	.L111:
 685:Core/Src/adc.c ****     if(HAL_RCC_ADC345_CLK_ENABLED==0){
 1847              		.loc 1 685 5 view .LVU668
 685:Core/Src/adc.c ****     if(HAL_RCC_ADC345_CLK_ENABLED==0){
 1848              		.loc 1 685 31 is_stmt 0 view .LVU669
 1849 00a2 184A     		ldr	r2, .L113+16
 1850 00a4 1368     		ldr	r3, [r2]
 1851 00a6 013B     		subs	r3, r3, #1
 1852 00a8 1360     		str	r3, [r2]
 686:Core/Src/adc.c ****       __HAL_RCC_ADC345_CLK_DISABLE();
 1853              		.loc 1 686 5 is_stmt 1 view .LVU670
 686:Core/Src/adc.c ****       __HAL_RCC_ADC345_CLK_DISABLE();
 1854              		.loc 1 686 7 is_stmt 0 view .LVU671
 1855 00aa 23B9     		cbnz	r3, .L104
 687:Core/Src/adc.c ****     }
 1856              		.loc 1 687 7 is_stmt 1 view .LVU672
 1857 00ac 164A     		ldr	r2, .L113+20
 1858 00ae D36C     		ldr	r3, [r2, #76]
 1859 00b0 23F48043 		bic	r3, r3, #16384
 1860 00b4 D364     		str	r3, [r2, #76]
 1861              	.L104:
ARM GAS  C:\Users\purdu\AppData\Local\Temp\cc9o02Oa.s 			page 52


 695:Core/Src/adc.c **** 
 1862              		.loc 1 695 5 view .LVU673
 1863 00b6 4FF46071 		mov	r1, #896
 1864 00ba 1748     		ldr	r0, .L113+36
 1865              	.LVL84:
 695:Core/Src/adc.c **** 
 1866              		.loc 1 695 5 is_stmt 0 view .LVU674
 1867 00bc FFF7FEFF 		bl	HAL_GPIO_DeInit
 1868              	.LVL85:
 698:Core/Src/adc.c ****   /* USER CODE BEGIN ADC3_MspDeInit 1 */
 1869              		.loc 1 698 5 is_stmt 1 view .LVU675
 1870 00c0 606D     		ldr	r0, [r4, #84]
 1871 00c2 FFF7FEFF 		bl	HAL_DMA_DeInit
 1872              	.LVL86:
 1873 00c6 D0E7     		b	.L97
 1874              	.LVL87:
 1875              	.L112:
 709:Core/Src/adc.c ****     if(HAL_RCC_ADC345_CLK_ENABLED==0){
 1876              		.loc 1 709 5 view .LVU676
 709:Core/Src/adc.c ****     if(HAL_RCC_ADC345_CLK_ENABLED==0){
 1877              		.loc 1 709 31 is_stmt 0 view .LVU677
 1878 00c8 0E4A     		ldr	r2, .L113+16
 1879 00ca 1368     		ldr	r3, [r2]
 1880 00cc 013B     		subs	r3, r3, #1
 1881 00ce 1360     		str	r3, [r2]
 710:Core/Src/adc.c ****       __HAL_RCC_ADC345_CLK_DISABLE();
 1882              		.loc 1 710 5 is_stmt 1 view .LVU678
 710:Core/Src/adc.c ****       __HAL_RCC_ADC345_CLK_DISABLE();
 1883              		.loc 1 710 7 is_stmt 0 view .LVU679
 1884 00d0 23B9     		cbnz	r3, .L106
 711:Core/Src/adc.c ****     }
 1885              		.loc 1 711 7 is_stmt 1 view .LVU680
 1886 00d2 0D4A     		ldr	r2, .L113+20
 1887 00d4 D36C     		ldr	r3, [r2, #76]
 1888 00d6 23F48043 		bic	r3, r3, #16384
 1889 00da D364     		str	r3, [r2, #76]
 1890              	.L106:
 718:Core/Src/adc.c **** 
 1891              		.loc 1 718 5 view .LVU681
 1892 00dc 4FF48051 		mov	r1, #4096
 1893 00e0 0C48     		ldr	r0, .L113+32
 1894              	.LVL88:
 718:Core/Src/adc.c **** 
 1895              		.loc 1 718 5 is_stmt 0 view .LVU682
 1896 00e2 FFF7FEFF 		bl	HAL_GPIO_DeInit
 1897              	.LVL89:
 720:Core/Src/adc.c **** 
 1898              		.loc 1 720 5 is_stmt 1 view .LVU683
 1899 00e6 4FF48071 		mov	r1, #256
 1900 00ea 0C48     		ldr	r0, .L113+40
 1901 00ec FFF7FEFF 		bl	HAL_GPIO_DeInit
 1902              	.LVL90:
 1903 00f0 BBE7     		b	.L97
 1904              	.L114:
 1905 00f2 00BF     		.align	2
 1906              	.L113:
 1907 00f4 00010050 		.word	1342177536
ARM GAS  C:\Users\purdu\AppData\Local\Temp\cc9o02Oa.s 			page 53


 1908 00f8 00040050 		.word	1342178304
 1909 00fc 00050050 		.word	1342178560
 1910 0100 00060050 		.word	1342178816
 1911 0104 00000000 		.word	HAL_RCC_ADC345_CLK_ENABLED
 1912 0108 00100240 		.word	1073876992
 1913 010c 00000000 		.word	HAL_RCC_ADC12_CLK_ENABLED
 1914 0110 00080048 		.word	1207961600
 1915 0114 00040048 		.word	1207960576
 1916 0118 00100048 		.word	1207963648
 1917 011c 000C0048 		.word	1207962624
 1918              		.cfi_endproc
 1919              	.LFE335:
 1921              		.section	.bss.HAL_RCC_ADC345_CLK_ENABLED,"aw",%nobits
 1922              		.align	2
 1925              	HAL_RCC_ADC345_CLK_ENABLED:
 1926 0000 00000000 		.space	4
 1927              		.section	.bss.HAL_RCC_ADC12_CLK_ENABLED,"aw",%nobits
 1928              		.align	2
 1931              	HAL_RCC_ADC12_CLK_ENABLED:
 1932 0000 00000000 		.space	4
 1933              		.global	hdma_adc3
 1934              		.section	.bss.hdma_adc3,"aw",%nobits
 1935              		.align	2
 1938              	hdma_adc3:
 1939 0000 00000000 		.space	96
 1939      00000000 
 1939      00000000 
 1939      00000000 
 1939      00000000 
 1940              		.global	hdma_adc2
 1941              		.section	.bss.hdma_adc2,"aw",%nobits
 1942              		.align	2
 1945              	hdma_adc2:
 1946 0000 00000000 		.space	96
 1946      00000000 
 1946      00000000 
 1946      00000000 
 1946      00000000 
 1947              		.global	hdma_adc1
 1948              		.section	.bss.hdma_adc1,"aw",%nobits
 1949              		.align	2
 1952              	hdma_adc1:
 1953 0000 00000000 		.space	96
 1953      00000000 
 1953      00000000 
 1953      00000000 
 1953      00000000 
 1954              		.global	hadc5
 1955              		.section	.bss.hadc5,"aw",%nobits
 1956              		.align	2
 1959              	hadc5:
 1960 0000 00000000 		.space	108
 1960      00000000 
 1960      00000000 
 1960      00000000 
 1960      00000000 
 1961              		.global	hadc4
ARM GAS  C:\Users\purdu\AppData\Local\Temp\cc9o02Oa.s 			page 54


 1962              		.section	.bss.hadc4,"aw",%nobits
 1963              		.align	2
 1966              	hadc4:
 1967 0000 00000000 		.space	108
 1967      00000000 
 1967      00000000 
 1967      00000000 
 1967      00000000 
 1968              		.global	hadc3
 1969              		.section	.bss.hadc3,"aw",%nobits
 1970              		.align	2
 1973              	hadc3:
 1974 0000 00000000 		.space	108
 1974      00000000 
 1974      00000000 
 1974      00000000 
 1974      00000000 
 1975              		.global	hadc2
 1976              		.section	.bss.hadc2,"aw",%nobits
 1977              		.align	2
 1980              	hadc2:
 1981 0000 00000000 		.space	108
 1981      00000000 
 1981      00000000 
 1981      00000000 
 1981      00000000 
 1982              		.global	hadc1
 1983              		.section	.bss.hadc1,"aw",%nobits
 1984              		.align	2
 1987              	hadc1:
 1988 0000 00000000 		.space	108
 1988      00000000 
 1988      00000000 
 1988      00000000 
 1988      00000000 
 1989              		.text
 1990              	.Letext0:
 1991              		.file 2 "c:\\msys64\\mingw64\\arm-none-eabi\\include\\machine\\_default_types.h"
 1992              		.file 3 "c:\\msys64\\mingw64\\arm-none-eabi\\include\\sys\\_stdint.h"
 1993              		.file 4 "Drivers/CMSIS/Device/ST/STM32G4xx/Include/stm32g473xx.h"
 1994              		.file 5 "Drivers/CMSIS/Device/ST/STM32G4xx/Include/stm32g4xx.h"
 1995              		.file 6 "Drivers/STM32G4xx_HAL_Driver/Inc/stm32g4xx_hal_def.h"
 1996              		.file 7 "Drivers/STM32G4xx_HAL_Driver/Inc/stm32g4xx_hal_rcc_ex.h"
 1997              		.file 8 "Drivers/STM32G4xx_HAL_Driver/Inc/stm32g4xx_hal_gpio.h"
 1998              		.file 9 "Drivers/STM32G4xx_HAL_Driver/Inc/stm32g4xx_hal_dma.h"
 1999              		.file 10 "Drivers/STM32G4xx_HAL_Driver/Inc/stm32g4xx_hal_adc.h"
 2000              		.file 11 "Drivers/STM32G4xx_HAL_Driver/Inc/stm32g4xx_hal_adc_ex.h"
 2001              		.file 12 "Core/Inc/adc.h"
 2002              		.file 13 "Core/Inc/main.h"
 2003              		.file 14 "<built-in>"
ARM GAS  C:\Users\purdu\AppData\Local\Temp\cc9o02Oa.s 			page 55

