ARM GAS  C:\Users\HRb\AppData\Local\Temp\ccj967tF.s 			page 1


   1              		.cpu cortex-m4
   2              		.arch armv7e-m
   3              		.fpu fpv4-sp-d16
   4              		.eabi_attribute 27, 1
   5              		.eabi_attribute 28, 1
   6              		.eabi_attribute 20, 1
   7              		.eabi_attribute 21, 1
   8              		.eabi_attribute 23, 3
   9              		.eabi_attribute 24, 1
  10              		.eabi_attribute 25, 1
  11              		.eabi_attribute 26, 1
  12              		.eabi_attribute 30, 1
  13              		.eabi_attribute 34, 1
  14              		.eabi_attribute 18, 4
  15              		.file	"stm32g4xx_hal_pwr_ex.c"
  16              		.text
  17              	.Ltext0:
  18              		.cfi_sections	.debug_frame
  19              		.file 1 "Drivers/STM32G4xx_HAL_Driver/Src/stm32g4xx_hal_pwr_ex.c"
  20              		.section	.text.HAL_PWREx_GetVoltageRange,"ax",%progbits
  21              		.align	1
  22              		.global	HAL_PWREx_GetVoltageRange
  23              		.syntax unified
  24              		.thumb
  25              		.thumb_func
  27              	HAL_PWREx_GetVoltageRange:
  28              	.LFB329:
   1:Drivers/STM32G4xx_HAL_Driver/Src/stm32g4xx_hal_pwr_ex.c **** /**
   2:Drivers/STM32G4xx_HAL_Driver/Src/stm32g4xx_hal_pwr_ex.c ****   ******************************************************************************
   3:Drivers/STM32G4xx_HAL_Driver/Src/stm32g4xx_hal_pwr_ex.c ****   * @file    stm32g4xx_hal_pwr_ex.c
   4:Drivers/STM32G4xx_HAL_Driver/Src/stm32g4xx_hal_pwr_ex.c ****   * @author  MCD Application Team
   5:Drivers/STM32G4xx_HAL_Driver/Src/stm32g4xx_hal_pwr_ex.c ****   * @brief   Extended PWR HAL module driver.
   6:Drivers/STM32G4xx_HAL_Driver/Src/stm32g4xx_hal_pwr_ex.c ****   *          This file provides firmware functions to manage the following
   7:Drivers/STM32G4xx_HAL_Driver/Src/stm32g4xx_hal_pwr_ex.c ****   *          functionalities of the Power Controller (PWR) peripheral:
   8:Drivers/STM32G4xx_HAL_Driver/Src/stm32g4xx_hal_pwr_ex.c ****   *           + Extended Initialization and de-initialization functions
   9:Drivers/STM32G4xx_HAL_Driver/Src/stm32g4xx_hal_pwr_ex.c ****   *           + Extended Peripheral Control functions
  10:Drivers/STM32G4xx_HAL_Driver/Src/stm32g4xx_hal_pwr_ex.c ****   *
  11:Drivers/STM32G4xx_HAL_Driver/Src/stm32g4xx_hal_pwr_ex.c ****   ******************************************************************************
  12:Drivers/STM32G4xx_HAL_Driver/Src/stm32g4xx_hal_pwr_ex.c ****   * @attention
  13:Drivers/STM32G4xx_HAL_Driver/Src/stm32g4xx_hal_pwr_ex.c ****   *
  14:Drivers/STM32G4xx_HAL_Driver/Src/stm32g4xx_hal_pwr_ex.c ****   * Copyright (c) 2019 STMicroelectronics.
  15:Drivers/STM32G4xx_HAL_Driver/Src/stm32g4xx_hal_pwr_ex.c ****   * All rights reserved.
  16:Drivers/STM32G4xx_HAL_Driver/Src/stm32g4xx_hal_pwr_ex.c ****   *
  17:Drivers/STM32G4xx_HAL_Driver/Src/stm32g4xx_hal_pwr_ex.c ****   * This software is licensed under terms that can be found in the LICENSE file
  18:Drivers/STM32G4xx_HAL_Driver/Src/stm32g4xx_hal_pwr_ex.c ****   * in the root directory of this software component.
  19:Drivers/STM32G4xx_HAL_Driver/Src/stm32g4xx_hal_pwr_ex.c ****   * If no LICENSE file comes with this software, it is provided AS-IS.
  20:Drivers/STM32G4xx_HAL_Driver/Src/stm32g4xx_hal_pwr_ex.c ****   *
  21:Drivers/STM32G4xx_HAL_Driver/Src/stm32g4xx_hal_pwr_ex.c ****   ******************************************************************************
  22:Drivers/STM32G4xx_HAL_Driver/Src/stm32g4xx_hal_pwr_ex.c ****   */
  23:Drivers/STM32G4xx_HAL_Driver/Src/stm32g4xx_hal_pwr_ex.c **** 
  24:Drivers/STM32G4xx_HAL_Driver/Src/stm32g4xx_hal_pwr_ex.c **** /* Includes ------------------------------------------------------------------*/
  25:Drivers/STM32G4xx_HAL_Driver/Src/stm32g4xx_hal_pwr_ex.c **** #include "stm32g4xx_hal.h"
  26:Drivers/STM32G4xx_HAL_Driver/Src/stm32g4xx_hal_pwr_ex.c **** 
  27:Drivers/STM32G4xx_HAL_Driver/Src/stm32g4xx_hal_pwr_ex.c **** /** @addtogroup STM32G4xx_HAL_Driver
  28:Drivers/STM32G4xx_HAL_Driver/Src/stm32g4xx_hal_pwr_ex.c ****   * @{
  29:Drivers/STM32G4xx_HAL_Driver/Src/stm32g4xx_hal_pwr_ex.c ****   */
  30:Drivers/STM32G4xx_HAL_Driver/Src/stm32g4xx_hal_pwr_ex.c **** 
ARM GAS  C:\Users\HRb\AppData\Local\Temp\ccj967tF.s 			page 2


  31:Drivers/STM32G4xx_HAL_Driver/Src/stm32g4xx_hal_pwr_ex.c **** /** @defgroup PWREx PWREx
  32:Drivers/STM32G4xx_HAL_Driver/Src/stm32g4xx_hal_pwr_ex.c ****   * @brief PWR Extended HAL module driver
  33:Drivers/STM32G4xx_HAL_Driver/Src/stm32g4xx_hal_pwr_ex.c ****   * @{
  34:Drivers/STM32G4xx_HAL_Driver/Src/stm32g4xx_hal_pwr_ex.c ****   */
  35:Drivers/STM32G4xx_HAL_Driver/Src/stm32g4xx_hal_pwr_ex.c **** 
  36:Drivers/STM32G4xx_HAL_Driver/Src/stm32g4xx_hal_pwr_ex.c **** #ifdef HAL_PWR_MODULE_ENABLED
  37:Drivers/STM32G4xx_HAL_Driver/Src/stm32g4xx_hal_pwr_ex.c **** 
  38:Drivers/STM32G4xx_HAL_Driver/Src/stm32g4xx_hal_pwr_ex.c **** /* Private typedef -----------------------------------------------------------*/
  39:Drivers/STM32G4xx_HAL_Driver/Src/stm32g4xx_hal_pwr_ex.c **** /* Private define ------------------------------------------------------------*/
  40:Drivers/STM32G4xx_HAL_Driver/Src/stm32g4xx_hal_pwr_ex.c **** 
  41:Drivers/STM32G4xx_HAL_Driver/Src/stm32g4xx_hal_pwr_ex.c **** 
  42:Drivers/STM32G4xx_HAL_Driver/Src/stm32g4xx_hal_pwr_ex.c **** #if defined (STM32G471xx) || defined (STM32G473xx) || defined (STM32G474xx) || defined (STM32G483xx
  43:Drivers/STM32G4xx_HAL_Driver/Src/stm32g4xx_hal_pwr_ex.c **** #define PWR_PORTF_AVAILABLE_PINS   0x0000FFFFU /* PF0..PF15 */
  44:Drivers/STM32G4xx_HAL_Driver/Src/stm32g4xx_hal_pwr_ex.c **** #define PWR_PORTG_AVAILABLE_PINS   0x000007FFU /* PG0..PG10 */
  45:Drivers/STM32G4xx_HAL_Driver/Src/stm32g4xx_hal_pwr_ex.c **** #elif defined (STM32G431xx) || defined (STM32G441xx) || defined (STM32GBK1CB) || defined (STM32G491
  46:Drivers/STM32G4xx_HAL_Driver/Src/stm32g4xx_hal_pwr_ex.c **** #define PWR_PORTF_AVAILABLE_PINS   0x00000607U /* PF0..PF2 and PF9 and PF10 */
  47:Drivers/STM32G4xx_HAL_Driver/Src/stm32g4xx_hal_pwr_ex.c **** #define PWR_PORTG_AVAILABLE_PINS   0x00000400U /* PG10 */
  48:Drivers/STM32G4xx_HAL_Driver/Src/stm32g4xx_hal_pwr_ex.c **** #endif
  49:Drivers/STM32G4xx_HAL_Driver/Src/stm32g4xx_hal_pwr_ex.c **** 
  50:Drivers/STM32G4xx_HAL_Driver/Src/stm32g4xx_hal_pwr_ex.c **** /** @defgroup PWR_Extended_Private_Defines PWR Extended Private Defines
  51:Drivers/STM32G4xx_HAL_Driver/Src/stm32g4xx_hal_pwr_ex.c ****   * @{
  52:Drivers/STM32G4xx_HAL_Driver/Src/stm32g4xx_hal_pwr_ex.c ****   */
  53:Drivers/STM32G4xx_HAL_Driver/Src/stm32g4xx_hal_pwr_ex.c **** 
  54:Drivers/STM32G4xx_HAL_Driver/Src/stm32g4xx_hal_pwr_ex.c **** /** @defgroup PWREx_PVM_Mode_Mask PWR PVM Mode Mask
  55:Drivers/STM32G4xx_HAL_Driver/Src/stm32g4xx_hal_pwr_ex.c ****   * @{
  56:Drivers/STM32G4xx_HAL_Driver/Src/stm32g4xx_hal_pwr_ex.c ****   */
  57:Drivers/STM32G4xx_HAL_Driver/Src/stm32g4xx_hal_pwr_ex.c **** #define PVM_MODE_IT               0x00010000U    /*!< Mask for interruption yielded by PVM threshol
  58:Drivers/STM32G4xx_HAL_Driver/Src/stm32g4xx_hal_pwr_ex.c **** #define PVM_MODE_EVT              0x00020000U    /*!< Mask for event yielded by PVM threshold cross
  59:Drivers/STM32G4xx_HAL_Driver/Src/stm32g4xx_hal_pwr_ex.c **** #define PVM_RISING_EDGE           0x00000001U    /*!< Mask for rising edge set as PVM trigger      
  60:Drivers/STM32G4xx_HAL_Driver/Src/stm32g4xx_hal_pwr_ex.c **** #define PVM_FALLING_EDGE          0x00000002U    /*!< Mask for falling edge set as PVM trigger     
  61:Drivers/STM32G4xx_HAL_Driver/Src/stm32g4xx_hal_pwr_ex.c **** /**
  62:Drivers/STM32G4xx_HAL_Driver/Src/stm32g4xx_hal_pwr_ex.c ****   * @}
  63:Drivers/STM32G4xx_HAL_Driver/Src/stm32g4xx_hal_pwr_ex.c ****   */
  64:Drivers/STM32G4xx_HAL_Driver/Src/stm32g4xx_hal_pwr_ex.c **** 
  65:Drivers/STM32G4xx_HAL_Driver/Src/stm32g4xx_hal_pwr_ex.c **** /** @defgroup PWREx_TimeOut_Value PWR Extended Flag Setting Time Out Value
  66:Drivers/STM32G4xx_HAL_Driver/Src/stm32g4xx_hal_pwr_ex.c ****   * @{
  67:Drivers/STM32G4xx_HAL_Driver/Src/stm32g4xx_hal_pwr_ex.c ****   */
  68:Drivers/STM32G4xx_HAL_Driver/Src/stm32g4xx_hal_pwr_ex.c **** #define PWR_FLAG_SETTING_DELAY_US                      50UL   /*!< Time out value for REGLPF and VO
  69:Drivers/STM32G4xx_HAL_Driver/Src/stm32g4xx_hal_pwr_ex.c **** /**
  70:Drivers/STM32G4xx_HAL_Driver/Src/stm32g4xx_hal_pwr_ex.c ****   * @}
  71:Drivers/STM32G4xx_HAL_Driver/Src/stm32g4xx_hal_pwr_ex.c ****   */
  72:Drivers/STM32G4xx_HAL_Driver/Src/stm32g4xx_hal_pwr_ex.c **** 
  73:Drivers/STM32G4xx_HAL_Driver/Src/stm32g4xx_hal_pwr_ex.c **** 
  74:Drivers/STM32G4xx_HAL_Driver/Src/stm32g4xx_hal_pwr_ex.c **** 
  75:Drivers/STM32G4xx_HAL_Driver/Src/stm32g4xx_hal_pwr_ex.c **** /**
  76:Drivers/STM32G4xx_HAL_Driver/Src/stm32g4xx_hal_pwr_ex.c ****   * @}
  77:Drivers/STM32G4xx_HAL_Driver/Src/stm32g4xx_hal_pwr_ex.c ****   */
  78:Drivers/STM32G4xx_HAL_Driver/Src/stm32g4xx_hal_pwr_ex.c **** 
  79:Drivers/STM32G4xx_HAL_Driver/Src/stm32g4xx_hal_pwr_ex.c **** 
  80:Drivers/STM32G4xx_HAL_Driver/Src/stm32g4xx_hal_pwr_ex.c **** 
  81:Drivers/STM32G4xx_HAL_Driver/Src/stm32g4xx_hal_pwr_ex.c **** /* Private macro -------------------------------------------------------------*/
  82:Drivers/STM32G4xx_HAL_Driver/Src/stm32g4xx_hal_pwr_ex.c **** /* Private variables ---------------------------------------------------------*/
  83:Drivers/STM32G4xx_HAL_Driver/Src/stm32g4xx_hal_pwr_ex.c **** /* Private function prototypes -----------------------------------------------*/
  84:Drivers/STM32G4xx_HAL_Driver/Src/stm32g4xx_hal_pwr_ex.c **** /* Exported functions --------------------------------------------------------*/
  85:Drivers/STM32G4xx_HAL_Driver/Src/stm32g4xx_hal_pwr_ex.c **** 
  86:Drivers/STM32G4xx_HAL_Driver/Src/stm32g4xx_hal_pwr_ex.c **** /** @defgroup PWREx_Exported_Functions PWR Extended Exported Functions
  87:Drivers/STM32G4xx_HAL_Driver/Src/stm32g4xx_hal_pwr_ex.c ****   * @{
ARM GAS  C:\Users\HRb\AppData\Local\Temp\ccj967tF.s 			page 3


  88:Drivers/STM32G4xx_HAL_Driver/Src/stm32g4xx_hal_pwr_ex.c ****   */
  89:Drivers/STM32G4xx_HAL_Driver/Src/stm32g4xx_hal_pwr_ex.c **** 
  90:Drivers/STM32G4xx_HAL_Driver/Src/stm32g4xx_hal_pwr_ex.c **** /** @defgroup PWREx_Exported_Functions_Group1 Extended Peripheral Control functions
  91:Drivers/STM32G4xx_HAL_Driver/Src/stm32g4xx_hal_pwr_ex.c ****   *  @brief   Extended Peripheral Control functions
  92:Drivers/STM32G4xx_HAL_Driver/Src/stm32g4xx_hal_pwr_ex.c ****   *
  93:Drivers/STM32G4xx_HAL_Driver/Src/stm32g4xx_hal_pwr_ex.c **** @verbatim
  94:Drivers/STM32G4xx_HAL_Driver/Src/stm32g4xx_hal_pwr_ex.c ****  ===============================================================================
  95:Drivers/STM32G4xx_HAL_Driver/Src/stm32g4xx_hal_pwr_ex.c ****               ##### Extended Peripheral Initialization and de-initialization functions #####
  96:Drivers/STM32G4xx_HAL_Driver/Src/stm32g4xx_hal_pwr_ex.c ****  ===============================================================================
  97:Drivers/STM32G4xx_HAL_Driver/Src/stm32g4xx_hal_pwr_ex.c ****     [..]
  98:Drivers/STM32G4xx_HAL_Driver/Src/stm32g4xx_hal_pwr_ex.c **** 
  99:Drivers/STM32G4xx_HAL_Driver/Src/stm32g4xx_hal_pwr_ex.c **** @endverbatim
 100:Drivers/STM32G4xx_HAL_Driver/Src/stm32g4xx_hal_pwr_ex.c ****   * @{
 101:Drivers/STM32G4xx_HAL_Driver/Src/stm32g4xx_hal_pwr_ex.c ****   */
 102:Drivers/STM32G4xx_HAL_Driver/Src/stm32g4xx_hal_pwr_ex.c **** 
 103:Drivers/STM32G4xx_HAL_Driver/Src/stm32g4xx_hal_pwr_ex.c **** 
 104:Drivers/STM32G4xx_HAL_Driver/Src/stm32g4xx_hal_pwr_ex.c **** /**
 105:Drivers/STM32G4xx_HAL_Driver/Src/stm32g4xx_hal_pwr_ex.c ****   * @brief Return Voltage Scaling Range.
 106:Drivers/STM32G4xx_HAL_Driver/Src/stm32g4xx_hal_pwr_ex.c ****   * @retval VOS bit field (PWR_REGULATOR_VOLTAGE_SCALE1 or PWR_REGULATOR_VOLTAGE_SCALE2
 107:Drivers/STM32G4xx_HAL_Driver/Src/stm32g4xx_hal_pwr_ex.c ****   *         or PWR_REGULATOR_VOLTAGE_SCALE1_BOOST when applicable)
 108:Drivers/STM32G4xx_HAL_Driver/Src/stm32g4xx_hal_pwr_ex.c ****   */
 109:Drivers/STM32G4xx_HAL_Driver/Src/stm32g4xx_hal_pwr_ex.c **** uint32_t HAL_PWREx_GetVoltageRange(void)
 110:Drivers/STM32G4xx_HAL_Driver/Src/stm32g4xx_hal_pwr_ex.c **** {
  29              		.loc 1 110 1 view -0
  30              		.cfi_startproc
  31              		@ args = 0, pretend = 0, frame = 0
  32              		@ frame_needed = 0, uses_anonymous_args = 0
  33              		@ link register save eliminated.
 111:Drivers/STM32G4xx_HAL_Driver/Src/stm32g4xx_hal_pwr_ex.c ****   if (READ_BIT(PWR->CR1, PWR_CR1_VOS) == PWR_REGULATOR_VOLTAGE_SCALE2)
  34              		.loc 1 111 3 view .LVU1
  35              		.loc 1 111 7 is_stmt 0 view .LVU2
  36 0000 074B     		ldr	r3, .L4
  37 0002 1868     		ldr	r0, [r3]
  38 0004 00F4C060 		and	r0, r0, #1536
  39              		.loc 1 111 6 view .LVU3
  40 0008 B0F5806F 		cmp	r0, #1024
  41 000c 04D0     		beq	.L1
 112:Drivers/STM32G4xx_HAL_Driver/Src/stm32g4xx_hal_pwr_ex.c ****   {
 113:Drivers/STM32G4xx_HAL_Driver/Src/stm32g4xx_hal_pwr_ex.c ****     return PWR_REGULATOR_VOLTAGE_SCALE2;
 114:Drivers/STM32G4xx_HAL_Driver/Src/stm32g4xx_hal_pwr_ex.c ****   }
 115:Drivers/STM32G4xx_HAL_Driver/Src/stm32g4xx_hal_pwr_ex.c ****   else if (READ_BIT(PWR->CR5, PWR_CR5_R1MODE) == PWR_CR5_R1MODE)
  42              		.loc 1 115 8 is_stmt 1 view .LVU4
  43              		.loc 1 115 12 is_stmt 0 view .LVU5
  44 000e D3F88000 		ldr	r0, [r3, #128]
  45              		.loc 1 115 11 view .LVU6
  46 0012 10F48070 		ands	r0, r0, #256
  47 0016 00D1     		bne	.L3
  48              	.L1:
 116:Drivers/STM32G4xx_HAL_Driver/Src/stm32g4xx_hal_pwr_ex.c ****   {
 117:Drivers/STM32G4xx_HAL_Driver/Src/stm32g4xx_hal_pwr_ex.c ****     /* PWR_CR5_R1MODE bit set means that Range 1 Boost is disabled */
 118:Drivers/STM32G4xx_HAL_Driver/Src/stm32g4xx_hal_pwr_ex.c ****     return PWR_REGULATOR_VOLTAGE_SCALE1;
 119:Drivers/STM32G4xx_HAL_Driver/Src/stm32g4xx_hal_pwr_ex.c ****   }
 120:Drivers/STM32G4xx_HAL_Driver/Src/stm32g4xx_hal_pwr_ex.c ****   else
 121:Drivers/STM32G4xx_HAL_Driver/Src/stm32g4xx_hal_pwr_ex.c ****   {
 122:Drivers/STM32G4xx_HAL_Driver/Src/stm32g4xx_hal_pwr_ex.c ****     return PWR_REGULATOR_VOLTAGE_SCALE1_BOOST;
 123:Drivers/STM32G4xx_HAL_Driver/Src/stm32g4xx_hal_pwr_ex.c ****   }
 124:Drivers/STM32G4xx_HAL_Driver/Src/stm32g4xx_hal_pwr_ex.c **** }
ARM GAS  C:\Users\HRb\AppData\Local\Temp\ccj967tF.s 			page 4


  49              		.loc 1 124 1 view .LVU7
  50 0018 7047     		bx	lr
  51              	.L3:
 118:Drivers/STM32G4xx_HAL_Driver/Src/stm32g4xx_hal_pwr_ex.c ****   }
  52              		.loc 1 118 12 view .LVU8
  53 001a 4FF40070 		mov	r0, #512
  54 001e FBE7     		b	.L1
  55              	.L5:
  56              		.align	2
  57              	.L4:
  58 0020 00700040 		.word	1073770496
  59              		.cfi_endproc
  60              	.LFE329:
  62              		.section	.text.HAL_PWREx_ControlVoltageScaling,"ax",%progbits
  63              		.align	1
  64              		.global	HAL_PWREx_ControlVoltageScaling
  65              		.syntax unified
  66              		.thumb
  67              		.thumb_func
  69              	HAL_PWREx_ControlVoltageScaling:
  70              	.LVL0:
  71              	.LFB330:
 125:Drivers/STM32G4xx_HAL_Driver/Src/stm32g4xx_hal_pwr_ex.c **** 
 126:Drivers/STM32G4xx_HAL_Driver/Src/stm32g4xx_hal_pwr_ex.c **** 
 127:Drivers/STM32G4xx_HAL_Driver/Src/stm32g4xx_hal_pwr_ex.c **** 
 128:Drivers/STM32G4xx_HAL_Driver/Src/stm32g4xx_hal_pwr_ex.c **** /**
 129:Drivers/STM32G4xx_HAL_Driver/Src/stm32g4xx_hal_pwr_ex.c ****   * @brief Configure the main internal regulator output voltage.
 130:Drivers/STM32G4xx_HAL_Driver/Src/stm32g4xx_hal_pwr_ex.c ****   * @param  VoltageScaling: specifies the regulator output voltage to achieve
 131:Drivers/STM32G4xx_HAL_Driver/Src/stm32g4xx_hal_pwr_ex.c ****   *         a tradeoff between performance and power consumption.
 132:Drivers/STM32G4xx_HAL_Driver/Src/stm32g4xx_hal_pwr_ex.c ****   *          This parameter can be one of the following values:
 133:Drivers/STM32G4xx_HAL_Driver/Src/stm32g4xx_hal_pwr_ex.c ****   *            @arg @ref PWR_REGULATOR_VOLTAGE_SCALE1_BOOST when available, Regulator voltage outpu
 134:Drivers/STM32G4xx_HAL_Driver/Src/stm32g4xx_hal_pwr_ex.c ****   *                                                typical output voltage at 1.28 V,
 135:Drivers/STM32G4xx_HAL_Driver/Src/stm32g4xx_hal_pwr_ex.c ****   *                                                system frequency up to 170 MHz.
 136:Drivers/STM32G4xx_HAL_Driver/Src/stm32g4xx_hal_pwr_ex.c ****   *            @arg @ref PWR_REGULATOR_VOLTAGE_SCALE1 Regulator voltage output range 1 mode,
 137:Drivers/STM32G4xx_HAL_Driver/Src/stm32g4xx_hal_pwr_ex.c ****   *                                                typical output voltage at 1.2 V,
 138:Drivers/STM32G4xx_HAL_Driver/Src/stm32g4xx_hal_pwr_ex.c ****   *                                                system frequency up to 150 MHz.
 139:Drivers/STM32G4xx_HAL_Driver/Src/stm32g4xx_hal_pwr_ex.c ****   *            @arg @ref PWR_REGULATOR_VOLTAGE_SCALE2 Regulator voltage output range 2 mode,
 140:Drivers/STM32G4xx_HAL_Driver/Src/stm32g4xx_hal_pwr_ex.c ****   *                                                typical output voltage at 1.0 V,
 141:Drivers/STM32G4xx_HAL_Driver/Src/stm32g4xx_hal_pwr_ex.c ****   *                                                system frequency up to 26 MHz.
 142:Drivers/STM32G4xx_HAL_Driver/Src/stm32g4xx_hal_pwr_ex.c ****   * @note  When moving from Range 1 to Range 2, the system frequency must be decreased to
 143:Drivers/STM32G4xx_HAL_Driver/Src/stm32g4xx_hal_pwr_ex.c ****   *        a value below 26 MHz before calling HAL_PWREx_ControlVoltageScaling() API.
 144:Drivers/STM32G4xx_HAL_Driver/Src/stm32g4xx_hal_pwr_ex.c ****   *        When moving from Range 2 to Range 1, the system frequency can be increased to
 145:Drivers/STM32G4xx_HAL_Driver/Src/stm32g4xx_hal_pwr_ex.c ****   *        a value up to 150 MHz after calling HAL_PWREx_ControlVoltageScaling() API.
 146:Drivers/STM32G4xx_HAL_Driver/Src/stm32g4xx_hal_pwr_ex.c ****   *        When moving from Range 1 to Boost Mode Range 1, the system frequency can be increased to
 147:Drivers/STM32G4xx_HAL_Driver/Src/stm32g4xx_hal_pwr_ex.c ****   *        a value up to 170 MHz after calling HAL_PWREx_ControlVoltageScaling() API.
 148:Drivers/STM32G4xx_HAL_Driver/Src/stm32g4xx_hal_pwr_ex.c ****   * @note  When moving from Range 2 to Range 1, the API waits for VOSF flag to be
 149:Drivers/STM32G4xx_HAL_Driver/Src/stm32g4xx_hal_pwr_ex.c ****   *        cleared before returning the status. If the flag is not cleared within
 150:Drivers/STM32G4xx_HAL_Driver/Src/stm32g4xx_hal_pwr_ex.c ****   *        50 microseconds, HAL_TIMEOUT status is reported.
 151:Drivers/STM32G4xx_HAL_Driver/Src/stm32g4xx_hal_pwr_ex.c ****   * @retval HAL Status
 152:Drivers/STM32G4xx_HAL_Driver/Src/stm32g4xx_hal_pwr_ex.c ****   */
 153:Drivers/STM32G4xx_HAL_Driver/Src/stm32g4xx_hal_pwr_ex.c **** HAL_StatusTypeDef HAL_PWREx_ControlVoltageScaling(uint32_t VoltageScaling)
 154:Drivers/STM32G4xx_HAL_Driver/Src/stm32g4xx_hal_pwr_ex.c **** {
  72              		.loc 1 154 1 is_stmt 1 view -0
  73              		.cfi_startproc
  74              		@ args = 0, pretend = 0, frame = 0
  75              		@ frame_needed = 0, uses_anonymous_args = 0
  76              		@ link register save eliminated.
ARM GAS  C:\Users\HRb\AppData\Local\Temp\ccj967tF.s 			page 5


 155:Drivers/STM32G4xx_HAL_Driver/Src/stm32g4xx_hal_pwr_ex.c ****   uint32_t wait_loop_index;
  77              		.loc 1 155 3 view .LVU10
 156:Drivers/STM32G4xx_HAL_Driver/Src/stm32g4xx_hal_pwr_ex.c **** 
 157:Drivers/STM32G4xx_HAL_Driver/Src/stm32g4xx_hal_pwr_ex.c ****   assert_param(IS_PWR_VOLTAGE_SCALING_RANGE(VoltageScaling));
  78              		.loc 1 157 3 view .LVU11
 158:Drivers/STM32G4xx_HAL_Driver/Src/stm32g4xx_hal_pwr_ex.c **** 
 159:Drivers/STM32G4xx_HAL_Driver/Src/stm32g4xx_hal_pwr_ex.c ****   if (VoltageScaling == PWR_REGULATOR_VOLTAGE_SCALE1_BOOST)
  79              		.loc 1 159 3 view .LVU12
  80              		.loc 1 159 6 is_stmt 0 view .LVU13
  81 0000 0028     		cmp	r0, #0
  82 0002 36D1     		bne	.L7
 160:Drivers/STM32G4xx_HAL_Driver/Src/stm32g4xx_hal_pwr_ex.c ****   {
 161:Drivers/STM32G4xx_HAL_Driver/Src/stm32g4xx_hal_pwr_ex.c ****     /* If current range is range 2 */
 162:Drivers/STM32G4xx_HAL_Driver/Src/stm32g4xx_hal_pwr_ex.c ****     if (READ_BIT(PWR->CR1, PWR_CR1_VOS) == PWR_REGULATOR_VOLTAGE_SCALE2)
  83              		.loc 1 162 5 is_stmt 1 view .LVU14
  84              		.loc 1 162 9 is_stmt 0 view .LVU15
  85 0004 3E4B     		ldr	r3, .L23
  86 0006 1B68     		ldr	r3, [r3]
  87 0008 03F4C063 		and	r3, r3, #1536
  88              		.loc 1 162 8 view .LVU16
  89 000c B3F5806F 		cmp	r3, #1024
  90 0010 08D0     		beq	.L20
 163:Drivers/STM32G4xx_HAL_Driver/Src/stm32g4xx_hal_pwr_ex.c ****     {
 164:Drivers/STM32G4xx_HAL_Driver/Src/stm32g4xx_hal_pwr_ex.c ****       /* Make sure Range 1 Boost is enabled */
 165:Drivers/STM32G4xx_HAL_Driver/Src/stm32g4xx_hal_pwr_ex.c ****       CLEAR_BIT(PWR->CR5, PWR_CR5_R1MODE);
 166:Drivers/STM32G4xx_HAL_Driver/Src/stm32g4xx_hal_pwr_ex.c **** 
 167:Drivers/STM32G4xx_HAL_Driver/Src/stm32g4xx_hal_pwr_ex.c ****       /* Set Range 1 */
 168:Drivers/STM32G4xx_HAL_Driver/Src/stm32g4xx_hal_pwr_ex.c ****       MODIFY_REG(PWR->CR1, PWR_CR1_VOS, PWR_REGULATOR_VOLTAGE_SCALE1);
 169:Drivers/STM32G4xx_HAL_Driver/Src/stm32g4xx_hal_pwr_ex.c **** 
 170:Drivers/STM32G4xx_HAL_Driver/Src/stm32g4xx_hal_pwr_ex.c ****       /* Wait until VOSF is cleared */
 171:Drivers/STM32G4xx_HAL_Driver/Src/stm32g4xx_hal_pwr_ex.c ****       wait_loop_index = ((PWR_FLAG_SETTING_DELAY_US * SystemCoreClock) / 1000000U) + 1U;
 172:Drivers/STM32G4xx_HAL_Driver/Src/stm32g4xx_hal_pwr_ex.c ****       while ((HAL_IS_BIT_SET(PWR->SR2, PWR_SR2_VOSF)) && (wait_loop_index != 0U))
 173:Drivers/STM32G4xx_HAL_Driver/Src/stm32g4xx_hal_pwr_ex.c ****       {
 174:Drivers/STM32G4xx_HAL_Driver/Src/stm32g4xx_hal_pwr_ex.c ****         wait_loop_index--;
 175:Drivers/STM32G4xx_HAL_Driver/Src/stm32g4xx_hal_pwr_ex.c ****       }
 176:Drivers/STM32G4xx_HAL_Driver/Src/stm32g4xx_hal_pwr_ex.c ****       if (HAL_IS_BIT_SET(PWR->SR2, PWR_SR2_VOSF))
 177:Drivers/STM32G4xx_HAL_Driver/Src/stm32g4xx_hal_pwr_ex.c ****       {
 178:Drivers/STM32G4xx_HAL_Driver/Src/stm32g4xx_hal_pwr_ex.c ****         return HAL_TIMEOUT;
 179:Drivers/STM32G4xx_HAL_Driver/Src/stm32g4xx_hal_pwr_ex.c ****       }
 180:Drivers/STM32G4xx_HAL_Driver/Src/stm32g4xx_hal_pwr_ex.c ****     }
 181:Drivers/STM32G4xx_HAL_Driver/Src/stm32g4xx_hal_pwr_ex.c ****     /* If current range is range 1 normal or boost mode */
 182:Drivers/STM32G4xx_HAL_Driver/Src/stm32g4xx_hal_pwr_ex.c ****     else
 183:Drivers/STM32G4xx_HAL_Driver/Src/stm32g4xx_hal_pwr_ex.c ****     {
 184:Drivers/STM32G4xx_HAL_Driver/Src/stm32g4xx_hal_pwr_ex.c ****       /* Enable Range 1 Boost (no issue if bit already reset) */
 185:Drivers/STM32G4xx_HAL_Driver/Src/stm32g4xx_hal_pwr_ex.c ****       CLEAR_BIT(PWR->CR5, PWR_CR5_R1MODE);
  91              		.loc 1 185 7 is_stmt 1 view .LVU17
  92 0012 3B4A     		ldr	r2, .L23
  93 0014 D2F88030 		ldr	r3, [r2, #128]
  94 0018 23F48073 		bic	r3, r3, #256
  95 001c C2F88030 		str	r3, [r2, #128]
 186:Drivers/STM32G4xx_HAL_Driver/Src/stm32g4xx_hal_pwr_ex.c ****     }
 187:Drivers/STM32G4xx_HAL_Driver/Src/stm32g4xx_hal_pwr_ex.c ****   }
 188:Drivers/STM32G4xx_HAL_Driver/Src/stm32g4xx_hal_pwr_ex.c ****   else if (VoltageScaling == PWR_REGULATOR_VOLTAGE_SCALE1)
 189:Drivers/STM32G4xx_HAL_Driver/Src/stm32g4xx_hal_pwr_ex.c ****   {
 190:Drivers/STM32G4xx_HAL_Driver/Src/stm32g4xx_hal_pwr_ex.c ****     /* If current range is range 2 */
 191:Drivers/STM32G4xx_HAL_Driver/Src/stm32g4xx_hal_pwr_ex.c ****     if (READ_BIT(PWR->CR1, PWR_CR1_VOS) == PWR_REGULATOR_VOLTAGE_SCALE2)
 192:Drivers/STM32G4xx_HAL_Driver/Src/stm32g4xx_hal_pwr_ex.c ****     {
ARM GAS  C:\Users\HRb\AppData\Local\Temp\ccj967tF.s 			page 6


 193:Drivers/STM32G4xx_HAL_Driver/Src/stm32g4xx_hal_pwr_ex.c ****       /* Make sure Range 1 Boost is disabled */
 194:Drivers/STM32G4xx_HAL_Driver/Src/stm32g4xx_hal_pwr_ex.c ****       SET_BIT(PWR->CR5, PWR_CR5_R1MODE);
 195:Drivers/STM32G4xx_HAL_Driver/Src/stm32g4xx_hal_pwr_ex.c **** 
 196:Drivers/STM32G4xx_HAL_Driver/Src/stm32g4xx_hal_pwr_ex.c ****       /* Set Range 1 */
 197:Drivers/STM32G4xx_HAL_Driver/Src/stm32g4xx_hal_pwr_ex.c ****       MODIFY_REG(PWR->CR1, PWR_CR1_VOS, PWR_REGULATOR_VOLTAGE_SCALE1);
 198:Drivers/STM32G4xx_HAL_Driver/Src/stm32g4xx_hal_pwr_ex.c **** 
 199:Drivers/STM32G4xx_HAL_Driver/Src/stm32g4xx_hal_pwr_ex.c ****       /* Wait until VOSF is cleared */
 200:Drivers/STM32G4xx_HAL_Driver/Src/stm32g4xx_hal_pwr_ex.c ****       wait_loop_index = ((PWR_FLAG_SETTING_DELAY_US * SystemCoreClock) / 1000000U) + 1U;
 201:Drivers/STM32G4xx_HAL_Driver/Src/stm32g4xx_hal_pwr_ex.c ****       while ((HAL_IS_BIT_SET(PWR->SR2, PWR_SR2_VOSF)) && (wait_loop_index != 0U))
 202:Drivers/STM32G4xx_HAL_Driver/Src/stm32g4xx_hal_pwr_ex.c ****       {
 203:Drivers/STM32G4xx_HAL_Driver/Src/stm32g4xx_hal_pwr_ex.c ****         wait_loop_index--;
 204:Drivers/STM32G4xx_HAL_Driver/Src/stm32g4xx_hal_pwr_ex.c ****       }
 205:Drivers/STM32G4xx_HAL_Driver/Src/stm32g4xx_hal_pwr_ex.c ****       if (HAL_IS_BIT_SET(PWR->SR2, PWR_SR2_VOSF))
 206:Drivers/STM32G4xx_HAL_Driver/Src/stm32g4xx_hal_pwr_ex.c ****       {
 207:Drivers/STM32G4xx_HAL_Driver/Src/stm32g4xx_hal_pwr_ex.c ****         return HAL_TIMEOUT;
 208:Drivers/STM32G4xx_HAL_Driver/Src/stm32g4xx_hal_pwr_ex.c ****       }
 209:Drivers/STM32G4xx_HAL_Driver/Src/stm32g4xx_hal_pwr_ex.c ****     }
 210:Drivers/STM32G4xx_HAL_Driver/Src/stm32g4xx_hal_pwr_ex.c ****      /* If current range is range 1 normal or boost mode */
 211:Drivers/STM32G4xx_HAL_Driver/Src/stm32g4xx_hal_pwr_ex.c ****     else
 212:Drivers/STM32G4xx_HAL_Driver/Src/stm32g4xx_hal_pwr_ex.c ****     {
 213:Drivers/STM32G4xx_HAL_Driver/Src/stm32g4xx_hal_pwr_ex.c ****       /* Disable Range 1 Boost (no issue if bit already set) */
 214:Drivers/STM32G4xx_HAL_Driver/Src/stm32g4xx_hal_pwr_ex.c ****       SET_BIT(PWR->CR5, PWR_CR5_R1MODE);
 215:Drivers/STM32G4xx_HAL_Driver/Src/stm32g4xx_hal_pwr_ex.c ****     }
 216:Drivers/STM32G4xx_HAL_Driver/Src/stm32g4xx_hal_pwr_ex.c ****   }
 217:Drivers/STM32G4xx_HAL_Driver/Src/stm32g4xx_hal_pwr_ex.c ****   else
 218:Drivers/STM32G4xx_HAL_Driver/Src/stm32g4xx_hal_pwr_ex.c ****   {
 219:Drivers/STM32G4xx_HAL_Driver/Src/stm32g4xx_hal_pwr_ex.c ****     /* Set Range 2 */
 220:Drivers/STM32G4xx_HAL_Driver/Src/stm32g4xx_hal_pwr_ex.c ****     MODIFY_REG(PWR->CR1, PWR_CR1_VOS, PWR_REGULATOR_VOLTAGE_SCALE2);
 221:Drivers/STM32G4xx_HAL_Driver/Src/stm32g4xx_hal_pwr_ex.c ****     /* No need to wait for VOSF to be cleared for this transition */
 222:Drivers/STM32G4xx_HAL_Driver/Src/stm32g4xx_hal_pwr_ex.c ****     /* PWR_CR5_R1MODE bit setting has no effect in Range 2        */
 223:Drivers/STM32G4xx_HAL_Driver/Src/stm32g4xx_hal_pwr_ex.c ****   }
 224:Drivers/STM32G4xx_HAL_Driver/Src/stm32g4xx_hal_pwr_ex.c **** 
 225:Drivers/STM32G4xx_HAL_Driver/Src/stm32g4xx_hal_pwr_ex.c ****   return HAL_OK;
  96              		.loc 1 225 10 is_stmt 0 view .LVU18
  97 0020 0020     		movs	r0, #0
  98              	.LVL1:
  99              		.loc 1 225 10 view .LVU19
 100 0022 7047     		bx	lr
 101              	.LVL2:
 102              	.L20:
 165:Drivers/STM32G4xx_HAL_Driver/Src/stm32g4xx_hal_pwr_ex.c **** 
 103              		.loc 1 165 7 is_stmt 1 view .LVU20
 104 0024 364A     		ldr	r2, .L23
 105 0026 D2F88030 		ldr	r3, [r2, #128]
 106 002a 23F48073 		bic	r3, r3, #256
 107 002e C2F88030 		str	r3, [r2, #128]
 168:Drivers/STM32G4xx_HAL_Driver/Src/stm32g4xx_hal_pwr_ex.c **** 
 108              		.loc 1 168 7 view .LVU21
 109 0032 1368     		ldr	r3, [r2]
 110 0034 23F4C063 		bic	r3, r3, #1536
 111 0038 43F40073 		orr	r3, r3, #512
 112 003c 1360     		str	r3, [r2]
 171:Drivers/STM32G4xx_HAL_Driver/Src/stm32g4xx_hal_pwr_ex.c ****       while ((HAL_IS_BIT_SET(PWR->SR2, PWR_SR2_VOSF)) && (wait_loop_index != 0U))
 113              		.loc 1 171 7 view .LVU22
 171:Drivers/STM32G4xx_HAL_Driver/Src/stm32g4xx_hal_pwr_ex.c ****       while ((HAL_IS_BIT_SET(PWR->SR2, PWR_SR2_VOSF)) && (wait_loop_index != 0U))
 114              		.loc 1 171 53 is_stmt 0 view .LVU23
 115 003e 314B     		ldr	r3, .L23+4
ARM GAS  C:\Users\HRb\AppData\Local\Temp\ccj967tF.s 			page 7


 116 0040 1B68     		ldr	r3, [r3]
 117 0042 3222     		movs	r2, #50
 118 0044 02FB03F3 		mul	r3, r2, r3
 171:Drivers/STM32G4xx_HAL_Driver/Src/stm32g4xx_hal_pwr_ex.c ****       while ((HAL_IS_BIT_SET(PWR->SR2, PWR_SR2_VOSF)) && (wait_loop_index != 0U))
 119              		.loc 1 171 72 view .LVU24
 120 0048 2F4A     		ldr	r2, .L23+8
 121 004a A2FB0323 		umull	r2, r3, r2, r3
 122 004e 9B0C     		lsrs	r3, r3, #18
 171:Drivers/STM32G4xx_HAL_Driver/Src/stm32g4xx_hal_pwr_ex.c ****       while ((HAL_IS_BIT_SET(PWR->SR2, PWR_SR2_VOSF)) && (wait_loop_index != 0U))
 123              		.loc 1 171 23 view .LVU25
 124 0050 0133     		adds	r3, r3, #1
 125              	.LVL3:
 172:Drivers/STM32G4xx_HAL_Driver/Src/stm32g4xx_hal_pwr_ex.c ****       {
 126              		.loc 1 172 7 is_stmt 1 view .LVU26
 172:Drivers/STM32G4xx_HAL_Driver/Src/stm32g4xx_hal_pwr_ex.c ****       {
 127              		.loc 1 172 13 is_stmt 0 view .LVU27
 128 0052 00E0     		b	.L9
 129              	.L11:
 174:Drivers/STM32G4xx_HAL_Driver/Src/stm32g4xx_hal_pwr_ex.c ****       }
 130              		.loc 1 174 9 is_stmt 1 view .LVU28
 174:Drivers/STM32G4xx_HAL_Driver/Src/stm32g4xx_hal_pwr_ex.c ****       }
 131              		.loc 1 174 24 is_stmt 0 view .LVU29
 132 0054 013B     		subs	r3, r3, #1
 133              	.LVL4:
 134              	.L9:
 172:Drivers/STM32G4xx_HAL_Driver/Src/stm32g4xx_hal_pwr_ex.c ****       {
 135              		.loc 1 172 55 is_stmt 1 view .LVU30
 172:Drivers/STM32G4xx_HAL_Driver/Src/stm32g4xx_hal_pwr_ex.c ****       {
 136              		.loc 1 172 15 is_stmt 0 view .LVU31
 137 0056 2A4A     		ldr	r2, .L23
 138 0058 5269     		ldr	r2, [r2, #20]
 172:Drivers/STM32G4xx_HAL_Driver/Src/stm32g4xx_hal_pwr_ex.c ****       {
 139              		.loc 1 172 55 view .LVU32
 140 005a 12F4806F 		tst	r2, #1024
 141 005e 01D0     		beq	.L10
 172:Drivers/STM32G4xx_HAL_Driver/Src/stm32g4xx_hal_pwr_ex.c ****       {
 142              		.loc 1 172 55 discriminator 1 view .LVU33
 143 0060 002B     		cmp	r3, #0
 144 0062 F7D1     		bne	.L11
 145              	.L10:
 176:Drivers/STM32G4xx_HAL_Driver/Src/stm32g4xx_hal_pwr_ex.c ****       {
 146              		.loc 1 176 7 is_stmt 1 view .LVU34
 176:Drivers/STM32G4xx_HAL_Driver/Src/stm32g4xx_hal_pwr_ex.c ****       {
 147              		.loc 1 176 11 is_stmt 0 view .LVU35
 148 0064 264B     		ldr	r3, .L23
 149              	.LVL5:
 176:Drivers/STM32G4xx_HAL_Driver/Src/stm32g4xx_hal_pwr_ex.c ****       {
 150              		.loc 1 176 11 view .LVU36
 151 0066 5B69     		ldr	r3, [r3, #20]
 176:Drivers/STM32G4xx_HAL_Driver/Src/stm32g4xx_hal_pwr_ex.c ****       {
 152              		.loc 1 176 10 view .LVU37
 153 0068 13F4806F 		tst	r3, #1024
 154 006c 44D1     		bne	.L18
 155              		.loc 1 225 10 view .LVU38
 156 006e 0020     		movs	r0, #0
 157              	.LVL6:
 158              		.loc 1 225 10 view .LVU39
ARM GAS  C:\Users\HRb\AppData\Local\Temp\ccj967tF.s 			page 8


 159 0070 7047     		bx	lr
 160              	.LVL7:
 161              	.L7:
 188:Drivers/STM32G4xx_HAL_Driver/Src/stm32g4xx_hal_pwr_ex.c ****   {
 162              		.loc 1 188 8 is_stmt 1 view .LVU40
 188:Drivers/STM32G4xx_HAL_Driver/Src/stm32g4xx_hal_pwr_ex.c ****   {
 163              		.loc 1 188 11 is_stmt 0 view .LVU41
 164 0072 B0F5007F 		cmp	r0, #512
 165 0076 08D0     		beq	.L21
 220:Drivers/STM32G4xx_HAL_Driver/Src/stm32g4xx_hal_pwr_ex.c ****     /* No need to wait for VOSF to be cleared for this transition */
 166              		.loc 1 220 5 is_stmt 1 view .LVU42
 167 0078 214A     		ldr	r2, .L23
 168 007a 1368     		ldr	r3, [r2]
 169 007c 23F4C063 		bic	r3, r3, #1536
 170 0080 43F48063 		orr	r3, r3, #1024
 171 0084 1360     		str	r3, [r2]
 172              		.loc 1 225 10 is_stmt 0 view .LVU43
 173 0086 0020     		movs	r0, #0
 174              	.LVL8:
 175              		.loc 1 225 10 view .LVU44
 176 0088 7047     		bx	lr
 177              	.LVL9:
 178              	.L21:
 191:Drivers/STM32G4xx_HAL_Driver/Src/stm32g4xx_hal_pwr_ex.c ****     {
 179              		.loc 1 191 5 is_stmt 1 view .LVU45
 191:Drivers/STM32G4xx_HAL_Driver/Src/stm32g4xx_hal_pwr_ex.c ****     {
 180              		.loc 1 191 9 is_stmt 0 view .LVU46
 181 008a 1D4B     		ldr	r3, .L23
 182 008c 1B68     		ldr	r3, [r3]
 183 008e 03F4C063 		and	r3, r3, #1536
 191:Drivers/STM32G4xx_HAL_Driver/Src/stm32g4xx_hal_pwr_ex.c ****     {
 184              		.loc 1 191 8 view .LVU47
 185 0092 B3F5806F 		cmp	r3, #1024
 186 0096 08D0     		beq	.L22
 214:Drivers/STM32G4xx_HAL_Driver/Src/stm32g4xx_hal_pwr_ex.c ****     }
 187              		.loc 1 214 7 is_stmt 1 view .LVU48
 188 0098 194A     		ldr	r2, .L23
 189 009a D2F88030 		ldr	r3, [r2, #128]
 190 009e 43F48073 		orr	r3, r3, #256
 191 00a2 C2F88030 		str	r3, [r2, #128]
 192              		.loc 1 225 10 is_stmt 0 view .LVU49
 193 00a6 0020     		movs	r0, #0
 194              	.LVL10:
 195              		.loc 1 225 10 view .LVU50
 196 00a8 7047     		bx	lr
 197              	.LVL11:
 198              	.L22:
 194:Drivers/STM32G4xx_HAL_Driver/Src/stm32g4xx_hal_pwr_ex.c **** 
 199              		.loc 1 194 7 is_stmt 1 view .LVU51
 200 00aa 154A     		ldr	r2, .L23
 201 00ac D2F88030 		ldr	r3, [r2, #128]
 202 00b0 43F48073 		orr	r3, r3, #256
 203 00b4 C2F88030 		str	r3, [r2, #128]
 197:Drivers/STM32G4xx_HAL_Driver/Src/stm32g4xx_hal_pwr_ex.c **** 
 204              		.loc 1 197 7 view .LVU52
 205 00b8 1368     		ldr	r3, [r2]
 206 00ba 23F4C063 		bic	r3, r3, #1536
ARM GAS  C:\Users\HRb\AppData\Local\Temp\ccj967tF.s 			page 9


 207 00be 43F40073 		orr	r3, r3, #512
 208 00c2 1360     		str	r3, [r2]
 200:Drivers/STM32G4xx_HAL_Driver/Src/stm32g4xx_hal_pwr_ex.c ****       while ((HAL_IS_BIT_SET(PWR->SR2, PWR_SR2_VOSF)) && (wait_loop_index != 0U))
 209              		.loc 1 200 7 view .LVU53
 200:Drivers/STM32G4xx_HAL_Driver/Src/stm32g4xx_hal_pwr_ex.c ****       while ((HAL_IS_BIT_SET(PWR->SR2, PWR_SR2_VOSF)) && (wait_loop_index != 0U))
 210              		.loc 1 200 53 is_stmt 0 view .LVU54
 211 00c4 0F4B     		ldr	r3, .L23+4
 212 00c6 1B68     		ldr	r3, [r3]
 213 00c8 3222     		movs	r2, #50
 214 00ca 02FB03F3 		mul	r3, r2, r3
 200:Drivers/STM32G4xx_HAL_Driver/Src/stm32g4xx_hal_pwr_ex.c ****       while ((HAL_IS_BIT_SET(PWR->SR2, PWR_SR2_VOSF)) && (wait_loop_index != 0U))
 215              		.loc 1 200 72 view .LVU55
 216 00ce 0E4A     		ldr	r2, .L23+8
 217 00d0 A2FB0323 		umull	r2, r3, r2, r3
 218 00d4 9B0C     		lsrs	r3, r3, #18
 200:Drivers/STM32G4xx_HAL_Driver/Src/stm32g4xx_hal_pwr_ex.c ****       while ((HAL_IS_BIT_SET(PWR->SR2, PWR_SR2_VOSF)) && (wait_loop_index != 0U))
 219              		.loc 1 200 23 view .LVU56
 220 00d6 0133     		adds	r3, r3, #1
 221              	.LVL12:
 201:Drivers/STM32G4xx_HAL_Driver/Src/stm32g4xx_hal_pwr_ex.c ****       {
 222              		.loc 1 201 7 is_stmt 1 view .LVU57
 201:Drivers/STM32G4xx_HAL_Driver/Src/stm32g4xx_hal_pwr_ex.c ****       {
 223              		.loc 1 201 13 is_stmt 0 view .LVU58
 224 00d8 00E0     		b	.L15
 225              	.L17:
 203:Drivers/STM32G4xx_HAL_Driver/Src/stm32g4xx_hal_pwr_ex.c ****       }
 226              		.loc 1 203 9 is_stmt 1 view .LVU59
 203:Drivers/STM32G4xx_HAL_Driver/Src/stm32g4xx_hal_pwr_ex.c ****       }
 227              		.loc 1 203 24 is_stmt 0 view .LVU60
 228 00da 013B     		subs	r3, r3, #1
 229              	.LVL13:
 230              	.L15:
 201:Drivers/STM32G4xx_HAL_Driver/Src/stm32g4xx_hal_pwr_ex.c ****       {
 231              		.loc 1 201 55 is_stmt 1 view .LVU61
 201:Drivers/STM32G4xx_HAL_Driver/Src/stm32g4xx_hal_pwr_ex.c ****       {
 232              		.loc 1 201 15 is_stmt 0 view .LVU62
 233 00dc 084A     		ldr	r2, .L23
 234 00de 5269     		ldr	r2, [r2, #20]
 201:Drivers/STM32G4xx_HAL_Driver/Src/stm32g4xx_hal_pwr_ex.c ****       {
 235              		.loc 1 201 55 view .LVU63
 236 00e0 12F4806F 		tst	r2, #1024
 237 00e4 01D0     		beq	.L16
 201:Drivers/STM32G4xx_HAL_Driver/Src/stm32g4xx_hal_pwr_ex.c ****       {
 238              		.loc 1 201 55 discriminator 1 view .LVU64
 239 00e6 002B     		cmp	r3, #0
 240 00e8 F7D1     		bne	.L17
 241              	.L16:
 205:Drivers/STM32G4xx_HAL_Driver/Src/stm32g4xx_hal_pwr_ex.c ****       {
 242              		.loc 1 205 7 is_stmt 1 view .LVU65
 205:Drivers/STM32G4xx_HAL_Driver/Src/stm32g4xx_hal_pwr_ex.c ****       {
 243              		.loc 1 205 11 is_stmt 0 view .LVU66
 244 00ea 054B     		ldr	r3, .L23
 245              	.LVL14:
 205:Drivers/STM32G4xx_HAL_Driver/Src/stm32g4xx_hal_pwr_ex.c ****       {
 246              		.loc 1 205 11 view .LVU67
 247 00ec 5B69     		ldr	r3, [r3, #20]
 205:Drivers/STM32G4xx_HAL_Driver/Src/stm32g4xx_hal_pwr_ex.c ****       {
ARM GAS  C:\Users\HRb\AppData\Local\Temp\ccj967tF.s 			page 10


 248              		.loc 1 205 10 view .LVU68
 249 00ee 13F4806F 		tst	r3, #1024
 250 00f2 03D1     		bne	.L19
 251              		.loc 1 225 10 view .LVU69
 252 00f4 0020     		movs	r0, #0
 253              	.LVL15:
 254              		.loc 1 225 10 view .LVU70
 255 00f6 7047     		bx	lr
 256              	.LVL16:
 257              	.L18:
 178:Drivers/STM32G4xx_HAL_Driver/Src/stm32g4xx_hal_pwr_ex.c ****       }
 258              		.loc 1 178 16 view .LVU71
 259 00f8 0320     		movs	r0, #3
 260              	.LVL17:
 178:Drivers/STM32G4xx_HAL_Driver/Src/stm32g4xx_hal_pwr_ex.c ****       }
 261              		.loc 1 178 16 view .LVU72
 262 00fa 7047     		bx	lr
 263              	.LVL18:
 264              	.L19:
 207:Drivers/STM32G4xx_HAL_Driver/Src/stm32g4xx_hal_pwr_ex.c ****       }
 265              		.loc 1 207 16 view .LVU73
 266 00fc 0320     		movs	r0, #3
 267              	.LVL19:
 226:Drivers/STM32G4xx_HAL_Driver/Src/stm32g4xx_hal_pwr_ex.c **** }
 268              		.loc 1 226 1 view .LVU74
 269 00fe 7047     		bx	lr
 270              	.L24:
 271              		.align	2
 272              	.L23:
 273 0100 00700040 		.word	1073770496
 274 0104 00000000 		.word	SystemCoreClock
 275 0108 83DE1B43 		.word	1125899907
 276              		.cfi_endproc
 277              	.LFE330:
 279              		.section	.text.HAL_PWREx_EnableBatteryCharging,"ax",%progbits
 280              		.align	1
 281              		.global	HAL_PWREx_EnableBatteryCharging
 282              		.syntax unified
 283              		.thumb
 284              		.thumb_func
 286              	HAL_PWREx_EnableBatteryCharging:
 287              	.LVL20:
 288              	.LFB331:
 227:Drivers/STM32G4xx_HAL_Driver/Src/stm32g4xx_hal_pwr_ex.c **** 
 228:Drivers/STM32G4xx_HAL_Driver/Src/stm32g4xx_hal_pwr_ex.c **** 
 229:Drivers/STM32G4xx_HAL_Driver/Src/stm32g4xx_hal_pwr_ex.c **** /**
 230:Drivers/STM32G4xx_HAL_Driver/Src/stm32g4xx_hal_pwr_ex.c ****   * @brief Enable battery charging.
 231:Drivers/STM32G4xx_HAL_Driver/Src/stm32g4xx_hal_pwr_ex.c ****   *        When VDD is present, charge the external battery on VBAT through an internal resistor.
 232:Drivers/STM32G4xx_HAL_Driver/Src/stm32g4xx_hal_pwr_ex.c ****   * @param  ResistorSelection: specifies the resistor impedance.
 233:Drivers/STM32G4xx_HAL_Driver/Src/stm32g4xx_hal_pwr_ex.c ****   *          This parameter can be one of the following values:
 234:Drivers/STM32G4xx_HAL_Driver/Src/stm32g4xx_hal_pwr_ex.c ****   *            @arg @ref PWR_BATTERY_CHARGING_RESISTOR_5     5 kOhms resistor
 235:Drivers/STM32G4xx_HAL_Driver/Src/stm32g4xx_hal_pwr_ex.c ****   *            @arg @ref PWR_BATTERY_CHARGING_RESISTOR_1_5 1.5 kOhms resistor
 236:Drivers/STM32G4xx_HAL_Driver/Src/stm32g4xx_hal_pwr_ex.c ****   * @retval None
 237:Drivers/STM32G4xx_HAL_Driver/Src/stm32g4xx_hal_pwr_ex.c ****   */
 238:Drivers/STM32G4xx_HAL_Driver/Src/stm32g4xx_hal_pwr_ex.c **** void HAL_PWREx_EnableBatteryCharging(uint32_t ResistorSelection)
 239:Drivers/STM32G4xx_HAL_Driver/Src/stm32g4xx_hal_pwr_ex.c **** {
 289              		.loc 1 239 1 is_stmt 1 view -0
ARM GAS  C:\Users\HRb\AppData\Local\Temp\ccj967tF.s 			page 11


 290              		.cfi_startproc
 291              		@ args = 0, pretend = 0, frame = 0
 292              		@ frame_needed = 0, uses_anonymous_args = 0
 293              		@ link register save eliminated.
 240:Drivers/STM32G4xx_HAL_Driver/Src/stm32g4xx_hal_pwr_ex.c ****   assert_param(IS_PWR_BATTERY_RESISTOR_SELECT(ResistorSelection));
 294              		.loc 1 240 3 view .LVU76
 241:Drivers/STM32G4xx_HAL_Driver/Src/stm32g4xx_hal_pwr_ex.c **** 
 242:Drivers/STM32G4xx_HAL_Driver/Src/stm32g4xx_hal_pwr_ex.c ****   /* Specify resistor selection */
 243:Drivers/STM32G4xx_HAL_Driver/Src/stm32g4xx_hal_pwr_ex.c ****   MODIFY_REG(PWR->CR4, PWR_CR4_VBRS, ResistorSelection);
 295              		.loc 1 243 3 view .LVU77
 296 0000 054A     		ldr	r2, .L26
 297 0002 D368     		ldr	r3, [r2, #12]
 298 0004 23F40073 		bic	r3, r3, #512
 299 0008 0343     		orrs	r3, r3, r0
 300 000a D360     		str	r3, [r2, #12]
 244:Drivers/STM32G4xx_HAL_Driver/Src/stm32g4xx_hal_pwr_ex.c **** 
 245:Drivers/STM32G4xx_HAL_Driver/Src/stm32g4xx_hal_pwr_ex.c ****   /* Enable battery charging */
 246:Drivers/STM32G4xx_HAL_Driver/Src/stm32g4xx_hal_pwr_ex.c ****   SET_BIT(PWR->CR4, PWR_CR4_VBE);
 301              		.loc 1 246 3 view .LVU78
 302 000c D368     		ldr	r3, [r2, #12]
 303 000e 43F48073 		orr	r3, r3, #256
 304 0012 D360     		str	r3, [r2, #12]
 247:Drivers/STM32G4xx_HAL_Driver/Src/stm32g4xx_hal_pwr_ex.c **** }
 305              		.loc 1 247 1 is_stmt 0 view .LVU79
 306 0014 7047     		bx	lr
 307              	.L27:
 308 0016 00BF     		.align	2
 309              	.L26:
 310 0018 00700040 		.word	1073770496
 311              		.cfi_endproc
 312              	.LFE331:
 314              		.section	.text.HAL_PWREx_DisableBatteryCharging,"ax",%progbits
 315              		.align	1
 316              		.global	HAL_PWREx_DisableBatteryCharging
 317              		.syntax unified
 318              		.thumb
 319              		.thumb_func
 321              	HAL_PWREx_DisableBatteryCharging:
 322              	.LFB332:
 248:Drivers/STM32G4xx_HAL_Driver/Src/stm32g4xx_hal_pwr_ex.c **** 
 249:Drivers/STM32G4xx_HAL_Driver/Src/stm32g4xx_hal_pwr_ex.c **** 
 250:Drivers/STM32G4xx_HAL_Driver/Src/stm32g4xx_hal_pwr_ex.c **** /**
 251:Drivers/STM32G4xx_HAL_Driver/Src/stm32g4xx_hal_pwr_ex.c ****   * @brief Disable battery charging.
 252:Drivers/STM32G4xx_HAL_Driver/Src/stm32g4xx_hal_pwr_ex.c ****   * @retval None
 253:Drivers/STM32G4xx_HAL_Driver/Src/stm32g4xx_hal_pwr_ex.c ****   */
 254:Drivers/STM32G4xx_HAL_Driver/Src/stm32g4xx_hal_pwr_ex.c **** void HAL_PWREx_DisableBatteryCharging(void)
 255:Drivers/STM32G4xx_HAL_Driver/Src/stm32g4xx_hal_pwr_ex.c **** {
 323              		.loc 1 255 1 is_stmt 1 view -0
 324              		.cfi_startproc
 325              		@ args = 0, pretend = 0, frame = 0
 326              		@ frame_needed = 0, uses_anonymous_args = 0
 327              		@ link register save eliminated.
 256:Drivers/STM32G4xx_HAL_Driver/Src/stm32g4xx_hal_pwr_ex.c ****   CLEAR_BIT(PWR->CR4, PWR_CR4_VBE);
 328              		.loc 1 256 3 view .LVU81
 329 0000 024A     		ldr	r2, .L29
 330 0002 D368     		ldr	r3, [r2, #12]
 331 0004 23F48073 		bic	r3, r3, #256
ARM GAS  C:\Users\HRb\AppData\Local\Temp\ccj967tF.s 			page 12


 332 0008 D360     		str	r3, [r2, #12]
 257:Drivers/STM32G4xx_HAL_Driver/Src/stm32g4xx_hal_pwr_ex.c **** }
 333              		.loc 1 257 1 is_stmt 0 view .LVU82
 334 000a 7047     		bx	lr
 335              	.L30:
 336              		.align	2
 337              	.L29:
 338 000c 00700040 		.word	1073770496
 339              		.cfi_endproc
 340              	.LFE332:
 342              		.section	.text.HAL_PWREx_EnableInternalWakeUpLine,"ax",%progbits
 343              		.align	1
 344              		.global	HAL_PWREx_EnableInternalWakeUpLine
 345              		.syntax unified
 346              		.thumb
 347              		.thumb_func
 349              	HAL_PWREx_EnableInternalWakeUpLine:
 350              	.LFB333:
 258:Drivers/STM32G4xx_HAL_Driver/Src/stm32g4xx_hal_pwr_ex.c **** 
 259:Drivers/STM32G4xx_HAL_Driver/Src/stm32g4xx_hal_pwr_ex.c **** 
 260:Drivers/STM32G4xx_HAL_Driver/Src/stm32g4xx_hal_pwr_ex.c **** /**
 261:Drivers/STM32G4xx_HAL_Driver/Src/stm32g4xx_hal_pwr_ex.c ****   * @brief Enable Internal Wake-up Line.
 262:Drivers/STM32G4xx_HAL_Driver/Src/stm32g4xx_hal_pwr_ex.c ****   * @retval None
 263:Drivers/STM32G4xx_HAL_Driver/Src/stm32g4xx_hal_pwr_ex.c ****   */
 264:Drivers/STM32G4xx_HAL_Driver/Src/stm32g4xx_hal_pwr_ex.c **** void HAL_PWREx_EnableInternalWakeUpLine(void)
 265:Drivers/STM32G4xx_HAL_Driver/Src/stm32g4xx_hal_pwr_ex.c **** {
 351              		.loc 1 265 1 is_stmt 1 view -0
 352              		.cfi_startproc
 353              		@ args = 0, pretend = 0, frame = 0
 354              		@ frame_needed = 0, uses_anonymous_args = 0
 355              		@ link register save eliminated.
 266:Drivers/STM32G4xx_HAL_Driver/Src/stm32g4xx_hal_pwr_ex.c ****   SET_BIT(PWR->CR3, PWR_CR3_EIWF);
 356              		.loc 1 266 3 view .LVU84
 357 0000 024A     		ldr	r2, .L32
 358 0002 9368     		ldr	r3, [r2, #8]
 359 0004 43F40043 		orr	r3, r3, #32768
 360 0008 9360     		str	r3, [r2, #8]
 267:Drivers/STM32G4xx_HAL_Driver/Src/stm32g4xx_hal_pwr_ex.c **** }
 361              		.loc 1 267 1 is_stmt 0 view .LVU85
 362 000a 7047     		bx	lr
 363              	.L33:
 364              		.align	2
 365              	.L32:
 366 000c 00700040 		.word	1073770496
 367              		.cfi_endproc
 368              	.LFE333:
 370              		.section	.text.HAL_PWREx_DisableInternalWakeUpLine,"ax",%progbits
 371              		.align	1
 372              		.global	HAL_PWREx_DisableInternalWakeUpLine
 373              		.syntax unified
 374              		.thumb
 375              		.thumb_func
 377              	HAL_PWREx_DisableInternalWakeUpLine:
 378              	.LFB334:
 268:Drivers/STM32G4xx_HAL_Driver/Src/stm32g4xx_hal_pwr_ex.c **** 
 269:Drivers/STM32G4xx_HAL_Driver/Src/stm32g4xx_hal_pwr_ex.c **** 
 270:Drivers/STM32G4xx_HAL_Driver/Src/stm32g4xx_hal_pwr_ex.c **** /**
ARM GAS  C:\Users\HRb\AppData\Local\Temp\ccj967tF.s 			page 13


 271:Drivers/STM32G4xx_HAL_Driver/Src/stm32g4xx_hal_pwr_ex.c ****   * @brief Disable Internal Wake-up Line.
 272:Drivers/STM32G4xx_HAL_Driver/Src/stm32g4xx_hal_pwr_ex.c ****   * @retval None
 273:Drivers/STM32G4xx_HAL_Driver/Src/stm32g4xx_hal_pwr_ex.c ****   */
 274:Drivers/STM32G4xx_HAL_Driver/Src/stm32g4xx_hal_pwr_ex.c **** void HAL_PWREx_DisableInternalWakeUpLine(void)
 275:Drivers/STM32G4xx_HAL_Driver/Src/stm32g4xx_hal_pwr_ex.c **** {
 379              		.loc 1 275 1 is_stmt 1 view -0
 380              		.cfi_startproc
 381              		@ args = 0, pretend = 0, frame = 0
 382              		@ frame_needed = 0, uses_anonymous_args = 0
 383              		@ link register save eliminated.
 276:Drivers/STM32G4xx_HAL_Driver/Src/stm32g4xx_hal_pwr_ex.c ****   CLEAR_BIT(PWR->CR3, PWR_CR3_EIWF);
 384              		.loc 1 276 3 view .LVU87
 385 0000 024A     		ldr	r2, .L35
 386 0002 9368     		ldr	r3, [r2, #8]
 387 0004 23F40043 		bic	r3, r3, #32768
 388 0008 9360     		str	r3, [r2, #8]
 277:Drivers/STM32G4xx_HAL_Driver/Src/stm32g4xx_hal_pwr_ex.c **** }
 389              		.loc 1 277 1 is_stmt 0 view .LVU88
 390 000a 7047     		bx	lr
 391              	.L36:
 392              		.align	2
 393              	.L35:
 394 000c 00700040 		.word	1073770496
 395              		.cfi_endproc
 396              	.LFE334:
 398              		.section	.text.HAL_PWREx_EnableGPIOPullUp,"ax",%progbits
 399              		.align	1
 400              		.global	HAL_PWREx_EnableGPIOPullUp
 401              		.syntax unified
 402              		.thumb
 403              		.thumb_func
 405              	HAL_PWREx_EnableGPIOPullUp:
 406              	.LVL21:
 407              	.LFB335:
 278:Drivers/STM32G4xx_HAL_Driver/Src/stm32g4xx_hal_pwr_ex.c **** 
 279:Drivers/STM32G4xx_HAL_Driver/Src/stm32g4xx_hal_pwr_ex.c **** 
 280:Drivers/STM32G4xx_HAL_Driver/Src/stm32g4xx_hal_pwr_ex.c **** 
 281:Drivers/STM32G4xx_HAL_Driver/Src/stm32g4xx_hal_pwr_ex.c **** /**
 282:Drivers/STM32G4xx_HAL_Driver/Src/stm32g4xx_hal_pwr_ex.c ****   * @brief Enable GPIO pull-up state in Standby and Shutdown modes.
 283:Drivers/STM32G4xx_HAL_Driver/Src/stm32g4xx_hal_pwr_ex.c ****   * @note  Set the relevant PUy bits of PWR_PUCRx register to configure the I/O in
 284:Drivers/STM32G4xx_HAL_Driver/Src/stm32g4xx_hal_pwr_ex.c ****   *        pull-up state in Standby and Shutdown modes.
 285:Drivers/STM32G4xx_HAL_Driver/Src/stm32g4xx_hal_pwr_ex.c ****   * @note  This state is effective in Standby and Shutdown modes only if APC bit
 286:Drivers/STM32G4xx_HAL_Driver/Src/stm32g4xx_hal_pwr_ex.c ****   *        is set through HAL_PWREx_EnablePullUpPullDownConfig() API.
 287:Drivers/STM32G4xx_HAL_Driver/Src/stm32g4xx_hal_pwr_ex.c ****   * @note  The configuration is lost when exiting the Shutdown mode due to the
 288:Drivers/STM32G4xx_HAL_Driver/Src/stm32g4xx_hal_pwr_ex.c ****   *        power-on reset, maintained when exiting the Standby mode.
 289:Drivers/STM32G4xx_HAL_Driver/Src/stm32g4xx_hal_pwr_ex.c ****   * @note  To avoid any conflict at Standby and Shutdown modes exits, the corresponding
 290:Drivers/STM32G4xx_HAL_Driver/Src/stm32g4xx_hal_pwr_ex.c ****   *        PDy bit of PWR_PDCRx register is cleared unless it is reserved.
 291:Drivers/STM32G4xx_HAL_Driver/Src/stm32g4xx_hal_pwr_ex.c ****   * @note  Even if a PUy bit to set is reserved, the other PUy bits entered as input
 292:Drivers/STM32G4xx_HAL_Driver/Src/stm32g4xx_hal_pwr_ex.c ****   *        parameter at the same time are set.
 293:Drivers/STM32G4xx_HAL_Driver/Src/stm32g4xx_hal_pwr_ex.c ****   * @param  GPIO: Specify the IO port. This parameter can be PWR_GPIO_A, ..., PWR_GPIO_G
 294:Drivers/STM32G4xx_HAL_Driver/Src/stm32g4xx_hal_pwr_ex.c ****   *         (or PWR_GPIO_I depending on the devices) to select the GPIO peripheral.
 295:Drivers/STM32G4xx_HAL_Driver/Src/stm32g4xx_hal_pwr_ex.c ****   * @param  GPIONumber: Specify the I/O pins numbers.
 296:Drivers/STM32G4xx_HAL_Driver/Src/stm32g4xx_hal_pwr_ex.c ****   *         This parameter can be one of the following values:
 297:Drivers/STM32G4xx_HAL_Driver/Src/stm32g4xx_hal_pwr_ex.c ****   *         PWR_GPIO_BIT_0, ..., PWR_GPIO_BIT_15 (except for the port where less
 298:Drivers/STM32G4xx_HAL_Driver/Src/stm32g4xx_hal_pwr_ex.c ****   *         I/O pins are available) or the logical OR of several of them to set
 299:Drivers/STM32G4xx_HAL_Driver/Src/stm32g4xx_hal_pwr_ex.c ****   *         several bits for a given port in a single API call.
 300:Drivers/STM32G4xx_HAL_Driver/Src/stm32g4xx_hal_pwr_ex.c ****   * @retval HAL Status
ARM GAS  C:\Users\HRb\AppData\Local\Temp\ccj967tF.s 			page 14


 301:Drivers/STM32G4xx_HAL_Driver/Src/stm32g4xx_hal_pwr_ex.c ****   */
 302:Drivers/STM32G4xx_HAL_Driver/Src/stm32g4xx_hal_pwr_ex.c **** HAL_StatusTypeDef HAL_PWREx_EnableGPIOPullUp(uint32_t GPIO, uint32_t GPIONumber)
 303:Drivers/STM32G4xx_HAL_Driver/Src/stm32g4xx_hal_pwr_ex.c **** {
 408              		.loc 1 303 1 is_stmt 1 view -0
 409              		.cfi_startproc
 410              		@ args = 0, pretend = 0, frame = 0
 411              		@ frame_needed = 0, uses_anonymous_args = 0
 412              		@ link register save eliminated.
 304:Drivers/STM32G4xx_HAL_Driver/Src/stm32g4xx_hal_pwr_ex.c ****   HAL_StatusTypeDef status = HAL_OK;
 413              		.loc 1 304 3 view .LVU90
 305:Drivers/STM32G4xx_HAL_Driver/Src/stm32g4xx_hal_pwr_ex.c **** 
 306:Drivers/STM32G4xx_HAL_Driver/Src/stm32g4xx_hal_pwr_ex.c ****   assert_param(IS_PWR_GPIO(GPIO));
 414              		.loc 1 306 3 view .LVU91
 307:Drivers/STM32G4xx_HAL_Driver/Src/stm32g4xx_hal_pwr_ex.c ****   assert_param(IS_PWR_GPIO_BIT_NUMBER(GPIONumber));
 415              		.loc 1 307 3 view .LVU92
 308:Drivers/STM32G4xx_HAL_Driver/Src/stm32g4xx_hal_pwr_ex.c **** 
 309:Drivers/STM32G4xx_HAL_Driver/Src/stm32g4xx_hal_pwr_ex.c ****   switch (GPIO)
 416              		.loc 1 309 3 view .LVU93
 417 0000 0628     		cmp	r0, #6
 418 0002 56D8     		bhi	.L47
 419 0004 DFE800F0 		tbb	[pc, r0]
 420              	.L40:
 421 0008 04       		.byte	(.L46-.L40)/2
 422 0009 12       		.byte	(.L45-.L40)/2
 423 000a 1E       		.byte	(.L44-.L40)/2
 424 000b 28       		.byte	(.L43-.L40)/2
 425 000c 32       		.byte	(.L42-.L40)/2
 426 000d 3C       		.byte	(.L41-.L40)/2
 427 000e 47       		.byte	(.L39-.L40)/2
 428 000f 00       		.p2align 1
 429              	.L46:
 310:Drivers/STM32G4xx_HAL_Driver/Src/stm32g4xx_hal_pwr_ex.c ****   {
 311:Drivers/STM32G4xx_HAL_Driver/Src/stm32g4xx_hal_pwr_ex.c ****     case PWR_GPIO_A:
 312:Drivers/STM32G4xx_HAL_Driver/Src/stm32g4xx_hal_pwr_ex.c ****        SET_BIT(PWR->PUCRA, (GPIONumber & (~(PWR_GPIO_BIT_14))));
 430              		.loc 1 312 8 view .LVU94
 431 0010 294B     		ldr	r3, .L48
 432 0012 1A6A     		ldr	r2, [r3, #32]
 433 0014 21F48040 		bic	r0, r1, #16384
 434              	.LVL22:
 435              		.loc 1 312 8 is_stmt 0 view .LVU95
 436 0018 0243     		orrs	r2, r2, r0
 437 001a 1A62     		str	r2, [r3, #32]
 313:Drivers/STM32G4xx_HAL_Driver/Src/stm32g4xx_hal_pwr_ex.c ****        CLEAR_BIT(PWR->PDCRA, (GPIONumber & (~(PWR_GPIO_BIT_13|PWR_GPIO_BIT_15))));
 438              		.loc 1 313 8 is_stmt 1 view .LVU96
 439 001c 5A6A     		ldr	r2, [r3, #36]
 440 001e 21F42041 		bic	r1, r1, #40960
 441              	.LVL23:
 442              		.loc 1 313 8 is_stmt 0 view .LVU97
 443 0022 22EA0102 		bic	r2, r2, r1
 444 0026 5A62     		str	r2, [r3, #36]
 314:Drivers/STM32G4xx_HAL_Driver/Src/stm32g4xx_hal_pwr_ex.c ****        break;
 445              		.loc 1 314 8 is_stmt 1 view .LVU98
 304:Drivers/STM32G4xx_HAL_Driver/Src/stm32g4xx_hal_pwr_ex.c **** 
 446              		.loc 1 304 21 is_stmt 0 view .LVU99
 447 0028 0020     		movs	r0, #0
 448              		.loc 1 314 8 view .LVU100
 449 002a 7047     		bx	lr
ARM GAS  C:\Users\HRb\AppData\Local\Temp\ccj967tF.s 			page 15


 450              	.LVL24:
 451              	.L45:
 315:Drivers/STM32G4xx_HAL_Driver/Src/stm32g4xx_hal_pwr_ex.c ****     case PWR_GPIO_B:
 316:Drivers/STM32G4xx_HAL_Driver/Src/stm32g4xx_hal_pwr_ex.c ****        SET_BIT(PWR->PUCRB, GPIONumber);
 452              		.loc 1 316 8 is_stmt 1 view .LVU101
 453 002c 224B     		ldr	r3, .L48
 454 002e 9A6A     		ldr	r2, [r3, #40]
 455 0030 0A43     		orrs	r2, r2, r1
 456 0032 9A62     		str	r2, [r3, #40]
 317:Drivers/STM32G4xx_HAL_Driver/Src/stm32g4xx_hal_pwr_ex.c ****        CLEAR_BIT(PWR->PDCRB, (GPIONumber & (~(PWR_GPIO_BIT_4))));
 457              		.loc 1 317 8 view .LVU102
 458 0034 DA6A     		ldr	r2, [r3, #44]
 459 0036 21F01001 		bic	r1, r1, #16
 460              	.LVL25:
 461              		.loc 1 317 8 is_stmt 0 view .LVU103
 462 003a 22EA0102 		bic	r2, r2, r1
 463 003e DA62     		str	r2, [r3, #44]
 318:Drivers/STM32G4xx_HAL_Driver/Src/stm32g4xx_hal_pwr_ex.c ****        break;
 464              		.loc 1 318 8 is_stmt 1 view .LVU104
 304:Drivers/STM32G4xx_HAL_Driver/Src/stm32g4xx_hal_pwr_ex.c **** 
 465              		.loc 1 304 21 is_stmt 0 view .LVU105
 466 0040 0020     		movs	r0, #0
 467              	.LVL26:
 468              		.loc 1 318 8 view .LVU106
 469 0042 7047     		bx	lr
 470              	.LVL27:
 471              	.L44:
 319:Drivers/STM32G4xx_HAL_Driver/Src/stm32g4xx_hal_pwr_ex.c ****     case PWR_GPIO_C:
 320:Drivers/STM32G4xx_HAL_Driver/Src/stm32g4xx_hal_pwr_ex.c ****        SET_BIT(PWR->PUCRC, GPIONumber);
 472              		.loc 1 320 8 is_stmt 1 view .LVU107
 473 0044 1C4B     		ldr	r3, .L48
 474 0046 1A6B     		ldr	r2, [r3, #48]
 475 0048 0A43     		orrs	r2, r2, r1
 476 004a 1A63     		str	r2, [r3, #48]
 321:Drivers/STM32G4xx_HAL_Driver/Src/stm32g4xx_hal_pwr_ex.c ****        CLEAR_BIT(PWR->PDCRC, GPIONumber);
 477              		.loc 1 321 8 view .LVU108
 478 004c 5A6B     		ldr	r2, [r3, #52]
 479 004e 22EA0102 		bic	r2, r2, r1
 480 0052 5A63     		str	r2, [r3, #52]
 322:Drivers/STM32G4xx_HAL_Driver/Src/stm32g4xx_hal_pwr_ex.c ****        break;
 481              		.loc 1 322 8 view .LVU109
 304:Drivers/STM32G4xx_HAL_Driver/Src/stm32g4xx_hal_pwr_ex.c **** 
 482              		.loc 1 304 21 is_stmt 0 view .LVU110
 483 0054 0020     		movs	r0, #0
 484              	.LVL28:
 485              		.loc 1 322 8 view .LVU111
 486 0056 7047     		bx	lr
 487              	.LVL29:
 488              	.L43:
 323:Drivers/STM32G4xx_HAL_Driver/Src/stm32g4xx_hal_pwr_ex.c ****     case PWR_GPIO_D:
 324:Drivers/STM32G4xx_HAL_Driver/Src/stm32g4xx_hal_pwr_ex.c ****        SET_BIT(PWR->PUCRD, GPIONumber);
 489              		.loc 1 324 8 is_stmt 1 view .LVU112
 490 0058 174B     		ldr	r3, .L48
 491 005a 9A6B     		ldr	r2, [r3, #56]
 492 005c 0A43     		orrs	r2, r2, r1
 493 005e 9A63     		str	r2, [r3, #56]
 325:Drivers/STM32G4xx_HAL_Driver/Src/stm32g4xx_hal_pwr_ex.c ****        CLEAR_BIT(PWR->PDCRD, GPIONumber);
ARM GAS  C:\Users\HRb\AppData\Local\Temp\ccj967tF.s 			page 16


 494              		.loc 1 325 8 view .LVU113
 495 0060 DA6B     		ldr	r2, [r3, #60]
 496 0062 22EA0102 		bic	r2, r2, r1
 497 0066 DA63     		str	r2, [r3, #60]
 326:Drivers/STM32G4xx_HAL_Driver/Src/stm32g4xx_hal_pwr_ex.c ****        break;
 498              		.loc 1 326 8 view .LVU114
 304:Drivers/STM32G4xx_HAL_Driver/Src/stm32g4xx_hal_pwr_ex.c **** 
 499              		.loc 1 304 21 is_stmt 0 view .LVU115
 500 0068 0020     		movs	r0, #0
 501              	.LVL30:
 502              		.loc 1 326 8 view .LVU116
 503 006a 7047     		bx	lr
 504              	.LVL31:
 505              	.L42:
 327:Drivers/STM32G4xx_HAL_Driver/Src/stm32g4xx_hal_pwr_ex.c ****     case PWR_GPIO_E:
 328:Drivers/STM32G4xx_HAL_Driver/Src/stm32g4xx_hal_pwr_ex.c ****        SET_BIT(PWR->PUCRE, GPIONumber);
 506              		.loc 1 328 8 is_stmt 1 view .LVU117
 507 006c 124B     		ldr	r3, .L48
 508 006e 1A6C     		ldr	r2, [r3, #64]
 509 0070 0A43     		orrs	r2, r2, r1
 510 0072 1A64     		str	r2, [r3, #64]
 329:Drivers/STM32G4xx_HAL_Driver/Src/stm32g4xx_hal_pwr_ex.c ****        CLEAR_BIT(PWR->PDCRE, GPIONumber);
 511              		.loc 1 329 8 view .LVU118
 512 0074 5A6C     		ldr	r2, [r3, #68]
 513 0076 22EA0102 		bic	r2, r2, r1
 514 007a 5A64     		str	r2, [r3, #68]
 330:Drivers/STM32G4xx_HAL_Driver/Src/stm32g4xx_hal_pwr_ex.c ****        break;
 515              		.loc 1 330 8 view .LVU119
 304:Drivers/STM32G4xx_HAL_Driver/Src/stm32g4xx_hal_pwr_ex.c **** 
 516              		.loc 1 304 21 is_stmt 0 view .LVU120
 517 007c 0020     		movs	r0, #0
 518              	.LVL32:
 519              		.loc 1 330 8 view .LVU121
 520 007e 7047     		bx	lr
 521              	.LVL33:
 522              	.L41:
 331:Drivers/STM32G4xx_HAL_Driver/Src/stm32g4xx_hal_pwr_ex.c ****     case PWR_GPIO_F:
 332:Drivers/STM32G4xx_HAL_Driver/Src/stm32g4xx_hal_pwr_ex.c ****        SET_BIT(PWR->PUCRF, (GPIONumber & PWR_PORTF_AVAILABLE_PINS));
 523              		.loc 1 332 8 is_stmt 1 view .LVU122
 524 0080 0D4B     		ldr	r3, .L48
 525 0082 9A6C     		ldr	r2, [r3, #72]
 526 0084 89B2     		uxth	r1, r1
 527              	.LVL34:
 528              		.loc 1 332 8 is_stmt 0 view .LVU123
 529 0086 0A43     		orrs	r2, r2, r1
 530 0088 9A64     		str	r2, [r3, #72]
 333:Drivers/STM32G4xx_HAL_Driver/Src/stm32g4xx_hal_pwr_ex.c ****        CLEAR_BIT(PWR->PDCRF, (GPIONumber & PWR_PORTF_AVAILABLE_PINS));
 531              		.loc 1 333 8 is_stmt 1 view .LVU124
 532 008a DA6C     		ldr	r2, [r3, #76]
 533 008c 22EA0102 		bic	r2, r2, r1
 534 0090 DA64     		str	r2, [r3, #76]
 334:Drivers/STM32G4xx_HAL_Driver/Src/stm32g4xx_hal_pwr_ex.c ****        break;
 535              		.loc 1 334 8 view .LVU125
 304:Drivers/STM32G4xx_HAL_Driver/Src/stm32g4xx_hal_pwr_ex.c **** 
 536              		.loc 1 304 21 is_stmt 0 view .LVU126
 537 0092 0020     		movs	r0, #0
 538              	.LVL35:
ARM GAS  C:\Users\HRb\AppData\Local\Temp\ccj967tF.s 			page 17


 539              		.loc 1 334 8 view .LVU127
 540 0094 7047     		bx	lr
 541              	.LVL36:
 542              	.L39:
 335:Drivers/STM32G4xx_HAL_Driver/Src/stm32g4xx_hal_pwr_ex.c ****     case PWR_GPIO_G:
 336:Drivers/STM32G4xx_HAL_Driver/Src/stm32g4xx_hal_pwr_ex.c ****        SET_BIT(PWR->PUCRG, (GPIONumber & PWR_PORTG_AVAILABLE_PINS));
 543              		.loc 1 336 8 is_stmt 1 view .LVU128
 544 0096 084B     		ldr	r3, .L48
 545 0098 1A6D     		ldr	r2, [r3, #80]
 546 009a C1F30A00 		ubfx	r0, r1, #0, #11
 547              	.LVL37:
 548              		.loc 1 336 8 is_stmt 0 view .LVU129
 549 009e 0243     		orrs	r2, r2, r0
 550 00a0 1A65     		str	r2, [r3, #80]
 337:Drivers/STM32G4xx_HAL_Driver/Src/stm32g4xx_hal_pwr_ex.c ****        CLEAR_BIT(PWR->PDCRG, ((GPIONumber & PWR_PORTG_AVAILABLE_PINS) & (~(PWR_GPIO_BIT_10))));
 551              		.loc 1 337 8 is_stmt 1 view .LVU130
 552 00a2 5A6D     		ldr	r2, [r3, #84]
 553 00a4 C1F30901 		ubfx	r1, r1, #0, #10
 554              	.LVL38:
 555              		.loc 1 337 8 is_stmt 0 view .LVU131
 556 00a8 22EA0102 		bic	r2, r2, r1
 557 00ac 5A65     		str	r2, [r3, #84]
 338:Drivers/STM32G4xx_HAL_Driver/Src/stm32g4xx_hal_pwr_ex.c ****        break;
 558              		.loc 1 338 8 is_stmt 1 view .LVU132
 304:Drivers/STM32G4xx_HAL_Driver/Src/stm32g4xx_hal_pwr_ex.c **** 
 559              		.loc 1 304 21 is_stmt 0 view .LVU133
 560 00ae 0020     		movs	r0, #0
 561              		.loc 1 338 8 view .LVU134
 562 00b0 7047     		bx	lr
 563              	.LVL39:
 564              	.L47:
 309:Drivers/STM32G4xx_HAL_Driver/Src/stm32g4xx_hal_pwr_ex.c ****   {
 565              		.loc 1 309 3 view .LVU135
 566 00b2 0120     		movs	r0, #1
 567              	.LVL40:
 339:Drivers/STM32G4xx_HAL_Driver/Src/stm32g4xx_hal_pwr_ex.c ****     default:
 340:Drivers/STM32G4xx_HAL_Driver/Src/stm32g4xx_hal_pwr_ex.c ****       status = HAL_ERROR;
 341:Drivers/STM32G4xx_HAL_Driver/Src/stm32g4xx_hal_pwr_ex.c ****       break;
 342:Drivers/STM32G4xx_HAL_Driver/Src/stm32g4xx_hal_pwr_ex.c ****   }
 343:Drivers/STM32G4xx_HAL_Driver/Src/stm32g4xx_hal_pwr_ex.c **** 
 344:Drivers/STM32G4xx_HAL_Driver/Src/stm32g4xx_hal_pwr_ex.c ****   return status;
 568              		.loc 1 344 3 is_stmt 1 view .LVU136
 345:Drivers/STM32G4xx_HAL_Driver/Src/stm32g4xx_hal_pwr_ex.c **** }
 569              		.loc 1 345 1 is_stmt 0 view .LVU137
 570 00b4 7047     		bx	lr
 571              	.L49:
 572 00b6 00BF     		.align	2
 573              	.L48:
 574 00b8 00700040 		.word	1073770496
 575              		.cfi_endproc
 576              	.LFE335:
 578              		.section	.text.HAL_PWREx_DisableGPIOPullUp,"ax",%progbits
 579              		.align	1
 580              		.global	HAL_PWREx_DisableGPIOPullUp
 581              		.syntax unified
 582              		.thumb
 583              		.thumb_func
ARM GAS  C:\Users\HRb\AppData\Local\Temp\ccj967tF.s 			page 18


 585              	HAL_PWREx_DisableGPIOPullUp:
 586              	.LVL41:
 587              	.LFB336:
 346:Drivers/STM32G4xx_HAL_Driver/Src/stm32g4xx_hal_pwr_ex.c **** 
 347:Drivers/STM32G4xx_HAL_Driver/Src/stm32g4xx_hal_pwr_ex.c **** 
 348:Drivers/STM32G4xx_HAL_Driver/Src/stm32g4xx_hal_pwr_ex.c **** /**
 349:Drivers/STM32G4xx_HAL_Driver/Src/stm32g4xx_hal_pwr_ex.c ****   * @brief Disable GPIO pull-up state in Standby mode and Shutdown modes.
 350:Drivers/STM32G4xx_HAL_Driver/Src/stm32g4xx_hal_pwr_ex.c ****   * @note  Reset the relevant PUy bits of PWR_PUCRx register used to configure the I/O
 351:Drivers/STM32G4xx_HAL_Driver/Src/stm32g4xx_hal_pwr_ex.c ****   *        in pull-up state in Standby and Shutdown modes.
 352:Drivers/STM32G4xx_HAL_Driver/Src/stm32g4xx_hal_pwr_ex.c ****   * @note  Even if a PUy bit to reset is reserved, the other PUy bits entered as input
 353:Drivers/STM32G4xx_HAL_Driver/Src/stm32g4xx_hal_pwr_ex.c ****   *        parameter at the same time are reset.
 354:Drivers/STM32G4xx_HAL_Driver/Src/stm32g4xx_hal_pwr_ex.c ****   * @param  GPIO: Specifies the IO port. This parameter can be PWR_GPIO_A, ..., PWR_GPIO_G
 355:Drivers/STM32G4xx_HAL_Driver/Src/stm32g4xx_hal_pwr_ex.c ****   *          (or PWR_GPIO_I depending on the devices) to select the GPIO peripheral.
 356:Drivers/STM32G4xx_HAL_Driver/Src/stm32g4xx_hal_pwr_ex.c ****   * @param  GPIONumber: Specify the I/O pins numbers.
 357:Drivers/STM32G4xx_HAL_Driver/Src/stm32g4xx_hal_pwr_ex.c ****   *         This parameter can be one of the following values:
 358:Drivers/STM32G4xx_HAL_Driver/Src/stm32g4xx_hal_pwr_ex.c ****   *         PWR_GPIO_BIT_0, ..., PWR_GPIO_BIT_15 (except for the port where less
 359:Drivers/STM32G4xx_HAL_Driver/Src/stm32g4xx_hal_pwr_ex.c ****   *         I/O pins are available) or the logical OR of several of them to reset
 360:Drivers/STM32G4xx_HAL_Driver/Src/stm32g4xx_hal_pwr_ex.c ****   *         several bits for a given port in a single API call.
 361:Drivers/STM32G4xx_HAL_Driver/Src/stm32g4xx_hal_pwr_ex.c ****   * @retval HAL Status
 362:Drivers/STM32G4xx_HAL_Driver/Src/stm32g4xx_hal_pwr_ex.c ****   */
 363:Drivers/STM32G4xx_HAL_Driver/Src/stm32g4xx_hal_pwr_ex.c **** HAL_StatusTypeDef HAL_PWREx_DisableGPIOPullUp(uint32_t GPIO, uint32_t GPIONumber)
 364:Drivers/STM32G4xx_HAL_Driver/Src/stm32g4xx_hal_pwr_ex.c **** {
 588              		.loc 1 364 1 is_stmt 1 view -0
 589              		.cfi_startproc
 590              		@ args = 0, pretend = 0, frame = 0
 591              		@ frame_needed = 0, uses_anonymous_args = 0
 592              		@ link register save eliminated.
 365:Drivers/STM32G4xx_HAL_Driver/Src/stm32g4xx_hal_pwr_ex.c ****   HAL_StatusTypeDef status = HAL_OK;
 593              		.loc 1 365 3 view .LVU139
 366:Drivers/STM32G4xx_HAL_Driver/Src/stm32g4xx_hal_pwr_ex.c **** 
 367:Drivers/STM32G4xx_HAL_Driver/Src/stm32g4xx_hal_pwr_ex.c ****   assert_param(IS_PWR_GPIO(GPIO));
 594              		.loc 1 367 3 view .LVU140
 368:Drivers/STM32G4xx_HAL_Driver/Src/stm32g4xx_hal_pwr_ex.c ****   assert_param(IS_PWR_GPIO_BIT_NUMBER(GPIONumber));
 595              		.loc 1 368 3 view .LVU141
 369:Drivers/STM32G4xx_HAL_Driver/Src/stm32g4xx_hal_pwr_ex.c **** 
 370:Drivers/STM32G4xx_HAL_Driver/Src/stm32g4xx_hal_pwr_ex.c ****   switch (GPIO)
 596              		.loc 1 370 3 view .LVU142
 597 0000 0628     		cmp	r0, #6
 598 0002 3BD8     		bhi	.L60
 599 0004 DFE800F0 		tbb	[pc, r0]
 600              	.L53:
 601 0008 04       		.byte	(.L59-.L53)/2
 602 0009 0D       		.byte	(.L58-.L53)/2
 603 000a 14       		.byte	(.L57-.L53)/2
 604 000b 1B       		.byte	(.L56-.L53)/2
 605 000c 22       		.byte	(.L55-.L53)/2
 606 000d 29       		.byte	(.L54-.L53)/2
 607 000e 31       		.byte	(.L52-.L53)/2
 608 000f 00       		.p2align 1
 609              	.L59:
 371:Drivers/STM32G4xx_HAL_Driver/Src/stm32g4xx_hal_pwr_ex.c ****   {
 372:Drivers/STM32G4xx_HAL_Driver/Src/stm32g4xx_hal_pwr_ex.c ****     case PWR_GPIO_A:
 373:Drivers/STM32G4xx_HAL_Driver/Src/stm32g4xx_hal_pwr_ex.c ****        CLEAR_BIT(PWR->PUCRA, (GPIONumber & (~(PWR_GPIO_BIT_14))));
 610              		.loc 1 373 8 view .LVU143
 611 0010 1B4A     		ldr	r2, .L61
 612 0012 136A     		ldr	r3, [r2, #32]
 613 0014 21F48041 		bic	r1, r1, #16384
ARM GAS  C:\Users\HRb\AppData\Local\Temp\ccj967tF.s 			page 19


 614              	.LVL42:
 615              		.loc 1 373 8 is_stmt 0 view .LVU144
 616 0018 23EA0101 		bic	r1, r3, r1
 617 001c 1162     		str	r1, [r2, #32]
 374:Drivers/STM32G4xx_HAL_Driver/Src/stm32g4xx_hal_pwr_ex.c ****        break;
 618              		.loc 1 374 8 is_stmt 1 view .LVU145
 365:Drivers/STM32G4xx_HAL_Driver/Src/stm32g4xx_hal_pwr_ex.c **** 
 619              		.loc 1 365 21 is_stmt 0 view .LVU146
 620 001e 0020     		movs	r0, #0
 621              	.LVL43:
 622              		.loc 1 374 8 view .LVU147
 623 0020 7047     		bx	lr
 624              	.LVL44:
 625              	.L58:
 375:Drivers/STM32G4xx_HAL_Driver/Src/stm32g4xx_hal_pwr_ex.c ****     case PWR_GPIO_B:
 376:Drivers/STM32G4xx_HAL_Driver/Src/stm32g4xx_hal_pwr_ex.c ****        CLEAR_BIT(PWR->PUCRB, GPIONumber);
 626              		.loc 1 376 8 is_stmt 1 view .LVU148
 627 0022 174A     		ldr	r2, .L61
 628 0024 936A     		ldr	r3, [r2, #40]
 629 0026 23EA0103 		bic	r3, r3, r1
 630 002a 9362     		str	r3, [r2, #40]
 377:Drivers/STM32G4xx_HAL_Driver/Src/stm32g4xx_hal_pwr_ex.c ****        break;
 631              		.loc 1 377 8 view .LVU149
 365:Drivers/STM32G4xx_HAL_Driver/Src/stm32g4xx_hal_pwr_ex.c **** 
 632              		.loc 1 365 21 is_stmt 0 view .LVU150
 633 002c 0020     		movs	r0, #0
 634              	.LVL45:
 635              		.loc 1 377 8 view .LVU151
 636 002e 7047     		bx	lr
 637              	.LVL46:
 638              	.L57:
 378:Drivers/STM32G4xx_HAL_Driver/Src/stm32g4xx_hal_pwr_ex.c ****     case PWR_GPIO_C:
 379:Drivers/STM32G4xx_HAL_Driver/Src/stm32g4xx_hal_pwr_ex.c ****        CLEAR_BIT(PWR->PUCRC, GPIONumber);
 639              		.loc 1 379 8 is_stmt 1 view .LVU152
 640 0030 134A     		ldr	r2, .L61
 641 0032 136B     		ldr	r3, [r2, #48]
 642 0034 23EA0103 		bic	r3, r3, r1
 643 0038 1363     		str	r3, [r2, #48]
 380:Drivers/STM32G4xx_HAL_Driver/Src/stm32g4xx_hal_pwr_ex.c ****        break;
 644              		.loc 1 380 8 view .LVU153
 365:Drivers/STM32G4xx_HAL_Driver/Src/stm32g4xx_hal_pwr_ex.c **** 
 645              		.loc 1 365 21 is_stmt 0 view .LVU154
 646 003a 0020     		movs	r0, #0
 647              	.LVL47:
 648              		.loc 1 380 8 view .LVU155
 649 003c 7047     		bx	lr
 650              	.LVL48:
 651              	.L56:
 381:Drivers/STM32G4xx_HAL_Driver/Src/stm32g4xx_hal_pwr_ex.c ****     case PWR_GPIO_D:
 382:Drivers/STM32G4xx_HAL_Driver/Src/stm32g4xx_hal_pwr_ex.c ****        CLEAR_BIT(PWR->PUCRD, GPIONumber);
 652              		.loc 1 382 8 is_stmt 1 view .LVU156
 653 003e 104A     		ldr	r2, .L61
 654 0040 936B     		ldr	r3, [r2, #56]
 655 0042 23EA0103 		bic	r3, r3, r1
 656 0046 9363     		str	r3, [r2, #56]
 383:Drivers/STM32G4xx_HAL_Driver/Src/stm32g4xx_hal_pwr_ex.c ****        break;
 657              		.loc 1 383 8 view .LVU157
ARM GAS  C:\Users\HRb\AppData\Local\Temp\ccj967tF.s 			page 20


 365:Drivers/STM32G4xx_HAL_Driver/Src/stm32g4xx_hal_pwr_ex.c **** 
 658              		.loc 1 365 21 is_stmt 0 view .LVU158
 659 0048 0020     		movs	r0, #0
 660              	.LVL49:
 661              		.loc 1 383 8 view .LVU159
 662 004a 7047     		bx	lr
 663              	.LVL50:
 664              	.L55:
 384:Drivers/STM32G4xx_HAL_Driver/Src/stm32g4xx_hal_pwr_ex.c ****     case PWR_GPIO_E:
 385:Drivers/STM32G4xx_HAL_Driver/Src/stm32g4xx_hal_pwr_ex.c ****        CLEAR_BIT(PWR->PUCRE, GPIONumber);
 665              		.loc 1 385 8 is_stmt 1 view .LVU160
 666 004c 0C4A     		ldr	r2, .L61
 667 004e 136C     		ldr	r3, [r2, #64]
 668 0050 23EA0103 		bic	r3, r3, r1
 669 0054 1364     		str	r3, [r2, #64]
 386:Drivers/STM32G4xx_HAL_Driver/Src/stm32g4xx_hal_pwr_ex.c ****        break;
 670              		.loc 1 386 8 view .LVU161
 365:Drivers/STM32G4xx_HAL_Driver/Src/stm32g4xx_hal_pwr_ex.c **** 
 671              		.loc 1 365 21 is_stmt 0 view .LVU162
 672 0056 0020     		movs	r0, #0
 673              	.LVL51:
 674              		.loc 1 386 8 view .LVU163
 675 0058 7047     		bx	lr
 676              	.LVL52:
 677              	.L54:
 387:Drivers/STM32G4xx_HAL_Driver/Src/stm32g4xx_hal_pwr_ex.c ****     case PWR_GPIO_F:
 388:Drivers/STM32G4xx_HAL_Driver/Src/stm32g4xx_hal_pwr_ex.c ****        CLEAR_BIT(PWR->PUCRF, (GPIONumber & PWR_PORTF_AVAILABLE_PINS));
 678              		.loc 1 388 8 is_stmt 1 view .LVU164
 679 005a 094A     		ldr	r2, .L61
 680 005c 936C     		ldr	r3, [r2, #72]
 681 005e 89B2     		uxth	r1, r1
 682              	.LVL53:
 683              		.loc 1 388 8 is_stmt 0 view .LVU165
 684 0060 23EA0101 		bic	r1, r3, r1
 685 0064 9164     		str	r1, [r2, #72]
 389:Drivers/STM32G4xx_HAL_Driver/Src/stm32g4xx_hal_pwr_ex.c ****        break;
 686              		.loc 1 389 8 is_stmt 1 view .LVU166
 365:Drivers/STM32G4xx_HAL_Driver/Src/stm32g4xx_hal_pwr_ex.c **** 
 687              		.loc 1 365 21 is_stmt 0 view .LVU167
 688 0066 0020     		movs	r0, #0
 689              	.LVL54:
 690              		.loc 1 389 8 view .LVU168
 691 0068 7047     		bx	lr
 692              	.LVL55:
 693              	.L52:
 390:Drivers/STM32G4xx_HAL_Driver/Src/stm32g4xx_hal_pwr_ex.c ****     case PWR_GPIO_G:
 391:Drivers/STM32G4xx_HAL_Driver/Src/stm32g4xx_hal_pwr_ex.c ****        CLEAR_BIT(PWR->PUCRG, (GPIONumber & PWR_PORTG_AVAILABLE_PINS));
 694              		.loc 1 391 8 is_stmt 1 view .LVU169
 695 006a 054A     		ldr	r2, .L61
 696 006c 136D     		ldr	r3, [r2, #80]
 697 006e C1F30A01 		ubfx	r1, r1, #0, #11
 698              	.LVL56:
 699              		.loc 1 391 8 is_stmt 0 view .LVU170
 700 0072 23EA0103 		bic	r3, r3, r1
 701 0076 1365     		str	r3, [r2, #80]
 392:Drivers/STM32G4xx_HAL_Driver/Src/stm32g4xx_hal_pwr_ex.c ****        break;
 702              		.loc 1 392 8 is_stmt 1 view .LVU171
ARM GAS  C:\Users\HRb\AppData\Local\Temp\ccj967tF.s 			page 21


 365:Drivers/STM32G4xx_HAL_Driver/Src/stm32g4xx_hal_pwr_ex.c **** 
 703              		.loc 1 365 21 is_stmt 0 view .LVU172
 704 0078 0020     		movs	r0, #0
 705              	.LVL57:
 706              		.loc 1 392 8 view .LVU173
 707 007a 7047     		bx	lr
 708              	.LVL58:
 709              	.L60:
 370:Drivers/STM32G4xx_HAL_Driver/Src/stm32g4xx_hal_pwr_ex.c ****   {
 710              		.loc 1 370 3 view .LVU174
 711 007c 0120     		movs	r0, #1
 712              	.LVL59:
 393:Drivers/STM32G4xx_HAL_Driver/Src/stm32g4xx_hal_pwr_ex.c ****     default:
 394:Drivers/STM32G4xx_HAL_Driver/Src/stm32g4xx_hal_pwr_ex.c ****        status = HAL_ERROR;
 395:Drivers/STM32G4xx_HAL_Driver/Src/stm32g4xx_hal_pwr_ex.c ****        break;
 396:Drivers/STM32G4xx_HAL_Driver/Src/stm32g4xx_hal_pwr_ex.c ****   }
 397:Drivers/STM32G4xx_HAL_Driver/Src/stm32g4xx_hal_pwr_ex.c **** 
 398:Drivers/STM32G4xx_HAL_Driver/Src/stm32g4xx_hal_pwr_ex.c ****   return status;
 713              		.loc 1 398 3 is_stmt 1 view .LVU175
 399:Drivers/STM32G4xx_HAL_Driver/Src/stm32g4xx_hal_pwr_ex.c **** }
 714              		.loc 1 399 1 is_stmt 0 view .LVU176
 715 007e 7047     		bx	lr
 716              	.L62:
 717              		.align	2
 718              	.L61:
 719 0080 00700040 		.word	1073770496
 720              		.cfi_endproc
 721              	.LFE336:
 723              		.section	.text.HAL_PWREx_EnableGPIOPullDown,"ax",%progbits
 724              		.align	1
 725              		.global	HAL_PWREx_EnableGPIOPullDown
 726              		.syntax unified
 727              		.thumb
 728              		.thumb_func
 730              	HAL_PWREx_EnableGPIOPullDown:
 731              	.LVL60:
 732              	.LFB337:
 400:Drivers/STM32G4xx_HAL_Driver/Src/stm32g4xx_hal_pwr_ex.c **** 
 401:Drivers/STM32G4xx_HAL_Driver/Src/stm32g4xx_hal_pwr_ex.c **** 
 402:Drivers/STM32G4xx_HAL_Driver/Src/stm32g4xx_hal_pwr_ex.c **** 
 403:Drivers/STM32G4xx_HAL_Driver/Src/stm32g4xx_hal_pwr_ex.c **** /**
 404:Drivers/STM32G4xx_HAL_Driver/Src/stm32g4xx_hal_pwr_ex.c ****   * @brief Enable GPIO pull-down state in Standby and Shutdown modes.
 405:Drivers/STM32G4xx_HAL_Driver/Src/stm32g4xx_hal_pwr_ex.c ****   * @note  Set the relevant PDy bits of PWR_PDCRx register to configure the I/O in
 406:Drivers/STM32G4xx_HAL_Driver/Src/stm32g4xx_hal_pwr_ex.c ****   *        pull-down state in Standby and Shutdown modes.
 407:Drivers/STM32G4xx_HAL_Driver/Src/stm32g4xx_hal_pwr_ex.c ****   * @note  This state is effective in Standby and Shutdown modes only if APC bit
 408:Drivers/STM32G4xx_HAL_Driver/Src/stm32g4xx_hal_pwr_ex.c ****   *        is set through HAL_PWREx_EnablePullUpPullDownConfig() API.
 409:Drivers/STM32G4xx_HAL_Driver/Src/stm32g4xx_hal_pwr_ex.c ****   * @note  The configuration is lost when exiting the Shutdown mode due to the
 410:Drivers/STM32G4xx_HAL_Driver/Src/stm32g4xx_hal_pwr_ex.c ****   *        power-on reset, maintained when exiting the Standby mode.
 411:Drivers/STM32G4xx_HAL_Driver/Src/stm32g4xx_hal_pwr_ex.c ****   * @note  To avoid any conflict at Standby and Shutdown modes exits, the corresponding
 412:Drivers/STM32G4xx_HAL_Driver/Src/stm32g4xx_hal_pwr_ex.c ****   *        PUy bit of PWR_PUCRx register is cleared unless it is reserved.
 413:Drivers/STM32G4xx_HAL_Driver/Src/stm32g4xx_hal_pwr_ex.c ****   * @note  Even if a PDy bit to set is reserved, the other PDy bits entered as input
 414:Drivers/STM32G4xx_HAL_Driver/Src/stm32g4xx_hal_pwr_ex.c ****   *        parameter at the same time are set.
 415:Drivers/STM32G4xx_HAL_Driver/Src/stm32g4xx_hal_pwr_ex.c ****   * @param  GPIO: Specify the IO port. This parameter can be PWR_GPIO_A..PWR_GPIO_G
 416:Drivers/STM32G4xx_HAL_Driver/Src/stm32g4xx_hal_pwr_ex.c ****   *         (or PWR_GPIO_I depending on the devices) to select the GPIO peripheral.
 417:Drivers/STM32G4xx_HAL_Driver/Src/stm32g4xx_hal_pwr_ex.c ****   * @param  GPIONumber: Specify the I/O pins numbers.
 418:Drivers/STM32G4xx_HAL_Driver/Src/stm32g4xx_hal_pwr_ex.c ****   *         This parameter can be one of the following values:
 419:Drivers/STM32G4xx_HAL_Driver/Src/stm32g4xx_hal_pwr_ex.c ****   *         PWR_GPIO_BIT_0, ..., PWR_GPIO_BIT_15 (except for the port where less
ARM GAS  C:\Users\HRb\AppData\Local\Temp\ccj967tF.s 			page 22


 420:Drivers/STM32G4xx_HAL_Driver/Src/stm32g4xx_hal_pwr_ex.c ****   *         I/O pins are available) or the logical OR of several of them to set
 421:Drivers/STM32G4xx_HAL_Driver/Src/stm32g4xx_hal_pwr_ex.c ****   *         several bits for a given port in a single API call.
 422:Drivers/STM32G4xx_HAL_Driver/Src/stm32g4xx_hal_pwr_ex.c ****   * @retval HAL Status
 423:Drivers/STM32G4xx_HAL_Driver/Src/stm32g4xx_hal_pwr_ex.c ****   */
 424:Drivers/STM32G4xx_HAL_Driver/Src/stm32g4xx_hal_pwr_ex.c **** HAL_StatusTypeDef HAL_PWREx_EnableGPIOPullDown(uint32_t GPIO, uint32_t GPIONumber)
 425:Drivers/STM32G4xx_HAL_Driver/Src/stm32g4xx_hal_pwr_ex.c **** {
 733              		.loc 1 425 1 is_stmt 1 view -0
 734              		.cfi_startproc
 735              		@ args = 0, pretend = 0, frame = 0
 736              		@ frame_needed = 0, uses_anonymous_args = 0
 737              		@ link register save eliminated.
 426:Drivers/STM32G4xx_HAL_Driver/Src/stm32g4xx_hal_pwr_ex.c ****   HAL_StatusTypeDef status = HAL_OK;
 738              		.loc 1 426 3 view .LVU178
 427:Drivers/STM32G4xx_HAL_Driver/Src/stm32g4xx_hal_pwr_ex.c **** 
 428:Drivers/STM32G4xx_HAL_Driver/Src/stm32g4xx_hal_pwr_ex.c ****   assert_param(IS_PWR_GPIO(GPIO));
 739              		.loc 1 428 3 view .LVU179
 429:Drivers/STM32G4xx_HAL_Driver/Src/stm32g4xx_hal_pwr_ex.c ****   assert_param(IS_PWR_GPIO_BIT_NUMBER(GPIONumber));
 740              		.loc 1 429 3 view .LVU180
 430:Drivers/STM32G4xx_HAL_Driver/Src/stm32g4xx_hal_pwr_ex.c **** 
 431:Drivers/STM32G4xx_HAL_Driver/Src/stm32g4xx_hal_pwr_ex.c ****   switch (GPIO)
 741              		.loc 1 431 3 view .LVU181
 742 0000 0628     		cmp	r0, #6
 743 0002 56D8     		bhi	.L73
 744 0004 DFE800F0 		tbb	[pc, r0]
 745              	.L66:
 746 0008 04       		.byte	(.L72-.L66)/2
 747 0009 12       		.byte	(.L71-.L66)/2
 748 000a 1E       		.byte	(.L70-.L66)/2
 749 000b 28       		.byte	(.L69-.L66)/2
 750 000c 32       		.byte	(.L68-.L66)/2
 751 000d 3C       		.byte	(.L67-.L66)/2
 752 000e 47       		.byte	(.L65-.L66)/2
 753 000f 00       		.p2align 1
 754              	.L72:
 432:Drivers/STM32G4xx_HAL_Driver/Src/stm32g4xx_hal_pwr_ex.c ****   {
 433:Drivers/STM32G4xx_HAL_Driver/Src/stm32g4xx_hal_pwr_ex.c ****     case PWR_GPIO_A:
 434:Drivers/STM32G4xx_HAL_Driver/Src/stm32g4xx_hal_pwr_ex.c ****        SET_BIT(PWR->PDCRA, (GPIONumber & (~(PWR_GPIO_BIT_13|PWR_GPIO_BIT_15))));
 755              		.loc 1 434 8 view .LVU182
 756 0010 294B     		ldr	r3, .L74
 757 0012 5A6A     		ldr	r2, [r3, #36]
 758 0014 21F42040 		bic	r0, r1, #40960
 759              	.LVL61:
 760              		.loc 1 434 8 is_stmt 0 view .LVU183
 761 0018 0243     		orrs	r2, r2, r0
 762 001a 5A62     		str	r2, [r3, #36]
 435:Drivers/STM32G4xx_HAL_Driver/Src/stm32g4xx_hal_pwr_ex.c ****        CLEAR_BIT(PWR->PUCRA, (GPIONumber & (~(PWR_GPIO_BIT_14))));
 763              		.loc 1 435 8 is_stmt 1 view .LVU184
 764 001c 1A6A     		ldr	r2, [r3, #32]
 765 001e 21F48041 		bic	r1, r1, #16384
 766              	.LVL62:
 767              		.loc 1 435 8 is_stmt 0 view .LVU185
 768 0022 22EA0102 		bic	r2, r2, r1
 769 0026 1A62     		str	r2, [r3, #32]
 436:Drivers/STM32G4xx_HAL_Driver/Src/stm32g4xx_hal_pwr_ex.c ****        break;
 770              		.loc 1 436 8 is_stmt 1 view .LVU186
 426:Drivers/STM32G4xx_HAL_Driver/Src/stm32g4xx_hal_pwr_ex.c **** 
 771              		.loc 1 426 21 is_stmt 0 view .LVU187
ARM GAS  C:\Users\HRb\AppData\Local\Temp\ccj967tF.s 			page 23


 772 0028 0020     		movs	r0, #0
 773              		.loc 1 436 8 view .LVU188
 774 002a 7047     		bx	lr
 775              	.LVL63:
 776              	.L71:
 437:Drivers/STM32G4xx_HAL_Driver/Src/stm32g4xx_hal_pwr_ex.c ****     case PWR_GPIO_B:
 438:Drivers/STM32G4xx_HAL_Driver/Src/stm32g4xx_hal_pwr_ex.c ****        SET_BIT(PWR->PDCRB, (GPIONumber & (~(PWR_GPIO_BIT_4))));
 777              		.loc 1 438 8 is_stmt 1 view .LVU189
 778 002c 224B     		ldr	r3, .L74
 779 002e DA6A     		ldr	r2, [r3, #44]
 780 0030 21F01000 		bic	r0, r1, #16
 781              	.LVL64:
 782              		.loc 1 438 8 is_stmt 0 view .LVU190
 783 0034 0243     		orrs	r2, r2, r0
 784 0036 DA62     		str	r2, [r3, #44]
 439:Drivers/STM32G4xx_HAL_Driver/Src/stm32g4xx_hal_pwr_ex.c ****        CLEAR_BIT(PWR->PUCRB, GPIONumber);
 785              		.loc 1 439 8 is_stmt 1 view .LVU191
 786 0038 9A6A     		ldr	r2, [r3, #40]
 787 003a 22EA0102 		bic	r2, r2, r1
 788 003e 9A62     		str	r2, [r3, #40]
 440:Drivers/STM32G4xx_HAL_Driver/Src/stm32g4xx_hal_pwr_ex.c ****        break;
 789              		.loc 1 440 8 view .LVU192
 426:Drivers/STM32G4xx_HAL_Driver/Src/stm32g4xx_hal_pwr_ex.c **** 
 790              		.loc 1 426 21 is_stmt 0 view .LVU193
 791 0040 0020     		movs	r0, #0
 792              		.loc 1 440 8 view .LVU194
 793 0042 7047     		bx	lr
 794              	.LVL65:
 795              	.L70:
 441:Drivers/STM32G4xx_HAL_Driver/Src/stm32g4xx_hal_pwr_ex.c ****     case PWR_GPIO_C:
 442:Drivers/STM32G4xx_HAL_Driver/Src/stm32g4xx_hal_pwr_ex.c ****        SET_BIT(PWR->PDCRC, GPIONumber);
 796              		.loc 1 442 8 is_stmt 1 view .LVU195
 797 0044 1C4B     		ldr	r3, .L74
 798 0046 5A6B     		ldr	r2, [r3, #52]
 799 0048 0A43     		orrs	r2, r2, r1
 800 004a 5A63     		str	r2, [r3, #52]
 443:Drivers/STM32G4xx_HAL_Driver/Src/stm32g4xx_hal_pwr_ex.c ****        CLEAR_BIT(PWR->PUCRC, GPIONumber);
 801              		.loc 1 443 8 view .LVU196
 802 004c 1A6B     		ldr	r2, [r3, #48]
 803 004e 22EA0102 		bic	r2, r2, r1
 804 0052 1A63     		str	r2, [r3, #48]
 444:Drivers/STM32G4xx_HAL_Driver/Src/stm32g4xx_hal_pwr_ex.c ****        break;
 805              		.loc 1 444 8 view .LVU197
 426:Drivers/STM32G4xx_HAL_Driver/Src/stm32g4xx_hal_pwr_ex.c **** 
 806              		.loc 1 426 21 is_stmt 0 view .LVU198
 807 0054 0020     		movs	r0, #0
 808              	.LVL66:
 809              		.loc 1 444 8 view .LVU199
 810 0056 7047     		bx	lr
 811              	.LVL67:
 812              	.L69:
 445:Drivers/STM32G4xx_HAL_Driver/Src/stm32g4xx_hal_pwr_ex.c ****     case PWR_GPIO_D:
 446:Drivers/STM32G4xx_HAL_Driver/Src/stm32g4xx_hal_pwr_ex.c ****        SET_BIT(PWR->PDCRD, GPIONumber);
 813              		.loc 1 446 8 is_stmt 1 view .LVU200
 814 0058 174B     		ldr	r3, .L74
 815 005a DA6B     		ldr	r2, [r3, #60]
 816 005c 0A43     		orrs	r2, r2, r1
ARM GAS  C:\Users\HRb\AppData\Local\Temp\ccj967tF.s 			page 24


 817 005e DA63     		str	r2, [r3, #60]
 447:Drivers/STM32G4xx_HAL_Driver/Src/stm32g4xx_hal_pwr_ex.c ****        CLEAR_BIT(PWR->PUCRD, GPIONumber);
 818              		.loc 1 447 8 view .LVU201
 819 0060 9A6B     		ldr	r2, [r3, #56]
 820 0062 22EA0102 		bic	r2, r2, r1
 821 0066 9A63     		str	r2, [r3, #56]
 448:Drivers/STM32G4xx_HAL_Driver/Src/stm32g4xx_hal_pwr_ex.c ****        break;
 822              		.loc 1 448 8 view .LVU202
 426:Drivers/STM32G4xx_HAL_Driver/Src/stm32g4xx_hal_pwr_ex.c **** 
 823              		.loc 1 426 21 is_stmt 0 view .LVU203
 824 0068 0020     		movs	r0, #0
 825              	.LVL68:
 826              		.loc 1 448 8 view .LVU204
 827 006a 7047     		bx	lr
 828              	.LVL69:
 829              	.L68:
 449:Drivers/STM32G4xx_HAL_Driver/Src/stm32g4xx_hal_pwr_ex.c ****     case PWR_GPIO_E:
 450:Drivers/STM32G4xx_HAL_Driver/Src/stm32g4xx_hal_pwr_ex.c ****        SET_BIT(PWR->PDCRE, GPIONumber);
 830              		.loc 1 450 8 is_stmt 1 view .LVU205
 831 006c 124B     		ldr	r3, .L74
 832 006e 5A6C     		ldr	r2, [r3, #68]
 833 0070 0A43     		orrs	r2, r2, r1
 834 0072 5A64     		str	r2, [r3, #68]
 451:Drivers/STM32G4xx_HAL_Driver/Src/stm32g4xx_hal_pwr_ex.c ****        CLEAR_BIT(PWR->PUCRE, GPIONumber);
 835              		.loc 1 451 8 view .LVU206
 836 0074 1A6C     		ldr	r2, [r3, #64]
 837 0076 22EA0102 		bic	r2, r2, r1
 838 007a 1A64     		str	r2, [r3, #64]
 452:Drivers/STM32G4xx_HAL_Driver/Src/stm32g4xx_hal_pwr_ex.c ****        break;
 839              		.loc 1 452 8 view .LVU207
 426:Drivers/STM32G4xx_HAL_Driver/Src/stm32g4xx_hal_pwr_ex.c **** 
 840              		.loc 1 426 21 is_stmt 0 view .LVU208
 841 007c 0020     		movs	r0, #0
 842              	.LVL70:
 843              		.loc 1 452 8 view .LVU209
 844 007e 7047     		bx	lr
 845              	.LVL71:
 846              	.L67:
 453:Drivers/STM32G4xx_HAL_Driver/Src/stm32g4xx_hal_pwr_ex.c ****     case PWR_GPIO_F:
 454:Drivers/STM32G4xx_HAL_Driver/Src/stm32g4xx_hal_pwr_ex.c ****        SET_BIT(PWR->PDCRF, (GPIONumber & PWR_PORTF_AVAILABLE_PINS));
 847              		.loc 1 454 8 is_stmt 1 view .LVU210
 848 0080 0D4B     		ldr	r3, .L74
 849 0082 DA6C     		ldr	r2, [r3, #76]
 850 0084 89B2     		uxth	r1, r1
 851              	.LVL72:
 852              		.loc 1 454 8 is_stmt 0 view .LVU211
 853 0086 0A43     		orrs	r2, r2, r1
 854 0088 DA64     		str	r2, [r3, #76]
 455:Drivers/STM32G4xx_HAL_Driver/Src/stm32g4xx_hal_pwr_ex.c ****        CLEAR_BIT(PWR->PUCRF, (GPIONumber & PWR_PORTF_AVAILABLE_PINS));
 855              		.loc 1 455 8 is_stmt 1 view .LVU212
 856 008a 9A6C     		ldr	r2, [r3, #72]
 857 008c 22EA0102 		bic	r2, r2, r1
 858 0090 9A64     		str	r2, [r3, #72]
 456:Drivers/STM32G4xx_HAL_Driver/Src/stm32g4xx_hal_pwr_ex.c ****        break;
 859              		.loc 1 456 8 view .LVU213
 426:Drivers/STM32G4xx_HAL_Driver/Src/stm32g4xx_hal_pwr_ex.c **** 
 860              		.loc 1 426 21 is_stmt 0 view .LVU214
ARM GAS  C:\Users\HRb\AppData\Local\Temp\ccj967tF.s 			page 25


 861 0092 0020     		movs	r0, #0
 862              	.LVL73:
 863              		.loc 1 456 8 view .LVU215
 864 0094 7047     		bx	lr
 865              	.LVL74:
 866              	.L65:
 457:Drivers/STM32G4xx_HAL_Driver/Src/stm32g4xx_hal_pwr_ex.c ****     case PWR_GPIO_G:
 458:Drivers/STM32G4xx_HAL_Driver/Src/stm32g4xx_hal_pwr_ex.c ****        SET_BIT(PWR->PDCRG, ((GPIONumber & PWR_PORTG_AVAILABLE_PINS) & (~(PWR_GPIO_BIT_10))));
 867              		.loc 1 458 8 is_stmt 1 view .LVU216
 868 0096 084B     		ldr	r3, .L74
 869 0098 5A6D     		ldr	r2, [r3, #84]
 870 009a C1F30900 		ubfx	r0, r1, #0, #10
 871              	.LVL75:
 872              		.loc 1 458 8 is_stmt 0 view .LVU217
 873 009e 0243     		orrs	r2, r2, r0
 874 00a0 5A65     		str	r2, [r3, #84]
 459:Drivers/STM32G4xx_HAL_Driver/Src/stm32g4xx_hal_pwr_ex.c ****        CLEAR_BIT(PWR->PUCRG, (GPIONumber & PWR_PORTG_AVAILABLE_PINS));
 875              		.loc 1 459 8 is_stmt 1 view .LVU218
 876 00a2 1A6D     		ldr	r2, [r3, #80]
 877 00a4 C1F30A01 		ubfx	r1, r1, #0, #11
 878              	.LVL76:
 879              		.loc 1 459 8 is_stmt 0 view .LVU219
 880 00a8 22EA0102 		bic	r2, r2, r1
 881 00ac 1A65     		str	r2, [r3, #80]
 460:Drivers/STM32G4xx_HAL_Driver/Src/stm32g4xx_hal_pwr_ex.c ****        break;
 882              		.loc 1 460 8 is_stmt 1 view .LVU220
 426:Drivers/STM32G4xx_HAL_Driver/Src/stm32g4xx_hal_pwr_ex.c **** 
 883              		.loc 1 426 21 is_stmt 0 view .LVU221
 884 00ae 0020     		movs	r0, #0
 885              		.loc 1 460 8 view .LVU222
 886 00b0 7047     		bx	lr
 887              	.LVL77:
 888              	.L73:
 431:Drivers/STM32G4xx_HAL_Driver/Src/stm32g4xx_hal_pwr_ex.c ****   {
 889              		.loc 1 431 3 view .LVU223
 890 00b2 0120     		movs	r0, #1
 891              	.LVL78:
 461:Drivers/STM32G4xx_HAL_Driver/Src/stm32g4xx_hal_pwr_ex.c ****     default:
 462:Drivers/STM32G4xx_HAL_Driver/Src/stm32g4xx_hal_pwr_ex.c ****       status = HAL_ERROR;
 463:Drivers/STM32G4xx_HAL_Driver/Src/stm32g4xx_hal_pwr_ex.c ****       break;
 464:Drivers/STM32G4xx_HAL_Driver/Src/stm32g4xx_hal_pwr_ex.c ****   }
 465:Drivers/STM32G4xx_HAL_Driver/Src/stm32g4xx_hal_pwr_ex.c **** 
 466:Drivers/STM32G4xx_HAL_Driver/Src/stm32g4xx_hal_pwr_ex.c ****   return status;
 892              		.loc 1 466 3 is_stmt 1 view .LVU224
 467:Drivers/STM32G4xx_HAL_Driver/Src/stm32g4xx_hal_pwr_ex.c **** }
 893              		.loc 1 467 1 is_stmt 0 view .LVU225
 894 00b4 7047     		bx	lr
 895              	.L75:
 896 00b6 00BF     		.align	2
 897              	.L74:
 898 00b8 00700040 		.word	1073770496
 899              		.cfi_endproc
 900              	.LFE337:
 902              		.section	.text.HAL_PWREx_DisableGPIOPullDown,"ax",%progbits
 903              		.align	1
 904              		.global	HAL_PWREx_DisableGPIOPullDown
 905              		.syntax unified
ARM GAS  C:\Users\HRb\AppData\Local\Temp\ccj967tF.s 			page 26


 906              		.thumb
 907              		.thumb_func
 909              	HAL_PWREx_DisableGPIOPullDown:
 910              	.LVL79:
 911              	.LFB338:
 468:Drivers/STM32G4xx_HAL_Driver/Src/stm32g4xx_hal_pwr_ex.c **** 
 469:Drivers/STM32G4xx_HAL_Driver/Src/stm32g4xx_hal_pwr_ex.c **** 
 470:Drivers/STM32G4xx_HAL_Driver/Src/stm32g4xx_hal_pwr_ex.c **** /**
 471:Drivers/STM32G4xx_HAL_Driver/Src/stm32g4xx_hal_pwr_ex.c ****   * @brief Disable GPIO pull-down state in Standby and Shutdown modes.
 472:Drivers/STM32G4xx_HAL_Driver/Src/stm32g4xx_hal_pwr_ex.c ****   * @note  Reset the relevant PDy bits of PWR_PDCRx register used to configure the I/O
 473:Drivers/STM32G4xx_HAL_Driver/Src/stm32g4xx_hal_pwr_ex.c ****   *        in pull-down state in Standby and Shutdown modes.
 474:Drivers/STM32G4xx_HAL_Driver/Src/stm32g4xx_hal_pwr_ex.c ****   * @note  Even if a PDy bit to reset is reserved, the other PDy bits entered as input
 475:Drivers/STM32G4xx_HAL_Driver/Src/stm32g4xx_hal_pwr_ex.c ****   *        parameter at the same time are reset.
 476:Drivers/STM32G4xx_HAL_Driver/Src/stm32g4xx_hal_pwr_ex.c ****   * @param  GPIO: Specifies the IO port. This parameter can be PWR_GPIO_A..PWR_GPIO_G
 477:Drivers/STM32G4xx_HAL_Driver/Src/stm32g4xx_hal_pwr_ex.c ****   *         (or PWR_GPIO_I depending on the devices) to select the GPIO peripheral.
 478:Drivers/STM32G4xx_HAL_Driver/Src/stm32g4xx_hal_pwr_ex.c ****   * @param  GPIONumber: Specify the I/O pins numbers.
 479:Drivers/STM32G4xx_HAL_Driver/Src/stm32g4xx_hal_pwr_ex.c ****   *         This parameter can be one of the following values:
 480:Drivers/STM32G4xx_HAL_Driver/Src/stm32g4xx_hal_pwr_ex.c ****   *         PWR_GPIO_BIT_0, ..., PWR_GPIO_BIT_15 (except for the port where less
 481:Drivers/STM32G4xx_HAL_Driver/Src/stm32g4xx_hal_pwr_ex.c ****   *         I/O pins are available) or the logical OR of several of them to reset
 482:Drivers/STM32G4xx_HAL_Driver/Src/stm32g4xx_hal_pwr_ex.c ****   *         several bits for a given port in a single API call.
 483:Drivers/STM32G4xx_HAL_Driver/Src/stm32g4xx_hal_pwr_ex.c ****   * @retval HAL Status
 484:Drivers/STM32G4xx_HAL_Driver/Src/stm32g4xx_hal_pwr_ex.c ****   */
 485:Drivers/STM32G4xx_HAL_Driver/Src/stm32g4xx_hal_pwr_ex.c **** HAL_StatusTypeDef HAL_PWREx_DisableGPIOPullDown(uint32_t GPIO, uint32_t GPIONumber)
 486:Drivers/STM32G4xx_HAL_Driver/Src/stm32g4xx_hal_pwr_ex.c **** {
 912              		.loc 1 486 1 is_stmt 1 view -0
 913              		.cfi_startproc
 914              		@ args = 0, pretend = 0, frame = 0
 915              		@ frame_needed = 0, uses_anonymous_args = 0
 916              		@ link register save eliminated.
 487:Drivers/STM32G4xx_HAL_Driver/Src/stm32g4xx_hal_pwr_ex.c ****   HAL_StatusTypeDef status = HAL_OK;
 917              		.loc 1 487 3 view .LVU227
 488:Drivers/STM32G4xx_HAL_Driver/Src/stm32g4xx_hal_pwr_ex.c **** 
 489:Drivers/STM32G4xx_HAL_Driver/Src/stm32g4xx_hal_pwr_ex.c ****   assert_param(IS_PWR_GPIO(GPIO));
 918              		.loc 1 489 3 view .LVU228
 490:Drivers/STM32G4xx_HAL_Driver/Src/stm32g4xx_hal_pwr_ex.c ****   assert_param(IS_PWR_GPIO_BIT_NUMBER(GPIONumber));
 919              		.loc 1 490 3 view .LVU229
 491:Drivers/STM32G4xx_HAL_Driver/Src/stm32g4xx_hal_pwr_ex.c **** 
 492:Drivers/STM32G4xx_HAL_Driver/Src/stm32g4xx_hal_pwr_ex.c ****   switch (GPIO)
 920              		.loc 1 492 3 view .LVU230
 921 0000 0628     		cmp	r0, #6
 922 0002 3DD8     		bhi	.L86
 923 0004 DFE800F0 		tbb	[pc, r0]
 924              	.L79:
 925 0008 04       		.byte	(.L85-.L79)/2
 926 0009 0D       		.byte	(.L84-.L79)/2
 927 000a 16       		.byte	(.L83-.L79)/2
 928 000b 1D       		.byte	(.L82-.L79)/2
 929 000c 24       		.byte	(.L81-.L79)/2
 930 000d 2B       		.byte	(.L80-.L79)/2
 931 000e 33       		.byte	(.L78-.L79)/2
 932 000f 00       		.p2align 1
 933              	.L85:
 493:Drivers/STM32G4xx_HAL_Driver/Src/stm32g4xx_hal_pwr_ex.c ****   {
 494:Drivers/STM32G4xx_HAL_Driver/Src/stm32g4xx_hal_pwr_ex.c ****     case PWR_GPIO_A:
 495:Drivers/STM32G4xx_HAL_Driver/Src/stm32g4xx_hal_pwr_ex.c ****        CLEAR_BIT(PWR->PDCRA, (GPIONumber & (~(PWR_GPIO_BIT_13|PWR_GPIO_BIT_15))));
 934              		.loc 1 495 8 view .LVU231
 935 0010 1C4A     		ldr	r2, .L87
ARM GAS  C:\Users\HRb\AppData\Local\Temp\ccj967tF.s 			page 27


 936 0012 536A     		ldr	r3, [r2, #36]
 937 0014 21F42041 		bic	r1, r1, #40960
 938              	.LVL80:
 939              		.loc 1 495 8 is_stmt 0 view .LVU232
 940 0018 23EA0101 		bic	r1, r3, r1
 941 001c 5162     		str	r1, [r2, #36]
 496:Drivers/STM32G4xx_HAL_Driver/Src/stm32g4xx_hal_pwr_ex.c ****        break;
 942              		.loc 1 496 8 is_stmt 1 view .LVU233
 487:Drivers/STM32G4xx_HAL_Driver/Src/stm32g4xx_hal_pwr_ex.c **** 
 943              		.loc 1 487 21 is_stmt 0 view .LVU234
 944 001e 0020     		movs	r0, #0
 945              	.LVL81:
 946              		.loc 1 496 8 view .LVU235
 947 0020 7047     		bx	lr
 948              	.LVL82:
 949              	.L84:
 497:Drivers/STM32G4xx_HAL_Driver/Src/stm32g4xx_hal_pwr_ex.c ****     case PWR_GPIO_B:
 498:Drivers/STM32G4xx_HAL_Driver/Src/stm32g4xx_hal_pwr_ex.c ****        CLEAR_BIT(PWR->PDCRB, (GPIONumber & (~(PWR_GPIO_BIT_4))));
 950              		.loc 1 498 8 is_stmt 1 view .LVU236
 951 0022 184A     		ldr	r2, .L87
 952 0024 D36A     		ldr	r3, [r2, #44]
 953 0026 21F01001 		bic	r1, r1, #16
 954              	.LVL83:
 955              		.loc 1 498 8 is_stmt 0 view .LVU237
 956 002a 23EA0101 		bic	r1, r3, r1
 957 002e D162     		str	r1, [r2, #44]
 499:Drivers/STM32G4xx_HAL_Driver/Src/stm32g4xx_hal_pwr_ex.c ****        break;
 958              		.loc 1 499 8 is_stmt 1 view .LVU238
 487:Drivers/STM32G4xx_HAL_Driver/Src/stm32g4xx_hal_pwr_ex.c **** 
 959              		.loc 1 487 21 is_stmt 0 view .LVU239
 960 0030 0020     		movs	r0, #0
 961              	.LVL84:
 962              		.loc 1 499 8 view .LVU240
 963 0032 7047     		bx	lr
 964              	.LVL85:
 965              	.L83:
 500:Drivers/STM32G4xx_HAL_Driver/Src/stm32g4xx_hal_pwr_ex.c ****     case PWR_GPIO_C:
 501:Drivers/STM32G4xx_HAL_Driver/Src/stm32g4xx_hal_pwr_ex.c ****        CLEAR_BIT(PWR->PDCRC, GPIONumber);
 966              		.loc 1 501 8 is_stmt 1 view .LVU241
 967 0034 134A     		ldr	r2, .L87
 968 0036 536B     		ldr	r3, [r2, #52]
 969 0038 23EA0103 		bic	r3, r3, r1
 970 003c 5363     		str	r3, [r2, #52]
 502:Drivers/STM32G4xx_HAL_Driver/Src/stm32g4xx_hal_pwr_ex.c ****        break;
 971              		.loc 1 502 8 view .LVU242
 487:Drivers/STM32G4xx_HAL_Driver/Src/stm32g4xx_hal_pwr_ex.c **** 
 972              		.loc 1 487 21 is_stmt 0 view .LVU243
 973 003e 0020     		movs	r0, #0
 974              	.LVL86:
 975              		.loc 1 502 8 view .LVU244
 976 0040 7047     		bx	lr
 977              	.LVL87:
 978              	.L82:
 503:Drivers/STM32G4xx_HAL_Driver/Src/stm32g4xx_hal_pwr_ex.c ****     case PWR_GPIO_D:
 504:Drivers/STM32G4xx_HAL_Driver/Src/stm32g4xx_hal_pwr_ex.c ****        CLEAR_BIT(PWR->PDCRD, GPIONumber);
 979              		.loc 1 504 8 is_stmt 1 view .LVU245
 980 0042 104A     		ldr	r2, .L87
ARM GAS  C:\Users\HRb\AppData\Local\Temp\ccj967tF.s 			page 28


 981 0044 D36B     		ldr	r3, [r2, #60]
 982 0046 23EA0103 		bic	r3, r3, r1
 983 004a D363     		str	r3, [r2, #60]
 505:Drivers/STM32G4xx_HAL_Driver/Src/stm32g4xx_hal_pwr_ex.c ****        break;
 984              		.loc 1 505 8 view .LVU246
 487:Drivers/STM32G4xx_HAL_Driver/Src/stm32g4xx_hal_pwr_ex.c **** 
 985              		.loc 1 487 21 is_stmt 0 view .LVU247
 986 004c 0020     		movs	r0, #0
 987              	.LVL88:
 988              		.loc 1 505 8 view .LVU248
 989 004e 7047     		bx	lr
 990              	.LVL89:
 991              	.L81:
 506:Drivers/STM32G4xx_HAL_Driver/Src/stm32g4xx_hal_pwr_ex.c ****     case PWR_GPIO_E:
 507:Drivers/STM32G4xx_HAL_Driver/Src/stm32g4xx_hal_pwr_ex.c ****        CLEAR_BIT(PWR->PDCRE, GPIONumber);
 992              		.loc 1 507 8 is_stmt 1 view .LVU249
 993 0050 0C4A     		ldr	r2, .L87
 994 0052 536C     		ldr	r3, [r2, #68]
 995 0054 23EA0103 		bic	r3, r3, r1
 996 0058 5364     		str	r3, [r2, #68]
 508:Drivers/STM32G4xx_HAL_Driver/Src/stm32g4xx_hal_pwr_ex.c ****        break;
 997              		.loc 1 508 8 view .LVU250
 487:Drivers/STM32G4xx_HAL_Driver/Src/stm32g4xx_hal_pwr_ex.c **** 
 998              		.loc 1 487 21 is_stmt 0 view .LVU251
 999 005a 0020     		movs	r0, #0
 1000              	.LVL90:
 1001              		.loc 1 508 8 view .LVU252
 1002 005c 7047     		bx	lr
 1003              	.LVL91:
 1004              	.L80:
 509:Drivers/STM32G4xx_HAL_Driver/Src/stm32g4xx_hal_pwr_ex.c ****     case PWR_GPIO_F:
 510:Drivers/STM32G4xx_HAL_Driver/Src/stm32g4xx_hal_pwr_ex.c ****        CLEAR_BIT(PWR->PDCRF, (GPIONumber & PWR_PORTF_AVAILABLE_PINS));
 1005              		.loc 1 510 8 is_stmt 1 view .LVU253
 1006 005e 094A     		ldr	r2, .L87
 1007 0060 D36C     		ldr	r3, [r2, #76]
 1008 0062 89B2     		uxth	r1, r1
 1009              	.LVL92:
 1010              		.loc 1 510 8 is_stmt 0 view .LVU254
 1011 0064 23EA0101 		bic	r1, r3, r1
 1012 0068 D164     		str	r1, [r2, #76]
 511:Drivers/STM32G4xx_HAL_Driver/Src/stm32g4xx_hal_pwr_ex.c ****        break;
 1013              		.loc 1 511 8 is_stmt 1 view .LVU255
 487:Drivers/STM32G4xx_HAL_Driver/Src/stm32g4xx_hal_pwr_ex.c **** 
 1014              		.loc 1 487 21 is_stmt 0 view .LVU256
 1015 006a 0020     		movs	r0, #0
 1016              	.LVL93:
 1017              		.loc 1 511 8 view .LVU257
 1018 006c 7047     		bx	lr
 1019              	.LVL94:
 1020              	.L78:
 512:Drivers/STM32G4xx_HAL_Driver/Src/stm32g4xx_hal_pwr_ex.c ****     case PWR_GPIO_G:
 513:Drivers/STM32G4xx_HAL_Driver/Src/stm32g4xx_hal_pwr_ex.c ****        CLEAR_BIT(PWR->PDCRG, ((GPIONumber & PWR_PORTG_AVAILABLE_PINS) & (~(PWR_GPIO_BIT_10))));
 1021              		.loc 1 513 8 is_stmt 1 view .LVU258
 1022 006e 054A     		ldr	r2, .L87
 1023 0070 536D     		ldr	r3, [r2, #84]
 1024 0072 C1F30901 		ubfx	r1, r1, #0, #10
 1025              	.LVL95:
ARM GAS  C:\Users\HRb\AppData\Local\Temp\ccj967tF.s 			page 29


 1026              		.loc 1 513 8 is_stmt 0 view .LVU259
 1027 0076 23EA0103 		bic	r3, r3, r1
 1028 007a 5365     		str	r3, [r2, #84]
 514:Drivers/STM32G4xx_HAL_Driver/Src/stm32g4xx_hal_pwr_ex.c ****        break;
 1029              		.loc 1 514 8 is_stmt 1 view .LVU260
 487:Drivers/STM32G4xx_HAL_Driver/Src/stm32g4xx_hal_pwr_ex.c **** 
 1030              		.loc 1 487 21 is_stmt 0 view .LVU261
 1031 007c 0020     		movs	r0, #0
 1032              	.LVL96:
 1033              		.loc 1 514 8 view .LVU262
 1034 007e 7047     		bx	lr
 1035              	.LVL97:
 1036              	.L86:
 492:Drivers/STM32G4xx_HAL_Driver/Src/stm32g4xx_hal_pwr_ex.c ****   {
 1037              		.loc 1 492 3 view .LVU263
 1038 0080 0120     		movs	r0, #1
 1039              	.LVL98:
 515:Drivers/STM32G4xx_HAL_Driver/Src/stm32g4xx_hal_pwr_ex.c ****     default:
 516:Drivers/STM32G4xx_HAL_Driver/Src/stm32g4xx_hal_pwr_ex.c ****       status = HAL_ERROR;
 517:Drivers/STM32G4xx_HAL_Driver/Src/stm32g4xx_hal_pwr_ex.c ****       break;
 518:Drivers/STM32G4xx_HAL_Driver/Src/stm32g4xx_hal_pwr_ex.c ****   }
 519:Drivers/STM32G4xx_HAL_Driver/Src/stm32g4xx_hal_pwr_ex.c **** 
 520:Drivers/STM32G4xx_HAL_Driver/Src/stm32g4xx_hal_pwr_ex.c ****   return status;
 1040              		.loc 1 520 3 is_stmt 1 view .LVU264
 521:Drivers/STM32G4xx_HAL_Driver/Src/stm32g4xx_hal_pwr_ex.c **** }
 1041              		.loc 1 521 1 is_stmt 0 view .LVU265
 1042 0082 7047     		bx	lr
 1043              	.L88:
 1044              		.align	2
 1045              	.L87:
 1046 0084 00700040 		.word	1073770496
 1047              		.cfi_endproc
 1048              	.LFE338:
 1050              		.section	.text.HAL_PWREx_EnablePullUpPullDownConfig,"ax",%progbits
 1051              		.align	1
 1052              		.global	HAL_PWREx_EnablePullUpPullDownConfig
 1053              		.syntax unified
 1054              		.thumb
 1055              		.thumb_func
 1057              	HAL_PWREx_EnablePullUpPullDownConfig:
 1058              	.LFB339:
 522:Drivers/STM32G4xx_HAL_Driver/Src/stm32g4xx_hal_pwr_ex.c **** 
 523:Drivers/STM32G4xx_HAL_Driver/Src/stm32g4xx_hal_pwr_ex.c **** 
 524:Drivers/STM32G4xx_HAL_Driver/Src/stm32g4xx_hal_pwr_ex.c **** 
 525:Drivers/STM32G4xx_HAL_Driver/Src/stm32g4xx_hal_pwr_ex.c **** /**
 526:Drivers/STM32G4xx_HAL_Driver/Src/stm32g4xx_hal_pwr_ex.c ****   * @brief Enable pull-up and pull-down configuration.
 527:Drivers/STM32G4xx_HAL_Driver/Src/stm32g4xx_hal_pwr_ex.c ****   * @note  When APC bit is set, the I/O pull-up and pull-down configurations defined in
 528:Drivers/STM32G4xx_HAL_Driver/Src/stm32g4xx_hal_pwr_ex.c ****   *        PWR_PUCRx and PWR_PDCRx registers are applied in Standby and Shutdown modes.
 529:Drivers/STM32G4xx_HAL_Driver/Src/stm32g4xx_hal_pwr_ex.c ****   * @note  Pull-up set by PUy bit of PWR_PUCRx register is not activated if the corresponding
 530:Drivers/STM32G4xx_HAL_Driver/Src/stm32g4xx_hal_pwr_ex.c ****   *        PDy bit of PWR_PDCRx register is also set (pull-down configuration priority is higher).
 531:Drivers/STM32G4xx_HAL_Driver/Src/stm32g4xx_hal_pwr_ex.c ****   *        HAL_PWREx_EnableGPIOPullUp() and HAL_PWREx_EnableGPIOPullDown() API's ensure there
 532:Drivers/STM32G4xx_HAL_Driver/Src/stm32g4xx_hal_pwr_ex.c ****   *        is no conflict when setting PUy or PDy bit.
 533:Drivers/STM32G4xx_HAL_Driver/Src/stm32g4xx_hal_pwr_ex.c ****   * @retval None
 534:Drivers/STM32G4xx_HAL_Driver/Src/stm32g4xx_hal_pwr_ex.c ****   */
 535:Drivers/STM32G4xx_HAL_Driver/Src/stm32g4xx_hal_pwr_ex.c **** void HAL_PWREx_EnablePullUpPullDownConfig(void)
 536:Drivers/STM32G4xx_HAL_Driver/Src/stm32g4xx_hal_pwr_ex.c **** {
 1059              		.loc 1 536 1 is_stmt 1 view -0
ARM GAS  C:\Users\HRb\AppData\Local\Temp\ccj967tF.s 			page 30


 1060              		.cfi_startproc
 1061              		@ args = 0, pretend = 0, frame = 0
 1062              		@ frame_needed = 0, uses_anonymous_args = 0
 1063              		@ link register save eliminated.
 537:Drivers/STM32G4xx_HAL_Driver/Src/stm32g4xx_hal_pwr_ex.c ****   SET_BIT(PWR->CR3, PWR_CR3_APC);
 1064              		.loc 1 537 3 view .LVU267
 1065 0000 024A     		ldr	r2, .L90
 1066 0002 9368     		ldr	r3, [r2, #8]
 1067 0004 43F48063 		orr	r3, r3, #1024
 1068 0008 9360     		str	r3, [r2, #8]
 538:Drivers/STM32G4xx_HAL_Driver/Src/stm32g4xx_hal_pwr_ex.c **** }
 1069              		.loc 1 538 1 is_stmt 0 view .LVU268
 1070 000a 7047     		bx	lr
 1071              	.L91:
 1072              		.align	2
 1073              	.L90:
 1074 000c 00700040 		.word	1073770496
 1075              		.cfi_endproc
 1076              	.LFE339:
 1078              		.section	.text.HAL_PWREx_DisablePullUpPullDownConfig,"ax",%progbits
 1079              		.align	1
 1080              		.global	HAL_PWREx_DisablePullUpPullDownConfig
 1081              		.syntax unified
 1082              		.thumb
 1083              		.thumb_func
 1085              	HAL_PWREx_DisablePullUpPullDownConfig:
 1086              	.LFB340:
 539:Drivers/STM32G4xx_HAL_Driver/Src/stm32g4xx_hal_pwr_ex.c **** 
 540:Drivers/STM32G4xx_HAL_Driver/Src/stm32g4xx_hal_pwr_ex.c **** 
 541:Drivers/STM32G4xx_HAL_Driver/Src/stm32g4xx_hal_pwr_ex.c **** /**
 542:Drivers/STM32G4xx_HAL_Driver/Src/stm32g4xx_hal_pwr_ex.c ****   * @brief Disable pull-up and pull-down configuration.
 543:Drivers/STM32G4xx_HAL_Driver/Src/stm32g4xx_hal_pwr_ex.c ****   * @note  When APC bit is cleared, the I/O pull-up and pull-down configurations defined in
 544:Drivers/STM32G4xx_HAL_Driver/Src/stm32g4xx_hal_pwr_ex.c ****   *        PWR_PUCRx and PWR_PDCRx registers are not applied in Standby and Shutdown modes.
 545:Drivers/STM32G4xx_HAL_Driver/Src/stm32g4xx_hal_pwr_ex.c ****   * @retval None
 546:Drivers/STM32G4xx_HAL_Driver/Src/stm32g4xx_hal_pwr_ex.c ****   */
 547:Drivers/STM32G4xx_HAL_Driver/Src/stm32g4xx_hal_pwr_ex.c **** void HAL_PWREx_DisablePullUpPullDownConfig(void)
 548:Drivers/STM32G4xx_HAL_Driver/Src/stm32g4xx_hal_pwr_ex.c **** {
 1087              		.loc 1 548 1 is_stmt 1 view -0
 1088              		.cfi_startproc
 1089              		@ args = 0, pretend = 0, frame = 0
 1090              		@ frame_needed = 0, uses_anonymous_args = 0
 1091              		@ link register save eliminated.
 549:Drivers/STM32G4xx_HAL_Driver/Src/stm32g4xx_hal_pwr_ex.c ****   CLEAR_BIT(PWR->CR3, PWR_CR3_APC);
 1092              		.loc 1 549 3 view .LVU270
 1093 0000 024A     		ldr	r2, .L93
 1094 0002 9368     		ldr	r3, [r2, #8]
 1095 0004 23F48063 		bic	r3, r3, #1024
 1096 0008 9360     		str	r3, [r2, #8]
 550:Drivers/STM32G4xx_HAL_Driver/Src/stm32g4xx_hal_pwr_ex.c **** }
 1097              		.loc 1 550 1 is_stmt 0 view .LVU271
 1098 000a 7047     		bx	lr
 1099              	.L94:
 1100              		.align	2
 1101              	.L93:
 1102 000c 00700040 		.word	1073770496
 1103              		.cfi_endproc
 1104              	.LFE340:
ARM GAS  C:\Users\HRb\AppData\Local\Temp\ccj967tF.s 			page 31


 1106              		.section	.text.HAL_PWREx_EnableSRAM2ContentRetention,"ax",%progbits
 1107              		.align	1
 1108              		.global	HAL_PWREx_EnableSRAM2ContentRetention
 1109              		.syntax unified
 1110              		.thumb
 1111              		.thumb_func
 1113              	HAL_PWREx_EnableSRAM2ContentRetention:
 1114              	.LFB341:
 551:Drivers/STM32G4xx_HAL_Driver/Src/stm32g4xx_hal_pwr_ex.c **** 
 552:Drivers/STM32G4xx_HAL_Driver/Src/stm32g4xx_hal_pwr_ex.c **** 
 553:Drivers/STM32G4xx_HAL_Driver/Src/stm32g4xx_hal_pwr_ex.c **** 
 554:Drivers/STM32G4xx_HAL_Driver/Src/stm32g4xx_hal_pwr_ex.c **** /**
 555:Drivers/STM32G4xx_HAL_Driver/Src/stm32g4xx_hal_pwr_ex.c ****   * @brief Enable SRAM2 content retention in Standby mode.
 556:Drivers/STM32G4xx_HAL_Driver/Src/stm32g4xx_hal_pwr_ex.c ****   * @note  When RRS bit is set, SRAM2 is powered by the low-power regulator in
 557:Drivers/STM32G4xx_HAL_Driver/Src/stm32g4xx_hal_pwr_ex.c ****   *         Standby mode and its content is kept.
 558:Drivers/STM32G4xx_HAL_Driver/Src/stm32g4xx_hal_pwr_ex.c ****   * @retval None
 559:Drivers/STM32G4xx_HAL_Driver/Src/stm32g4xx_hal_pwr_ex.c ****   */
 560:Drivers/STM32G4xx_HAL_Driver/Src/stm32g4xx_hal_pwr_ex.c **** void HAL_PWREx_EnableSRAM2ContentRetention(void)
 561:Drivers/STM32G4xx_HAL_Driver/Src/stm32g4xx_hal_pwr_ex.c **** {
 1115              		.loc 1 561 1 is_stmt 1 view -0
 1116              		.cfi_startproc
 1117              		@ args = 0, pretend = 0, frame = 0
 1118              		@ frame_needed = 0, uses_anonymous_args = 0
 1119              		@ link register save eliminated.
 562:Drivers/STM32G4xx_HAL_Driver/Src/stm32g4xx_hal_pwr_ex.c ****   SET_BIT(PWR->CR3, PWR_CR3_RRS);
 1120              		.loc 1 562 3 view .LVU273
 1121 0000 024A     		ldr	r2, .L96
 1122 0002 9368     		ldr	r3, [r2, #8]
 1123 0004 43F48073 		orr	r3, r3, #256
 1124 0008 9360     		str	r3, [r2, #8]
 563:Drivers/STM32G4xx_HAL_Driver/Src/stm32g4xx_hal_pwr_ex.c **** }
 1125              		.loc 1 563 1 is_stmt 0 view .LVU274
 1126 000a 7047     		bx	lr
 1127              	.L97:
 1128              		.align	2
 1129              	.L96:
 1130 000c 00700040 		.word	1073770496
 1131              		.cfi_endproc
 1132              	.LFE341:
 1134              		.section	.text.HAL_PWREx_DisableSRAM2ContentRetention,"ax",%progbits
 1135              		.align	1
 1136              		.global	HAL_PWREx_DisableSRAM2ContentRetention
 1137              		.syntax unified
 1138              		.thumb
 1139              		.thumb_func
 1141              	HAL_PWREx_DisableSRAM2ContentRetention:
 1142              	.LFB342:
 564:Drivers/STM32G4xx_HAL_Driver/Src/stm32g4xx_hal_pwr_ex.c **** 
 565:Drivers/STM32G4xx_HAL_Driver/Src/stm32g4xx_hal_pwr_ex.c **** 
 566:Drivers/STM32G4xx_HAL_Driver/Src/stm32g4xx_hal_pwr_ex.c **** /**
 567:Drivers/STM32G4xx_HAL_Driver/Src/stm32g4xx_hal_pwr_ex.c ****   * @brief Disable SRAM2 content retention in Standby mode.
 568:Drivers/STM32G4xx_HAL_Driver/Src/stm32g4xx_hal_pwr_ex.c ****   * @note  When RRS bit is reset, SRAM2 is powered off in Standby mode
 569:Drivers/STM32G4xx_HAL_Driver/Src/stm32g4xx_hal_pwr_ex.c ****   *        and its content is lost.
 570:Drivers/STM32G4xx_HAL_Driver/Src/stm32g4xx_hal_pwr_ex.c ****   * @retval None
 571:Drivers/STM32G4xx_HAL_Driver/Src/stm32g4xx_hal_pwr_ex.c ****   */
 572:Drivers/STM32G4xx_HAL_Driver/Src/stm32g4xx_hal_pwr_ex.c **** void HAL_PWREx_DisableSRAM2ContentRetention(void)
 573:Drivers/STM32G4xx_HAL_Driver/Src/stm32g4xx_hal_pwr_ex.c **** {
ARM GAS  C:\Users\HRb\AppData\Local\Temp\ccj967tF.s 			page 32


 1143              		.loc 1 573 1 is_stmt 1 view -0
 1144              		.cfi_startproc
 1145              		@ args = 0, pretend = 0, frame = 0
 1146              		@ frame_needed = 0, uses_anonymous_args = 0
 1147              		@ link register save eliminated.
 574:Drivers/STM32G4xx_HAL_Driver/Src/stm32g4xx_hal_pwr_ex.c ****   CLEAR_BIT(PWR->CR3, PWR_CR3_RRS);
 1148              		.loc 1 574 3 view .LVU276
 1149 0000 024A     		ldr	r2, .L99
 1150 0002 9368     		ldr	r3, [r2, #8]
 1151 0004 23F48073 		bic	r3, r3, #256
 1152 0008 9360     		str	r3, [r2, #8]
 575:Drivers/STM32G4xx_HAL_Driver/Src/stm32g4xx_hal_pwr_ex.c **** }
 1153              		.loc 1 575 1 is_stmt 0 view .LVU277
 1154 000a 7047     		bx	lr
 1155              	.L100:
 1156              		.align	2
 1157              	.L99:
 1158 000c 00700040 		.word	1073770496
 1159              		.cfi_endproc
 1160              	.LFE342:
 1162              		.section	.text.HAL_PWREx_EnablePVM1,"ax",%progbits
 1163              		.align	1
 1164              		.global	HAL_PWREx_EnablePVM1
 1165              		.syntax unified
 1166              		.thumb
 1167              		.thumb_func
 1169              	HAL_PWREx_EnablePVM1:
 1170              	.LFB343:
 576:Drivers/STM32G4xx_HAL_Driver/Src/stm32g4xx_hal_pwr_ex.c **** 
 577:Drivers/STM32G4xx_HAL_Driver/Src/stm32g4xx_hal_pwr_ex.c **** 
 578:Drivers/STM32G4xx_HAL_Driver/Src/stm32g4xx_hal_pwr_ex.c **** 
 579:Drivers/STM32G4xx_HAL_Driver/Src/stm32g4xx_hal_pwr_ex.c **** 
 580:Drivers/STM32G4xx_HAL_Driver/Src/stm32g4xx_hal_pwr_ex.c **** #if defined(PWR_CR2_PVME1)
 581:Drivers/STM32G4xx_HAL_Driver/Src/stm32g4xx_hal_pwr_ex.c **** /**
 582:Drivers/STM32G4xx_HAL_Driver/Src/stm32g4xx_hal_pwr_ex.c ****   * @brief Enable the Power Voltage Monitoring 1: VDDA versus FASTCOMP minimum voltage.
 583:Drivers/STM32G4xx_HAL_Driver/Src/stm32g4xx_hal_pwr_ex.c ****   * @retval None
 584:Drivers/STM32G4xx_HAL_Driver/Src/stm32g4xx_hal_pwr_ex.c ****   */
 585:Drivers/STM32G4xx_HAL_Driver/Src/stm32g4xx_hal_pwr_ex.c **** void HAL_PWREx_EnablePVM1(void)
 586:Drivers/STM32G4xx_HAL_Driver/Src/stm32g4xx_hal_pwr_ex.c **** {
 1171              		.loc 1 586 1 is_stmt 1 view -0
 1172              		.cfi_startproc
 1173              		@ args = 0, pretend = 0, frame = 0
 1174              		@ frame_needed = 0, uses_anonymous_args = 0
 1175              		@ link register save eliminated.
 587:Drivers/STM32G4xx_HAL_Driver/Src/stm32g4xx_hal_pwr_ex.c ****   SET_BIT(PWR->CR2, PWR_PVM_1);
 1176              		.loc 1 587 3 view .LVU279
 1177 0000 024A     		ldr	r2, .L102
 1178 0002 5368     		ldr	r3, [r2, #4]
 1179 0004 43F01003 		orr	r3, r3, #16
 1180 0008 5360     		str	r3, [r2, #4]
 588:Drivers/STM32G4xx_HAL_Driver/Src/stm32g4xx_hal_pwr_ex.c **** }
 1181              		.loc 1 588 1 is_stmt 0 view .LVU280
 1182 000a 7047     		bx	lr
 1183              	.L103:
 1184              		.align	2
 1185              	.L102:
 1186 000c 00700040 		.word	1073770496
ARM GAS  C:\Users\HRb\AppData\Local\Temp\ccj967tF.s 			page 33


 1187              		.cfi_endproc
 1188              	.LFE343:
 1190              		.section	.text.HAL_PWREx_DisablePVM1,"ax",%progbits
 1191              		.align	1
 1192              		.global	HAL_PWREx_DisablePVM1
 1193              		.syntax unified
 1194              		.thumb
 1195              		.thumb_func
 1197              	HAL_PWREx_DisablePVM1:
 1198              	.LFB344:
 589:Drivers/STM32G4xx_HAL_Driver/Src/stm32g4xx_hal_pwr_ex.c **** 
 590:Drivers/STM32G4xx_HAL_Driver/Src/stm32g4xx_hal_pwr_ex.c **** /**
 591:Drivers/STM32G4xx_HAL_Driver/Src/stm32g4xx_hal_pwr_ex.c ****   * @brief Disable the Power Voltage Monitoring 1: VDDA versus FASTCOMP minimum voltage.
 592:Drivers/STM32G4xx_HAL_Driver/Src/stm32g4xx_hal_pwr_ex.c ****   * @retval None
 593:Drivers/STM32G4xx_HAL_Driver/Src/stm32g4xx_hal_pwr_ex.c ****   */
 594:Drivers/STM32G4xx_HAL_Driver/Src/stm32g4xx_hal_pwr_ex.c **** void HAL_PWREx_DisablePVM1(void)
 595:Drivers/STM32G4xx_HAL_Driver/Src/stm32g4xx_hal_pwr_ex.c **** {
 1199              		.loc 1 595 1 is_stmt 1 view -0
 1200              		.cfi_startproc
 1201              		@ args = 0, pretend = 0, frame = 0
 1202              		@ frame_needed = 0, uses_anonymous_args = 0
 1203              		@ link register save eliminated.
 596:Drivers/STM32G4xx_HAL_Driver/Src/stm32g4xx_hal_pwr_ex.c ****   CLEAR_BIT(PWR->CR2, PWR_PVM_1);
 1204              		.loc 1 596 3 view .LVU282
 1205 0000 024A     		ldr	r2, .L105
 1206 0002 5368     		ldr	r3, [r2, #4]
 1207 0004 23F01003 		bic	r3, r3, #16
 1208 0008 5360     		str	r3, [r2, #4]
 597:Drivers/STM32G4xx_HAL_Driver/Src/stm32g4xx_hal_pwr_ex.c **** }
 1209              		.loc 1 597 1 is_stmt 0 view .LVU283
 1210 000a 7047     		bx	lr
 1211              	.L106:
 1212              		.align	2
 1213              	.L105:
 1214 000c 00700040 		.word	1073770496
 1215              		.cfi_endproc
 1216              	.LFE344:
 1218              		.section	.text.HAL_PWREx_EnablePVM2,"ax",%progbits
 1219              		.align	1
 1220              		.global	HAL_PWREx_EnablePVM2
 1221              		.syntax unified
 1222              		.thumb
 1223              		.thumb_func
 1225              	HAL_PWREx_EnablePVM2:
 1226              	.LFB345:
 598:Drivers/STM32G4xx_HAL_Driver/Src/stm32g4xx_hal_pwr_ex.c **** #endif /* PWR_CR2_PVME1 */
 599:Drivers/STM32G4xx_HAL_Driver/Src/stm32g4xx_hal_pwr_ex.c **** 
 600:Drivers/STM32G4xx_HAL_Driver/Src/stm32g4xx_hal_pwr_ex.c **** 
 601:Drivers/STM32G4xx_HAL_Driver/Src/stm32g4xx_hal_pwr_ex.c **** #if defined(PWR_CR2_PVME2)
 602:Drivers/STM32G4xx_HAL_Driver/Src/stm32g4xx_hal_pwr_ex.c **** /**
 603:Drivers/STM32G4xx_HAL_Driver/Src/stm32g4xx_hal_pwr_ex.c ****   * @brief Enable the Power Voltage Monitoring 2: VDDA versus FASTDAC minimum voltage.
 604:Drivers/STM32G4xx_HAL_Driver/Src/stm32g4xx_hal_pwr_ex.c ****   * @retval None
 605:Drivers/STM32G4xx_HAL_Driver/Src/stm32g4xx_hal_pwr_ex.c ****   */
 606:Drivers/STM32G4xx_HAL_Driver/Src/stm32g4xx_hal_pwr_ex.c **** void HAL_PWREx_EnablePVM2(void)
 607:Drivers/STM32G4xx_HAL_Driver/Src/stm32g4xx_hal_pwr_ex.c **** {
 1227              		.loc 1 607 1 is_stmt 1 view -0
 1228              		.cfi_startproc
ARM GAS  C:\Users\HRb\AppData\Local\Temp\ccj967tF.s 			page 34


 1229              		@ args = 0, pretend = 0, frame = 0
 1230              		@ frame_needed = 0, uses_anonymous_args = 0
 1231              		@ link register save eliminated.
 608:Drivers/STM32G4xx_HAL_Driver/Src/stm32g4xx_hal_pwr_ex.c ****   SET_BIT(PWR->CR2, PWR_PVM_2);
 1232              		.loc 1 608 3 view .LVU285
 1233 0000 024A     		ldr	r2, .L108
 1234 0002 5368     		ldr	r3, [r2, #4]
 1235 0004 43F02003 		orr	r3, r3, #32
 1236 0008 5360     		str	r3, [r2, #4]
 609:Drivers/STM32G4xx_HAL_Driver/Src/stm32g4xx_hal_pwr_ex.c **** }
 1237              		.loc 1 609 1 is_stmt 0 view .LVU286
 1238 000a 7047     		bx	lr
 1239              	.L109:
 1240              		.align	2
 1241              	.L108:
 1242 000c 00700040 		.word	1073770496
 1243              		.cfi_endproc
 1244              	.LFE345:
 1246              		.section	.text.HAL_PWREx_DisablePVM2,"ax",%progbits
 1247              		.align	1
 1248              		.global	HAL_PWREx_DisablePVM2
 1249              		.syntax unified
 1250              		.thumb
 1251              		.thumb_func
 1253              	HAL_PWREx_DisablePVM2:
 1254              	.LFB346:
 610:Drivers/STM32G4xx_HAL_Driver/Src/stm32g4xx_hal_pwr_ex.c **** 
 611:Drivers/STM32G4xx_HAL_Driver/Src/stm32g4xx_hal_pwr_ex.c **** /**
 612:Drivers/STM32G4xx_HAL_Driver/Src/stm32g4xx_hal_pwr_ex.c ****   * @brief Disable the Power Voltage Monitoring 2: VDDA versus FASTDAC minimum voltage.
 613:Drivers/STM32G4xx_HAL_Driver/Src/stm32g4xx_hal_pwr_ex.c ****   * @retval None
 614:Drivers/STM32G4xx_HAL_Driver/Src/stm32g4xx_hal_pwr_ex.c ****   */
 615:Drivers/STM32G4xx_HAL_Driver/Src/stm32g4xx_hal_pwr_ex.c **** void HAL_PWREx_DisablePVM2(void)
 616:Drivers/STM32G4xx_HAL_Driver/Src/stm32g4xx_hal_pwr_ex.c **** {
 1255              		.loc 1 616 1 is_stmt 1 view -0
 1256              		.cfi_startproc
 1257              		@ args = 0, pretend = 0, frame = 0
 1258              		@ frame_needed = 0, uses_anonymous_args = 0
 1259              		@ link register save eliminated.
 617:Drivers/STM32G4xx_HAL_Driver/Src/stm32g4xx_hal_pwr_ex.c ****   CLEAR_BIT(PWR->CR2, PWR_PVM_2);
 1260              		.loc 1 617 3 view .LVU288
 1261 0000 024A     		ldr	r2, .L111
 1262 0002 5368     		ldr	r3, [r2, #4]
 1263 0004 23F02003 		bic	r3, r3, #32
 1264 0008 5360     		str	r3, [r2, #4]
 618:Drivers/STM32G4xx_HAL_Driver/Src/stm32g4xx_hal_pwr_ex.c **** }
 1265              		.loc 1 618 1 is_stmt 0 view .LVU289
 1266 000a 7047     		bx	lr
 1267              	.L112:
 1268              		.align	2
 1269              	.L111:
 1270 000c 00700040 		.word	1073770496
 1271              		.cfi_endproc
 1272              	.LFE346:
 1274              		.section	.text.HAL_PWREx_EnablePVM3,"ax",%progbits
 1275              		.align	1
 1276              		.global	HAL_PWREx_EnablePVM3
 1277              		.syntax unified
ARM GAS  C:\Users\HRb\AppData\Local\Temp\ccj967tF.s 			page 35


 1278              		.thumb
 1279              		.thumb_func
 1281              	HAL_PWREx_EnablePVM3:
 1282              	.LFB347:
 619:Drivers/STM32G4xx_HAL_Driver/Src/stm32g4xx_hal_pwr_ex.c **** #endif /* PWR_CR2_PVME2 */
 620:Drivers/STM32G4xx_HAL_Driver/Src/stm32g4xx_hal_pwr_ex.c **** 
 621:Drivers/STM32G4xx_HAL_Driver/Src/stm32g4xx_hal_pwr_ex.c **** 
 622:Drivers/STM32G4xx_HAL_Driver/Src/stm32g4xx_hal_pwr_ex.c **** /**
 623:Drivers/STM32G4xx_HAL_Driver/Src/stm32g4xx_hal_pwr_ex.c ****   * @brief Enable the Power Voltage Monitoring 3: VDDA versus ADC minimum voltage 1.62V.
 624:Drivers/STM32G4xx_HAL_Driver/Src/stm32g4xx_hal_pwr_ex.c ****   * @retval None
 625:Drivers/STM32G4xx_HAL_Driver/Src/stm32g4xx_hal_pwr_ex.c ****   */
 626:Drivers/STM32G4xx_HAL_Driver/Src/stm32g4xx_hal_pwr_ex.c **** void HAL_PWREx_EnablePVM3(void)
 627:Drivers/STM32G4xx_HAL_Driver/Src/stm32g4xx_hal_pwr_ex.c **** {
 1283              		.loc 1 627 1 is_stmt 1 view -0
 1284              		.cfi_startproc
 1285              		@ args = 0, pretend = 0, frame = 0
 1286              		@ frame_needed = 0, uses_anonymous_args = 0
 1287              		@ link register save eliminated.
 628:Drivers/STM32G4xx_HAL_Driver/Src/stm32g4xx_hal_pwr_ex.c ****   SET_BIT(PWR->CR2, PWR_PVM_3);
 1288              		.loc 1 628 3 view .LVU291
 1289 0000 024A     		ldr	r2, .L114
 1290 0002 5368     		ldr	r3, [r2, #4]
 1291 0004 43F04003 		orr	r3, r3, #64
 1292 0008 5360     		str	r3, [r2, #4]
 629:Drivers/STM32G4xx_HAL_Driver/Src/stm32g4xx_hal_pwr_ex.c **** }
 1293              		.loc 1 629 1 is_stmt 0 view .LVU292
 1294 000a 7047     		bx	lr
 1295              	.L115:
 1296              		.align	2
 1297              	.L114:
 1298 000c 00700040 		.word	1073770496
 1299              		.cfi_endproc
 1300              	.LFE347:
 1302              		.section	.text.HAL_PWREx_DisablePVM3,"ax",%progbits
 1303              		.align	1
 1304              		.global	HAL_PWREx_DisablePVM3
 1305              		.syntax unified
 1306              		.thumb
 1307              		.thumb_func
 1309              	HAL_PWREx_DisablePVM3:
 1310              	.LFB348:
 630:Drivers/STM32G4xx_HAL_Driver/Src/stm32g4xx_hal_pwr_ex.c **** 
 631:Drivers/STM32G4xx_HAL_Driver/Src/stm32g4xx_hal_pwr_ex.c **** /**
 632:Drivers/STM32G4xx_HAL_Driver/Src/stm32g4xx_hal_pwr_ex.c ****   * @brief Disable the Power Voltage Monitoring 3: VDDA versus ADC minimum voltage 1.62V.
 633:Drivers/STM32G4xx_HAL_Driver/Src/stm32g4xx_hal_pwr_ex.c ****   * @retval None
 634:Drivers/STM32G4xx_HAL_Driver/Src/stm32g4xx_hal_pwr_ex.c ****   */
 635:Drivers/STM32G4xx_HAL_Driver/Src/stm32g4xx_hal_pwr_ex.c **** void HAL_PWREx_DisablePVM3(void)
 636:Drivers/STM32G4xx_HAL_Driver/Src/stm32g4xx_hal_pwr_ex.c **** {
 1311              		.loc 1 636 1 is_stmt 1 view -0
 1312              		.cfi_startproc
 1313              		@ args = 0, pretend = 0, frame = 0
 1314              		@ frame_needed = 0, uses_anonymous_args = 0
 1315              		@ link register save eliminated.
 637:Drivers/STM32G4xx_HAL_Driver/Src/stm32g4xx_hal_pwr_ex.c ****   CLEAR_BIT(PWR->CR2, PWR_PVM_3);
 1316              		.loc 1 637 3 view .LVU294
 1317 0000 024A     		ldr	r2, .L117
 1318 0002 5368     		ldr	r3, [r2, #4]
ARM GAS  C:\Users\HRb\AppData\Local\Temp\ccj967tF.s 			page 36


 1319 0004 23F04003 		bic	r3, r3, #64
 1320 0008 5360     		str	r3, [r2, #4]
 638:Drivers/STM32G4xx_HAL_Driver/Src/stm32g4xx_hal_pwr_ex.c **** }
 1321              		.loc 1 638 1 is_stmt 0 view .LVU295
 1322 000a 7047     		bx	lr
 1323              	.L118:
 1324              		.align	2
 1325              	.L117:
 1326 000c 00700040 		.word	1073770496
 1327              		.cfi_endproc
 1328              	.LFE348:
 1330              		.section	.text.HAL_PWREx_EnablePVM4,"ax",%progbits
 1331              		.align	1
 1332              		.global	HAL_PWREx_EnablePVM4
 1333              		.syntax unified
 1334              		.thumb
 1335              		.thumb_func
 1337              	HAL_PWREx_EnablePVM4:
 1338              	.LFB349:
 639:Drivers/STM32G4xx_HAL_Driver/Src/stm32g4xx_hal_pwr_ex.c **** 
 640:Drivers/STM32G4xx_HAL_Driver/Src/stm32g4xx_hal_pwr_ex.c **** 
 641:Drivers/STM32G4xx_HAL_Driver/Src/stm32g4xx_hal_pwr_ex.c **** /**
 642:Drivers/STM32G4xx_HAL_Driver/Src/stm32g4xx_hal_pwr_ex.c ****   * @brief Enable the Power Voltage Monitoring 4: VDDA versus OPAMP/DAC minimum voltage 1.8V.
 643:Drivers/STM32G4xx_HAL_Driver/Src/stm32g4xx_hal_pwr_ex.c ****   * @retval None
 644:Drivers/STM32G4xx_HAL_Driver/Src/stm32g4xx_hal_pwr_ex.c ****   */
 645:Drivers/STM32G4xx_HAL_Driver/Src/stm32g4xx_hal_pwr_ex.c **** void HAL_PWREx_EnablePVM4(void)
 646:Drivers/STM32G4xx_HAL_Driver/Src/stm32g4xx_hal_pwr_ex.c **** {
 1339              		.loc 1 646 1 is_stmt 1 view -0
 1340              		.cfi_startproc
 1341              		@ args = 0, pretend = 0, frame = 0
 1342              		@ frame_needed = 0, uses_anonymous_args = 0
 1343              		@ link register save eliminated.
 647:Drivers/STM32G4xx_HAL_Driver/Src/stm32g4xx_hal_pwr_ex.c ****   SET_BIT(PWR->CR2, PWR_PVM_4);
 1344              		.loc 1 647 3 view .LVU297
 1345 0000 024A     		ldr	r2, .L120
 1346 0002 5368     		ldr	r3, [r2, #4]
 1347 0004 43F08003 		orr	r3, r3, #128
 1348 0008 5360     		str	r3, [r2, #4]
 648:Drivers/STM32G4xx_HAL_Driver/Src/stm32g4xx_hal_pwr_ex.c **** }
 1349              		.loc 1 648 1 is_stmt 0 view .LVU298
 1350 000a 7047     		bx	lr
 1351              	.L121:
 1352              		.align	2
 1353              	.L120:
 1354 000c 00700040 		.word	1073770496
 1355              		.cfi_endproc
 1356              	.LFE349:
 1358              		.section	.text.HAL_PWREx_DisablePVM4,"ax",%progbits
 1359              		.align	1
 1360              		.global	HAL_PWREx_DisablePVM4
 1361              		.syntax unified
 1362              		.thumb
 1363              		.thumb_func
 1365              	HAL_PWREx_DisablePVM4:
 1366              	.LFB350:
 649:Drivers/STM32G4xx_HAL_Driver/Src/stm32g4xx_hal_pwr_ex.c **** 
 650:Drivers/STM32G4xx_HAL_Driver/Src/stm32g4xx_hal_pwr_ex.c **** /**
ARM GAS  C:\Users\HRb\AppData\Local\Temp\ccj967tF.s 			page 37


 651:Drivers/STM32G4xx_HAL_Driver/Src/stm32g4xx_hal_pwr_ex.c ****   * @brief Disable the Power Voltage Monitoring 4: VDDA versus OPAMP/DAC minimum voltage 1.8V.
 652:Drivers/STM32G4xx_HAL_Driver/Src/stm32g4xx_hal_pwr_ex.c ****   * @retval None
 653:Drivers/STM32G4xx_HAL_Driver/Src/stm32g4xx_hal_pwr_ex.c ****   */
 654:Drivers/STM32G4xx_HAL_Driver/Src/stm32g4xx_hal_pwr_ex.c **** void HAL_PWREx_DisablePVM4(void)
 655:Drivers/STM32G4xx_HAL_Driver/Src/stm32g4xx_hal_pwr_ex.c **** {
 1367              		.loc 1 655 1 is_stmt 1 view -0
 1368              		.cfi_startproc
 1369              		@ args = 0, pretend = 0, frame = 0
 1370              		@ frame_needed = 0, uses_anonymous_args = 0
 1371              		@ link register save eliminated.
 656:Drivers/STM32G4xx_HAL_Driver/Src/stm32g4xx_hal_pwr_ex.c ****   CLEAR_BIT(PWR->CR2, PWR_PVM_4);
 1372              		.loc 1 656 3 view .LVU300
 1373 0000 024A     		ldr	r2, .L123
 1374 0002 5368     		ldr	r3, [r2, #4]
 1375 0004 23F08003 		bic	r3, r3, #128
 1376 0008 5360     		str	r3, [r2, #4]
 657:Drivers/STM32G4xx_HAL_Driver/Src/stm32g4xx_hal_pwr_ex.c **** }
 1377              		.loc 1 657 1 is_stmt 0 view .LVU301
 1378 000a 7047     		bx	lr
 1379              	.L124:
 1380              		.align	2
 1381              	.L123:
 1382 000c 00700040 		.word	1073770496
 1383              		.cfi_endproc
 1384              	.LFE350:
 1386              		.section	.text.HAL_PWREx_ConfigPVM,"ax",%progbits
 1387              		.align	1
 1388              		.global	HAL_PWREx_ConfigPVM
 1389              		.syntax unified
 1390              		.thumb
 1391              		.thumb_func
 1393              	HAL_PWREx_ConfigPVM:
 1394              	.LVL99:
 1395              	.LFB351:
 658:Drivers/STM32G4xx_HAL_Driver/Src/stm32g4xx_hal_pwr_ex.c **** 
 659:Drivers/STM32G4xx_HAL_Driver/Src/stm32g4xx_hal_pwr_ex.c **** 
 660:Drivers/STM32G4xx_HAL_Driver/Src/stm32g4xx_hal_pwr_ex.c **** 
 661:Drivers/STM32G4xx_HAL_Driver/Src/stm32g4xx_hal_pwr_ex.c **** 
 662:Drivers/STM32G4xx_HAL_Driver/Src/stm32g4xx_hal_pwr_ex.c **** /**
 663:Drivers/STM32G4xx_HAL_Driver/Src/stm32g4xx_hal_pwr_ex.c ****   * @brief Configure the Peripheral Voltage Monitoring (PVM).
 664:Drivers/STM32G4xx_HAL_Driver/Src/stm32g4xx_hal_pwr_ex.c ****   * @param sConfigPVM: pointer to a PWR_PVMTypeDef structure that contains the
 665:Drivers/STM32G4xx_HAL_Driver/Src/stm32g4xx_hal_pwr_ex.c ****   *        PVM configuration information.
 666:Drivers/STM32G4xx_HAL_Driver/Src/stm32g4xx_hal_pwr_ex.c ****   * @note The API configures a single PVM according to the information contained
 667:Drivers/STM32G4xx_HAL_Driver/Src/stm32g4xx_hal_pwr_ex.c ****   *       in the input structure. To configure several PVMs, the API must be singly
 668:Drivers/STM32G4xx_HAL_Driver/Src/stm32g4xx_hal_pwr_ex.c ****   *       called for each PVM used.
 669:Drivers/STM32G4xx_HAL_Driver/Src/stm32g4xx_hal_pwr_ex.c ****   * @note Refer to the electrical characteristics of your device datasheet for
 670:Drivers/STM32G4xx_HAL_Driver/Src/stm32g4xx_hal_pwr_ex.c ****   *         more details about the voltage thresholds corresponding to each
 671:Drivers/STM32G4xx_HAL_Driver/Src/stm32g4xx_hal_pwr_ex.c ****   *         detection level and to each monitored supply.
 672:Drivers/STM32G4xx_HAL_Driver/Src/stm32g4xx_hal_pwr_ex.c ****   * @retval HAL status
 673:Drivers/STM32G4xx_HAL_Driver/Src/stm32g4xx_hal_pwr_ex.c ****   */
 674:Drivers/STM32G4xx_HAL_Driver/Src/stm32g4xx_hal_pwr_ex.c **** HAL_StatusTypeDef HAL_PWREx_ConfigPVM(PWR_PVMTypeDef *sConfigPVM)
 675:Drivers/STM32G4xx_HAL_Driver/Src/stm32g4xx_hal_pwr_ex.c **** {
 1396              		.loc 1 675 1 is_stmt 1 view -0
 1397              		.cfi_startproc
 1398              		@ args = 0, pretend = 0, frame = 0
 1399              		@ frame_needed = 0, uses_anonymous_args = 0
 1400              		@ link register save eliminated.
ARM GAS  C:\Users\HRb\AppData\Local\Temp\ccj967tF.s 			page 38


 676:Drivers/STM32G4xx_HAL_Driver/Src/stm32g4xx_hal_pwr_ex.c ****   HAL_StatusTypeDef status = HAL_OK;
 1401              		.loc 1 676 3 view .LVU303
 677:Drivers/STM32G4xx_HAL_Driver/Src/stm32g4xx_hal_pwr_ex.c **** 
 678:Drivers/STM32G4xx_HAL_Driver/Src/stm32g4xx_hal_pwr_ex.c ****   /* Check the parameters */
 679:Drivers/STM32G4xx_HAL_Driver/Src/stm32g4xx_hal_pwr_ex.c ****   assert_param(IS_PWR_PVM_TYPE(sConfigPVM->PVMType));
 1402              		.loc 1 679 3 view .LVU304
 680:Drivers/STM32G4xx_HAL_Driver/Src/stm32g4xx_hal_pwr_ex.c ****   assert_param(IS_PWR_PVM_MODE(sConfigPVM->Mode));
 1403              		.loc 1 680 3 view .LVU305
 681:Drivers/STM32G4xx_HAL_Driver/Src/stm32g4xx_hal_pwr_ex.c **** 
 682:Drivers/STM32G4xx_HAL_Driver/Src/stm32g4xx_hal_pwr_ex.c **** 
 683:Drivers/STM32G4xx_HAL_Driver/Src/stm32g4xx_hal_pwr_ex.c ****   /* Configure EXTI 35 to 38 interrupts if so required:
 684:Drivers/STM32G4xx_HAL_Driver/Src/stm32g4xx_hal_pwr_ex.c ****      scan through PVMType to detect which PVMx is set and
 685:Drivers/STM32G4xx_HAL_Driver/Src/stm32g4xx_hal_pwr_ex.c ****      configure the corresponding EXTI line accordingly. */
 686:Drivers/STM32G4xx_HAL_Driver/Src/stm32g4xx_hal_pwr_ex.c ****   switch (sConfigPVM->PVMType)
 1404              		.loc 1 686 3 view .LVU306
 1405              		.loc 1 686 21 is_stmt 0 view .LVU307
 1406 0000 0368     		ldr	r3, [r0]
 1407              		.loc 1 686 3 view .LVU308
 1408 0002 402B     		cmp	r3, #64
 1409 0004 00F0B180 		beq	.L126
 1410 0008 3DD8     		bhi	.L127
 1411 000a 102B     		cmp	r3, #16
 1412 000c 76D0     		beq	.L128
 1413 000e 202B     		cmp	r3, #32
 1414 0010 37D1     		bne	.L148
 687:Drivers/STM32G4xx_HAL_Driver/Src/stm32g4xx_hal_pwr_ex.c ****   {
 688:Drivers/STM32G4xx_HAL_Driver/Src/stm32g4xx_hal_pwr_ex.c **** #if defined(PWR_CR2_PVME1)
 689:Drivers/STM32G4xx_HAL_Driver/Src/stm32g4xx_hal_pwr_ex.c ****     case PWR_PVM_1:
 690:Drivers/STM32G4xx_HAL_Driver/Src/stm32g4xx_hal_pwr_ex.c ****       /* Clear any previous config. Keep it clear if no event or IT mode is selected */
 691:Drivers/STM32G4xx_HAL_Driver/Src/stm32g4xx_hal_pwr_ex.c ****       __HAL_PWR_PVM1_EXTI_DISABLE_EVENT();
 692:Drivers/STM32G4xx_HAL_Driver/Src/stm32g4xx_hal_pwr_ex.c ****       __HAL_PWR_PVM1_EXTI_DISABLE_IT();
 693:Drivers/STM32G4xx_HAL_Driver/Src/stm32g4xx_hal_pwr_ex.c ****       __HAL_PWR_PVM1_EXTI_DISABLE_FALLING_EDGE();
 694:Drivers/STM32G4xx_HAL_Driver/Src/stm32g4xx_hal_pwr_ex.c ****       __HAL_PWR_PVM1_EXTI_DISABLE_RISING_EDGE();
 695:Drivers/STM32G4xx_HAL_Driver/Src/stm32g4xx_hal_pwr_ex.c **** 
 696:Drivers/STM32G4xx_HAL_Driver/Src/stm32g4xx_hal_pwr_ex.c ****       /* Configure interrupt mode */
 697:Drivers/STM32G4xx_HAL_Driver/Src/stm32g4xx_hal_pwr_ex.c ****       if((sConfigPVM->Mode & PVM_MODE_IT) == PVM_MODE_IT)
 698:Drivers/STM32G4xx_HAL_Driver/Src/stm32g4xx_hal_pwr_ex.c ****       {
 699:Drivers/STM32G4xx_HAL_Driver/Src/stm32g4xx_hal_pwr_ex.c ****         __HAL_PWR_PVM1_EXTI_ENABLE_IT();
 700:Drivers/STM32G4xx_HAL_Driver/Src/stm32g4xx_hal_pwr_ex.c ****       }
 701:Drivers/STM32G4xx_HAL_Driver/Src/stm32g4xx_hal_pwr_ex.c **** 
 702:Drivers/STM32G4xx_HAL_Driver/Src/stm32g4xx_hal_pwr_ex.c ****       /* Configure event mode */
 703:Drivers/STM32G4xx_HAL_Driver/Src/stm32g4xx_hal_pwr_ex.c ****       if((sConfigPVM->Mode & PVM_MODE_EVT) == PVM_MODE_EVT)
 704:Drivers/STM32G4xx_HAL_Driver/Src/stm32g4xx_hal_pwr_ex.c ****       {
 705:Drivers/STM32G4xx_HAL_Driver/Src/stm32g4xx_hal_pwr_ex.c ****         __HAL_PWR_PVM1_EXTI_ENABLE_EVENT();
 706:Drivers/STM32G4xx_HAL_Driver/Src/stm32g4xx_hal_pwr_ex.c ****       }
 707:Drivers/STM32G4xx_HAL_Driver/Src/stm32g4xx_hal_pwr_ex.c **** 
 708:Drivers/STM32G4xx_HAL_Driver/Src/stm32g4xx_hal_pwr_ex.c ****       /* Configure the edge */
 709:Drivers/STM32G4xx_HAL_Driver/Src/stm32g4xx_hal_pwr_ex.c ****       if((sConfigPVM->Mode & PVM_RISING_EDGE) == PVM_RISING_EDGE)
 710:Drivers/STM32G4xx_HAL_Driver/Src/stm32g4xx_hal_pwr_ex.c ****       {
 711:Drivers/STM32G4xx_HAL_Driver/Src/stm32g4xx_hal_pwr_ex.c ****         __HAL_PWR_PVM1_EXTI_ENABLE_RISING_EDGE();
 712:Drivers/STM32G4xx_HAL_Driver/Src/stm32g4xx_hal_pwr_ex.c ****       }
 713:Drivers/STM32G4xx_HAL_Driver/Src/stm32g4xx_hal_pwr_ex.c **** 
 714:Drivers/STM32G4xx_HAL_Driver/Src/stm32g4xx_hal_pwr_ex.c ****       if((sConfigPVM->Mode & PVM_FALLING_EDGE) == PVM_FALLING_EDGE)
 715:Drivers/STM32G4xx_HAL_Driver/Src/stm32g4xx_hal_pwr_ex.c ****       {
 716:Drivers/STM32G4xx_HAL_Driver/Src/stm32g4xx_hal_pwr_ex.c ****         __HAL_PWR_PVM1_EXTI_ENABLE_FALLING_EDGE();
 717:Drivers/STM32G4xx_HAL_Driver/Src/stm32g4xx_hal_pwr_ex.c ****       }
 718:Drivers/STM32G4xx_HAL_Driver/Src/stm32g4xx_hal_pwr_ex.c ****       break;
ARM GAS  C:\Users\HRb\AppData\Local\Temp\ccj967tF.s 			page 39


 719:Drivers/STM32G4xx_HAL_Driver/Src/stm32g4xx_hal_pwr_ex.c **** #endif /* PWR_CR2_PVME1 */
 720:Drivers/STM32G4xx_HAL_Driver/Src/stm32g4xx_hal_pwr_ex.c **** 
 721:Drivers/STM32G4xx_HAL_Driver/Src/stm32g4xx_hal_pwr_ex.c **** #if defined(PWR_CR2_PVME2)
 722:Drivers/STM32G4xx_HAL_Driver/Src/stm32g4xx_hal_pwr_ex.c ****     case PWR_PVM_2:
 723:Drivers/STM32G4xx_HAL_Driver/Src/stm32g4xx_hal_pwr_ex.c ****       /* Clear any previous config. Keep it clear if no event or IT mode is selected */
 724:Drivers/STM32G4xx_HAL_Driver/Src/stm32g4xx_hal_pwr_ex.c ****       __HAL_PWR_PVM2_EXTI_DISABLE_EVENT();
 1415              		.loc 1 724 7 is_stmt 1 view .LVU309
 1416 0012 754B     		ldr	r3, .L150
 1417 0014 5A6A     		ldr	r2, [r3, #36]
 1418 0016 22F01002 		bic	r2, r2, #16
 1419 001a 5A62     		str	r2, [r3, #36]
 725:Drivers/STM32G4xx_HAL_Driver/Src/stm32g4xx_hal_pwr_ex.c ****       __HAL_PWR_PVM2_EXTI_DISABLE_IT();
 1420              		.loc 1 725 7 view .LVU310
 1421 001c 1A6A     		ldr	r2, [r3, #32]
 1422 001e 22F01002 		bic	r2, r2, #16
 1423 0022 1A62     		str	r2, [r3, #32]
 726:Drivers/STM32G4xx_HAL_Driver/Src/stm32g4xx_hal_pwr_ex.c ****       __HAL_PWR_PVM2_EXTI_DISABLE_FALLING_EDGE();
 1424              		.loc 1 726 7 view .LVU311
 1425 0024 DA6A     		ldr	r2, [r3, #44]
 1426 0026 22F01002 		bic	r2, r2, #16
 1427 002a DA62     		str	r2, [r3, #44]
 727:Drivers/STM32G4xx_HAL_Driver/Src/stm32g4xx_hal_pwr_ex.c ****       __HAL_PWR_PVM2_EXTI_DISABLE_RISING_EDGE();
 1428              		.loc 1 727 7 view .LVU312
 1429 002c 9A6A     		ldr	r2, [r3, #40]
 1430 002e 22F01002 		bic	r2, r2, #16
 1431 0032 9A62     		str	r2, [r3, #40]
 728:Drivers/STM32G4xx_HAL_Driver/Src/stm32g4xx_hal_pwr_ex.c **** 
 729:Drivers/STM32G4xx_HAL_Driver/Src/stm32g4xx_hal_pwr_ex.c ****       /* Configure interrupt mode */
 730:Drivers/STM32G4xx_HAL_Driver/Src/stm32g4xx_hal_pwr_ex.c ****       if((sConfigPVM->Mode & PVM_MODE_IT) == PVM_MODE_IT)
 1432              		.loc 1 730 7 view .LVU313
 1433              		.loc 1 730 21 is_stmt 0 view .LVU314
 1434 0034 4368     		ldr	r3, [r0, #4]
 1435              		.loc 1 730 9 view .LVU315
 1436 0036 13F4803F 		tst	r3, #65536
 1437 003a 04D0     		beq	.L135
 731:Drivers/STM32G4xx_HAL_Driver/Src/stm32g4xx_hal_pwr_ex.c ****       {
 732:Drivers/STM32G4xx_HAL_Driver/Src/stm32g4xx_hal_pwr_ex.c ****         __HAL_PWR_PVM2_EXTI_ENABLE_IT();
 1438              		.loc 1 732 9 is_stmt 1 view .LVU316
 1439 003c 6A4A     		ldr	r2, .L150
 1440 003e 136A     		ldr	r3, [r2, #32]
 1441 0040 43F01003 		orr	r3, r3, #16
 1442 0044 1362     		str	r3, [r2, #32]
 1443              	.L135:
 733:Drivers/STM32G4xx_HAL_Driver/Src/stm32g4xx_hal_pwr_ex.c ****       }
 734:Drivers/STM32G4xx_HAL_Driver/Src/stm32g4xx_hal_pwr_ex.c **** 
 735:Drivers/STM32G4xx_HAL_Driver/Src/stm32g4xx_hal_pwr_ex.c ****       /* Configure event mode */
 736:Drivers/STM32G4xx_HAL_Driver/Src/stm32g4xx_hal_pwr_ex.c ****       if((sConfigPVM->Mode & PVM_MODE_EVT) == PVM_MODE_EVT)
 1444              		.loc 1 736 7 view .LVU317
 1445              		.loc 1 736 21 is_stmt 0 view .LVU318
 1446 0046 4368     		ldr	r3, [r0, #4]
 1447              		.loc 1 736 9 view .LVU319
 1448 0048 13F4003F 		tst	r3, #131072
 1449 004c 04D0     		beq	.L136
 737:Drivers/STM32G4xx_HAL_Driver/Src/stm32g4xx_hal_pwr_ex.c ****       {
 738:Drivers/STM32G4xx_HAL_Driver/Src/stm32g4xx_hal_pwr_ex.c ****         __HAL_PWR_PVM2_EXTI_ENABLE_EVENT();
 1450              		.loc 1 738 9 is_stmt 1 view .LVU320
 1451 004e 664A     		ldr	r2, .L150
ARM GAS  C:\Users\HRb\AppData\Local\Temp\ccj967tF.s 			page 40


 1452 0050 536A     		ldr	r3, [r2, #36]
 1453 0052 43F01003 		orr	r3, r3, #16
 1454 0056 5362     		str	r3, [r2, #36]
 1455              	.L136:
 739:Drivers/STM32G4xx_HAL_Driver/Src/stm32g4xx_hal_pwr_ex.c ****       }
 740:Drivers/STM32G4xx_HAL_Driver/Src/stm32g4xx_hal_pwr_ex.c **** 
 741:Drivers/STM32G4xx_HAL_Driver/Src/stm32g4xx_hal_pwr_ex.c ****       /* Configure the edge */
 742:Drivers/STM32G4xx_HAL_Driver/Src/stm32g4xx_hal_pwr_ex.c ****       if((sConfigPVM->Mode & PVM_RISING_EDGE) == PVM_RISING_EDGE)
 1456              		.loc 1 742 7 view .LVU321
 1457              		.loc 1 742 21 is_stmt 0 view .LVU322
 1458 0058 4368     		ldr	r3, [r0, #4]
 1459              		.loc 1 742 9 view .LVU323
 1460 005a 13F0010F 		tst	r3, #1
 1461 005e 04D0     		beq	.L137
 743:Drivers/STM32G4xx_HAL_Driver/Src/stm32g4xx_hal_pwr_ex.c ****       {
 744:Drivers/STM32G4xx_HAL_Driver/Src/stm32g4xx_hal_pwr_ex.c ****         __HAL_PWR_PVM2_EXTI_ENABLE_RISING_EDGE();
 1462              		.loc 1 744 9 is_stmt 1 view .LVU324
 1463 0060 614A     		ldr	r2, .L150
 1464 0062 936A     		ldr	r3, [r2, #40]
 1465 0064 43F01003 		orr	r3, r3, #16
 1466 0068 9362     		str	r3, [r2, #40]
 1467              	.L137:
 745:Drivers/STM32G4xx_HAL_Driver/Src/stm32g4xx_hal_pwr_ex.c ****       }
 746:Drivers/STM32G4xx_HAL_Driver/Src/stm32g4xx_hal_pwr_ex.c **** 
 747:Drivers/STM32G4xx_HAL_Driver/Src/stm32g4xx_hal_pwr_ex.c ****       if((sConfigPVM->Mode & PVM_FALLING_EDGE) == PVM_FALLING_EDGE)
 1468              		.loc 1 747 7 view .LVU325
 1469              		.loc 1 747 21 is_stmt 0 view .LVU326
 1470 006a 4368     		ldr	r3, [r0, #4]
 1471              		.loc 1 747 9 view .LVU327
 1472 006c 13F0020F 		tst	r3, #2
 1473 0070 00F0B480 		beq	.L145
 748:Drivers/STM32G4xx_HAL_Driver/Src/stm32g4xx_hal_pwr_ex.c ****       {
 749:Drivers/STM32G4xx_HAL_Driver/Src/stm32g4xx_hal_pwr_ex.c ****         __HAL_PWR_PVM2_EXTI_ENABLE_FALLING_EDGE();
 1474              		.loc 1 749 9 is_stmt 1 view .LVU328
 1475 0074 5C4A     		ldr	r2, .L150
 1476 0076 D36A     		ldr	r3, [r2, #44]
 1477 0078 43F01003 		orr	r3, r3, #16
 1478 007c D362     		str	r3, [r2, #44]
 676:Drivers/STM32G4xx_HAL_Driver/Src/stm32g4xx_hal_pwr_ex.c **** 
 1479              		.loc 1 676 21 is_stmt 0 view .LVU329
 1480 007e 0020     		movs	r0, #0
 1481              	.LVL100:
 676:Drivers/STM32G4xx_HAL_Driver/Src/stm32g4xx_hal_pwr_ex.c **** 
 1482              		.loc 1 676 21 view .LVU330
 1483 0080 7047     		bx	lr
 1484              	.LVL101:
 1485              	.L148:
 686:Drivers/STM32G4xx_HAL_Driver/Src/stm32g4xx_hal_pwr_ex.c ****   {
 1486              		.loc 1 686 3 view .LVU331
 1487 0082 0120     		movs	r0, #1
 1488              	.LVL102:
 686:Drivers/STM32G4xx_HAL_Driver/Src/stm32g4xx_hal_pwr_ex.c ****   {
 1489              		.loc 1 686 3 view .LVU332
 1490 0084 7047     		bx	lr
 1491              	.LVL103:
 1492              	.L127:
 686:Drivers/STM32G4xx_HAL_Driver/Src/stm32g4xx_hal_pwr_ex.c ****   {
ARM GAS  C:\Users\HRb\AppData\Local\Temp\ccj967tF.s 			page 41


 1493              		.loc 1 686 3 view .LVU333
 1494 0086 802B     		cmp	r3, #128
 1495 0088 36D1     		bne	.L149
 750:Drivers/STM32G4xx_HAL_Driver/Src/stm32g4xx_hal_pwr_ex.c ****       }
 751:Drivers/STM32G4xx_HAL_Driver/Src/stm32g4xx_hal_pwr_ex.c ****       break;
 752:Drivers/STM32G4xx_HAL_Driver/Src/stm32g4xx_hal_pwr_ex.c **** #endif /* PWR_CR2_PVME2 */
 753:Drivers/STM32G4xx_HAL_Driver/Src/stm32g4xx_hal_pwr_ex.c **** 
 754:Drivers/STM32G4xx_HAL_Driver/Src/stm32g4xx_hal_pwr_ex.c ****     case PWR_PVM_3:
 755:Drivers/STM32G4xx_HAL_Driver/Src/stm32g4xx_hal_pwr_ex.c ****       /* Clear any previous config. Keep it clear if no event or IT mode is selected */
 756:Drivers/STM32G4xx_HAL_Driver/Src/stm32g4xx_hal_pwr_ex.c ****       __HAL_PWR_PVM3_EXTI_DISABLE_EVENT();
 757:Drivers/STM32G4xx_HAL_Driver/Src/stm32g4xx_hal_pwr_ex.c ****       __HAL_PWR_PVM3_EXTI_DISABLE_IT();
 758:Drivers/STM32G4xx_HAL_Driver/Src/stm32g4xx_hal_pwr_ex.c ****       __HAL_PWR_PVM3_EXTI_DISABLE_FALLING_EDGE();
 759:Drivers/STM32G4xx_HAL_Driver/Src/stm32g4xx_hal_pwr_ex.c ****       __HAL_PWR_PVM3_EXTI_DISABLE_RISING_EDGE();
 760:Drivers/STM32G4xx_HAL_Driver/Src/stm32g4xx_hal_pwr_ex.c **** 
 761:Drivers/STM32G4xx_HAL_Driver/Src/stm32g4xx_hal_pwr_ex.c ****       /* Configure interrupt mode */
 762:Drivers/STM32G4xx_HAL_Driver/Src/stm32g4xx_hal_pwr_ex.c ****       if((sConfigPVM->Mode & PVM_MODE_IT) == PVM_MODE_IT)
 763:Drivers/STM32G4xx_HAL_Driver/Src/stm32g4xx_hal_pwr_ex.c ****       {
 764:Drivers/STM32G4xx_HAL_Driver/Src/stm32g4xx_hal_pwr_ex.c ****         __HAL_PWR_PVM3_EXTI_ENABLE_IT();
 765:Drivers/STM32G4xx_HAL_Driver/Src/stm32g4xx_hal_pwr_ex.c ****       }
 766:Drivers/STM32G4xx_HAL_Driver/Src/stm32g4xx_hal_pwr_ex.c **** 
 767:Drivers/STM32G4xx_HAL_Driver/Src/stm32g4xx_hal_pwr_ex.c ****       /* Configure event mode */
 768:Drivers/STM32G4xx_HAL_Driver/Src/stm32g4xx_hal_pwr_ex.c ****       if((sConfigPVM->Mode & PVM_MODE_EVT) == PVM_MODE_EVT)
 769:Drivers/STM32G4xx_HAL_Driver/Src/stm32g4xx_hal_pwr_ex.c ****       {
 770:Drivers/STM32G4xx_HAL_Driver/Src/stm32g4xx_hal_pwr_ex.c ****         __HAL_PWR_PVM3_EXTI_ENABLE_EVENT();
 771:Drivers/STM32G4xx_HAL_Driver/Src/stm32g4xx_hal_pwr_ex.c ****       }
 772:Drivers/STM32G4xx_HAL_Driver/Src/stm32g4xx_hal_pwr_ex.c **** 
 773:Drivers/STM32G4xx_HAL_Driver/Src/stm32g4xx_hal_pwr_ex.c ****       /* Configure the edge */
 774:Drivers/STM32G4xx_HAL_Driver/Src/stm32g4xx_hal_pwr_ex.c ****       if((sConfigPVM->Mode & PVM_RISING_EDGE) == PVM_RISING_EDGE)
 775:Drivers/STM32G4xx_HAL_Driver/Src/stm32g4xx_hal_pwr_ex.c ****       {
 776:Drivers/STM32G4xx_HAL_Driver/Src/stm32g4xx_hal_pwr_ex.c ****         __HAL_PWR_PVM3_EXTI_ENABLE_RISING_EDGE();
 777:Drivers/STM32G4xx_HAL_Driver/Src/stm32g4xx_hal_pwr_ex.c ****       }
 778:Drivers/STM32G4xx_HAL_Driver/Src/stm32g4xx_hal_pwr_ex.c **** 
 779:Drivers/STM32G4xx_HAL_Driver/Src/stm32g4xx_hal_pwr_ex.c ****       if((sConfigPVM->Mode & PVM_FALLING_EDGE) == PVM_FALLING_EDGE)
 780:Drivers/STM32G4xx_HAL_Driver/Src/stm32g4xx_hal_pwr_ex.c ****       {
 781:Drivers/STM32G4xx_HAL_Driver/Src/stm32g4xx_hal_pwr_ex.c ****         __HAL_PWR_PVM3_EXTI_ENABLE_FALLING_EDGE();
 782:Drivers/STM32G4xx_HAL_Driver/Src/stm32g4xx_hal_pwr_ex.c ****       }
 783:Drivers/STM32G4xx_HAL_Driver/Src/stm32g4xx_hal_pwr_ex.c ****       break;
 784:Drivers/STM32G4xx_HAL_Driver/Src/stm32g4xx_hal_pwr_ex.c **** 
 785:Drivers/STM32G4xx_HAL_Driver/Src/stm32g4xx_hal_pwr_ex.c ****     case PWR_PVM_4:
 786:Drivers/STM32G4xx_HAL_Driver/Src/stm32g4xx_hal_pwr_ex.c ****       /* Clear any previous config. Keep it clear if no event or IT mode is selected */
 787:Drivers/STM32G4xx_HAL_Driver/Src/stm32g4xx_hal_pwr_ex.c ****       __HAL_PWR_PVM4_EXTI_DISABLE_EVENT();
 1496              		.loc 1 787 7 is_stmt 1 view .LVU334
 1497 008a 574B     		ldr	r3, .L150
 1498 008c 5A6A     		ldr	r2, [r3, #36]
 1499 008e 22F04002 		bic	r2, r2, #64
 1500 0092 5A62     		str	r2, [r3, #36]
 788:Drivers/STM32G4xx_HAL_Driver/Src/stm32g4xx_hal_pwr_ex.c ****       __HAL_PWR_PVM4_EXTI_DISABLE_IT();
 1501              		.loc 1 788 7 view .LVU335
 1502 0094 1A6A     		ldr	r2, [r3, #32]
 1503 0096 22F04002 		bic	r2, r2, #64
 1504 009a 1A62     		str	r2, [r3, #32]
 789:Drivers/STM32G4xx_HAL_Driver/Src/stm32g4xx_hal_pwr_ex.c ****       __HAL_PWR_PVM4_EXTI_DISABLE_FALLING_EDGE();
 1505              		.loc 1 789 7 view .LVU336
 1506 009c DA6A     		ldr	r2, [r3, #44]
 1507 009e 22F04002 		bic	r2, r2, #64
 1508 00a2 DA62     		str	r2, [r3, #44]
 790:Drivers/STM32G4xx_HAL_Driver/Src/stm32g4xx_hal_pwr_ex.c ****       __HAL_PWR_PVM4_EXTI_DISABLE_RISING_EDGE();
ARM GAS  C:\Users\HRb\AppData\Local\Temp\ccj967tF.s 			page 42


 1509              		.loc 1 790 7 view .LVU337
 1510 00a4 9A6A     		ldr	r2, [r3, #40]
 1511 00a6 22F04002 		bic	r2, r2, #64
 1512 00aa 9A62     		str	r2, [r3, #40]
 791:Drivers/STM32G4xx_HAL_Driver/Src/stm32g4xx_hal_pwr_ex.c **** 
 792:Drivers/STM32G4xx_HAL_Driver/Src/stm32g4xx_hal_pwr_ex.c ****       /* Configure interrupt mode */
 793:Drivers/STM32G4xx_HAL_Driver/Src/stm32g4xx_hal_pwr_ex.c ****       if((sConfigPVM->Mode & PVM_MODE_IT) == PVM_MODE_IT)
 1513              		.loc 1 793 7 view .LVU338
 1514              		.loc 1 793 21 is_stmt 0 view .LVU339
 1515 00ac 4368     		ldr	r3, [r0, #4]
 1516              		.loc 1 793 9 view .LVU340
 1517 00ae 13F4803F 		tst	r3, #65536
 1518 00b2 04D0     		beq	.L141
 794:Drivers/STM32G4xx_HAL_Driver/Src/stm32g4xx_hal_pwr_ex.c ****       {
 795:Drivers/STM32G4xx_HAL_Driver/Src/stm32g4xx_hal_pwr_ex.c ****         __HAL_PWR_PVM4_EXTI_ENABLE_IT();
 1519              		.loc 1 795 9 is_stmt 1 view .LVU341
 1520 00b4 4C4A     		ldr	r2, .L150
 1521 00b6 136A     		ldr	r3, [r2, #32]
 1522 00b8 43F04003 		orr	r3, r3, #64
 1523 00bc 1362     		str	r3, [r2, #32]
 1524              	.L141:
 796:Drivers/STM32G4xx_HAL_Driver/Src/stm32g4xx_hal_pwr_ex.c ****       }
 797:Drivers/STM32G4xx_HAL_Driver/Src/stm32g4xx_hal_pwr_ex.c **** 
 798:Drivers/STM32G4xx_HAL_Driver/Src/stm32g4xx_hal_pwr_ex.c ****       /* Configure event mode */
 799:Drivers/STM32G4xx_HAL_Driver/Src/stm32g4xx_hal_pwr_ex.c ****       if((sConfigPVM->Mode & PVM_MODE_EVT) == PVM_MODE_EVT)
 1525              		.loc 1 799 7 view .LVU342
 1526              		.loc 1 799 21 is_stmt 0 view .LVU343
 1527 00be 4368     		ldr	r3, [r0, #4]
 1528              		.loc 1 799 9 view .LVU344
 1529 00c0 13F4003F 		tst	r3, #131072
 1530 00c4 04D0     		beq	.L142
 800:Drivers/STM32G4xx_HAL_Driver/Src/stm32g4xx_hal_pwr_ex.c ****       {
 801:Drivers/STM32G4xx_HAL_Driver/Src/stm32g4xx_hal_pwr_ex.c ****         __HAL_PWR_PVM4_EXTI_ENABLE_EVENT();
 1531              		.loc 1 801 9 is_stmt 1 view .LVU345
 1532 00c6 484A     		ldr	r2, .L150
 1533 00c8 536A     		ldr	r3, [r2, #36]
 1534 00ca 43F04003 		orr	r3, r3, #64
 1535 00ce 5362     		str	r3, [r2, #36]
 1536              	.L142:
 802:Drivers/STM32G4xx_HAL_Driver/Src/stm32g4xx_hal_pwr_ex.c ****       }
 803:Drivers/STM32G4xx_HAL_Driver/Src/stm32g4xx_hal_pwr_ex.c **** 
 804:Drivers/STM32G4xx_HAL_Driver/Src/stm32g4xx_hal_pwr_ex.c ****       /* Configure the edge */
 805:Drivers/STM32G4xx_HAL_Driver/Src/stm32g4xx_hal_pwr_ex.c ****       if((sConfigPVM->Mode & PVM_RISING_EDGE) == PVM_RISING_EDGE)
 1537              		.loc 1 805 7 view .LVU346
 1538              		.loc 1 805 21 is_stmt 0 view .LVU347
 1539 00d0 4368     		ldr	r3, [r0, #4]
 1540              		.loc 1 805 9 view .LVU348
 1541 00d2 13F0010F 		tst	r3, #1
 1542 00d6 04D0     		beq	.L143
 806:Drivers/STM32G4xx_HAL_Driver/Src/stm32g4xx_hal_pwr_ex.c ****       {
 807:Drivers/STM32G4xx_HAL_Driver/Src/stm32g4xx_hal_pwr_ex.c ****         __HAL_PWR_PVM4_EXTI_ENABLE_RISING_EDGE();
 1543              		.loc 1 807 9 is_stmt 1 view .LVU349
 1544 00d8 434A     		ldr	r2, .L150
 1545 00da 936A     		ldr	r3, [r2, #40]
 1546 00dc 43F04003 		orr	r3, r3, #64
 1547 00e0 9362     		str	r3, [r2, #40]
 1548              	.L143:
ARM GAS  C:\Users\HRb\AppData\Local\Temp\ccj967tF.s 			page 43


 808:Drivers/STM32G4xx_HAL_Driver/Src/stm32g4xx_hal_pwr_ex.c ****       }
 809:Drivers/STM32G4xx_HAL_Driver/Src/stm32g4xx_hal_pwr_ex.c **** 
 810:Drivers/STM32G4xx_HAL_Driver/Src/stm32g4xx_hal_pwr_ex.c ****       if((sConfigPVM->Mode & PVM_FALLING_EDGE) == PVM_FALLING_EDGE)
 1549              		.loc 1 810 7 view .LVU350
 1550              		.loc 1 810 21 is_stmt 0 view .LVU351
 1551 00e2 4368     		ldr	r3, [r0, #4]
 1552              		.loc 1 810 9 view .LVU352
 1553 00e4 13F0020F 		tst	r3, #2
 1554 00e8 7CD0     		beq	.L147
 811:Drivers/STM32G4xx_HAL_Driver/Src/stm32g4xx_hal_pwr_ex.c ****       {
 812:Drivers/STM32G4xx_HAL_Driver/Src/stm32g4xx_hal_pwr_ex.c ****         __HAL_PWR_PVM4_EXTI_ENABLE_FALLING_EDGE();
 1555              		.loc 1 812 9 is_stmt 1 view .LVU353
 1556 00ea 3F4A     		ldr	r2, .L150
 1557 00ec D36A     		ldr	r3, [r2, #44]
 1558 00ee 43F04003 		orr	r3, r3, #64
 1559 00f2 D362     		str	r3, [r2, #44]
 676:Drivers/STM32G4xx_HAL_Driver/Src/stm32g4xx_hal_pwr_ex.c **** 
 1560              		.loc 1 676 21 is_stmt 0 view .LVU354
 1561 00f4 0020     		movs	r0, #0
 1562              	.LVL104:
 676:Drivers/STM32G4xx_HAL_Driver/Src/stm32g4xx_hal_pwr_ex.c **** 
 1563              		.loc 1 676 21 view .LVU355
 1564 00f6 7047     		bx	lr
 1565              	.LVL105:
 1566              	.L149:
 686:Drivers/STM32G4xx_HAL_Driver/Src/stm32g4xx_hal_pwr_ex.c ****   {
 1567              		.loc 1 686 3 view .LVU356
 1568 00f8 0120     		movs	r0, #1
 1569              	.LVL106:
 686:Drivers/STM32G4xx_HAL_Driver/Src/stm32g4xx_hal_pwr_ex.c ****   {
 1570              		.loc 1 686 3 view .LVU357
 1571 00fa 7047     		bx	lr
 1572              	.LVL107:
 1573              	.L128:
 691:Drivers/STM32G4xx_HAL_Driver/Src/stm32g4xx_hal_pwr_ex.c ****       __HAL_PWR_PVM1_EXTI_DISABLE_IT();
 1574              		.loc 1 691 7 is_stmt 1 view .LVU358
 1575 00fc 3A4B     		ldr	r3, .L150
 1576 00fe 5A6A     		ldr	r2, [r3, #36]
 1577 0100 22F00802 		bic	r2, r2, #8
 1578 0104 5A62     		str	r2, [r3, #36]
 692:Drivers/STM32G4xx_HAL_Driver/Src/stm32g4xx_hal_pwr_ex.c ****       __HAL_PWR_PVM1_EXTI_DISABLE_FALLING_EDGE();
 1579              		.loc 1 692 7 view .LVU359
 1580 0106 1A6A     		ldr	r2, [r3, #32]
 1581 0108 22F00802 		bic	r2, r2, #8
 1582 010c 1A62     		str	r2, [r3, #32]
 693:Drivers/STM32G4xx_HAL_Driver/Src/stm32g4xx_hal_pwr_ex.c ****       __HAL_PWR_PVM1_EXTI_DISABLE_RISING_EDGE();
 1583              		.loc 1 693 7 view .LVU360
 1584 010e DA6A     		ldr	r2, [r3, #44]
 1585 0110 22F00802 		bic	r2, r2, #8
 1586 0114 DA62     		str	r2, [r3, #44]
 694:Drivers/STM32G4xx_HAL_Driver/Src/stm32g4xx_hal_pwr_ex.c **** 
 1587              		.loc 1 694 7 view .LVU361
 1588 0116 9A6A     		ldr	r2, [r3, #40]
 1589 0118 22F00802 		bic	r2, r2, #8
 1590 011c 9A62     		str	r2, [r3, #40]
 697:Drivers/STM32G4xx_HAL_Driver/Src/stm32g4xx_hal_pwr_ex.c ****       {
 1591              		.loc 1 697 7 view .LVU362
ARM GAS  C:\Users\HRb\AppData\Local\Temp\ccj967tF.s 			page 44


 697:Drivers/STM32G4xx_HAL_Driver/Src/stm32g4xx_hal_pwr_ex.c ****       {
 1592              		.loc 1 697 21 is_stmt 0 view .LVU363
 1593 011e 4368     		ldr	r3, [r0, #4]
 697:Drivers/STM32G4xx_HAL_Driver/Src/stm32g4xx_hal_pwr_ex.c ****       {
 1594              		.loc 1 697 9 view .LVU364
 1595 0120 13F4803F 		tst	r3, #65536
 1596 0124 04D0     		beq	.L132
 699:Drivers/STM32G4xx_HAL_Driver/Src/stm32g4xx_hal_pwr_ex.c ****       }
 1597              		.loc 1 699 9 is_stmt 1 view .LVU365
 1598 0126 304A     		ldr	r2, .L150
 1599 0128 136A     		ldr	r3, [r2, #32]
 1600 012a 43F00803 		orr	r3, r3, #8
 1601 012e 1362     		str	r3, [r2, #32]
 1602              	.L132:
 703:Drivers/STM32G4xx_HAL_Driver/Src/stm32g4xx_hal_pwr_ex.c ****       {
 1603              		.loc 1 703 7 view .LVU366
 703:Drivers/STM32G4xx_HAL_Driver/Src/stm32g4xx_hal_pwr_ex.c ****       {
 1604              		.loc 1 703 21 is_stmt 0 view .LVU367
 1605 0130 4368     		ldr	r3, [r0, #4]
 703:Drivers/STM32G4xx_HAL_Driver/Src/stm32g4xx_hal_pwr_ex.c ****       {
 1606              		.loc 1 703 9 view .LVU368
 1607 0132 13F4003F 		tst	r3, #131072
 1608 0136 04D0     		beq	.L133
 705:Drivers/STM32G4xx_HAL_Driver/Src/stm32g4xx_hal_pwr_ex.c ****       }
 1609              		.loc 1 705 9 is_stmt 1 view .LVU369
 1610 0138 2B4A     		ldr	r2, .L150
 1611 013a 536A     		ldr	r3, [r2, #36]
 1612 013c 43F00803 		orr	r3, r3, #8
 1613 0140 5362     		str	r3, [r2, #36]
 1614              	.L133:
 709:Drivers/STM32G4xx_HAL_Driver/Src/stm32g4xx_hal_pwr_ex.c ****       {
 1615              		.loc 1 709 7 view .LVU370
 709:Drivers/STM32G4xx_HAL_Driver/Src/stm32g4xx_hal_pwr_ex.c ****       {
 1616              		.loc 1 709 21 is_stmt 0 view .LVU371
 1617 0142 4368     		ldr	r3, [r0, #4]
 709:Drivers/STM32G4xx_HAL_Driver/Src/stm32g4xx_hal_pwr_ex.c ****       {
 1618              		.loc 1 709 9 view .LVU372
 1619 0144 13F0010F 		tst	r3, #1
 1620 0148 04D0     		beq	.L134
 711:Drivers/STM32G4xx_HAL_Driver/Src/stm32g4xx_hal_pwr_ex.c ****       }
 1621              		.loc 1 711 9 is_stmt 1 view .LVU373
 1622 014a 274A     		ldr	r2, .L150
 1623 014c 936A     		ldr	r3, [r2, #40]
 1624 014e 43F00803 		orr	r3, r3, #8
 1625 0152 9362     		str	r3, [r2, #40]
 1626              	.L134:
 714:Drivers/STM32G4xx_HAL_Driver/Src/stm32g4xx_hal_pwr_ex.c ****       {
 1627              		.loc 1 714 7 view .LVU374
 714:Drivers/STM32G4xx_HAL_Driver/Src/stm32g4xx_hal_pwr_ex.c ****       {
 1628              		.loc 1 714 21 is_stmt 0 view .LVU375
 1629 0154 4368     		ldr	r3, [r0, #4]
 714:Drivers/STM32G4xx_HAL_Driver/Src/stm32g4xx_hal_pwr_ex.c ****       {
 1630              		.loc 1 714 9 view .LVU376
 1631 0156 13F0020F 		tst	r3, #2
 1632 015a 3DD0     		beq	.L144
 716:Drivers/STM32G4xx_HAL_Driver/Src/stm32g4xx_hal_pwr_ex.c ****       }
 1633              		.loc 1 716 9 is_stmt 1 view .LVU377
ARM GAS  C:\Users\HRb\AppData\Local\Temp\ccj967tF.s 			page 45


 1634 015c 224A     		ldr	r2, .L150
 1635 015e D36A     		ldr	r3, [r2, #44]
 1636 0160 43F00803 		orr	r3, r3, #8
 1637 0164 D362     		str	r3, [r2, #44]
 676:Drivers/STM32G4xx_HAL_Driver/Src/stm32g4xx_hal_pwr_ex.c **** 
 1638              		.loc 1 676 21 is_stmt 0 view .LVU378
 1639 0166 0020     		movs	r0, #0
 1640              	.LVL108:
 676:Drivers/STM32G4xx_HAL_Driver/Src/stm32g4xx_hal_pwr_ex.c **** 
 1641              		.loc 1 676 21 view .LVU379
 1642 0168 7047     		bx	lr
 1643              	.LVL109:
 1644              	.L126:
 756:Drivers/STM32G4xx_HAL_Driver/Src/stm32g4xx_hal_pwr_ex.c ****       __HAL_PWR_PVM3_EXTI_DISABLE_IT();
 1645              		.loc 1 756 7 is_stmt 1 view .LVU380
 1646 016a 1F4B     		ldr	r3, .L150
 1647 016c 5A6A     		ldr	r2, [r3, #36]
 1648 016e 22F02002 		bic	r2, r2, #32
 1649 0172 5A62     		str	r2, [r3, #36]
 757:Drivers/STM32G4xx_HAL_Driver/Src/stm32g4xx_hal_pwr_ex.c ****       __HAL_PWR_PVM3_EXTI_DISABLE_FALLING_EDGE();
 1650              		.loc 1 757 7 view .LVU381
 1651 0174 1A6A     		ldr	r2, [r3, #32]
 1652 0176 22F02002 		bic	r2, r2, #32
 1653 017a 1A62     		str	r2, [r3, #32]
 758:Drivers/STM32G4xx_HAL_Driver/Src/stm32g4xx_hal_pwr_ex.c ****       __HAL_PWR_PVM3_EXTI_DISABLE_RISING_EDGE();
 1654              		.loc 1 758 7 view .LVU382
 1655 017c DA6A     		ldr	r2, [r3, #44]
 1656 017e 22F02002 		bic	r2, r2, #32
 1657 0182 DA62     		str	r2, [r3, #44]
 759:Drivers/STM32G4xx_HAL_Driver/Src/stm32g4xx_hal_pwr_ex.c **** 
 1658              		.loc 1 759 7 view .LVU383
 1659 0184 9A6A     		ldr	r2, [r3, #40]
 1660 0186 22F02002 		bic	r2, r2, #32
 1661 018a 9A62     		str	r2, [r3, #40]
 762:Drivers/STM32G4xx_HAL_Driver/Src/stm32g4xx_hal_pwr_ex.c ****       {
 1662              		.loc 1 762 7 view .LVU384
 762:Drivers/STM32G4xx_HAL_Driver/Src/stm32g4xx_hal_pwr_ex.c ****       {
 1663              		.loc 1 762 21 is_stmt 0 view .LVU385
 1664 018c 4368     		ldr	r3, [r0, #4]
 762:Drivers/STM32G4xx_HAL_Driver/Src/stm32g4xx_hal_pwr_ex.c ****       {
 1665              		.loc 1 762 9 view .LVU386
 1666 018e 13F4803F 		tst	r3, #65536
 1667 0192 04D0     		beq	.L138
 764:Drivers/STM32G4xx_HAL_Driver/Src/stm32g4xx_hal_pwr_ex.c ****       }
 1668              		.loc 1 764 9 is_stmt 1 view .LVU387
 1669 0194 144A     		ldr	r2, .L150
 1670 0196 136A     		ldr	r3, [r2, #32]
 1671 0198 43F02003 		orr	r3, r3, #32
 1672 019c 1362     		str	r3, [r2, #32]
 1673              	.L138:
 768:Drivers/STM32G4xx_HAL_Driver/Src/stm32g4xx_hal_pwr_ex.c ****       {
 1674              		.loc 1 768 7 view .LVU388
 768:Drivers/STM32G4xx_HAL_Driver/Src/stm32g4xx_hal_pwr_ex.c ****       {
 1675              		.loc 1 768 21 is_stmt 0 view .LVU389
 1676 019e 4368     		ldr	r3, [r0, #4]
 768:Drivers/STM32G4xx_HAL_Driver/Src/stm32g4xx_hal_pwr_ex.c ****       {
 1677              		.loc 1 768 9 view .LVU390
ARM GAS  C:\Users\HRb\AppData\Local\Temp\ccj967tF.s 			page 46


 1678 01a0 13F4003F 		tst	r3, #131072
 1679 01a4 04D0     		beq	.L139
 770:Drivers/STM32G4xx_HAL_Driver/Src/stm32g4xx_hal_pwr_ex.c ****       }
 1680              		.loc 1 770 9 is_stmt 1 view .LVU391
 1681 01a6 104A     		ldr	r2, .L150
 1682 01a8 536A     		ldr	r3, [r2, #36]
 1683 01aa 43F02003 		orr	r3, r3, #32
 1684 01ae 5362     		str	r3, [r2, #36]
 1685              	.L139:
 774:Drivers/STM32G4xx_HAL_Driver/Src/stm32g4xx_hal_pwr_ex.c ****       {
 1686              		.loc 1 774 7 view .LVU392
 774:Drivers/STM32G4xx_HAL_Driver/Src/stm32g4xx_hal_pwr_ex.c ****       {
 1687              		.loc 1 774 21 is_stmt 0 view .LVU393
 1688 01b0 4368     		ldr	r3, [r0, #4]
 774:Drivers/STM32G4xx_HAL_Driver/Src/stm32g4xx_hal_pwr_ex.c ****       {
 1689              		.loc 1 774 9 view .LVU394
 1690 01b2 13F0010F 		tst	r3, #1
 1691 01b6 04D0     		beq	.L140
 776:Drivers/STM32G4xx_HAL_Driver/Src/stm32g4xx_hal_pwr_ex.c ****       }
 1692              		.loc 1 776 9 is_stmt 1 view .LVU395
 1693 01b8 0B4A     		ldr	r2, .L150
 1694 01ba 936A     		ldr	r3, [r2, #40]
 1695 01bc 43F02003 		orr	r3, r3, #32
 1696 01c0 9362     		str	r3, [r2, #40]
 1697              	.L140:
 779:Drivers/STM32G4xx_HAL_Driver/Src/stm32g4xx_hal_pwr_ex.c ****       {
 1698              		.loc 1 779 7 view .LVU396
 779:Drivers/STM32G4xx_HAL_Driver/Src/stm32g4xx_hal_pwr_ex.c ****       {
 1699              		.loc 1 779 21 is_stmt 0 view .LVU397
 1700 01c2 4368     		ldr	r3, [r0, #4]
 779:Drivers/STM32G4xx_HAL_Driver/Src/stm32g4xx_hal_pwr_ex.c ****       {
 1701              		.loc 1 779 9 view .LVU398
 1702 01c4 13F0020F 		tst	r3, #2
 1703 01c8 0AD0     		beq	.L146
 781:Drivers/STM32G4xx_HAL_Driver/Src/stm32g4xx_hal_pwr_ex.c ****       }
 1704              		.loc 1 781 9 is_stmt 1 view .LVU399
 1705 01ca 074A     		ldr	r2, .L150
 1706 01cc D36A     		ldr	r3, [r2, #44]
 1707 01ce 43F02003 		orr	r3, r3, #32
 1708 01d2 D362     		str	r3, [r2, #44]
 676:Drivers/STM32G4xx_HAL_Driver/Src/stm32g4xx_hal_pwr_ex.c **** 
 1709              		.loc 1 676 21 is_stmt 0 view .LVU400
 1710 01d4 0020     		movs	r0, #0
 1711              	.LVL110:
 676:Drivers/STM32G4xx_HAL_Driver/Src/stm32g4xx_hal_pwr_ex.c **** 
 1712              		.loc 1 676 21 view .LVU401
 1713 01d6 7047     		bx	lr
 1714              	.LVL111:
 1715              	.L144:
 676:Drivers/STM32G4xx_HAL_Driver/Src/stm32g4xx_hal_pwr_ex.c **** 
 1716              		.loc 1 676 21 view .LVU402
 1717 01d8 0020     		movs	r0, #0
 1718              	.LVL112:
 676:Drivers/STM32G4xx_HAL_Driver/Src/stm32g4xx_hal_pwr_ex.c **** 
 1719              		.loc 1 676 21 view .LVU403
 1720 01da 7047     		bx	lr
 1721              	.LVL113:
ARM GAS  C:\Users\HRb\AppData\Local\Temp\ccj967tF.s 			page 47


 1722              	.L145:
 676:Drivers/STM32G4xx_HAL_Driver/Src/stm32g4xx_hal_pwr_ex.c **** 
 1723              		.loc 1 676 21 view .LVU404
 1724 01dc 0020     		movs	r0, #0
 1725              	.LVL114:
 676:Drivers/STM32G4xx_HAL_Driver/Src/stm32g4xx_hal_pwr_ex.c **** 
 1726              		.loc 1 676 21 view .LVU405
 1727 01de 7047     		bx	lr
 1728              	.LVL115:
 1729              	.L146:
 676:Drivers/STM32G4xx_HAL_Driver/Src/stm32g4xx_hal_pwr_ex.c **** 
 1730              		.loc 1 676 21 view .LVU406
 1731 01e0 0020     		movs	r0, #0
 1732              	.LVL116:
 676:Drivers/STM32G4xx_HAL_Driver/Src/stm32g4xx_hal_pwr_ex.c **** 
 1733              		.loc 1 676 21 view .LVU407
 1734 01e2 7047     		bx	lr
 1735              	.LVL117:
 1736              	.L147:
 676:Drivers/STM32G4xx_HAL_Driver/Src/stm32g4xx_hal_pwr_ex.c **** 
 1737              		.loc 1 676 21 view .LVU408
 1738 01e4 0020     		movs	r0, #0
 1739              	.LVL118:
 813:Drivers/STM32G4xx_HAL_Driver/Src/stm32g4xx_hal_pwr_ex.c ****       }
 814:Drivers/STM32G4xx_HAL_Driver/Src/stm32g4xx_hal_pwr_ex.c ****       break;
 815:Drivers/STM32G4xx_HAL_Driver/Src/stm32g4xx_hal_pwr_ex.c **** 
 816:Drivers/STM32G4xx_HAL_Driver/Src/stm32g4xx_hal_pwr_ex.c ****     default:
 817:Drivers/STM32G4xx_HAL_Driver/Src/stm32g4xx_hal_pwr_ex.c ****       status = HAL_ERROR;
 818:Drivers/STM32G4xx_HAL_Driver/Src/stm32g4xx_hal_pwr_ex.c ****       break;
 819:Drivers/STM32G4xx_HAL_Driver/Src/stm32g4xx_hal_pwr_ex.c ****   }
 820:Drivers/STM32G4xx_HAL_Driver/Src/stm32g4xx_hal_pwr_ex.c **** 
 821:Drivers/STM32G4xx_HAL_Driver/Src/stm32g4xx_hal_pwr_ex.c ****   return status;
 1740              		.loc 1 821 3 is_stmt 1 view .LVU409
 822:Drivers/STM32G4xx_HAL_Driver/Src/stm32g4xx_hal_pwr_ex.c **** }
 1741              		.loc 1 822 1 is_stmt 0 view .LVU410
 1742 01e6 7047     		bx	lr
 1743              	.L151:
 1744              		.align	2
 1745              	.L150:
 1746 01e8 00040140 		.word	1073808384
 1747              		.cfi_endproc
 1748              	.LFE351:
 1750              		.section	.text.HAL_PWREx_EnableLowPowerRunMode,"ax",%progbits
 1751              		.align	1
 1752              		.global	HAL_PWREx_EnableLowPowerRunMode
 1753              		.syntax unified
 1754              		.thumb
 1755              		.thumb_func
 1757              	HAL_PWREx_EnableLowPowerRunMode:
 1758              	.LFB352:
 823:Drivers/STM32G4xx_HAL_Driver/Src/stm32g4xx_hal_pwr_ex.c **** 
 824:Drivers/STM32G4xx_HAL_Driver/Src/stm32g4xx_hal_pwr_ex.c **** 
 825:Drivers/STM32G4xx_HAL_Driver/Src/stm32g4xx_hal_pwr_ex.c **** /**
 826:Drivers/STM32G4xx_HAL_Driver/Src/stm32g4xx_hal_pwr_ex.c ****   * @brief Enter Low-power Run mode
 827:Drivers/STM32G4xx_HAL_Driver/Src/stm32g4xx_hal_pwr_ex.c ****   * @note  In Low-power Run mode, all I/O pins keep the same state as in Run mode.
 828:Drivers/STM32G4xx_HAL_Driver/Src/stm32g4xx_hal_pwr_ex.c ****   * @note  When Regulator is set to PWR_LOWPOWERREGULATOR_ON, the user can optionally configure the
 829:Drivers/STM32G4xx_HAL_Driver/Src/stm32g4xx_hal_pwr_ex.c ****   *        Flash in power-down monde in setting the RUN_PD bit in FLASH_ACR register.
ARM GAS  C:\Users\HRb\AppData\Local\Temp\ccj967tF.s 			page 48


 830:Drivers/STM32G4xx_HAL_Driver/Src/stm32g4xx_hal_pwr_ex.c ****   *        Additionally, the clock frequency must be reduced below 2 MHz.
 831:Drivers/STM32G4xx_HAL_Driver/Src/stm32g4xx_hal_pwr_ex.c ****   *        Setting RUN_PD in FLASH_ACR then appropriately reducing the clock frequency must
 832:Drivers/STM32G4xx_HAL_Driver/Src/stm32g4xx_hal_pwr_ex.c ****   *        be done before calling HAL_PWREx_EnableLowPowerRunMode() API.
 833:Drivers/STM32G4xx_HAL_Driver/Src/stm32g4xx_hal_pwr_ex.c ****   * @retval None
 834:Drivers/STM32G4xx_HAL_Driver/Src/stm32g4xx_hal_pwr_ex.c ****   */
 835:Drivers/STM32G4xx_HAL_Driver/Src/stm32g4xx_hal_pwr_ex.c **** void HAL_PWREx_EnableLowPowerRunMode(void)
 836:Drivers/STM32G4xx_HAL_Driver/Src/stm32g4xx_hal_pwr_ex.c **** {
 1759              		.loc 1 836 1 is_stmt 1 view -0
 1760              		.cfi_startproc
 1761              		@ args = 0, pretend = 0, frame = 0
 1762              		@ frame_needed = 0, uses_anonymous_args = 0
 1763              		@ link register save eliminated.
 837:Drivers/STM32G4xx_HAL_Driver/Src/stm32g4xx_hal_pwr_ex.c ****   /* Set Regulator parameter */
 838:Drivers/STM32G4xx_HAL_Driver/Src/stm32g4xx_hal_pwr_ex.c ****   SET_BIT(PWR->CR1, PWR_CR1_LPR);
 1764              		.loc 1 838 3 view .LVU412
 1765 0000 024A     		ldr	r2, .L153
 1766 0002 1368     		ldr	r3, [r2]
 1767 0004 43F48043 		orr	r3, r3, #16384
 1768 0008 1360     		str	r3, [r2]
 839:Drivers/STM32G4xx_HAL_Driver/Src/stm32g4xx_hal_pwr_ex.c **** }
 1769              		.loc 1 839 1 is_stmt 0 view .LVU413
 1770 000a 7047     		bx	lr
 1771              	.L154:
 1772              		.align	2
 1773              	.L153:
 1774 000c 00700040 		.word	1073770496
 1775              		.cfi_endproc
 1776              	.LFE352:
 1778              		.section	.text.HAL_PWREx_DisableLowPowerRunMode,"ax",%progbits
 1779              		.align	1
 1780              		.global	HAL_PWREx_DisableLowPowerRunMode
 1781              		.syntax unified
 1782              		.thumb
 1783              		.thumb_func
 1785              	HAL_PWREx_DisableLowPowerRunMode:
 1786              	.LFB353:
 840:Drivers/STM32G4xx_HAL_Driver/Src/stm32g4xx_hal_pwr_ex.c **** 
 841:Drivers/STM32G4xx_HAL_Driver/Src/stm32g4xx_hal_pwr_ex.c **** 
 842:Drivers/STM32G4xx_HAL_Driver/Src/stm32g4xx_hal_pwr_ex.c **** /**
 843:Drivers/STM32G4xx_HAL_Driver/Src/stm32g4xx_hal_pwr_ex.c ****   * @brief Exit Low-power Run mode.
 844:Drivers/STM32G4xx_HAL_Driver/Src/stm32g4xx_hal_pwr_ex.c ****   * @note  Before HAL_PWREx_DisableLowPowerRunMode() completion, the function checks that
 845:Drivers/STM32G4xx_HAL_Driver/Src/stm32g4xx_hal_pwr_ex.c ****   *        REGLPF has been properly reset (otherwise, HAL_PWREx_DisableLowPowerRunMode
 846:Drivers/STM32G4xx_HAL_Driver/Src/stm32g4xx_hal_pwr_ex.c ****   *        returns HAL_TIMEOUT status). The system clock frequency can then be
 847:Drivers/STM32G4xx_HAL_Driver/Src/stm32g4xx_hal_pwr_ex.c ****   *        increased above 2 MHz.
 848:Drivers/STM32G4xx_HAL_Driver/Src/stm32g4xx_hal_pwr_ex.c ****   * @retval HAL Status
 849:Drivers/STM32G4xx_HAL_Driver/Src/stm32g4xx_hal_pwr_ex.c ****   */
 850:Drivers/STM32G4xx_HAL_Driver/Src/stm32g4xx_hal_pwr_ex.c **** HAL_StatusTypeDef HAL_PWREx_DisableLowPowerRunMode(void)
 851:Drivers/STM32G4xx_HAL_Driver/Src/stm32g4xx_hal_pwr_ex.c **** {
 1787              		.loc 1 851 1 is_stmt 1 view -0
 1788              		.cfi_startproc
 1789              		@ args = 0, pretend = 0, frame = 0
 1790              		@ frame_needed = 0, uses_anonymous_args = 0
 1791              		@ link register save eliminated.
 852:Drivers/STM32G4xx_HAL_Driver/Src/stm32g4xx_hal_pwr_ex.c ****   uint32_t wait_loop_index;
 1792              		.loc 1 852 3 view .LVU415
 853:Drivers/STM32G4xx_HAL_Driver/Src/stm32g4xx_hal_pwr_ex.c **** 
 854:Drivers/STM32G4xx_HAL_Driver/Src/stm32g4xx_hal_pwr_ex.c ****   /* Clear LPR bit */
ARM GAS  C:\Users\HRb\AppData\Local\Temp\ccj967tF.s 			page 49


 855:Drivers/STM32G4xx_HAL_Driver/Src/stm32g4xx_hal_pwr_ex.c ****   CLEAR_BIT(PWR->CR1, PWR_CR1_LPR);
 1793              		.loc 1 855 3 view .LVU416
 1794 0000 124A     		ldr	r2, .L161
 1795 0002 1368     		ldr	r3, [r2]
 1796 0004 23F48043 		bic	r3, r3, #16384
 1797 0008 1360     		str	r3, [r2]
 856:Drivers/STM32G4xx_HAL_Driver/Src/stm32g4xx_hal_pwr_ex.c **** 
 857:Drivers/STM32G4xx_HAL_Driver/Src/stm32g4xx_hal_pwr_ex.c ****   /* Wait until REGLPF is reset */
 858:Drivers/STM32G4xx_HAL_Driver/Src/stm32g4xx_hal_pwr_ex.c ****   wait_loop_index = (PWR_FLAG_SETTING_DELAY_US * (SystemCoreClock / 1000000U));
 1798              		.loc 1 858 3 view .LVU417
 1799              		.loc 1 858 67 is_stmt 0 view .LVU418
 1800 000a 114B     		ldr	r3, .L161+4
 1801 000c 1B68     		ldr	r3, [r3]
 1802 000e 02F14672 		add	r2, r2, #51904512
 1803 0012 02F55B32 		add	r2, r2, #224256
 1804 0016 02F28322 		addw	r2, r2, #643
 1805 001a A2FB0323 		umull	r2, r3, r2, r3
 1806 001e 9B0C     		lsrs	r3, r3, #18
 1807              		.loc 1 858 19 view .LVU419
 1808 0020 3222     		movs	r2, #50
 1809 0022 02FB03F3 		mul	r3, r2, r3
 1810              	.LVL119:
 859:Drivers/STM32G4xx_HAL_Driver/Src/stm32g4xx_hal_pwr_ex.c ****   while ((HAL_IS_BIT_SET(PWR->SR2, PWR_SR2_REGLPF)) && (wait_loop_index != 0U))
 1811              		.loc 1 859 3 is_stmt 1 view .LVU420
 1812              		.loc 1 859 9 is_stmt 0 view .LVU421
 1813 0026 00E0     		b	.L156
 1814              	.L158:
 860:Drivers/STM32G4xx_HAL_Driver/Src/stm32g4xx_hal_pwr_ex.c ****   {
 861:Drivers/STM32G4xx_HAL_Driver/Src/stm32g4xx_hal_pwr_ex.c ****     wait_loop_index--;
 1815              		.loc 1 861 5 is_stmt 1 view .LVU422
 1816              		.loc 1 861 20 is_stmt 0 view .LVU423
 1817 0028 013B     		subs	r3, r3, #1
 1818              	.LVL120:
 1819              	.L156:
 859:Drivers/STM32G4xx_HAL_Driver/Src/stm32g4xx_hal_pwr_ex.c ****   while ((HAL_IS_BIT_SET(PWR->SR2, PWR_SR2_REGLPF)) && (wait_loop_index != 0U))
 1820              		.loc 1 859 53 is_stmt 1 view .LVU424
 859:Drivers/STM32G4xx_HAL_Driver/Src/stm32g4xx_hal_pwr_ex.c ****   while ((HAL_IS_BIT_SET(PWR->SR2, PWR_SR2_REGLPF)) && (wait_loop_index != 0U))
 1821              		.loc 1 859 11 is_stmt 0 view .LVU425
 1822 002a 084A     		ldr	r2, .L161
 1823 002c 5269     		ldr	r2, [r2, #20]
 859:Drivers/STM32G4xx_HAL_Driver/Src/stm32g4xx_hal_pwr_ex.c ****   while ((HAL_IS_BIT_SET(PWR->SR2, PWR_SR2_REGLPF)) && (wait_loop_index != 0U))
 1824              		.loc 1 859 53 view .LVU426
 1825 002e 12F4007F 		tst	r2, #512
 1826 0032 01D0     		beq	.L157
 859:Drivers/STM32G4xx_HAL_Driver/Src/stm32g4xx_hal_pwr_ex.c ****   while ((HAL_IS_BIT_SET(PWR->SR2, PWR_SR2_REGLPF)) && (wait_loop_index != 0U))
 1827              		.loc 1 859 53 discriminator 1 view .LVU427
 1828 0034 002B     		cmp	r3, #0
 1829 0036 F7D1     		bne	.L158
 1830              	.L157:
 862:Drivers/STM32G4xx_HAL_Driver/Src/stm32g4xx_hal_pwr_ex.c ****   }
 863:Drivers/STM32G4xx_HAL_Driver/Src/stm32g4xx_hal_pwr_ex.c ****   if (HAL_IS_BIT_SET(PWR->SR2, PWR_SR2_REGLPF))
 1831              		.loc 1 863 3 is_stmt 1 view .LVU428
 1832              		.loc 1 863 7 is_stmt 0 view .LVU429
 1833 0038 044B     		ldr	r3, .L161
 1834              	.LVL121:
 1835              		.loc 1 863 7 view .LVU430
 1836 003a 5B69     		ldr	r3, [r3, #20]
ARM GAS  C:\Users\HRb\AppData\Local\Temp\ccj967tF.s 			page 50


 1837              		.loc 1 863 6 view .LVU431
 1838 003c 13F4007F 		tst	r3, #512
 1839 0040 01D1     		bne	.L160
 864:Drivers/STM32G4xx_HAL_Driver/Src/stm32g4xx_hal_pwr_ex.c ****   {
 865:Drivers/STM32G4xx_HAL_Driver/Src/stm32g4xx_hal_pwr_ex.c ****     return HAL_TIMEOUT;
 866:Drivers/STM32G4xx_HAL_Driver/Src/stm32g4xx_hal_pwr_ex.c ****   }
 867:Drivers/STM32G4xx_HAL_Driver/Src/stm32g4xx_hal_pwr_ex.c **** 
 868:Drivers/STM32G4xx_HAL_Driver/Src/stm32g4xx_hal_pwr_ex.c ****   return HAL_OK;
 1840              		.loc 1 868 10 view .LVU432
 1841 0042 0020     		movs	r0, #0
 1842 0044 7047     		bx	lr
 1843              	.L160:
 865:Drivers/STM32G4xx_HAL_Driver/Src/stm32g4xx_hal_pwr_ex.c ****   }
 1844              		.loc 1 865 12 view .LVU433
 1845 0046 0320     		movs	r0, #3
 869:Drivers/STM32G4xx_HAL_Driver/Src/stm32g4xx_hal_pwr_ex.c **** }
 1846              		.loc 1 869 1 view .LVU434
 1847 0048 7047     		bx	lr
 1848              	.L162:
 1849 004a 00BF     		.align	2
 1850              	.L161:
 1851 004c 00700040 		.word	1073770496
 1852 0050 00000000 		.word	SystemCoreClock
 1853              		.cfi_endproc
 1854              	.LFE353:
 1856              		.section	.text.HAL_PWREx_EnterSTOP0Mode,"ax",%progbits
 1857              		.align	1
 1858              		.global	HAL_PWREx_EnterSTOP0Mode
 1859              		.syntax unified
 1860              		.thumb
 1861              		.thumb_func
 1863              	HAL_PWREx_EnterSTOP0Mode:
 1864              	.LVL122:
 1865              	.LFB354:
 870:Drivers/STM32G4xx_HAL_Driver/Src/stm32g4xx_hal_pwr_ex.c **** 
 871:Drivers/STM32G4xx_HAL_Driver/Src/stm32g4xx_hal_pwr_ex.c **** 
 872:Drivers/STM32G4xx_HAL_Driver/Src/stm32g4xx_hal_pwr_ex.c **** /**
 873:Drivers/STM32G4xx_HAL_Driver/Src/stm32g4xx_hal_pwr_ex.c ****   * @brief Enter Stop 0 mode.
 874:Drivers/STM32G4xx_HAL_Driver/Src/stm32g4xx_hal_pwr_ex.c ****   * @note  In Stop 0 mode, main and low voltage regulators are ON.
 875:Drivers/STM32G4xx_HAL_Driver/Src/stm32g4xx_hal_pwr_ex.c ****   * @note  In Stop 0 mode, all I/O pins keep the same state as in Run mode.
 876:Drivers/STM32G4xx_HAL_Driver/Src/stm32g4xx_hal_pwr_ex.c ****   * @note  All clocks in the VCORE domain are stopped; the PLL, the HSI
 877:Drivers/STM32G4xx_HAL_Driver/Src/stm32g4xx_hal_pwr_ex.c ****   *        and the HSE oscillators are disabled. Some peripherals with the wakeup capability
 878:Drivers/STM32G4xx_HAL_Driver/Src/stm32g4xx_hal_pwr_ex.c ****   *        (I2Cx, USARTx and LPUART) can switch on the HSI to receive a frame, and switch off the H
 879:Drivers/STM32G4xx_HAL_Driver/Src/stm32g4xx_hal_pwr_ex.c ****   *        after receiving the frame if it is not a wakeup frame. In this case, the HSI clock is pr
 880:Drivers/STM32G4xx_HAL_Driver/Src/stm32g4xx_hal_pwr_ex.c ****   *        only to the peripheral requesting it.
 881:Drivers/STM32G4xx_HAL_Driver/Src/stm32g4xx_hal_pwr_ex.c ****   *        SRAM1, SRAM2 and register contents are preserved.
 882:Drivers/STM32G4xx_HAL_Driver/Src/stm32g4xx_hal_pwr_ex.c ****   *        The BOR is available.
 883:Drivers/STM32G4xx_HAL_Driver/Src/stm32g4xx_hal_pwr_ex.c ****   * @note  When exiting Stop 0 mode by issuing an interrupt or a wakeup event,
 884:Drivers/STM32G4xx_HAL_Driver/Src/stm32g4xx_hal_pwr_ex.c ****   *         the HSI RC oscillator is selected as system clock if STOPWUCK bit in RCC_CFGR register
 885:Drivers/STM32G4xx_HAL_Driver/Src/stm32g4xx_hal_pwr_ex.c ****   *         is set; the HSI oscillator is selected if STOPWUCK is cleared.
 886:Drivers/STM32G4xx_HAL_Driver/Src/stm32g4xx_hal_pwr_ex.c ****   * @note  By keeping the internal regulator ON during Stop 0 mode, the consumption
 887:Drivers/STM32G4xx_HAL_Driver/Src/stm32g4xx_hal_pwr_ex.c ****   *         is higher although the startup time is reduced.
 888:Drivers/STM32G4xx_HAL_Driver/Src/stm32g4xx_hal_pwr_ex.c ****   * @param STOPEntry  specifies if Stop mode in entered with WFI or WFE instruction.
 889:Drivers/STM32G4xx_HAL_Driver/Src/stm32g4xx_hal_pwr_ex.c ****   *          This parameter can be one of the following values:
 890:Drivers/STM32G4xx_HAL_Driver/Src/stm32g4xx_hal_pwr_ex.c ****   *            @arg @ref PWR_STOPENTRY_WFI  Enter Stop mode with WFI instruction
 891:Drivers/STM32G4xx_HAL_Driver/Src/stm32g4xx_hal_pwr_ex.c ****   *            @arg @ref PWR_STOPENTRY_WFE  Enter Stop mode with WFE instruction
 892:Drivers/STM32G4xx_HAL_Driver/Src/stm32g4xx_hal_pwr_ex.c ****   * @retval None
ARM GAS  C:\Users\HRb\AppData\Local\Temp\ccj967tF.s 			page 51


 893:Drivers/STM32G4xx_HAL_Driver/Src/stm32g4xx_hal_pwr_ex.c ****   */
 894:Drivers/STM32G4xx_HAL_Driver/Src/stm32g4xx_hal_pwr_ex.c **** void HAL_PWREx_EnterSTOP0Mode(uint8_t STOPEntry)
 895:Drivers/STM32G4xx_HAL_Driver/Src/stm32g4xx_hal_pwr_ex.c **** {
 1866              		.loc 1 895 1 is_stmt 1 view -0
 1867              		.cfi_startproc
 1868              		@ args = 0, pretend = 0, frame = 0
 1869              		@ frame_needed = 0, uses_anonymous_args = 0
 1870              		@ link register save eliminated.
 896:Drivers/STM32G4xx_HAL_Driver/Src/stm32g4xx_hal_pwr_ex.c ****   /* Check the parameters */
 897:Drivers/STM32G4xx_HAL_Driver/Src/stm32g4xx_hal_pwr_ex.c ****   assert_param(IS_PWR_STOP_ENTRY(STOPEntry));
 1871              		.loc 1 897 3 view .LVU436
 898:Drivers/STM32G4xx_HAL_Driver/Src/stm32g4xx_hal_pwr_ex.c **** 
 899:Drivers/STM32G4xx_HAL_Driver/Src/stm32g4xx_hal_pwr_ex.c ****   /* Stop 0 mode with Main Regulator */
 900:Drivers/STM32G4xx_HAL_Driver/Src/stm32g4xx_hal_pwr_ex.c ****   MODIFY_REG(PWR->CR1, PWR_CR1_LPMS, PWR_CR1_LPMS_STOP0);
 1872              		.loc 1 900 3 view .LVU437
 1873 0000 0B4A     		ldr	r2, .L167
 1874 0002 1368     		ldr	r3, [r2]
 1875 0004 23F00703 		bic	r3, r3, #7
 1876 0008 1360     		str	r3, [r2]
 901:Drivers/STM32G4xx_HAL_Driver/Src/stm32g4xx_hal_pwr_ex.c **** 
 902:Drivers/STM32G4xx_HAL_Driver/Src/stm32g4xx_hal_pwr_ex.c ****   /* Set SLEEPDEEP bit of Cortex System Control Register */
 903:Drivers/STM32G4xx_HAL_Driver/Src/stm32g4xx_hal_pwr_ex.c ****   SET_BIT(SCB->SCR, ((uint32_t)SCB_SCR_SLEEPDEEP_Msk));
 1877              		.loc 1 903 3 view .LVU438
 1878 000a 0A4A     		ldr	r2, .L167+4
 1879 000c 1369     		ldr	r3, [r2, #16]
 1880 000e 43F00403 		orr	r3, r3, #4
 1881 0012 1361     		str	r3, [r2, #16]
 904:Drivers/STM32G4xx_HAL_Driver/Src/stm32g4xx_hal_pwr_ex.c **** 
 905:Drivers/STM32G4xx_HAL_Driver/Src/stm32g4xx_hal_pwr_ex.c ****   /* Select Stop mode entry --------------------------------------------------*/
 906:Drivers/STM32G4xx_HAL_Driver/Src/stm32g4xx_hal_pwr_ex.c ****   if(STOPEntry == PWR_STOPENTRY_WFI)
 1882              		.loc 1 906 3 view .LVU439
 1883              		.loc 1 906 5 is_stmt 0 view .LVU440
 1884 0014 0128     		cmp	r0, #1
 1885 0016 08D0     		beq	.L166
 907:Drivers/STM32G4xx_HAL_Driver/Src/stm32g4xx_hal_pwr_ex.c ****   {
 908:Drivers/STM32G4xx_HAL_Driver/Src/stm32g4xx_hal_pwr_ex.c ****     /* Request Wait For Interrupt */
 909:Drivers/STM32G4xx_HAL_Driver/Src/stm32g4xx_hal_pwr_ex.c ****     __WFI();
 910:Drivers/STM32G4xx_HAL_Driver/Src/stm32g4xx_hal_pwr_ex.c ****   }
 911:Drivers/STM32G4xx_HAL_Driver/Src/stm32g4xx_hal_pwr_ex.c ****   else
 912:Drivers/STM32G4xx_HAL_Driver/Src/stm32g4xx_hal_pwr_ex.c ****   {
 913:Drivers/STM32G4xx_HAL_Driver/Src/stm32g4xx_hal_pwr_ex.c ****     /* Request Wait For Event */
 914:Drivers/STM32G4xx_HAL_Driver/Src/stm32g4xx_hal_pwr_ex.c ****     __SEV();
 1886              		.loc 1 914 5 is_stmt 1 view .LVU441
 1887              		.syntax unified
 1888              	@ 914 "Drivers/STM32G4xx_HAL_Driver/Src/stm32g4xx_hal_pwr_ex.c" 1
 1889 0018 40BF     		sev
 1890              	@ 0 "" 2
 915:Drivers/STM32G4xx_HAL_Driver/Src/stm32g4xx_hal_pwr_ex.c ****     __WFE();
 1891              		.loc 1 915 5 view .LVU442
 1892              	@ 915 "Drivers/STM32G4xx_HAL_Driver/Src/stm32g4xx_hal_pwr_ex.c" 1
 1893 001a 20BF     		wfe
 1894              	@ 0 "" 2
 916:Drivers/STM32G4xx_HAL_Driver/Src/stm32g4xx_hal_pwr_ex.c ****     __WFE();
 1895              		.loc 1 916 5 view .LVU443
 1896              	@ 916 "Drivers/STM32G4xx_HAL_Driver/Src/stm32g4xx_hal_pwr_ex.c" 1
 1897 001c 20BF     		wfe
 1898              	@ 0 "" 2
ARM GAS  C:\Users\HRb\AppData\Local\Temp\ccj967tF.s 			page 52


 1899              		.thumb
 1900              		.syntax unified
 1901              	.L165:
 917:Drivers/STM32G4xx_HAL_Driver/Src/stm32g4xx_hal_pwr_ex.c ****   }
 918:Drivers/STM32G4xx_HAL_Driver/Src/stm32g4xx_hal_pwr_ex.c **** 
 919:Drivers/STM32G4xx_HAL_Driver/Src/stm32g4xx_hal_pwr_ex.c ****   /* Reset SLEEPDEEP bit of Cortex System Control Register */
 920:Drivers/STM32G4xx_HAL_Driver/Src/stm32g4xx_hal_pwr_ex.c ****   CLEAR_BIT(SCB->SCR, ((uint32_t)SCB_SCR_SLEEPDEEP_Msk));
 1902              		.loc 1 920 3 view .LVU444
 1903 001e 054A     		ldr	r2, .L167+4
 1904 0020 1369     		ldr	r3, [r2, #16]
 1905 0022 23F00403 		bic	r3, r3, #4
 1906 0026 1361     		str	r3, [r2, #16]
 921:Drivers/STM32G4xx_HAL_Driver/Src/stm32g4xx_hal_pwr_ex.c **** }
 1907              		.loc 1 921 1 is_stmt 0 view .LVU445
 1908 0028 7047     		bx	lr
 1909              	.L166:
 909:Drivers/STM32G4xx_HAL_Driver/Src/stm32g4xx_hal_pwr_ex.c ****   }
 1910              		.loc 1 909 5 is_stmt 1 view .LVU446
 1911              		.syntax unified
 1912              	@ 909 "Drivers/STM32G4xx_HAL_Driver/Src/stm32g4xx_hal_pwr_ex.c" 1
 1913 002a 30BF     		wfi
 1914              	@ 0 "" 2
 1915              		.thumb
 1916              		.syntax unified
 1917 002c F7E7     		b	.L165
 1918              	.L168:
 1919 002e 00BF     		.align	2
 1920              	.L167:
 1921 0030 00700040 		.word	1073770496
 1922 0034 00ED00E0 		.word	-536810240
 1923              		.cfi_endproc
 1924              	.LFE354:
 1926              		.section	.text.HAL_PWREx_EnterSTOP1Mode,"ax",%progbits
 1927              		.align	1
 1928              		.global	HAL_PWREx_EnterSTOP1Mode
 1929              		.syntax unified
 1930              		.thumb
 1931              		.thumb_func
 1933              	HAL_PWREx_EnterSTOP1Mode:
 1934              	.LVL123:
 1935              	.LFB355:
 922:Drivers/STM32G4xx_HAL_Driver/Src/stm32g4xx_hal_pwr_ex.c **** 
 923:Drivers/STM32G4xx_HAL_Driver/Src/stm32g4xx_hal_pwr_ex.c **** 
 924:Drivers/STM32G4xx_HAL_Driver/Src/stm32g4xx_hal_pwr_ex.c **** /**
 925:Drivers/STM32G4xx_HAL_Driver/Src/stm32g4xx_hal_pwr_ex.c ****   * @brief Enter Stop 1 mode.
 926:Drivers/STM32G4xx_HAL_Driver/Src/stm32g4xx_hal_pwr_ex.c ****   * @note  In Stop 1 mode, only low power voltage regulator is ON.
 927:Drivers/STM32G4xx_HAL_Driver/Src/stm32g4xx_hal_pwr_ex.c ****   * @note  In Stop 1 mode, all I/O pins keep the same state as in Run mode.
 928:Drivers/STM32G4xx_HAL_Driver/Src/stm32g4xx_hal_pwr_ex.c ****   * @note  All clocks in the VCORE domain are stopped; the PLL, the HSI
 929:Drivers/STM32G4xx_HAL_Driver/Src/stm32g4xx_hal_pwr_ex.c ****   *        and the HSE oscillators are disabled. Some peripherals with the wakeup capability
 930:Drivers/STM32G4xx_HAL_Driver/Src/stm32g4xx_hal_pwr_ex.c ****   *        (I2Cx, USARTx and LPUART) can switch on the HSI to receive a frame, and switch off the H
 931:Drivers/STM32G4xx_HAL_Driver/Src/stm32g4xx_hal_pwr_ex.c ****   *        after receiving the frame if it is not a wakeup frame. In this case, the HSI clock is pr
 932:Drivers/STM32G4xx_HAL_Driver/Src/stm32g4xx_hal_pwr_ex.c ****   *        only to the peripheral requesting it.
 933:Drivers/STM32G4xx_HAL_Driver/Src/stm32g4xx_hal_pwr_ex.c ****   *        SRAM1, SRAM2 and register contents are preserved.
 934:Drivers/STM32G4xx_HAL_Driver/Src/stm32g4xx_hal_pwr_ex.c ****   *        The BOR is available.
 935:Drivers/STM32G4xx_HAL_Driver/Src/stm32g4xx_hal_pwr_ex.c ****   * @note  When exiting Stop 1 mode by issuing an interrupt or a wakeup event,
 936:Drivers/STM32G4xx_HAL_Driver/Src/stm32g4xx_hal_pwr_ex.c ****   *         the HSI RC oscillator is selected as system clock if STOPWUCK bit in RCC_CFGR register
 937:Drivers/STM32G4xx_HAL_Driver/Src/stm32g4xx_hal_pwr_ex.c ****   *         is set.
ARM GAS  C:\Users\HRb\AppData\Local\Temp\ccj967tF.s 			page 53


 938:Drivers/STM32G4xx_HAL_Driver/Src/stm32g4xx_hal_pwr_ex.c ****   * @note  Due to low power mode, an additional startup delay is incurred when waking up from Stop 
 939:Drivers/STM32G4xx_HAL_Driver/Src/stm32g4xx_hal_pwr_ex.c ****   * @param STOPEntry  specifies if Stop mode in entered with WFI or WFE instruction.
 940:Drivers/STM32G4xx_HAL_Driver/Src/stm32g4xx_hal_pwr_ex.c ****   *          This parameter can be one of the following values:
 941:Drivers/STM32G4xx_HAL_Driver/Src/stm32g4xx_hal_pwr_ex.c ****   *            @arg @ref PWR_STOPENTRY_WFI  Enter Stop mode with WFI instruction
 942:Drivers/STM32G4xx_HAL_Driver/Src/stm32g4xx_hal_pwr_ex.c ****   *            @arg @ref PWR_STOPENTRY_WFE  Enter Stop mode with WFE instruction
 943:Drivers/STM32G4xx_HAL_Driver/Src/stm32g4xx_hal_pwr_ex.c ****   * @retval None
 944:Drivers/STM32G4xx_HAL_Driver/Src/stm32g4xx_hal_pwr_ex.c ****   */
 945:Drivers/STM32G4xx_HAL_Driver/Src/stm32g4xx_hal_pwr_ex.c **** void HAL_PWREx_EnterSTOP1Mode(uint8_t STOPEntry)
 946:Drivers/STM32G4xx_HAL_Driver/Src/stm32g4xx_hal_pwr_ex.c **** {
 1936              		.loc 1 946 1 view -0
 1937              		.cfi_startproc
 1938              		@ args = 0, pretend = 0, frame = 0
 1939              		@ frame_needed = 0, uses_anonymous_args = 0
 1940              		@ link register save eliminated.
 947:Drivers/STM32G4xx_HAL_Driver/Src/stm32g4xx_hal_pwr_ex.c ****   /* Check the parameters */
 948:Drivers/STM32G4xx_HAL_Driver/Src/stm32g4xx_hal_pwr_ex.c ****   assert_param(IS_PWR_STOP_ENTRY(STOPEntry));
 1941              		.loc 1 948 3 view .LVU448
 949:Drivers/STM32G4xx_HAL_Driver/Src/stm32g4xx_hal_pwr_ex.c **** 
 950:Drivers/STM32G4xx_HAL_Driver/Src/stm32g4xx_hal_pwr_ex.c ****   /* Stop 1 mode with Low-Power Regulator */
 951:Drivers/STM32G4xx_HAL_Driver/Src/stm32g4xx_hal_pwr_ex.c ****   MODIFY_REG(PWR->CR1, PWR_CR1_LPMS, PWR_CR1_LPMS_STOP1);
 1942              		.loc 1 951 3 view .LVU449
 1943 0000 0C4A     		ldr	r2, .L173
 1944 0002 1368     		ldr	r3, [r2]
 1945 0004 23F00703 		bic	r3, r3, #7
 1946 0008 43F00103 		orr	r3, r3, #1
 1947 000c 1360     		str	r3, [r2]
 952:Drivers/STM32G4xx_HAL_Driver/Src/stm32g4xx_hal_pwr_ex.c **** 
 953:Drivers/STM32G4xx_HAL_Driver/Src/stm32g4xx_hal_pwr_ex.c ****   /* Set SLEEPDEEP bit of Cortex System Control Register */
 954:Drivers/STM32G4xx_HAL_Driver/Src/stm32g4xx_hal_pwr_ex.c ****   SET_BIT(SCB->SCR, ((uint32_t)SCB_SCR_SLEEPDEEP_Msk));
 1948              		.loc 1 954 3 view .LVU450
 1949 000e 0A4A     		ldr	r2, .L173+4
 1950 0010 1369     		ldr	r3, [r2, #16]
 1951 0012 43F00403 		orr	r3, r3, #4
 1952 0016 1361     		str	r3, [r2, #16]
 955:Drivers/STM32G4xx_HAL_Driver/Src/stm32g4xx_hal_pwr_ex.c **** 
 956:Drivers/STM32G4xx_HAL_Driver/Src/stm32g4xx_hal_pwr_ex.c ****   /* Select Stop mode entry --------------------------------------------------*/
 957:Drivers/STM32G4xx_HAL_Driver/Src/stm32g4xx_hal_pwr_ex.c ****   if(STOPEntry == PWR_STOPENTRY_WFI)
 1953              		.loc 1 957 3 view .LVU451
 1954              		.loc 1 957 5 is_stmt 0 view .LVU452
 1955 0018 0128     		cmp	r0, #1
 1956 001a 08D0     		beq	.L172
 958:Drivers/STM32G4xx_HAL_Driver/Src/stm32g4xx_hal_pwr_ex.c ****   {
 959:Drivers/STM32G4xx_HAL_Driver/Src/stm32g4xx_hal_pwr_ex.c ****     /* Request Wait For Interrupt */
 960:Drivers/STM32G4xx_HAL_Driver/Src/stm32g4xx_hal_pwr_ex.c ****     __WFI();
 961:Drivers/STM32G4xx_HAL_Driver/Src/stm32g4xx_hal_pwr_ex.c ****   }
 962:Drivers/STM32G4xx_HAL_Driver/Src/stm32g4xx_hal_pwr_ex.c ****   else
 963:Drivers/STM32G4xx_HAL_Driver/Src/stm32g4xx_hal_pwr_ex.c ****   {
 964:Drivers/STM32G4xx_HAL_Driver/Src/stm32g4xx_hal_pwr_ex.c ****     /* Request Wait For Event */
 965:Drivers/STM32G4xx_HAL_Driver/Src/stm32g4xx_hal_pwr_ex.c ****     __SEV();
 1957              		.loc 1 965 5 is_stmt 1 view .LVU453
 1958              		.syntax unified
 1959              	@ 965 "Drivers/STM32G4xx_HAL_Driver/Src/stm32g4xx_hal_pwr_ex.c" 1
 1960 001c 40BF     		sev
 1961              	@ 0 "" 2
 966:Drivers/STM32G4xx_HAL_Driver/Src/stm32g4xx_hal_pwr_ex.c ****     __WFE();
 1962              		.loc 1 966 5 view .LVU454
 1963              	@ 966 "Drivers/STM32G4xx_HAL_Driver/Src/stm32g4xx_hal_pwr_ex.c" 1
ARM GAS  C:\Users\HRb\AppData\Local\Temp\ccj967tF.s 			page 54


 1964 001e 20BF     		wfe
 1965              	@ 0 "" 2
 967:Drivers/STM32G4xx_HAL_Driver/Src/stm32g4xx_hal_pwr_ex.c ****     __WFE();
 1966              		.loc 1 967 5 view .LVU455
 1967              	@ 967 "Drivers/STM32G4xx_HAL_Driver/Src/stm32g4xx_hal_pwr_ex.c" 1
 1968 0020 20BF     		wfe
 1969              	@ 0 "" 2
 1970              		.thumb
 1971              		.syntax unified
 1972              	.L171:
 968:Drivers/STM32G4xx_HAL_Driver/Src/stm32g4xx_hal_pwr_ex.c ****   }
 969:Drivers/STM32G4xx_HAL_Driver/Src/stm32g4xx_hal_pwr_ex.c **** 
 970:Drivers/STM32G4xx_HAL_Driver/Src/stm32g4xx_hal_pwr_ex.c ****   /* Reset SLEEPDEEP bit of Cortex System Control Register */
 971:Drivers/STM32G4xx_HAL_Driver/Src/stm32g4xx_hal_pwr_ex.c ****   CLEAR_BIT(SCB->SCR, ((uint32_t)SCB_SCR_SLEEPDEEP_Msk));
 1973              		.loc 1 971 3 view .LVU456
 1974 0022 054A     		ldr	r2, .L173+4
 1975 0024 1369     		ldr	r3, [r2, #16]
 1976 0026 23F00403 		bic	r3, r3, #4
 1977 002a 1361     		str	r3, [r2, #16]
 972:Drivers/STM32G4xx_HAL_Driver/Src/stm32g4xx_hal_pwr_ex.c **** }
 1978              		.loc 1 972 1 is_stmt 0 view .LVU457
 1979 002c 7047     		bx	lr
 1980              	.L172:
 960:Drivers/STM32G4xx_HAL_Driver/Src/stm32g4xx_hal_pwr_ex.c ****   }
 1981              		.loc 1 960 5 is_stmt 1 view .LVU458
 1982              		.syntax unified
 1983              	@ 960 "Drivers/STM32G4xx_HAL_Driver/Src/stm32g4xx_hal_pwr_ex.c" 1
 1984 002e 30BF     		wfi
 1985              	@ 0 "" 2
 1986              		.thumb
 1987              		.syntax unified
 1988 0030 F7E7     		b	.L171
 1989              	.L174:
 1990 0032 00BF     		.align	2
 1991              	.L173:
 1992 0034 00700040 		.word	1073770496
 1993 0038 00ED00E0 		.word	-536810240
 1994              		.cfi_endproc
 1995              	.LFE355:
 1997              		.section	.text.HAL_PWREx_EnterSHUTDOWNMode,"ax",%progbits
 1998              		.align	1
 1999              		.global	HAL_PWREx_EnterSHUTDOWNMode
 2000              		.syntax unified
 2001              		.thumb
 2002              		.thumb_func
 2004              	HAL_PWREx_EnterSHUTDOWNMode:
 2005              	.LFB356:
 973:Drivers/STM32G4xx_HAL_Driver/Src/stm32g4xx_hal_pwr_ex.c **** 
 974:Drivers/STM32G4xx_HAL_Driver/Src/stm32g4xx_hal_pwr_ex.c **** 
 975:Drivers/STM32G4xx_HAL_Driver/Src/stm32g4xx_hal_pwr_ex.c **** 
 976:Drivers/STM32G4xx_HAL_Driver/Src/stm32g4xx_hal_pwr_ex.c **** 
 977:Drivers/STM32G4xx_HAL_Driver/Src/stm32g4xx_hal_pwr_ex.c **** /**
 978:Drivers/STM32G4xx_HAL_Driver/Src/stm32g4xx_hal_pwr_ex.c ****   * @brief Enter Shutdown mode.
 979:Drivers/STM32G4xx_HAL_Driver/Src/stm32g4xx_hal_pwr_ex.c ****   * @note  In Shutdown mode, the PLL, the HSI, the LSI and the HSE oscillators are switched
 980:Drivers/STM32G4xx_HAL_Driver/Src/stm32g4xx_hal_pwr_ex.c ****   *        off. The voltage regulator is disabled and Vcore domain is powered off.
 981:Drivers/STM32G4xx_HAL_Driver/Src/stm32g4xx_hal_pwr_ex.c ****   *        SRAM1, SRAM2 and registers contents are lost except for registers in the Backup domain.
 982:Drivers/STM32G4xx_HAL_Driver/Src/stm32g4xx_hal_pwr_ex.c ****   *        The BOR is not available.
ARM GAS  C:\Users\HRb\AppData\Local\Temp\ccj967tF.s 			page 55


 983:Drivers/STM32G4xx_HAL_Driver/Src/stm32g4xx_hal_pwr_ex.c ****   * @note  The I/Os can be configured either with a pull-up or pull-down or can be kept in analog s
 984:Drivers/STM32G4xx_HAL_Driver/Src/stm32g4xx_hal_pwr_ex.c ****   * @retval None
 985:Drivers/STM32G4xx_HAL_Driver/Src/stm32g4xx_hal_pwr_ex.c ****   */
 986:Drivers/STM32G4xx_HAL_Driver/Src/stm32g4xx_hal_pwr_ex.c **** void HAL_PWREx_EnterSHUTDOWNMode(void)
 987:Drivers/STM32G4xx_HAL_Driver/Src/stm32g4xx_hal_pwr_ex.c **** {
 2006              		.loc 1 987 1 view -0
 2007              		.cfi_startproc
 2008              		@ args = 0, pretend = 0, frame = 0
 2009              		@ frame_needed = 0, uses_anonymous_args = 0
 2010              		@ link register save eliminated.
 988:Drivers/STM32G4xx_HAL_Driver/Src/stm32g4xx_hal_pwr_ex.c **** 
 989:Drivers/STM32G4xx_HAL_Driver/Src/stm32g4xx_hal_pwr_ex.c ****   /* Set Shutdown mode */
 990:Drivers/STM32G4xx_HAL_Driver/Src/stm32g4xx_hal_pwr_ex.c ****   MODIFY_REG(PWR->CR1, PWR_CR1_LPMS, PWR_CR1_LPMS_SHUTDOWN);
 2011              		.loc 1 990 3 view .LVU460
 2012 0000 064A     		ldr	r2, .L176
 2013 0002 1368     		ldr	r3, [r2]
 2014 0004 23F00703 		bic	r3, r3, #7
 2015 0008 43F00403 		orr	r3, r3, #4
 2016 000c 1360     		str	r3, [r2]
 991:Drivers/STM32G4xx_HAL_Driver/Src/stm32g4xx_hal_pwr_ex.c **** 
 992:Drivers/STM32G4xx_HAL_Driver/Src/stm32g4xx_hal_pwr_ex.c ****   /* Set SLEEPDEEP bit of Cortex System Control Register */
 993:Drivers/STM32G4xx_HAL_Driver/Src/stm32g4xx_hal_pwr_ex.c ****   SET_BIT(SCB->SCR, ((uint32_t)SCB_SCR_SLEEPDEEP_Msk));
 2017              		.loc 1 993 3 view .LVU461
 2018 000e 044A     		ldr	r2, .L176+4
 2019 0010 1369     		ldr	r3, [r2, #16]
 2020 0012 43F00403 		orr	r3, r3, #4
 2021 0016 1361     		str	r3, [r2, #16]
 994:Drivers/STM32G4xx_HAL_Driver/Src/stm32g4xx_hal_pwr_ex.c **** 
 995:Drivers/STM32G4xx_HAL_Driver/Src/stm32g4xx_hal_pwr_ex.c **** /* This option is used to ensure that store operations are completed */
 996:Drivers/STM32G4xx_HAL_Driver/Src/stm32g4xx_hal_pwr_ex.c **** #if defined ( __CC_ARM)
 997:Drivers/STM32G4xx_HAL_Driver/Src/stm32g4xx_hal_pwr_ex.c ****   __force_stores();
 998:Drivers/STM32G4xx_HAL_Driver/Src/stm32g4xx_hal_pwr_ex.c **** #endif
 999:Drivers/STM32G4xx_HAL_Driver/Src/stm32g4xx_hal_pwr_ex.c ****   /* Request Wait For Interrupt */
1000:Drivers/STM32G4xx_HAL_Driver/Src/stm32g4xx_hal_pwr_ex.c ****   __WFI();
 2022              		.loc 1 1000 3 view .LVU462
 2023              		.syntax unified
 2024              	@ 1000 "Drivers/STM32G4xx_HAL_Driver/Src/stm32g4xx_hal_pwr_ex.c" 1
 2025 0018 30BF     		wfi
 2026              	@ 0 "" 2
1001:Drivers/STM32G4xx_HAL_Driver/Src/stm32g4xx_hal_pwr_ex.c **** }
 2027              		.loc 1 1001 1 is_stmt 0 view .LVU463
 2028              		.thumb
 2029              		.syntax unified
 2030 001a 7047     		bx	lr
 2031              	.L177:
 2032              		.align	2
 2033              	.L176:
 2034 001c 00700040 		.word	1073770496
 2035 0020 00ED00E0 		.word	-536810240
 2036              		.cfi_endproc
 2037              	.LFE356:
 2039              		.section	.text.HAL_PWREx_PVM1Callback,"ax",%progbits
 2040              		.align	1
 2041              		.weak	HAL_PWREx_PVM1Callback
 2042              		.syntax unified
 2043              		.thumb
 2044              		.thumb_func
ARM GAS  C:\Users\HRb\AppData\Local\Temp\ccj967tF.s 			page 56


 2046              	HAL_PWREx_PVM1Callback:
 2047              	.LFB358:
1002:Drivers/STM32G4xx_HAL_Driver/Src/stm32g4xx_hal_pwr_ex.c **** 
1003:Drivers/STM32G4xx_HAL_Driver/Src/stm32g4xx_hal_pwr_ex.c **** 
1004:Drivers/STM32G4xx_HAL_Driver/Src/stm32g4xx_hal_pwr_ex.c **** 
1005:Drivers/STM32G4xx_HAL_Driver/Src/stm32g4xx_hal_pwr_ex.c **** 
1006:Drivers/STM32G4xx_HAL_Driver/Src/stm32g4xx_hal_pwr_ex.c **** /**
1007:Drivers/STM32G4xx_HAL_Driver/Src/stm32g4xx_hal_pwr_ex.c ****   * @brief This function handles the PWR PVD/PVMx interrupt request.
1008:Drivers/STM32G4xx_HAL_Driver/Src/stm32g4xx_hal_pwr_ex.c ****   * @note This API should be called under the PVD_PVM_IRQHandler().
1009:Drivers/STM32G4xx_HAL_Driver/Src/stm32g4xx_hal_pwr_ex.c ****   * @retval None
1010:Drivers/STM32G4xx_HAL_Driver/Src/stm32g4xx_hal_pwr_ex.c ****   */
1011:Drivers/STM32G4xx_HAL_Driver/Src/stm32g4xx_hal_pwr_ex.c **** void HAL_PWREx_PVD_PVM_IRQHandler(void)
1012:Drivers/STM32G4xx_HAL_Driver/Src/stm32g4xx_hal_pwr_ex.c **** {
1013:Drivers/STM32G4xx_HAL_Driver/Src/stm32g4xx_hal_pwr_ex.c ****   /* Check PWR exti flag */
1014:Drivers/STM32G4xx_HAL_Driver/Src/stm32g4xx_hal_pwr_ex.c ****   if(__HAL_PWR_PVD_EXTI_GET_FLAG() != 0U)
1015:Drivers/STM32G4xx_HAL_Driver/Src/stm32g4xx_hal_pwr_ex.c ****   {
1016:Drivers/STM32G4xx_HAL_Driver/Src/stm32g4xx_hal_pwr_ex.c ****     /* PWR PVD interrupt user callback */
1017:Drivers/STM32G4xx_HAL_Driver/Src/stm32g4xx_hal_pwr_ex.c ****     HAL_PWR_PVDCallback();
1018:Drivers/STM32G4xx_HAL_Driver/Src/stm32g4xx_hal_pwr_ex.c **** 
1019:Drivers/STM32G4xx_HAL_Driver/Src/stm32g4xx_hal_pwr_ex.c ****     /* Clear PVD exti pending bit */
1020:Drivers/STM32G4xx_HAL_Driver/Src/stm32g4xx_hal_pwr_ex.c ****     __HAL_PWR_PVD_EXTI_CLEAR_FLAG();
1021:Drivers/STM32G4xx_HAL_Driver/Src/stm32g4xx_hal_pwr_ex.c ****   }
1022:Drivers/STM32G4xx_HAL_Driver/Src/stm32g4xx_hal_pwr_ex.c ****   /* Next, successively check PVMx exti flags */
1023:Drivers/STM32G4xx_HAL_Driver/Src/stm32g4xx_hal_pwr_ex.c **** #if defined(PWR_CR2_PVME1)
1024:Drivers/STM32G4xx_HAL_Driver/Src/stm32g4xx_hal_pwr_ex.c ****   if(__HAL_PWR_PVM1_EXTI_GET_FLAG() != 0U)
1025:Drivers/STM32G4xx_HAL_Driver/Src/stm32g4xx_hal_pwr_ex.c ****   {
1026:Drivers/STM32G4xx_HAL_Driver/Src/stm32g4xx_hal_pwr_ex.c ****     /* PWR PVM1 interrupt user callback */
1027:Drivers/STM32G4xx_HAL_Driver/Src/stm32g4xx_hal_pwr_ex.c ****     HAL_PWREx_PVM1Callback();
1028:Drivers/STM32G4xx_HAL_Driver/Src/stm32g4xx_hal_pwr_ex.c **** 
1029:Drivers/STM32G4xx_HAL_Driver/Src/stm32g4xx_hal_pwr_ex.c ****     /* Clear PVM1 exti pending bit */
1030:Drivers/STM32G4xx_HAL_Driver/Src/stm32g4xx_hal_pwr_ex.c ****     __HAL_PWR_PVM1_EXTI_CLEAR_FLAG();
1031:Drivers/STM32G4xx_HAL_Driver/Src/stm32g4xx_hal_pwr_ex.c ****   }
1032:Drivers/STM32G4xx_HAL_Driver/Src/stm32g4xx_hal_pwr_ex.c **** #endif /* PWR_CR2_PVME1 */
1033:Drivers/STM32G4xx_HAL_Driver/Src/stm32g4xx_hal_pwr_ex.c **** #if defined(PWR_CR2_PVME2)
1034:Drivers/STM32G4xx_HAL_Driver/Src/stm32g4xx_hal_pwr_ex.c ****   if(__HAL_PWR_PVM2_EXTI_GET_FLAG() != 0U)
1035:Drivers/STM32G4xx_HAL_Driver/Src/stm32g4xx_hal_pwr_ex.c ****   {
1036:Drivers/STM32G4xx_HAL_Driver/Src/stm32g4xx_hal_pwr_ex.c ****     /* PWR PVM2 interrupt user callback */
1037:Drivers/STM32G4xx_HAL_Driver/Src/stm32g4xx_hal_pwr_ex.c ****     HAL_PWREx_PVM2Callback();
1038:Drivers/STM32G4xx_HAL_Driver/Src/stm32g4xx_hal_pwr_ex.c **** 
1039:Drivers/STM32G4xx_HAL_Driver/Src/stm32g4xx_hal_pwr_ex.c ****     /* Clear PVM2 exti pending bit */
1040:Drivers/STM32G4xx_HAL_Driver/Src/stm32g4xx_hal_pwr_ex.c ****     __HAL_PWR_PVM2_EXTI_CLEAR_FLAG();
1041:Drivers/STM32G4xx_HAL_Driver/Src/stm32g4xx_hal_pwr_ex.c ****   }
1042:Drivers/STM32G4xx_HAL_Driver/Src/stm32g4xx_hal_pwr_ex.c **** #endif /* PWR_CR2_PVME2 */
1043:Drivers/STM32G4xx_HAL_Driver/Src/stm32g4xx_hal_pwr_ex.c ****   if(__HAL_PWR_PVM3_EXTI_GET_FLAG() != 0U)
1044:Drivers/STM32G4xx_HAL_Driver/Src/stm32g4xx_hal_pwr_ex.c ****   {
1045:Drivers/STM32G4xx_HAL_Driver/Src/stm32g4xx_hal_pwr_ex.c ****     /* PWR PVM3 interrupt user callback */
1046:Drivers/STM32G4xx_HAL_Driver/Src/stm32g4xx_hal_pwr_ex.c ****     HAL_PWREx_PVM3Callback();
1047:Drivers/STM32G4xx_HAL_Driver/Src/stm32g4xx_hal_pwr_ex.c **** 
1048:Drivers/STM32G4xx_HAL_Driver/Src/stm32g4xx_hal_pwr_ex.c ****     /* Clear PVM3 exti pending bit */
1049:Drivers/STM32G4xx_HAL_Driver/Src/stm32g4xx_hal_pwr_ex.c ****     __HAL_PWR_PVM3_EXTI_CLEAR_FLAG();
1050:Drivers/STM32G4xx_HAL_Driver/Src/stm32g4xx_hal_pwr_ex.c ****   }
1051:Drivers/STM32G4xx_HAL_Driver/Src/stm32g4xx_hal_pwr_ex.c ****   if(__HAL_PWR_PVM4_EXTI_GET_FLAG() != 0U)
1052:Drivers/STM32G4xx_HAL_Driver/Src/stm32g4xx_hal_pwr_ex.c ****   {
1053:Drivers/STM32G4xx_HAL_Driver/Src/stm32g4xx_hal_pwr_ex.c ****     /* PWR PVM4 interrupt user callback */
1054:Drivers/STM32G4xx_HAL_Driver/Src/stm32g4xx_hal_pwr_ex.c ****     HAL_PWREx_PVM4Callback();
1055:Drivers/STM32G4xx_HAL_Driver/Src/stm32g4xx_hal_pwr_ex.c **** 
1056:Drivers/STM32G4xx_HAL_Driver/Src/stm32g4xx_hal_pwr_ex.c ****     /* Clear PVM4 exti pending bit */
ARM GAS  C:\Users\HRb\AppData\Local\Temp\ccj967tF.s 			page 57


1057:Drivers/STM32G4xx_HAL_Driver/Src/stm32g4xx_hal_pwr_ex.c ****     __HAL_PWR_PVM4_EXTI_CLEAR_FLAG();
1058:Drivers/STM32G4xx_HAL_Driver/Src/stm32g4xx_hal_pwr_ex.c ****   }
1059:Drivers/STM32G4xx_HAL_Driver/Src/stm32g4xx_hal_pwr_ex.c **** }
1060:Drivers/STM32G4xx_HAL_Driver/Src/stm32g4xx_hal_pwr_ex.c **** 
1061:Drivers/STM32G4xx_HAL_Driver/Src/stm32g4xx_hal_pwr_ex.c **** 
1062:Drivers/STM32G4xx_HAL_Driver/Src/stm32g4xx_hal_pwr_ex.c **** #if defined(PWR_CR2_PVME1)
1063:Drivers/STM32G4xx_HAL_Driver/Src/stm32g4xx_hal_pwr_ex.c **** /**
1064:Drivers/STM32G4xx_HAL_Driver/Src/stm32g4xx_hal_pwr_ex.c ****   * @brief PWR PVM1 interrupt callback
1065:Drivers/STM32G4xx_HAL_Driver/Src/stm32g4xx_hal_pwr_ex.c ****   * @retval None
1066:Drivers/STM32G4xx_HAL_Driver/Src/stm32g4xx_hal_pwr_ex.c ****   */
1067:Drivers/STM32G4xx_HAL_Driver/Src/stm32g4xx_hal_pwr_ex.c **** __weak void HAL_PWREx_PVM1Callback(void)
1068:Drivers/STM32G4xx_HAL_Driver/Src/stm32g4xx_hal_pwr_ex.c **** {
 2048              		.loc 1 1068 1 is_stmt 1 view -0
 2049              		.cfi_startproc
 2050              		@ args = 0, pretend = 0, frame = 0
 2051              		@ frame_needed = 0, uses_anonymous_args = 0
 2052              		@ link register save eliminated.
1069:Drivers/STM32G4xx_HAL_Driver/Src/stm32g4xx_hal_pwr_ex.c ****   /* NOTE : This function should not be modified; when the callback is needed,
1070:Drivers/STM32G4xx_HAL_Driver/Src/stm32g4xx_hal_pwr_ex.c ****             HAL_PWREx_PVM1Callback() API can be implemented in the user file
1071:Drivers/STM32G4xx_HAL_Driver/Src/stm32g4xx_hal_pwr_ex.c ****    */
1072:Drivers/STM32G4xx_HAL_Driver/Src/stm32g4xx_hal_pwr_ex.c **** }
 2053              		.loc 1 1072 1 view .LVU465
 2054 0000 7047     		bx	lr
 2055              		.cfi_endproc
 2056              	.LFE358:
 2058              		.section	.text.HAL_PWREx_PVM2Callback,"ax",%progbits
 2059              		.align	1
 2060              		.weak	HAL_PWREx_PVM2Callback
 2061              		.syntax unified
 2062              		.thumb
 2063              		.thumb_func
 2065              	HAL_PWREx_PVM2Callback:
 2066              	.LFB359:
1073:Drivers/STM32G4xx_HAL_Driver/Src/stm32g4xx_hal_pwr_ex.c **** #endif /* PWR_CR2_PVME1 */
1074:Drivers/STM32G4xx_HAL_Driver/Src/stm32g4xx_hal_pwr_ex.c **** 
1075:Drivers/STM32G4xx_HAL_Driver/Src/stm32g4xx_hal_pwr_ex.c **** #if defined(PWR_CR2_PVME2)
1076:Drivers/STM32G4xx_HAL_Driver/Src/stm32g4xx_hal_pwr_ex.c **** /**
1077:Drivers/STM32G4xx_HAL_Driver/Src/stm32g4xx_hal_pwr_ex.c ****   * @brief PWR PVM2 interrupt callback
1078:Drivers/STM32G4xx_HAL_Driver/Src/stm32g4xx_hal_pwr_ex.c ****   * @retval None
1079:Drivers/STM32G4xx_HAL_Driver/Src/stm32g4xx_hal_pwr_ex.c ****   */
1080:Drivers/STM32G4xx_HAL_Driver/Src/stm32g4xx_hal_pwr_ex.c **** __weak void HAL_PWREx_PVM2Callback(void)
1081:Drivers/STM32G4xx_HAL_Driver/Src/stm32g4xx_hal_pwr_ex.c **** {
 2067              		.loc 1 1081 1 view -0
 2068              		.cfi_startproc
 2069              		@ args = 0, pretend = 0, frame = 0
 2070              		@ frame_needed = 0, uses_anonymous_args = 0
 2071              		@ link register save eliminated.
1082:Drivers/STM32G4xx_HAL_Driver/Src/stm32g4xx_hal_pwr_ex.c ****   /* NOTE : This function should not be modified; when the callback is needed,
1083:Drivers/STM32G4xx_HAL_Driver/Src/stm32g4xx_hal_pwr_ex.c ****             HAL_PWREx_PVM2Callback() API can be implemented in the user file
1084:Drivers/STM32G4xx_HAL_Driver/Src/stm32g4xx_hal_pwr_ex.c ****    */
1085:Drivers/STM32G4xx_HAL_Driver/Src/stm32g4xx_hal_pwr_ex.c **** }
 2072              		.loc 1 1085 1 view .LVU467
 2073 0000 7047     		bx	lr
 2074              		.cfi_endproc
 2075              	.LFE359:
 2077              		.section	.text.HAL_PWREx_PVM3Callback,"ax",%progbits
 2078              		.align	1
ARM GAS  C:\Users\HRb\AppData\Local\Temp\ccj967tF.s 			page 58


 2079              		.weak	HAL_PWREx_PVM3Callback
 2080              		.syntax unified
 2081              		.thumb
 2082              		.thumb_func
 2084              	HAL_PWREx_PVM3Callback:
 2085              	.LFB360:
1086:Drivers/STM32G4xx_HAL_Driver/Src/stm32g4xx_hal_pwr_ex.c **** #endif /* PWR_CR2_PVME2 */
1087:Drivers/STM32G4xx_HAL_Driver/Src/stm32g4xx_hal_pwr_ex.c **** 
1088:Drivers/STM32G4xx_HAL_Driver/Src/stm32g4xx_hal_pwr_ex.c **** /**
1089:Drivers/STM32G4xx_HAL_Driver/Src/stm32g4xx_hal_pwr_ex.c ****   * @brief PWR PVM3 interrupt callback
1090:Drivers/STM32G4xx_HAL_Driver/Src/stm32g4xx_hal_pwr_ex.c ****   * @retval None
1091:Drivers/STM32G4xx_HAL_Driver/Src/stm32g4xx_hal_pwr_ex.c ****   */
1092:Drivers/STM32G4xx_HAL_Driver/Src/stm32g4xx_hal_pwr_ex.c **** __weak void HAL_PWREx_PVM3Callback(void)
1093:Drivers/STM32G4xx_HAL_Driver/Src/stm32g4xx_hal_pwr_ex.c **** {
 2086              		.loc 1 1093 1 view -0
 2087              		.cfi_startproc
 2088              		@ args = 0, pretend = 0, frame = 0
 2089              		@ frame_needed = 0, uses_anonymous_args = 0
 2090              		@ link register save eliminated.
1094:Drivers/STM32G4xx_HAL_Driver/Src/stm32g4xx_hal_pwr_ex.c ****   /* NOTE : This function should not be modified; when the callback is needed,
1095:Drivers/STM32G4xx_HAL_Driver/Src/stm32g4xx_hal_pwr_ex.c ****             HAL_PWREx_PVM3Callback() API can be implemented in the user file
1096:Drivers/STM32G4xx_HAL_Driver/Src/stm32g4xx_hal_pwr_ex.c ****    */
1097:Drivers/STM32G4xx_HAL_Driver/Src/stm32g4xx_hal_pwr_ex.c **** }
 2091              		.loc 1 1097 1 view .LVU469
 2092 0000 7047     		bx	lr
 2093              		.cfi_endproc
 2094              	.LFE360:
 2096              		.section	.text.HAL_PWREx_PVM4Callback,"ax",%progbits
 2097              		.align	1
 2098              		.weak	HAL_PWREx_PVM4Callback
 2099              		.syntax unified
 2100              		.thumb
 2101              		.thumb_func
 2103              	HAL_PWREx_PVM4Callback:
 2104              	.LFB361:
1098:Drivers/STM32G4xx_HAL_Driver/Src/stm32g4xx_hal_pwr_ex.c **** 
1099:Drivers/STM32G4xx_HAL_Driver/Src/stm32g4xx_hal_pwr_ex.c **** /**
1100:Drivers/STM32G4xx_HAL_Driver/Src/stm32g4xx_hal_pwr_ex.c ****   * @brief PWR PVM4 interrupt callback
1101:Drivers/STM32G4xx_HAL_Driver/Src/stm32g4xx_hal_pwr_ex.c ****   * @retval None
1102:Drivers/STM32G4xx_HAL_Driver/Src/stm32g4xx_hal_pwr_ex.c ****   */
1103:Drivers/STM32G4xx_HAL_Driver/Src/stm32g4xx_hal_pwr_ex.c **** __weak void HAL_PWREx_PVM4Callback(void)
1104:Drivers/STM32G4xx_HAL_Driver/Src/stm32g4xx_hal_pwr_ex.c **** {
 2105              		.loc 1 1104 1 view -0
 2106              		.cfi_startproc
 2107              		@ args = 0, pretend = 0, frame = 0
 2108              		@ frame_needed = 0, uses_anonymous_args = 0
 2109              		@ link register save eliminated.
1105:Drivers/STM32G4xx_HAL_Driver/Src/stm32g4xx_hal_pwr_ex.c ****   /* NOTE : This function should not be modified; when the callback is needed,
1106:Drivers/STM32G4xx_HAL_Driver/Src/stm32g4xx_hal_pwr_ex.c ****             HAL_PWREx_PVM4Callback() API can be implemented in the user file
1107:Drivers/STM32G4xx_HAL_Driver/Src/stm32g4xx_hal_pwr_ex.c ****    */
1108:Drivers/STM32G4xx_HAL_Driver/Src/stm32g4xx_hal_pwr_ex.c **** }
 2110              		.loc 1 1108 1 view .LVU471
 2111 0000 7047     		bx	lr
 2112              		.cfi_endproc
 2113              	.LFE361:
 2115              		.section	.text.HAL_PWREx_PVD_PVM_IRQHandler,"ax",%progbits
 2116              		.align	1
ARM GAS  C:\Users\HRb\AppData\Local\Temp\ccj967tF.s 			page 59


 2117              		.global	HAL_PWREx_PVD_PVM_IRQHandler
 2118              		.syntax unified
 2119              		.thumb
 2120              		.thumb_func
 2122              	HAL_PWREx_PVD_PVM_IRQHandler:
 2123              	.LFB357:
1012:Drivers/STM32G4xx_HAL_Driver/Src/stm32g4xx_hal_pwr_ex.c ****   /* Check PWR exti flag */
 2124              		.loc 1 1012 1 view -0
 2125              		.cfi_startproc
 2126              		@ args = 0, pretend = 0, frame = 0
 2127              		@ frame_needed = 0, uses_anonymous_args = 0
 2128 0000 08B5     		push	{r3, lr}
 2129              	.LCFI0:
 2130              		.cfi_def_cfa_offset 8
 2131              		.cfi_offset 3, -8
 2132              		.cfi_offset 14, -4
1014:Drivers/STM32G4xx_HAL_Driver/Src/stm32g4xx_hal_pwr_ex.c ****   {
 2133              		.loc 1 1014 3 view .LVU473
1014:Drivers/STM32G4xx_HAL_Driver/Src/stm32g4xx_hal_pwr_ex.c ****   {
 2134              		.loc 1 1014 6 is_stmt 0 view .LVU474
 2135 0002 1C4B     		ldr	r3, .L194
 2136 0004 5B69     		ldr	r3, [r3, #20]
1014:Drivers/STM32G4xx_HAL_Driver/Src/stm32g4xx_hal_pwr_ex.c ****   {
 2137              		.loc 1 1014 5 view .LVU475
 2138 0006 13F4803F 		tst	r3, #65536
 2139 000a 14D1     		bne	.L189
 2140              	.L183:
1024:Drivers/STM32G4xx_HAL_Driver/Src/stm32g4xx_hal_pwr_ex.c ****   {
 2141              		.loc 1 1024 3 is_stmt 1 view .LVU476
1024:Drivers/STM32G4xx_HAL_Driver/Src/stm32g4xx_hal_pwr_ex.c ****   {
 2142              		.loc 1 1024 6 is_stmt 0 view .LVU477
 2143 000c 194B     		ldr	r3, .L194
 2144 000e 5B6B     		ldr	r3, [r3, #52]
1024:Drivers/STM32G4xx_HAL_Driver/Src/stm32g4xx_hal_pwr_ex.c ****   {
 2145              		.loc 1 1024 5 view .LVU478
 2146 0010 13F0080F 		tst	r3, #8
 2147 0014 16D1     		bne	.L190
 2148              	.L184:
1034:Drivers/STM32G4xx_HAL_Driver/Src/stm32g4xx_hal_pwr_ex.c ****   {
 2149              		.loc 1 1034 3 is_stmt 1 view .LVU479
1034:Drivers/STM32G4xx_HAL_Driver/Src/stm32g4xx_hal_pwr_ex.c ****   {
 2150              		.loc 1 1034 6 is_stmt 0 view .LVU480
 2151 0016 174B     		ldr	r3, .L194
 2152 0018 5B6B     		ldr	r3, [r3, #52]
1034:Drivers/STM32G4xx_HAL_Driver/Src/stm32g4xx_hal_pwr_ex.c ****   {
 2153              		.loc 1 1034 5 view .LVU481
 2154 001a 13F0100F 		tst	r3, #16
 2155 001e 17D1     		bne	.L191
 2156              	.L185:
1043:Drivers/STM32G4xx_HAL_Driver/Src/stm32g4xx_hal_pwr_ex.c ****   {
 2157              		.loc 1 1043 3 is_stmt 1 view .LVU482
1043:Drivers/STM32G4xx_HAL_Driver/Src/stm32g4xx_hal_pwr_ex.c ****   {
 2158              		.loc 1 1043 6 is_stmt 0 view .LVU483
 2159 0020 144B     		ldr	r3, .L194
 2160 0022 5B6B     		ldr	r3, [r3, #52]
1043:Drivers/STM32G4xx_HAL_Driver/Src/stm32g4xx_hal_pwr_ex.c ****   {
 2161              		.loc 1 1043 5 view .LVU484
ARM GAS  C:\Users\HRb\AppData\Local\Temp\ccj967tF.s 			page 60


 2162 0024 13F0200F 		tst	r3, #32
 2163 0028 18D1     		bne	.L192
 2164              	.L186:
1051:Drivers/STM32G4xx_HAL_Driver/Src/stm32g4xx_hal_pwr_ex.c ****   {
 2165              		.loc 1 1051 3 is_stmt 1 view .LVU485
1051:Drivers/STM32G4xx_HAL_Driver/Src/stm32g4xx_hal_pwr_ex.c ****   {
 2166              		.loc 1 1051 6 is_stmt 0 view .LVU486
 2167 002a 124B     		ldr	r3, .L194
 2168 002c 5B6B     		ldr	r3, [r3, #52]
1051:Drivers/STM32G4xx_HAL_Driver/Src/stm32g4xx_hal_pwr_ex.c ****   {
 2169              		.loc 1 1051 5 view .LVU487
 2170 002e 13F0400F 		tst	r3, #64
 2171 0032 19D1     		bne	.L193
 2172              	.L182:
1059:Drivers/STM32G4xx_HAL_Driver/Src/stm32g4xx_hal_pwr_ex.c **** 
 2173              		.loc 1 1059 1 view .LVU488
 2174 0034 08BD     		pop	{r3, pc}
 2175              	.L189:
1017:Drivers/STM32G4xx_HAL_Driver/Src/stm32g4xx_hal_pwr_ex.c **** 
 2176              		.loc 1 1017 5 is_stmt 1 view .LVU489
 2177 0036 FFF7FEFF 		bl	HAL_PWR_PVDCallback
 2178              	.LVL124:
1020:Drivers/STM32G4xx_HAL_Driver/Src/stm32g4xx_hal_pwr_ex.c ****   }
 2179              		.loc 1 1020 5 view .LVU490
 2180 003a 0E4B     		ldr	r3, .L194
 2181 003c 4FF48032 		mov	r2, #65536
 2182 0040 5A61     		str	r2, [r3, #20]
 2183 0042 E3E7     		b	.L183
 2184              	.L190:
1027:Drivers/STM32G4xx_HAL_Driver/Src/stm32g4xx_hal_pwr_ex.c **** 
 2185              		.loc 1 1027 5 view .LVU491
 2186 0044 FFF7FEFF 		bl	HAL_PWREx_PVM1Callback
 2187              	.LVL125:
1030:Drivers/STM32G4xx_HAL_Driver/Src/stm32g4xx_hal_pwr_ex.c ****   }
 2188              		.loc 1 1030 5 view .LVU492
 2189 0048 0A4B     		ldr	r3, .L194
 2190 004a 0822     		movs	r2, #8
 2191 004c 5A63     		str	r2, [r3, #52]
 2192 004e E2E7     		b	.L184
 2193              	.L191:
1037:Drivers/STM32G4xx_HAL_Driver/Src/stm32g4xx_hal_pwr_ex.c **** 
 2194              		.loc 1 1037 5 view .LVU493
 2195 0050 FFF7FEFF 		bl	HAL_PWREx_PVM2Callback
 2196              	.LVL126:
1040:Drivers/STM32G4xx_HAL_Driver/Src/stm32g4xx_hal_pwr_ex.c ****   }
 2197              		.loc 1 1040 5 view .LVU494
 2198 0054 074B     		ldr	r3, .L194
 2199 0056 1022     		movs	r2, #16
 2200 0058 5A63     		str	r2, [r3, #52]
 2201 005a E1E7     		b	.L185
 2202              	.L192:
1046:Drivers/STM32G4xx_HAL_Driver/Src/stm32g4xx_hal_pwr_ex.c **** 
 2203              		.loc 1 1046 5 view .LVU495
 2204 005c FFF7FEFF 		bl	HAL_PWREx_PVM3Callback
 2205              	.LVL127:
1049:Drivers/STM32G4xx_HAL_Driver/Src/stm32g4xx_hal_pwr_ex.c ****   }
 2206              		.loc 1 1049 5 view .LVU496
ARM GAS  C:\Users\HRb\AppData\Local\Temp\ccj967tF.s 			page 61


 2207 0060 044B     		ldr	r3, .L194
 2208 0062 2022     		movs	r2, #32
 2209 0064 5A63     		str	r2, [r3, #52]
 2210 0066 E0E7     		b	.L186
 2211              	.L193:
1054:Drivers/STM32G4xx_HAL_Driver/Src/stm32g4xx_hal_pwr_ex.c **** 
 2212              		.loc 1 1054 5 view .LVU497
 2213 0068 FFF7FEFF 		bl	HAL_PWREx_PVM4Callback
 2214              	.LVL128:
1057:Drivers/STM32G4xx_HAL_Driver/Src/stm32g4xx_hal_pwr_ex.c ****   }
 2215              		.loc 1 1057 5 view .LVU498
 2216 006c 014B     		ldr	r3, .L194
 2217 006e 4022     		movs	r2, #64
 2218 0070 5A63     		str	r2, [r3, #52]
1059:Drivers/STM32G4xx_HAL_Driver/Src/stm32g4xx_hal_pwr_ex.c **** 
 2219              		.loc 1 1059 1 is_stmt 0 view .LVU499
 2220 0072 DFE7     		b	.L182
 2221              	.L195:
 2222              		.align	2
 2223              	.L194:
 2224 0074 00040140 		.word	1073808384
 2225              		.cfi_endproc
 2226              	.LFE357:
 2228              		.section	.text.HAL_PWREx_EnableUCPDStandbyMode,"ax",%progbits
 2229              		.align	1
 2230              		.global	HAL_PWREx_EnableUCPDStandbyMode
 2231              		.syntax unified
 2232              		.thumb
 2233              		.thumb_func
 2235              	HAL_PWREx_EnableUCPDStandbyMode:
 2236              	.LFB362:
1109:Drivers/STM32G4xx_HAL_Driver/Src/stm32g4xx_hal_pwr_ex.c **** 
1110:Drivers/STM32G4xx_HAL_Driver/Src/stm32g4xx_hal_pwr_ex.c **** #if defined(PWR_CR3_UCPD_STDBY)
1111:Drivers/STM32G4xx_HAL_Driver/Src/stm32g4xx_hal_pwr_ex.c **** /**
1112:Drivers/STM32G4xx_HAL_Driver/Src/stm32g4xx_hal_pwr_ex.c ****   * @brief Enable UCPD configuration memorization in Standby.
1113:Drivers/STM32G4xx_HAL_Driver/Src/stm32g4xx_hal_pwr_ex.c ****   * @retval None
1114:Drivers/STM32G4xx_HAL_Driver/Src/stm32g4xx_hal_pwr_ex.c ****   */
1115:Drivers/STM32G4xx_HAL_Driver/Src/stm32g4xx_hal_pwr_ex.c **** void HAL_PWREx_EnableUCPDStandbyMode(void)
1116:Drivers/STM32G4xx_HAL_Driver/Src/stm32g4xx_hal_pwr_ex.c **** {
 2237              		.loc 1 1116 1 is_stmt 1 view -0
 2238              		.cfi_startproc
 2239              		@ args = 0, pretend = 0, frame = 0
 2240              		@ frame_needed = 0, uses_anonymous_args = 0
 2241              		@ link register save eliminated.
1117:Drivers/STM32G4xx_HAL_Driver/Src/stm32g4xx_hal_pwr_ex.c ****   /* Memorize UCPD configuration when entering standby mode */
1118:Drivers/STM32G4xx_HAL_Driver/Src/stm32g4xx_hal_pwr_ex.c ****   SET_BIT(PWR->CR3, PWR_CR3_UCPD_STDBY);
 2242              		.loc 1 1118 3 view .LVU501
 2243 0000 024A     		ldr	r2, .L197
 2244 0002 9368     		ldr	r3, [r2, #8]
 2245 0004 43F40053 		orr	r3, r3, #8192
 2246 0008 9360     		str	r3, [r2, #8]
1119:Drivers/STM32G4xx_HAL_Driver/Src/stm32g4xx_hal_pwr_ex.c **** }
 2247              		.loc 1 1119 1 is_stmt 0 view .LVU502
 2248 000a 7047     		bx	lr
 2249              	.L198:
 2250              		.align	2
 2251              	.L197:
ARM GAS  C:\Users\HRb\AppData\Local\Temp\ccj967tF.s 			page 62


 2252 000c 00700040 		.word	1073770496
 2253              		.cfi_endproc
 2254              	.LFE362:
 2256              		.section	.text.HAL_PWREx_DisableUCPDStandbyMode,"ax",%progbits
 2257              		.align	1
 2258              		.global	HAL_PWREx_DisableUCPDStandbyMode
 2259              		.syntax unified
 2260              		.thumb
 2261              		.thumb_func
 2263              	HAL_PWREx_DisableUCPDStandbyMode:
 2264              	.LFB363:
1120:Drivers/STM32G4xx_HAL_Driver/Src/stm32g4xx_hal_pwr_ex.c **** 
1121:Drivers/STM32G4xx_HAL_Driver/Src/stm32g4xx_hal_pwr_ex.c **** /**
1122:Drivers/STM32G4xx_HAL_Driver/Src/stm32g4xx_hal_pwr_ex.c ****   * @brief Disable UCPD configuration memorization in Standby.
1123:Drivers/STM32G4xx_HAL_Driver/Src/stm32g4xx_hal_pwr_ex.c ****   * @note  This function must be called on exiting the Standby mode and before any UCPD
1124:Drivers/STM32G4xx_HAL_Driver/Src/stm32g4xx_hal_pwr_ex.c ****   *        configuration update.
1125:Drivers/STM32G4xx_HAL_Driver/Src/stm32g4xx_hal_pwr_ex.c ****   * @retval None
1126:Drivers/STM32G4xx_HAL_Driver/Src/stm32g4xx_hal_pwr_ex.c ****   */
1127:Drivers/STM32G4xx_HAL_Driver/Src/stm32g4xx_hal_pwr_ex.c **** void HAL_PWREx_DisableUCPDStandbyMode(void)
1128:Drivers/STM32G4xx_HAL_Driver/Src/stm32g4xx_hal_pwr_ex.c **** {
 2265              		.loc 1 1128 1 is_stmt 1 view -0
 2266              		.cfi_startproc
 2267              		@ args = 0, pretend = 0, frame = 0
 2268              		@ frame_needed = 0, uses_anonymous_args = 0
 2269              		@ link register save eliminated.
1129:Drivers/STM32G4xx_HAL_Driver/Src/stm32g4xx_hal_pwr_ex.c ****   /* Write 0 immediately after Standby exit when using UCPD,
1130:Drivers/STM32G4xx_HAL_Driver/Src/stm32g4xx_hal_pwr_ex.c ****      and before writing any UCPD registers */
1131:Drivers/STM32G4xx_HAL_Driver/Src/stm32g4xx_hal_pwr_ex.c ****   CLEAR_BIT(PWR->CR3, PWR_CR3_UCPD_STDBY);
 2270              		.loc 1 1131 3 view .LVU504
 2271 0000 024A     		ldr	r2, .L200
 2272 0002 9368     		ldr	r3, [r2, #8]
 2273 0004 23F40053 		bic	r3, r3, #8192
 2274 0008 9360     		str	r3, [r2, #8]
1132:Drivers/STM32G4xx_HAL_Driver/Src/stm32g4xx_hal_pwr_ex.c **** }
 2275              		.loc 1 1132 1 is_stmt 0 view .LVU505
 2276 000a 7047     		bx	lr
 2277              	.L201:
 2278              		.align	2
 2279              	.L200:
 2280 000c 00700040 		.word	1073770496
 2281              		.cfi_endproc
 2282              	.LFE363:
 2284              		.section	.text.HAL_PWREx_EnableUCPDDeadBattery,"ax",%progbits
 2285              		.align	1
 2286              		.global	HAL_PWREx_EnableUCPDDeadBattery
 2287              		.syntax unified
 2288              		.thumb
 2289              		.thumb_func
 2291              	HAL_PWREx_EnableUCPDDeadBattery:
 2292              	.LFB364:
1133:Drivers/STM32G4xx_HAL_Driver/Src/stm32g4xx_hal_pwr_ex.c **** #endif /* PWR_CR3_UCPD_STDBY */
1134:Drivers/STM32G4xx_HAL_Driver/Src/stm32g4xx_hal_pwr_ex.c **** 
1135:Drivers/STM32G4xx_HAL_Driver/Src/stm32g4xx_hal_pwr_ex.c **** #if defined(PWR_CR3_UCPD_DBDIS)
1136:Drivers/STM32G4xx_HAL_Driver/Src/stm32g4xx_hal_pwr_ex.c **** /**
1137:Drivers/STM32G4xx_HAL_Driver/Src/stm32g4xx_hal_pwr_ex.c ****   * @brief Enable the USB Type-C dead battery pull-down behavior
1138:Drivers/STM32G4xx_HAL_Driver/Src/stm32g4xx_hal_pwr_ex.c ****   *        on UCPDx_CC1 and UCPDx_CC2 pins
1139:Drivers/STM32G4xx_HAL_Driver/Src/stm32g4xx_hal_pwr_ex.c ****   * @retval None
ARM GAS  C:\Users\HRb\AppData\Local\Temp\ccj967tF.s 			page 63


1140:Drivers/STM32G4xx_HAL_Driver/Src/stm32g4xx_hal_pwr_ex.c ****   */
1141:Drivers/STM32G4xx_HAL_Driver/Src/stm32g4xx_hal_pwr_ex.c **** void HAL_PWREx_EnableUCPDDeadBattery(void)
1142:Drivers/STM32G4xx_HAL_Driver/Src/stm32g4xx_hal_pwr_ex.c **** {
 2293              		.loc 1 1142 1 is_stmt 1 view -0
 2294              		.cfi_startproc
 2295              		@ args = 0, pretend = 0, frame = 0
 2296              		@ frame_needed = 0, uses_anonymous_args = 0
 2297              		@ link register save eliminated.
1143:Drivers/STM32G4xx_HAL_Driver/Src/stm32g4xx_hal_pwr_ex.c ****   /* Write 0 to enable the USB Type-C dead battery pull-down behavior */
1144:Drivers/STM32G4xx_HAL_Driver/Src/stm32g4xx_hal_pwr_ex.c ****   CLEAR_BIT(PWR->CR3, PWR_CR3_UCPD_DBDIS);
 2298              		.loc 1 1144 3 view .LVU507
 2299 0000 024A     		ldr	r2, .L203
 2300 0002 9368     		ldr	r3, [r2, #8]
 2301 0004 23F48043 		bic	r3, r3, #16384
 2302 0008 9360     		str	r3, [r2, #8]
1145:Drivers/STM32G4xx_HAL_Driver/Src/stm32g4xx_hal_pwr_ex.c **** }
 2303              		.loc 1 1145 1 is_stmt 0 view .LVU508
 2304 000a 7047     		bx	lr
 2305              	.L204:
 2306              		.align	2
 2307              	.L203:
 2308 000c 00700040 		.word	1073770496
 2309              		.cfi_endproc
 2310              	.LFE364:
 2312              		.section	.text.HAL_PWREx_DisableUCPDDeadBattery,"ax",%progbits
 2313              		.align	1
 2314              		.global	HAL_PWREx_DisableUCPDDeadBattery
 2315              		.syntax unified
 2316              		.thumb
 2317              		.thumb_func
 2319              	HAL_PWREx_DisableUCPDDeadBattery:
 2320              	.LFB365:
1146:Drivers/STM32G4xx_HAL_Driver/Src/stm32g4xx_hal_pwr_ex.c **** 
1147:Drivers/STM32G4xx_HAL_Driver/Src/stm32g4xx_hal_pwr_ex.c **** /**
1148:Drivers/STM32G4xx_HAL_Driver/Src/stm32g4xx_hal_pwr_ex.c ****   * @brief Disable the USB Type-C dead battery pull-down behavior
1149:Drivers/STM32G4xx_HAL_Driver/Src/stm32g4xx_hal_pwr_ex.c ****   *        on UCPDx_CC1 and UCPDx_CC2 pins
1150:Drivers/STM32G4xx_HAL_Driver/Src/stm32g4xx_hal_pwr_ex.c ****   * @note After exiting reset, the USB Type-C dead battery behavior will be enabled,
1151:Drivers/STM32G4xx_HAL_Driver/Src/stm32g4xx_hal_pwr_ex.c ****   *       which may have a pull-down effect on CC1 and CC2 pins.
1152:Drivers/STM32G4xx_HAL_Driver/Src/stm32g4xx_hal_pwr_ex.c ****   *       It is recommended to disable it in all cases, either to stop this pull-down
1153:Drivers/STM32G4xx_HAL_Driver/Src/stm32g4xx_hal_pwr_ex.c ****   *       or to hand over control to the UCPD (which should therefore be
1154:Drivers/STM32G4xx_HAL_Driver/Src/stm32g4xx_hal_pwr_ex.c ****   *       initialized before doing the disable).
1155:Drivers/STM32G4xx_HAL_Driver/Src/stm32g4xx_hal_pwr_ex.c ****   * @retval None
1156:Drivers/STM32G4xx_HAL_Driver/Src/stm32g4xx_hal_pwr_ex.c ****   */
1157:Drivers/STM32G4xx_HAL_Driver/Src/stm32g4xx_hal_pwr_ex.c **** void HAL_PWREx_DisableUCPDDeadBattery(void)
1158:Drivers/STM32G4xx_HAL_Driver/Src/stm32g4xx_hal_pwr_ex.c **** {
 2321              		.loc 1 1158 1 is_stmt 1 view -0
 2322              		.cfi_startproc
 2323              		@ args = 0, pretend = 0, frame = 0
 2324              		@ frame_needed = 0, uses_anonymous_args = 0
 2325              		@ link register save eliminated.
1159:Drivers/STM32G4xx_HAL_Driver/Src/stm32g4xx_hal_pwr_ex.c ****   /* Write 1 to disable the USB Type-C dead battery pull-down behavior */
1160:Drivers/STM32G4xx_HAL_Driver/Src/stm32g4xx_hal_pwr_ex.c ****   SET_BIT(PWR->CR3, PWR_CR3_UCPD_DBDIS);
 2326              		.loc 1 1160 3 view .LVU510
 2327 0000 024A     		ldr	r2, .L206
 2328 0002 9368     		ldr	r3, [r2, #8]
 2329 0004 43F48043 		orr	r3, r3, #16384
 2330 0008 9360     		str	r3, [r2, #8]
ARM GAS  C:\Users\HRb\AppData\Local\Temp\ccj967tF.s 			page 64


1161:Drivers/STM32G4xx_HAL_Driver/Src/stm32g4xx_hal_pwr_ex.c **** }
 2331              		.loc 1 1161 1 is_stmt 0 view .LVU511
 2332 000a 7047     		bx	lr
 2333              	.L207:
 2334              		.align	2
 2335              	.L206:
 2336 000c 00700040 		.word	1073770496
 2337              		.cfi_endproc
 2338              	.LFE365:
 2340              		.text
 2341              	.Letext0:
 2342              		.file 2 "C:/Program Files (x86)/Arm GNU Toolchain arm-none-eabi/13.2 Rel1/arm-none-eabi/include/ma
 2343              		.file 3 "C:/Program Files (x86)/Arm GNU Toolchain arm-none-eabi/13.2 Rel1/arm-none-eabi/include/sy
 2344              		.file 4 "Drivers/CMSIS/Include/core_cm4.h"
 2345              		.file 5 "Drivers/CMSIS/Device/ST/STM32G4xx/Include/stm32g473xx.h"
 2346              		.file 6 "Drivers/STM32G4xx_HAL_Driver/Inc/stm32g4xx_hal_def.h"
 2347              		.file 7 "Drivers/STM32G4xx_HAL_Driver/Inc/stm32g4xx_hal_pwr_ex.h"
 2348              		.file 8 "Drivers/CMSIS/Device/ST/STM32G4xx/Include/system_stm32g4xx.h"
 2349              		.file 9 "Drivers/STM32G4xx_HAL_Driver/Inc/stm32g4xx_hal_pwr.h"
ARM GAS  C:\Users\HRb\AppData\Local\Temp\ccj967tF.s 			page 65

