ARM GAS  C:\Users\HYDROG~1\AppData\Local\Temp\cc0rSm9d.s 			page 1


   1              		.cpu cortex-m4
   2              		.arch armv7e-m
   3              		.fpu fpv4-sp-d16
   4              		.eabi_attribute 27, 1
   5              		.eabi_attribute 28, 1
   6              		.eabi_attribute 20, 1
   7              		.eabi_attribute 21, 1
   8              		.eabi_attribute 23, 3
   9              		.eabi_attribute 24, 1
  10              		.eabi_attribute 25, 1
  11              		.eabi_attribute 26, 1
  12              		.eabi_attribute 30, 1
  13              		.eabi_attribute 34, 1
  14              		.eabi_attribute 18, 4
  15              		.file	"stm32g4xx_hal_rcc_ex.c"
  16              		.text
  17              	.Ltext0:
  18              		.cfi_sections	.debug_frame
  19              		.section	.text.HAL_RCCEx_PeriphCLKConfig,"ax",%progbits
  20              		.align	1
  21              		.global	HAL_RCCEx_PeriphCLKConfig
  22              		.syntax unified
  23              		.thumb
  24              		.thumb_func
  26              	HAL_RCCEx_PeriphCLKConfig:
  27              	.LVL0:
  28              	.LFB329:
  29              		.file 1 "Drivers/STM32G4xx_HAL_Driver/Src/stm32g4xx_hal_rcc_ex.c"
   1:Drivers/STM32G4xx_HAL_Driver/Src/stm32g4xx_hal_rcc_ex.c **** /**
   2:Drivers/STM32G4xx_HAL_Driver/Src/stm32g4xx_hal_rcc_ex.c ****   ******************************************************************************
   3:Drivers/STM32G4xx_HAL_Driver/Src/stm32g4xx_hal_rcc_ex.c ****   * @file    stm32g4xx_hal_rcc_ex.c
   4:Drivers/STM32G4xx_HAL_Driver/Src/stm32g4xx_hal_rcc_ex.c ****   * @author  MCD Application Team
   5:Drivers/STM32G4xx_HAL_Driver/Src/stm32g4xx_hal_rcc_ex.c ****   * @brief   Extended RCC HAL module driver.
   6:Drivers/STM32G4xx_HAL_Driver/Src/stm32g4xx_hal_rcc_ex.c ****   *          This file provides firmware functions to manage the following
   7:Drivers/STM32G4xx_HAL_Driver/Src/stm32g4xx_hal_rcc_ex.c ****   *          functionalities RCC extended peripheral:
   8:Drivers/STM32G4xx_HAL_Driver/Src/stm32g4xx_hal_rcc_ex.c ****   *           + Extended Peripheral Control functions
   9:Drivers/STM32G4xx_HAL_Driver/Src/stm32g4xx_hal_rcc_ex.c ****   *           + Extended Clock management functions
  10:Drivers/STM32G4xx_HAL_Driver/Src/stm32g4xx_hal_rcc_ex.c ****   *           + Extended Clock Recovery System Control functions
  11:Drivers/STM32G4xx_HAL_Driver/Src/stm32g4xx_hal_rcc_ex.c ****   *
  12:Drivers/STM32G4xx_HAL_Driver/Src/stm32g4xx_hal_rcc_ex.c ****   ******************************************************************************
  13:Drivers/STM32G4xx_HAL_Driver/Src/stm32g4xx_hal_rcc_ex.c ****   * @attention
  14:Drivers/STM32G4xx_HAL_Driver/Src/stm32g4xx_hal_rcc_ex.c ****   *
  15:Drivers/STM32G4xx_HAL_Driver/Src/stm32g4xx_hal_rcc_ex.c ****   * Copyright (c) 2019 STMicroelectronics.
  16:Drivers/STM32G4xx_HAL_Driver/Src/stm32g4xx_hal_rcc_ex.c ****   * All rights reserved.
  17:Drivers/STM32G4xx_HAL_Driver/Src/stm32g4xx_hal_rcc_ex.c ****   *
  18:Drivers/STM32G4xx_HAL_Driver/Src/stm32g4xx_hal_rcc_ex.c ****   * This software is licensed under terms that can be found in the LICENSE file in
  19:Drivers/STM32G4xx_HAL_Driver/Src/stm32g4xx_hal_rcc_ex.c ****   * the root directory of this software component.
  20:Drivers/STM32G4xx_HAL_Driver/Src/stm32g4xx_hal_rcc_ex.c ****   * If no LICENSE file comes with this software, it is provided AS-IS.
  21:Drivers/STM32G4xx_HAL_Driver/Src/stm32g4xx_hal_rcc_ex.c ****   ******************************************************************************
  22:Drivers/STM32G4xx_HAL_Driver/Src/stm32g4xx_hal_rcc_ex.c ****   */
  23:Drivers/STM32G4xx_HAL_Driver/Src/stm32g4xx_hal_rcc_ex.c **** 
  24:Drivers/STM32G4xx_HAL_Driver/Src/stm32g4xx_hal_rcc_ex.c **** /* Includes ------------------------------------------------------------------*/
  25:Drivers/STM32G4xx_HAL_Driver/Src/stm32g4xx_hal_rcc_ex.c **** #include "stm32g4xx_hal.h"
  26:Drivers/STM32G4xx_HAL_Driver/Src/stm32g4xx_hal_rcc_ex.c **** 
  27:Drivers/STM32G4xx_HAL_Driver/Src/stm32g4xx_hal_rcc_ex.c **** /** @addtogroup STM32G4xx_HAL_Driver
  28:Drivers/STM32G4xx_HAL_Driver/Src/stm32g4xx_hal_rcc_ex.c ****   * @{
  29:Drivers/STM32G4xx_HAL_Driver/Src/stm32g4xx_hal_rcc_ex.c ****   */
ARM GAS  C:\Users\HYDROG~1\AppData\Local\Temp\cc0rSm9d.s 			page 2


  30:Drivers/STM32G4xx_HAL_Driver/Src/stm32g4xx_hal_rcc_ex.c **** 
  31:Drivers/STM32G4xx_HAL_Driver/Src/stm32g4xx_hal_rcc_ex.c **** /** @defgroup RCCEx RCCEx
  32:Drivers/STM32G4xx_HAL_Driver/Src/stm32g4xx_hal_rcc_ex.c ****   * @brief RCC Extended HAL module driver
  33:Drivers/STM32G4xx_HAL_Driver/Src/stm32g4xx_hal_rcc_ex.c ****   * @{
  34:Drivers/STM32G4xx_HAL_Driver/Src/stm32g4xx_hal_rcc_ex.c ****   */
  35:Drivers/STM32G4xx_HAL_Driver/Src/stm32g4xx_hal_rcc_ex.c **** 
  36:Drivers/STM32G4xx_HAL_Driver/Src/stm32g4xx_hal_rcc_ex.c **** #ifdef HAL_RCC_MODULE_ENABLED
  37:Drivers/STM32G4xx_HAL_Driver/Src/stm32g4xx_hal_rcc_ex.c **** 
  38:Drivers/STM32G4xx_HAL_Driver/Src/stm32g4xx_hal_rcc_ex.c **** /* Private typedef -----------------------------------------------------------*/
  39:Drivers/STM32G4xx_HAL_Driver/Src/stm32g4xx_hal_rcc_ex.c **** /* Private defines -----------------------------------------------------------*/
  40:Drivers/STM32G4xx_HAL_Driver/Src/stm32g4xx_hal_rcc_ex.c **** /** @defgroup RCCEx_Private_Constants RCCEx Private Constants
  41:Drivers/STM32G4xx_HAL_Driver/Src/stm32g4xx_hal_rcc_ex.c ****  * @{
  42:Drivers/STM32G4xx_HAL_Driver/Src/stm32g4xx_hal_rcc_ex.c ****  */
  43:Drivers/STM32G4xx_HAL_Driver/Src/stm32g4xx_hal_rcc_ex.c **** #define PLL_TIMEOUT_VALUE        2U                /* 2 ms (minimum Tick + 1) */
  44:Drivers/STM32G4xx_HAL_Driver/Src/stm32g4xx_hal_rcc_ex.c **** 
  45:Drivers/STM32G4xx_HAL_Driver/Src/stm32g4xx_hal_rcc_ex.c **** #define DIVIDER_P_UPDATE          0U
  46:Drivers/STM32G4xx_HAL_Driver/Src/stm32g4xx_hal_rcc_ex.c **** #define DIVIDER_Q_UPDATE          1U
  47:Drivers/STM32G4xx_HAL_Driver/Src/stm32g4xx_hal_rcc_ex.c **** #define DIVIDER_R_UPDATE          2U
  48:Drivers/STM32G4xx_HAL_Driver/Src/stm32g4xx_hal_rcc_ex.c **** 
  49:Drivers/STM32G4xx_HAL_Driver/Src/stm32g4xx_hal_rcc_ex.c **** #define __LSCO_CLK_ENABLE()       __HAL_RCC_GPIOA_CLK_ENABLE()
  50:Drivers/STM32G4xx_HAL_Driver/Src/stm32g4xx_hal_rcc_ex.c **** #define LSCO_GPIO_PORT            GPIOA
  51:Drivers/STM32G4xx_HAL_Driver/Src/stm32g4xx_hal_rcc_ex.c **** #define LSCO_PIN                  GPIO_PIN_2
  52:Drivers/STM32G4xx_HAL_Driver/Src/stm32g4xx_hal_rcc_ex.c **** /**
  53:Drivers/STM32G4xx_HAL_Driver/Src/stm32g4xx_hal_rcc_ex.c ****   * @}
  54:Drivers/STM32G4xx_HAL_Driver/Src/stm32g4xx_hal_rcc_ex.c ****   */
  55:Drivers/STM32G4xx_HAL_Driver/Src/stm32g4xx_hal_rcc_ex.c **** 
  56:Drivers/STM32G4xx_HAL_Driver/Src/stm32g4xx_hal_rcc_ex.c **** /* Private macros ------------------------------------------------------------*/
  57:Drivers/STM32G4xx_HAL_Driver/Src/stm32g4xx_hal_rcc_ex.c **** /* Private variables ---------------------------------------------------------*/
  58:Drivers/STM32G4xx_HAL_Driver/Src/stm32g4xx_hal_rcc_ex.c **** /* Private function prototypes -----------------------------------------------*/
  59:Drivers/STM32G4xx_HAL_Driver/Src/stm32g4xx_hal_rcc_ex.c **** /** @defgroup RCCEx_Private_Functions RCCEx Private Functions
  60:Drivers/STM32G4xx_HAL_Driver/Src/stm32g4xx_hal_rcc_ex.c ****  * @{
  61:Drivers/STM32G4xx_HAL_Driver/Src/stm32g4xx_hal_rcc_ex.c ****  */
  62:Drivers/STM32G4xx_HAL_Driver/Src/stm32g4xx_hal_rcc_ex.c **** 
  63:Drivers/STM32G4xx_HAL_Driver/Src/stm32g4xx_hal_rcc_ex.c **** /**
  64:Drivers/STM32G4xx_HAL_Driver/Src/stm32g4xx_hal_rcc_ex.c ****   * @}
  65:Drivers/STM32G4xx_HAL_Driver/Src/stm32g4xx_hal_rcc_ex.c ****   */
  66:Drivers/STM32G4xx_HAL_Driver/Src/stm32g4xx_hal_rcc_ex.c **** 
  67:Drivers/STM32G4xx_HAL_Driver/Src/stm32g4xx_hal_rcc_ex.c **** /* Exported functions --------------------------------------------------------*/
  68:Drivers/STM32G4xx_HAL_Driver/Src/stm32g4xx_hal_rcc_ex.c **** 
  69:Drivers/STM32G4xx_HAL_Driver/Src/stm32g4xx_hal_rcc_ex.c **** /** @defgroup RCCEx_Exported_Functions RCCEx Exported Functions
  70:Drivers/STM32G4xx_HAL_Driver/Src/stm32g4xx_hal_rcc_ex.c ****   * @{
  71:Drivers/STM32G4xx_HAL_Driver/Src/stm32g4xx_hal_rcc_ex.c ****   */
  72:Drivers/STM32G4xx_HAL_Driver/Src/stm32g4xx_hal_rcc_ex.c **** 
  73:Drivers/STM32G4xx_HAL_Driver/Src/stm32g4xx_hal_rcc_ex.c **** /** @defgroup RCCEx_Exported_Functions_Group1 Extended Peripheral Control functions
  74:Drivers/STM32G4xx_HAL_Driver/Src/stm32g4xx_hal_rcc_ex.c ****  *  @brief  Extended Peripheral Control functions
  75:Drivers/STM32G4xx_HAL_Driver/Src/stm32g4xx_hal_rcc_ex.c ****  *
  76:Drivers/STM32G4xx_HAL_Driver/Src/stm32g4xx_hal_rcc_ex.c **** @verbatim
  77:Drivers/STM32G4xx_HAL_Driver/Src/stm32g4xx_hal_rcc_ex.c ****  ===============================================================================
  78:Drivers/STM32G4xx_HAL_Driver/Src/stm32g4xx_hal_rcc_ex.c ****                 ##### Extended Peripheral Control functions  #####
  79:Drivers/STM32G4xx_HAL_Driver/Src/stm32g4xx_hal_rcc_ex.c ****  ===============================================================================
  80:Drivers/STM32G4xx_HAL_Driver/Src/stm32g4xx_hal_rcc_ex.c ****     [..]
  81:Drivers/STM32G4xx_HAL_Driver/Src/stm32g4xx_hal_rcc_ex.c ****     This subsection provides a set of functions allowing to control the RCC Clocks
  82:Drivers/STM32G4xx_HAL_Driver/Src/stm32g4xx_hal_rcc_ex.c ****     frequencies.
  83:Drivers/STM32G4xx_HAL_Driver/Src/stm32g4xx_hal_rcc_ex.c ****     [..]
  84:Drivers/STM32G4xx_HAL_Driver/Src/stm32g4xx_hal_rcc_ex.c ****     (@) Important note: Care must be taken when HAL_RCCEx_PeriphCLKConfig() is used to
  85:Drivers/STM32G4xx_HAL_Driver/Src/stm32g4xx_hal_rcc_ex.c ****         select the RTC clock source; in this case the Backup domain will be reset in
  86:Drivers/STM32G4xx_HAL_Driver/Src/stm32g4xx_hal_rcc_ex.c ****         order to modify the RTC Clock source, as consequence RTC registers (including
ARM GAS  C:\Users\HYDROG~1\AppData\Local\Temp\cc0rSm9d.s 			page 3


  87:Drivers/STM32G4xx_HAL_Driver/Src/stm32g4xx_hal_rcc_ex.c ****         the backup registers) are set to their reset values.
  88:Drivers/STM32G4xx_HAL_Driver/Src/stm32g4xx_hal_rcc_ex.c **** 
  89:Drivers/STM32G4xx_HAL_Driver/Src/stm32g4xx_hal_rcc_ex.c **** @endverbatim
  90:Drivers/STM32G4xx_HAL_Driver/Src/stm32g4xx_hal_rcc_ex.c ****   * @{
  91:Drivers/STM32G4xx_HAL_Driver/Src/stm32g4xx_hal_rcc_ex.c ****   */
  92:Drivers/STM32G4xx_HAL_Driver/Src/stm32g4xx_hal_rcc_ex.c **** /**
  93:Drivers/STM32G4xx_HAL_Driver/Src/stm32g4xx_hal_rcc_ex.c ****   * @brief  Initialize the RCC extended peripherals clocks according to the specified
  94:Drivers/STM32G4xx_HAL_Driver/Src/stm32g4xx_hal_rcc_ex.c ****   *         parameters in the RCC_PeriphCLKInitTypeDef.
  95:Drivers/STM32G4xx_HAL_Driver/Src/stm32g4xx_hal_rcc_ex.c ****   * @param  PeriphClkInit  pointer to an RCC_PeriphCLKInitTypeDef structure that
  96:Drivers/STM32G4xx_HAL_Driver/Src/stm32g4xx_hal_rcc_ex.c ****   *         contains a field PeriphClockSelection which can be a combination of the following value
  97:Drivers/STM32G4xx_HAL_Driver/Src/stm32g4xx_hal_rcc_ex.c ****   *            @arg @ref RCC_PERIPHCLK_RTC  RTC peripheral clock
  98:Drivers/STM32G4xx_HAL_Driver/Src/stm32g4xx_hal_rcc_ex.c ****   *            @arg @ref RCC_PERIPHCLK_USART1  USART1 peripheral clock
  99:Drivers/STM32G4xx_HAL_Driver/Src/stm32g4xx_hal_rcc_ex.c ****   *            @arg @ref RCC_PERIPHCLK_USART2  USART2 peripheral clock
 100:Drivers/STM32G4xx_HAL_Driver/Src/stm32g4xx_hal_rcc_ex.c ****   *            @arg @ref RCC_PERIPHCLK_USART3  USART3 peripheral clock
 101:Drivers/STM32G4xx_HAL_Driver/Src/stm32g4xx_hal_rcc_ex.c ****   *            @arg @ref RCC_PERIPHCLK_UART4  UART4 peripheral clock (only for devices with UART4)
 102:Drivers/STM32G4xx_HAL_Driver/Src/stm32g4xx_hal_rcc_ex.c ****   *            @arg @ref RCC_PERIPHCLK_UART5  UART5 peripheral clock (only for devices with UART5)
 103:Drivers/STM32G4xx_HAL_Driver/Src/stm32g4xx_hal_rcc_ex.c ****   *            @arg @ref RCC_PERIPHCLK_LPUART1  LPUART1 peripheral clock
 104:Drivers/STM32G4xx_HAL_Driver/Src/stm32g4xx_hal_rcc_ex.c ****   *            @arg @ref RCC_PERIPHCLK_I2C1  I2C1 peripheral clock
 105:Drivers/STM32G4xx_HAL_Driver/Src/stm32g4xx_hal_rcc_ex.c ****   *            @arg @ref RCC_PERIPHCLK_I2C2  I2C2 peripheral clock
 106:Drivers/STM32G4xx_HAL_Driver/Src/stm32g4xx_hal_rcc_ex.c ****   *            @arg @ref RCC_PERIPHCLK_I2C3  I2C3 peripheral clock
 107:Drivers/STM32G4xx_HAL_Driver/Src/stm32g4xx_hal_rcc_ex.c ****   *            @arg @ref RCC_PERIPHCLK_I2C4  I2C4 peripheral clock (only for devices with I2C4)
 108:Drivers/STM32G4xx_HAL_Driver/Src/stm32g4xx_hal_rcc_ex.c ****   *            @arg @ref RCC_PERIPHCLK_LPTIM1  LPTIM1 peripheral clock
 109:Drivers/STM32G4xx_HAL_Driver/Src/stm32g4xx_hal_rcc_ex.c ****   *            @arg @ref RCC_PERIPHCLK_SAI1  SAI1 peripheral clock
 110:Drivers/STM32G4xx_HAL_Driver/Src/stm32g4xx_hal_rcc_ex.c ****   *            @arg @ref RCC_PERIPHCLK_I2S  I2S peripheral clock
 111:Drivers/STM32G4xx_HAL_Driver/Src/stm32g4xx_hal_rcc_ex.c ****   *            @arg @ref RCC_PERIPHCLK_FDCAN  FDCAN peripheral clock (only for devices with FDCAN)
 112:Drivers/STM32G4xx_HAL_Driver/Src/stm32g4xx_hal_rcc_ex.c ****   *            @arg @ref RCC_PERIPHCLK_RNG  RNG peripheral clock
 113:Drivers/STM32G4xx_HAL_Driver/Src/stm32g4xx_hal_rcc_ex.c ****   *            @arg @ref RCC_PERIPHCLK_USB  USB peripheral clock (only for devices with USB)
 114:Drivers/STM32G4xx_HAL_Driver/Src/stm32g4xx_hal_rcc_ex.c ****   *            @arg @ref RCC_PERIPHCLK_ADC12  ADC1 and ADC2 peripheral clock
 115:Drivers/STM32G4xx_HAL_Driver/Src/stm32g4xx_hal_rcc_ex.c ****   *            @arg @ref RCC_PERIPHCLK_ADC345  ADC3, ADC4 and ADC5 peripheral clock (only for devic
 116:Drivers/STM32G4xx_HAL_Driver/Src/stm32g4xx_hal_rcc_ex.c ****   *            @arg @ref RCC_PERIPHCLK_QSPI  QuadSPI peripheral clock (only for devices with QuadSP
 117:Drivers/STM32G4xx_HAL_Driver/Src/stm32g4xx_hal_rcc_ex.c ****   *
 118:Drivers/STM32G4xx_HAL_Driver/Src/stm32g4xx_hal_rcc_ex.c ****   * @note   Care must be taken when HAL_RCCEx_PeriphCLKConfig() is used to select
 119:Drivers/STM32G4xx_HAL_Driver/Src/stm32g4xx_hal_rcc_ex.c ****   *         the RTC clock source: in this case the access to Backup domain is enabled.
 120:Drivers/STM32G4xx_HAL_Driver/Src/stm32g4xx_hal_rcc_ex.c ****   *
 121:Drivers/STM32G4xx_HAL_Driver/Src/stm32g4xx_hal_rcc_ex.c ****   * @retval HAL status
 122:Drivers/STM32G4xx_HAL_Driver/Src/stm32g4xx_hal_rcc_ex.c ****   */
 123:Drivers/STM32G4xx_HAL_Driver/Src/stm32g4xx_hal_rcc_ex.c **** HAL_StatusTypeDef HAL_RCCEx_PeriphCLKConfig(RCC_PeriphCLKInitTypeDef  *PeriphClkInit)
 124:Drivers/STM32G4xx_HAL_Driver/Src/stm32g4xx_hal_rcc_ex.c **** {
  30              		.loc 1 124 1 view -0
  31              		.cfi_startproc
  32              		@ args = 0, pretend = 0, frame = 8
  33              		@ frame_needed = 0, uses_anonymous_args = 0
  34              		.loc 1 124 1 is_stmt 0 view .LVU1
  35 0000 F0B5     		push	{r4, r5, r6, r7, lr}
  36              	.LCFI0:
  37              		.cfi_def_cfa_offset 20
  38              		.cfi_offset 4, -20
  39              		.cfi_offset 5, -16
  40              		.cfi_offset 6, -12
  41              		.cfi_offset 7, -8
  42              		.cfi_offset 14, -4
  43 0002 83B0     		sub	sp, sp, #12
  44              	.LCFI1:
  45              		.cfi_def_cfa_offset 32
  46 0004 0446     		mov	r4, r0
 125:Drivers/STM32G4xx_HAL_Driver/Src/stm32g4xx_hal_rcc_ex.c ****   uint32_t tmpregister;
  47              		.loc 1 125 3 is_stmt 1 view .LVU2
ARM GAS  C:\Users\HYDROG~1\AppData\Local\Temp\cc0rSm9d.s 			page 4


 126:Drivers/STM32G4xx_HAL_Driver/Src/stm32g4xx_hal_rcc_ex.c ****   uint32_t tickstart;
  48              		.loc 1 126 3 view .LVU3
 127:Drivers/STM32G4xx_HAL_Driver/Src/stm32g4xx_hal_rcc_ex.c ****   HAL_StatusTypeDef ret = HAL_OK;      /* Intermediate status */
  49              		.loc 1 127 3 view .LVU4
  50              	.LVL1:
 128:Drivers/STM32G4xx_HAL_Driver/Src/stm32g4xx_hal_rcc_ex.c ****   HAL_StatusTypeDef status = HAL_OK;   /* Final status */
  51              		.loc 1 128 3 view .LVU5
 129:Drivers/STM32G4xx_HAL_Driver/Src/stm32g4xx_hal_rcc_ex.c **** 
 130:Drivers/STM32G4xx_HAL_Driver/Src/stm32g4xx_hal_rcc_ex.c ****   /* Check the parameters */
 131:Drivers/STM32G4xx_HAL_Driver/Src/stm32g4xx_hal_rcc_ex.c ****   assert_param(IS_RCC_PERIPHCLOCK(PeriphClkInit->PeriphClockSelection));
  52              		.loc 1 131 3 view .LVU6
 132:Drivers/STM32G4xx_HAL_Driver/Src/stm32g4xx_hal_rcc_ex.c **** 
 133:Drivers/STM32G4xx_HAL_Driver/Src/stm32g4xx_hal_rcc_ex.c ****   /*-------------------------- RTC clock source configuration ----------------------*/
 134:Drivers/STM32G4xx_HAL_Driver/Src/stm32g4xx_hal_rcc_ex.c ****   if((PeriphClkInit->PeriphClockSelection & RCC_PERIPHCLK_RTC) == RCC_PERIPHCLK_RTC)
  53              		.loc 1 134 3 view .LVU7
  54              		.loc 1 134 20 is_stmt 0 view .LVU8
  55 0006 0368     		ldr	r3, [r0]
  56              		.loc 1 134 5 view .LVU9
  57 0008 13F4002F 		tst	r3, #524288
  58 000c 6ED0     		beq	.L31
  59              	.LBB2:
 135:Drivers/STM32G4xx_HAL_Driver/Src/stm32g4xx_hal_rcc_ex.c ****   {
 136:Drivers/STM32G4xx_HAL_Driver/Src/stm32g4xx_hal_rcc_ex.c ****     FlagStatus       pwrclkchanged = RESET;
  60              		.loc 1 136 5 is_stmt 1 view .LVU10
  61              	.LVL2:
 137:Drivers/STM32G4xx_HAL_Driver/Src/stm32g4xx_hal_rcc_ex.c ****     
 138:Drivers/STM32G4xx_HAL_Driver/Src/stm32g4xx_hal_rcc_ex.c ****     /* Check for RTC Parameters used to output RTCCLK */
 139:Drivers/STM32G4xx_HAL_Driver/Src/stm32g4xx_hal_rcc_ex.c ****     assert_param(IS_RCC_RTCCLKSOURCE(PeriphClkInit->RTCClockSelection));
  62              		.loc 1 139 5 view .LVU11
 140:Drivers/STM32G4xx_HAL_Driver/Src/stm32g4xx_hal_rcc_ex.c **** 
 141:Drivers/STM32G4xx_HAL_Driver/Src/stm32g4xx_hal_rcc_ex.c ****     /* Enable Power Clock */
 142:Drivers/STM32G4xx_HAL_Driver/Src/stm32g4xx_hal_rcc_ex.c ****     if(__HAL_RCC_PWR_IS_CLK_DISABLED())
  63              		.loc 1 142 5 view .LVU12
  64              		.loc 1 142 8 is_stmt 0 view .LVU13
  65 000e 354B     		ldr	r3, .L46
  66 0010 9B6D     		ldr	r3, [r3, #88]
  67              		.loc 1 142 7 view .LVU14
  68 0012 13F0805F 		tst	r3, #268435456
  69 0016 1ED1     		bne	.L32
 143:Drivers/STM32G4xx_HAL_Driver/Src/stm32g4xx_hal_rcc_ex.c ****     {
 144:Drivers/STM32G4xx_HAL_Driver/Src/stm32g4xx_hal_rcc_ex.c ****       __HAL_RCC_PWR_CLK_ENABLE();
  70              		.loc 1 144 7 is_stmt 1 view .LVU15
  71              	.LBB3:
  72              		.loc 1 144 7 view .LVU16
  73              		.loc 1 144 7 view .LVU17
  74 0018 324B     		ldr	r3, .L46
  75 001a 9A6D     		ldr	r2, [r3, #88]
  76 001c 42F08052 		orr	r2, r2, #268435456
  77 0020 9A65     		str	r2, [r3, #88]
  78              		.loc 1 144 7 view .LVU18
  79 0022 9B6D     		ldr	r3, [r3, #88]
  80 0024 03F08053 		and	r3, r3, #268435456
  81 0028 0193     		str	r3, [sp, #4]
  82              		.loc 1 144 7 view .LVU19
  83 002a 019B     		ldr	r3, [sp, #4]
  84              	.LBE3:
  85              		.loc 1 144 7 view .LVU20
ARM GAS  C:\Users\HYDROG~1\AppData\Local\Temp\cc0rSm9d.s 			page 5


 145:Drivers/STM32G4xx_HAL_Driver/Src/stm32g4xx_hal_rcc_ex.c ****       pwrclkchanged = SET;
  86              		.loc 1 145 7 view .LVU21
  87              	.LVL3:
  88              		.loc 1 145 21 is_stmt 0 view .LVU22
  89 002c 0126     		movs	r6, #1
  90              	.LVL4:
  91              	.L3:
 146:Drivers/STM32G4xx_HAL_Driver/Src/stm32g4xx_hal_rcc_ex.c ****     }
 147:Drivers/STM32G4xx_HAL_Driver/Src/stm32g4xx_hal_rcc_ex.c ****       
 148:Drivers/STM32G4xx_HAL_Driver/Src/stm32g4xx_hal_rcc_ex.c ****     /* Enable write access to Backup domain */
 149:Drivers/STM32G4xx_HAL_Driver/Src/stm32g4xx_hal_rcc_ex.c ****     SET_BIT(PWR->CR1, PWR_CR1_DBP);
  92              		.loc 1 149 5 is_stmt 1 view .LVU23
  93 002e 2E4A     		ldr	r2, .L46+4
  94 0030 1368     		ldr	r3, [r2]
  95 0032 43F48073 		orr	r3, r3, #256
  96 0036 1360     		str	r3, [r2]
 150:Drivers/STM32G4xx_HAL_Driver/Src/stm32g4xx_hal_rcc_ex.c **** 
 151:Drivers/STM32G4xx_HAL_Driver/Src/stm32g4xx_hal_rcc_ex.c ****     /* Wait for Backup domain Write protection disable */
 152:Drivers/STM32G4xx_HAL_Driver/Src/stm32g4xx_hal_rcc_ex.c ****     tickstart = HAL_GetTick();
  97              		.loc 1 152 5 view .LVU24
  98              		.loc 1 152 17 is_stmt 0 view .LVU25
  99 0038 FFF7FEFF 		bl	HAL_GetTick
 100              	.LVL5:
 101              		.loc 1 152 17 view .LVU26
 102 003c 0546     		mov	r5, r0
 103              	.LVL6:
 153:Drivers/STM32G4xx_HAL_Driver/Src/stm32g4xx_hal_rcc_ex.c **** 
 154:Drivers/STM32G4xx_HAL_Driver/Src/stm32g4xx_hal_rcc_ex.c ****     while((PWR->CR1 & PWR_CR1_DBP) == 0U)
 104              		.loc 1 154 5 is_stmt 1 view .LVU27
 105              	.L4:
 106              		.loc 1 154 10 view .LVU28
 107              		.loc 1 154 15 is_stmt 0 view .LVU29
 108 003e 2A4B     		ldr	r3, .L46+4
 109 0040 1B68     		ldr	r3, [r3]
 110              		.loc 1 154 10 view .LVU30
 111 0042 13F4807F 		tst	r3, #256
 112 0046 08D1     		bne	.L36
 155:Drivers/STM32G4xx_HAL_Driver/Src/stm32g4xx_hal_rcc_ex.c ****     {
 156:Drivers/STM32G4xx_HAL_Driver/Src/stm32g4xx_hal_rcc_ex.c ****       if((HAL_GetTick() - tickstart) > RCC_DBP_TIMEOUT_VALUE)
 113              		.loc 1 156 7 is_stmt 1 view .LVU31
 114              		.loc 1 156 11 is_stmt 0 view .LVU32
 115 0048 FFF7FEFF 		bl	HAL_GetTick
 116              	.LVL7:
 117              		.loc 1 156 25 view .LVU33
 118 004c 401B     		subs	r0, r0, r5
 119              		.loc 1 156 9 view .LVU34
 120 004e 0228     		cmp	r0, #2
 121 0050 F5D9     		bls	.L4
 157:Drivers/STM32G4xx_HAL_Driver/Src/stm32g4xx_hal_rcc_ex.c ****       {
 158:Drivers/STM32G4xx_HAL_Driver/Src/stm32g4xx_hal_rcc_ex.c ****         ret = HAL_TIMEOUT;
 122              		.loc 1 158 13 view .LVU35
 123 0052 0325     		movs	r5, #3
 124              	.LVL8:
 125              		.loc 1 158 13 view .LVU36
 126 0054 02E0     		b	.L5
 127              	.LVL9:
 128              	.L32:
ARM GAS  C:\Users\HYDROG~1\AppData\Local\Temp\cc0rSm9d.s 			page 6


 136:Drivers/STM32G4xx_HAL_Driver/Src/stm32g4xx_hal_rcc_ex.c ****     
 129              		.loc 1 136 22 view .LVU37
 130 0056 0026     		movs	r6, #0
 131 0058 E9E7     		b	.L3
 132              	.LVL10:
 133              	.L36:
 136:Drivers/STM32G4xx_HAL_Driver/Src/stm32g4xx_hal_rcc_ex.c ****     
 134              		.loc 1 136 22 view .LVU38
 135              	.LBE2:
 127:Drivers/STM32G4xx_HAL_Driver/Src/stm32g4xx_hal_rcc_ex.c ****   HAL_StatusTypeDef status = HAL_OK;   /* Final status */
 136              		.loc 1 127 21 view .LVU39
 137 005a 0025     		movs	r5, #0
 138              	.LVL11:
 139              	.L5:
 140              	.LBB4:
 159:Drivers/STM32G4xx_HAL_Driver/Src/stm32g4xx_hal_rcc_ex.c ****         break;
 160:Drivers/STM32G4xx_HAL_Driver/Src/stm32g4xx_hal_rcc_ex.c ****       }
 161:Drivers/STM32G4xx_HAL_Driver/Src/stm32g4xx_hal_rcc_ex.c ****     }
 162:Drivers/STM32G4xx_HAL_Driver/Src/stm32g4xx_hal_rcc_ex.c **** 
 163:Drivers/STM32G4xx_HAL_Driver/Src/stm32g4xx_hal_rcc_ex.c ****     if(ret == HAL_OK)
 141              		.loc 1 163 5 is_stmt 1 view .LVU40
 142              		.loc 1 163 7 is_stmt 0 view .LVU41
 143 005c 45BB     		cbnz	r5, .L7
 164:Drivers/STM32G4xx_HAL_Driver/Src/stm32g4xx_hal_rcc_ex.c ****     { 
 165:Drivers/STM32G4xx_HAL_Driver/Src/stm32g4xx_hal_rcc_ex.c ****       /* Reset the Backup domain only if the RTC Clock source selection is modified from default */
 166:Drivers/STM32G4xx_HAL_Driver/Src/stm32g4xx_hal_rcc_ex.c ****       tmpregister = READ_BIT(RCC->BDCR, RCC_BDCR_RTCSEL);
 144              		.loc 1 166 7 is_stmt 1 view .LVU42
 145              		.loc 1 166 21 is_stmt 0 view .LVU43
 146 005e 214B     		ldr	r3, .L46
 147 0060 D3F89030 		ldr	r3, [r3, #144]
 148              	.LVL12:
 167:Drivers/STM32G4xx_HAL_Driver/Src/stm32g4xx_hal_rcc_ex.c ****       
 168:Drivers/STM32G4xx_HAL_Driver/Src/stm32g4xx_hal_rcc_ex.c ****       if((tmpregister != RCC_RTCCLKSOURCE_NONE) && (tmpregister != PeriphClkInit->RTCClockSelection
 149              		.loc 1 168 7 is_stmt 1 view .LVU44
 150              		.loc 1 168 9 is_stmt 0 view .LVU45
 151 0064 13F44073 		ands	r3, r3, #768
 152              	.LVL13:
 153              		.loc 1 168 9 view .LVU46
 154 0068 15D0     		beq	.L8
 155              		.loc 1 168 81 discriminator 1 view .LVU47
 156 006a 226D     		ldr	r2, [r4, #80]
 157              		.loc 1 168 49 discriminator 1 view .LVU48
 158 006c 9A42     		cmp	r2, r3
 159 006e 12D0     		beq	.L8
 169:Drivers/STM32G4xx_HAL_Driver/Src/stm32g4xx_hal_rcc_ex.c ****       {
 170:Drivers/STM32G4xx_HAL_Driver/Src/stm32g4xx_hal_rcc_ex.c ****         /* Store the content of BDCR register before the reset of Backup Domain */
 171:Drivers/STM32G4xx_HAL_Driver/Src/stm32g4xx_hal_rcc_ex.c ****         tmpregister = READ_BIT(RCC->BDCR, ~(RCC_BDCR_RTCSEL));
 160              		.loc 1 171 9 is_stmt 1 view .LVU49
 161              		.loc 1 171 23 is_stmt 0 view .LVU50
 162 0070 1C4A     		ldr	r2, .L46
 163 0072 D2F89030 		ldr	r3, [r2, #144]
 164              	.LVL14:
 165              		.loc 1 171 21 view .LVU51
 166 0076 23F44073 		bic	r3, r3, #768
 167              	.LVL15:
 172:Drivers/STM32G4xx_HAL_Driver/Src/stm32g4xx_hal_rcc_ex.c ****         /* RTC Clock selection can be changed only if the Backup Domain is reset */
 173:Drivers/STM32G4xx_HAL_Driver/Src/stm32g4xx_hal_rcc_ex.c ****         __HAL_RCC_BACKUPRESET_FORCE();
ARM GAS  C:\Users\HYDROG~1\AppData\Local\Temp\cc0rSm9d.s 			page 7


 168              		.loc 1 173 9 is_stmt 1 view .LVU52
 169 007a D2F89010 		ldr	r1, [r2, #144]
 170 007e 41F48031 		orr	r1, r1, #65536
 171 0082 C2F89010 		str	r1, [r2, #144]
 174:Drivers/STM32G4xx_HAL_Driver/Src/stm32g4xx_hal_rcc_ex.c ****         __HAL_RCC_BACKUPRESET_RELEASE();
 172              		.loc 1 174 9 view .LVU53
 173 0086 D2F89010 		ldr	r1, [r2, #144]
 174 008a 21F48031 		bic	r1, r1, #65536
 175 008e C2F89010 		str	r1, [r2, #144]
 175:Drivers/STM32G4xx_HAL_Driver/Src/stm32g4xx_hal_rcc_ex.c ****         /* Restore the Content of BDCR register */
 176:Drivers/STM32G4xx_HAL_Driver/Src/stm32g4xx_hal_rcc_ex.c ****         RCC->BDCR = tmpregister;
 176              		.loc 1 176 9 view .LVU54
 177              		.loc 1 176 19 is_stmt 0 view .LVU55
 178 0092 C2F89030 		str	r3, [r2, #144]
 179              	.L8:
 177:Drivers/STM32G4xx_HAL_Driver/Src/stm32g4xx_hal_rcc_ex.c ****       }
 178:Drivers/STM32G4xx_HAL_Driver/Src/stm32g4xx_hal_rcc_ex.c **** 
 179:Drivers/STM32G4xx_HAL_Driver/Src/stm32g4xx_hal_rcc_ex.c ****       /* Wait for LSE reactivation if LSE was enable prior to Backup Domain reset */
 180:Drivers/STM32G4xx_HAL_Driver/Src/stm32g4xx_hal_rcc_ex.c ****       if (HAL_IS_BIT_SET(tmpregister, RCC_BDCR_LSEON))
 180              		.loc 1 180 7 is_stmt 1 view .LVU56
 181              		.loc 1 180 10 is_stmt 0 view .LVU57
 182 0096 13F0010F 		tst	r3, #1
 183 009a 10D1     		bne	.L37
 184              	.LVL16:
 185              	.L9:
 181:Drivers/STM32G4xx_HAL_Driver/Src/stm32g4xx_hal_rcc_ex.c ****       {
 182:Drivers/STM32G4xx_HAL_Driver/Src/stm32g4xx_hal_rcc_ex.c ****         /* Get Start Tick*/
 183:Drivers/STM32G4xx_HAL_Driver/Src/stm32g4xx_hal_rcc_ex.c ****         tickstart = HAL_GetTick();
 184:Drivers/STM32G4xx_HAL_Driver/Src/stm32g4xx_hal_rcc_ex.c **** 
 185:Drivers/STM32G4xx_HAL_Driver/Src/stm32g4xx_hal_rcc_ex.c ****         /* Wait till LSE is ready */
 186:Drivers/STM32G4xx_HAL_Driver/Src/stm32g4xx_hal_rcc_ex.c ****         while(READ_BIT(RCC->BDCR, RCC_BDCR_LSERDY) == 0U)
 187:Drivers/STM32G4xx_HAL_Driver/Src/stm32g4xx_hal_rcc_ex.c ****         {
 188:Drivers/STM32G4xx_HAL_Driver/Src/stm32g4xx_hal_rcc_ex.c ****           if((HAL_GetTick() - tickstart) > RCC_LSE_TIMEOUT_VALUE)
 189:Drivers/STM32G4xx_HAL_Driver/Src/stm32g4xx_hal_rcc_ex.c ****           {
 190:Drivers/STM32G4xx_HAL_Driver/Src/stm32g4xx_hal_rcc_ex.c ****             ret = HAL_TIMEOUT;
 191:Drivers/STM32G4xx_HAL_Driver/Src/stm32g4xx_hal_rcc_ex.c ****             break;
 192:Drivers/STM32G4xx_HAL_Driver/Src/stm32g4xx_hal_rcc_ex.c ****           }
 193:Drivers/STM32G4xx_HAL_Driver/Src/stm32g4xx_hal_rcc_ex.c ****         }
 194:Drivers/STM32G4xx_HAL_Driver/Src/stm32g4xx_hal_rcc_ex.c ****       }
 195:Drivers/STM32G4xx_HAL_Driver/Src/stm32g4xx_hal_rcc_ex.c ****       
 196:Drivers/STM32G4xx_HAL_Driver/Src/stm32g4xx_hal_rcc_ex.c ****       if(ret == HAL_OK)
 186              		.loc 1 196 7 is_stmt 1 view .LVU58
 187              		.loc 1 196 9 is_stmt 0 view .LVU59
 188 009c 45B9     		cbnz	r5, .L7
 197:Drivers/STM32G4xx_HAL_Driver/Src/stm32g4xx_hal_rcc_ex.c ****       {
 198:Drivers/STM32G4xx_HAL_Driver/Src/stm32g4xx_hal_rcc_ex.c ****         /* Apply new RTC clock source selection */
 199:Drivers/STM32G4xx_HAL_Driver/Src/stm32g4xx_hal_rcc_ex.c ****         __HAL_RCC_RTC_CONFIG(PeriphClkInit->RTCClockSelection);
 189              		.loc 1 199 9 is_stmt 1 view .LVU60
 190 009e 114A     		ldr	r2, .L46
 191 00a0 D2F89030 		ldr	r3, [r2, #144]
 192 00a4 23F44073 		bic	r3, r3, #768
 193 00a8 216D     		ldr	r1, [r4, #80]
 194 00aa 0B43     		orrs	r3, r3, r1
 195 00ac C2F89030 		str	r3, [r2, #144]
 196              	.L7:
 197              	.LVL17:
 200:Drivers/STM32G4xx_HAL_Driver/Src/stm32g4xx_hal_rcc_ex.c ****       }
ARM GAS  C:\Users\HYDROG~1\AppData\Local\Temp\cc0rSm9d.s 			page 8


 201:Drivers/STM32G4xx_HAL_Driver/Src/stm32g4xx_hal_rcc_ex.c ****       else
 202:Drivers/STM32G4xx_HAL_Driver/Src/stm32g4xx_hal_rcc_ex.c ****       {
 203:Drivers/STM32G4xx_HAL_Driver/Src/stm32g4xx_hal_rcc_ex.c ****         /* set overall return value */
 204:Drivers/STM32G4xx_HAL_Driver/Src/stm32g4xx_hal_rcc_ex.c ****         status = ret;
 205:Drivers/STM32G4xx_HAL_Driver/Src/stm32g4xx_hal_rcc_ex.c ****       }
 206:Drivers/STM32G4xx_HAL_Driver/Src/stm32g4xx_hal_rcc_ex.c ****     }
 207:Drivers/STM32G4xx_HAL_Driver/Src/stm32g4xx_hal_rcc_ex.c ****     else
 208:Drivers/STM32G4xx_HAL_Driver/Src/stm32g4xx_hal_rcc_ex.c ****     {
 209:Drivers/STM32G4xx_HAL_Driver/Src/stm32g4xx_hal_rcc_ex.c ****       /* set overall return value */
 210:Drivers/STM32G4xx_HAL_Driver/Src/stm32g4xx_hal_rcc_ex.c ****       status = ret;
 211:Drivers/STM32G4xx_HAL_Driver/Src/stm32g4xx_hal_rcc_ex.c ****     }
 212:Drivers/STM32G4xx_HAL_Driver/Src/stm32g4xx_hal_rcc_ex.c **** 
 213:Drivers/STM32G4xx_HAL_Driver/Src/stm32g4xx_hal_rcc_ex.c ****     /* Restore clock configuration if changed */
 214:Drivers/STM32G4xx_HAL_Driver/Src/stm32g4xx_hal_rcc_ex.c ****     if(pwrclkchanged == SET)
 198              		.loc 1 214 5 view .LVU61
 199              		.loc 1 214 7 is_stmt 0 view .LVU62
 200 00b0 EEB1     		cbz	r6, .L2
 215:Drivers/STM32G4xx_HAL_Driver/Src/stm32g4xx_hal_rcc_ex.c ****     {
 216:Drivers/STM32G4xx_HAL_Driver/Src/stm32g4xx_hal_rcc_ex.c ****       __HAL_RCC_PWR_CLK_DISABLE();
 201              		.loc 1 216 7 is_stmt 1 view .LVU63
 202 00b2 0C4A     		ldr	r2, .L46
 203 00b4 936D     		ldr	r3, [r2, #88]
 204 00b6 23F08053 		bic	r3, r3, #268435456
 205 00ba 9365     		str	r3, [r2, #88]
 206 00bc 17E0     		b	.L2
 207              	.LVL18:
 208              	.L37:
 183:Drivers/STM32G4xx_HAL_Driver/Src/stm32g4xx_hal_rcc_ex.c **** 
 209              		.loc 1 183 9 view .LVU64
 183:Drivers/STM32G4xx_HAL_Driver/Src/stm32g4xx_hal_rcc_ex.c **** 
 210              		.loc 1 183 21 is_stmt 0 view .LVU65
 211 00be FFF7FEFF 		bl	HAL_GetTick
 212              	.LVL19:
 183:Drivers/STM32G4xx_HAL_Driver/Src/stm32g4xx_hal_rcc_ex.c **** 
 213              		.loc 1 183 21 view .LVU66
 214 00c2 0746     		mov	r7, r0
 215              	.LVL20:
 186:Drivers/STM32G4xx_HAL_Driver/Src/stm32g4xx_hal_rcc_ex.c ****         {
 216              		.loc 1 186 9 is_stmt 1 view .LVU67
 217              	.L10:
 186:Drivers/STM32G4xx_HAL_Driver/Src/stm32g4xx_hal_rcc_ex.c ****         {
 218              		.loc 1 186 14 view .LVU68
 186:Drivers/STM32G4xx_HAL_Driver/Src/stm32g4xx_hal_rcc_ex.c ****         {
 219              		.loc 1 186 15 is_stmt 0 view .LVU69
 220 00c4 074B     		ldr	r3, .L46
 221 00c6 D3F89030 		ldr	r3, [r3, #144]
 186:Drivers/STM32G4xx_HAL_Driver/Src/stm32g4xx_hal_rcc_ex.c ****         {
 222              		.loc 1 186 14 view .LVU70
 223 00ca 13F0020F 		tst	r3, #2
 224 00ce E5D1     		bne	.L9
 188:Drivers/STM32G4xx_HAL_Driver/Src/stm32g4xx_hal_rcc_ex.c ****           {
 225              		.loc 1 188 11 is_stmt 1 view .LVU71
 188:Drivers/STM32G4xx_HAL_Driver/Src/stm32g4xx_hal_rcc_ex.c ****           {
 226              		.loc 1 188 15 is_stmt 0 view .LVU72
 227 00d0 FFF7FEFF 		bl	HAL_GetTick
 228              	.LVL21:
 188:Drivers/STM32G4xx_HAL_Driver/Src/stm32g4xx_hal_rcc_ex.c ****           {
ARM GAS  C:\Users\HYDROG~1\AppData\Local\Temp\cc0rSm9d.s 			page 9


 229              		.loc 1 188 29 view .LVU73
 230 00d4 C01B     		subs	r0, r0, r7
 188:Drivers/STM32G4xx_HAL_Driver/Src/stm32g4xx_hal_rcc_ex.c ****           {
 231              		.loc 1 188 13 view .LVU74
 232 00d6 41F28833 		movw	r3, #5000
 233 00da 9842     		cmp	r0, r3
 234 00dc F2D9     		bls	.L10
 190:Drivers/STM32G4xx_HAL_Driver/Src/stm32g4xx_hal_rcc_ex.c ****             break;
 235              		.loc 1 190 17 view .LVU75
 236 00de 0325     		movs	r5, #3
 237              	.LVL22:
 190:Drivers/STM32G4xx_HAL_Driver/Src/stm32g4xx_hal_rcc_ex.c ****             break;
 238              		.loc 1 190 17 view .LVU76
 239 00e0 DCE7     		b	.L9
 240              	.L47:
 241 00e2 00BF     		.align	2
 242              	.L46:
 243 00e4 00100240 		.word	1073876992
 244 00e8 00700040 		.word	1073770496
 245              	.LVL23:
 246              	.L31:
 190:Drivers/STM32G4xx_HAL_Driver/Src/stm32g4xx_hal_rcc_ex.c ****             break;
 247              		.loc 1 190 17 view .LVU77
 248              	.LBE4:
 128:Drivers/STM32G4xx_HAL_Driver/Src/stm32g4xx_hal_rcc_ex.c **** 
 249              		.loc 1 128 21 view .LVU78
 250 00ec 0025     		movs	r5, #0
 251              	.LVL24:
 252              	.L2:
 217:Drivers/STM32G4xx_HAL_Driver/Src/stm32g4xx_hal_rcc_ex.c ****     }
 218:Drivers/STM32G4xx_HAL_Driver/Src/stm32g4xx_hal_rcc_ex.c ****   }
 219:Drivers/STM32G4xx_HAL_Driver/Src/stm32g4xx_hal_rcc_ex.c **** 
 220:Drivers/STM32G4xx_HAL_Driver/Src/stm32g4xx_hal_rcc_ex.c ****   /*-------------------------- USART1 clock source configuration -------------------*/
 221:Drivers/STM32G4xx_HAL_Driver/Src/stm32g4xx_hal_rcc_ex.c ****   if(((PeriphClkInit->PeriphClockSelection) & RCC_PERIPHCLK_USART1) == RCC_PERIPHCLK_USART1)
 253              		.loc 1 221 3 is_stmt 1 view .LVU79
 254              		.loc 1 221 21 is_stmt 0 view .LVU80
 255 00ee 2368     		ldr	r3, [r4]
 256              		.loc 1 221 5 view .LVU81
 257 00f0 13F0010F 		tst	r3, #1
 258 00f4 08D0     		beq	.L12
 222:Drivers/STM32G4xx_HAL_Driver/Src/stm32g4xx_hal_rcc_ex.c ****   {
 223:Drivers/STM32G4xx_HAL_Driver/Src/stm32g4xx_hal_rcc_ex.c ****     /* Check the parameters */
 224:Drivers/STM32G4xx_HAL_Driver/Src/stm32g4xx_hal_rcc_ex.c ****     assert_param(IS_RCC_USART1CLKSOURCE(PeriphClkInit->Usart1ClockSelection));
 259              		.loc 1 224 5 is_stmt 1 view .LVU82
 225:Drivers/STM32G4xx_HAL_Driver/Src/stm32g4xx_hal_rcc_ex.c **** 
 226:Drivers/STM32G4xx_HAL_Driver/Src/stm32g4xx_hal_rcc_ex.c ****     /* Configure the USART1 clock source */
 227:Drivers/STM32G4xx_HAL_Driver/Src/stm32g4xx_hal_rcc_ex.c ****     __HAL_RCC_USART1_CONFIG(PeriphClkInit->Usart1ClockSelection);
 260              		.loc 1 227 5 view .LVU83
 261 00f6 9F4A     		ldr	r2, .L48
 262 00f8 D2F88830 		ldr	r3, [r2, #136]
 263 00fc 23F00303 		bic	r3, r3, #3
 264 0100 6168     		ldr	r1, [r4, #4]
 265 0102 0B43     		orrs	r3, r3, r1
 266 0104 C2F88830 		str	r3, [r2, #136]
 267              	.L12:
 228:Drivers/STM32G4xx_HAL_Driver/Src/stm32g4xx_hal_rcc_ex.c ****   }
 229:Drivers/STM32G4xx_HAL_Driver/Src/stm32g4xx_hal_rcc_ex.c **** 
ARM GAS  C:\Users\HYDROG~1\AppData\Local\Temp\cc0rSm9d.s 			page 10


 230:Drivers/STM32G4xx_HAL_Driver/Src/stm32g4xx_hal_rcc_ex.c ****   /*-------------------------- USART2 clock source configuration -------------------*/
 231:Drivers/STM32G4xx_HAL_Driver/Src/stm32g4xx_hal_rcc_ex.c ****   if(((PeriphClkInit->PeriphClockSelection) & RCC_PERIPHCLK_USART2) == RCC_PERIPHCLK_USART2)
 268              		.loc 1 231 3 view .LVU84
 269              		.loc 1 231 21 is_stmt 0 view .LVU85
 270 0108 2368     		ldr	r3, [r4]
 271              		.loc 1 231 5 view .LVU86
 272 010a 13F0020F 		tst	r3, #2
 273 010e 08D0     		beq	.L13
 232:Drivers/STM32G4xx_HAL_Driver/Src/stm32g4xx_hal_rcc_ex.c ****   {
 233:Drivers/STM32G4xx_HAL_Driver/Src/stm32g4xx_hal_rcc_ex.c ****     /* Check the parameters */
 234:Drivers/STM32G4xx_HAL_Driver/Src/stm32g4xx_hal_rcc_ex.c ****     assert_param(IS_RCC_USART2CLKSOURCE(PeriphClkInit->Usart2ClockSelection));
 274              		.loc 1 234 5 is_stmt 1 view .LVU87
 235:Drivers/STM32G4xx_HAL_Driver/Src/stm32g4xx_hal_rcc_ex.c **** 
 236:Drivers/STM32G4xx_HAL_Driver/Src/stm32g4xx_hal_rcc_ex.c ****     /* Configure the USART2 clock source */
 237:Drivers/STM32G4xx_HAL_Driver/Src/stm32g4xx_hal_rcc_ex.c ****     __HAL_RCC_USART2_CONFIG(PeriphClkInit->Usart2ClockSelection);
 275              		.loc 1 237 5 view .LVU88
 276 0110 984A     		ldr	r2, .L48
 277 0112 D2F88830 		ldr	r3, [r2, #136]
 278 0116 23F00C03 		bic	r3, r3, #12
 279 011a A168     		ldr	r1, [r4, #8]
 280 011c 0B43     		orrs	r3, r3, r1
 281 011e C2F88830 		str	r3, [r2, #136]
 282              	.L13:
 238:Drivers/STM32G4xx_HAL_Driver/Src/stm32g4xx_hal_rcc_ex.c ****   }
 239:Drivers/STM32G4xx_HAL_Driver/Src/stm32g4xx_hal_rcc_ex.c **** 
 240:Drivers/STM32G4xx_HAL_Driver/Src/stm32g4xx_hal_rcc_ex.c ****   /*-------------------------- USART3 clock source configuration -------------------*/
 241:Drivers/STM32G4xx_HAL_Driver/Src/stm32g4xx_hal_rcc_ex.c ****   if(((PeriphClkInit->PeriphClockSelection) & RCC_PERIPHCLK_USART3) == RCC_PERIPHCLK_USART3)
 283              		.loc 1 241 3 view .LVU89
 284              		.loc 1 241 21 is_stmt 0 view .LVU90
 285 0122 2368     		ldr	r3, [r4]
 286              		.loc 1 241 5 view .LVU91
 287 0124 13F0040F 		tst	r3, #4
 288 0128 08D0     		beq	.L14
 242:Drivers/STM32G4xx_HAL_Driver/Src/stm32g4xx_hal_rcc_ex.c ****   {
 243:Drivers/STM32G4xx_HAL_Driver/Src/stm32g4xx_hal_rcc_ex.c ****     /* Check the parameters */
 244:Drivers/STM32G4xx_HAL_Driver/Src/stm32g4xx_hal_rcc_ex.c ****     assert_param(IS_RCC_USART3CLKSOURCE(PeriphClkInit->Usart3ClockSelection));
 289              		.loc 1 244 5 is_stmt 1 view .LVU92
 245:Drivers/STM32G4xx_HAL_Driver/Src/stm32g4xx_hal_rcc_ex.c **** 
 246:Drivers/STM32G4xx_HAL_Driver/Src/stm32g4xx_hal_rcc_ex.c ****     /* Configure the USART3 clock source */
 247:Drivers/STM32G4xx_HAL_Driver/Src/stm32g4xx_hal_rcc_ex.c ****     __HAL_RCC_USART3_CONFIG(PeriphClkInit->Usart3ClockSelection);
 290              		.loc 1 247 5 view .LVU93
 291 012a 924A     		ldr	r2, .L48
 292 012c D2F88830 		ldr	r3, [r2, #136]
 293 0130 23F03003 		bic	r3, r3, #48
 294 0134 E168     		ldr	r1, [r4, #12]
 295 0136 0B43     		orrs	r3, r3, r1
 296 0138 C2F88830 		str	r3, [r2, #136]
 297              	.L14:
 248:Drivers/STM32G4xx_HAL_Driver/Src/stm32g4xx_hal_rcc_ex.c ****   }
 249:Drivers/STM32G4xx_HAL_Driver/Src/stm32g4xx_hal_rcc_ex.c **** 
 250:Drivers/STM32G4xx_HAL_Driver/Src/stm32g4xx_hal_rcc_ex.c **** #if defined(UART4)
 251:Drivers/STM32G4xx_HAL_Driver/Src/stm32g4xx_hal_rcc_ex.c ****   /*-------------------------- UART4 clock source configuration --------------------*/
 252:Drivers/STM32G4xx_HAL_Driver/Src/stm32g4xx_hal_rcc_ex.c ****   if(((PeriphClkInit->PeriphClockSelection) & RCC_PERIPHCLK_UART4) == RCC_PERIPHCLK_UART4)
 298              		.loc 1 252 3 view .LVU94
 299              		.loc 1 252 21 is_stmt 0 view .LVU95
 300 013c 2368     		ldr	r3, [r4]
 301              		.loc 1 252 5 view .LVU96
ARM GAS  C:\Users\HYDROG~1\AppData\Local\Temp\cc0rSm9d.s 			page 11


 302 013e 13F0080F 		tst	r3, #8
 303 0142 08D0     		beq	.L15
 253:Drivers/STM32G4xx_HAL_Driver/Src/stm32g4xx_hal_rcc_ex.c ****   {
 254:Drivers/STM32G4xx_HAL_Driver/Src/stm32g4xx_hal_rcc_ex.c ****     /* Check the parameters */
 255:Drivers/STM32G4xx_HAL_Driver/Src/stm32g4xx_hal_rcc_ex.c ****     assert_param(IS_RCC_UART4CLKSOURCE(PeriphClkInit->Uart4ClockSelection));
 304              		.loc 1 255 5 is_stmt 1 view .LVU97
 256:Drivers/STM32G4xx_HAL_Driver/Src/stm32g4xx_hal_rcc_ex.c **** 
 257:Drivers/STM32G4xx_HAL_Driver/Src/stm32g4xx_hal_rcc_ex.c ****     /* Configure the UART4 clock source */
 258:Drivers/STM32G4xx_HAL_Driver/Src/stm32g4xx_hal_rcc_ex.c ****     __HAL_RCC_UART4_CONFIG(PeriphClkInit->Uart4ClockSelection);
 305              		.loc 1 258 5 view .LVU98
 306 0144 8B4A     		ldr	r2, .L48
 307 0146 D2F88830 		ldr	r3, [r2, #136]
 308 014a 23F0C003 		bic	r3, r3, #192
 309 014e 2169     		ldr	r1, [r4, #16]
 310 0150 0B43     		orrs	r3, r3, r1
 311 0152 C2F88830 		str	r3, [r2, #136]
 312              	.L15:
 259:Drivers/STM32G4xx_HAL_Driver/Src/stm32g4xx_hal_rcc_ex.c ****   }
 260:Drivers/STM32G4xx_HAL_Driver/Src/stm32g4xx_hal_rcc_ex.c **** #endif /* UART4 */
 261:Drivers/STM32G4xx_HAL_Driver/Src/stm32g4xx_hal_rcc_ex.c **** 
 262:Drivers/STM32G4xx_HAL_Driver/Src/stm32g4xx_hal_rcc_ex.c **** #if defined(UART5)
 263:Drivers/STM32G4xx_HAL_Driver/Src/stm32g4xx_hal_rcc_ex.c **** 
 264:Drivers/STM32G4xx_HAL_Driver/Src/stm32g4xx_hal_rcc_ex.c ****   /*-------------------------- UART5 clock source configuration --------------------*/
 265:Drivers/STM32G4xx_HAL_Driver/Src/stm32g4xx_hal_rcc_ex.c ****   if(((PeriphClkInit->PeriphClockSelection) & RCC_PERIPHCLK_UART5) == RCC_PERIPHCLK_UART5)
 313              		.loc 1 265 3 view .LVU99
 314              		.loc 1 265 21 is_stmt 0 view .LVU100
 315 0156 2368     		ldr	r3, [r4]
 316              		.loc 1 265 5 view .LVU101
 317 0158 13F0100F 		tst	r3, #16
 318 015c 08D0     		beq	.L16
 266:Drivers/STM32G4xx_HAL_Driver/Src/stm32g4xx_hal_rcc_ex.c ****   {
 267:Drivers/STM32G4xx_HAL_Driver/Src/stm32g4xx_hal_rcc_ex.c ****     /* Check the parameters */
 268:Drivers/STM32G4xx_HAL_Driver/Src/stm32g4xx_hal_rcc_ex.c ****     assert_param(IS_RCC_UART5CLKSOURCE(PeriphClkInit->Uart5ClockSelection));
 319              		.loc 1 268 5 is_stmt 1 view .LVU102
 269:Drivers/STM32G4xx_HAL_Driver/Src/stm32g4xx_hal_rcc_ex.c **** 
 270:Drivers/STM32G4xx_HAL_Driver/Src/stm32g4xx_hal_rcc_ex.c ****     /* Configure the UART5 clock source */
 271:Drivers/STM32G4xx_HAL_Driver/Src/stm32g4xx_hal_rcc_ex.c ****     __HAL_RCC_UART5_CONFIG(PeriphClkInit->Uart5ClockSelection);
 320              		.loc 1 271 5 view .LVU103
 321 015e 854A     		ldr	r2, .L48
 322 0160 D2F88830 		ldr	r3, [r2, #136]
 323 0164 23F44073 		bic	r3, r3, #768
 324 0168 6169     		ldr	r1, [r4, #20]
 325 016a 0B43     		orrs	r3, r3, r1
 326 016c C2F88830 		str	r3, [r2, #136]
 327              	.L16:
 272:Drivers/STM32G4xx_HAL_Driver/Src/stm32g4xx_hal_rcc_ex.c ****   }
 273:Drivers/STM32G4xx_HAL_Driver/Src/stm32g4xx_hal_rcc_ex.c **** 
 274:Drivers/STM32G4xx_HAL_Driver/Src/stm32g4xx_hal_rcc_ex.c **** #endif /* UART5 */
 275:Drivers/STM32G4xx_HAL_Driver/Src/stm32g4xx_hal_rcc_ex.c **** 
 276:Drivers/STM32G4xx_HAL_Driver/Src/stm32g4xx_hal_rcc_ex.c ****   /*-------------------------- LPUART1 clock source configuration ------------------*/
 277:Drivers/STM32G4xx_HAL_Driver/Src/stm32g4xx_hal_rcc_ex.c ****   if(((PeriphClkInit->PeriphClockSelection) & RCC_PERIPHCLK_LPUART1) == RCC_PERIPHCLK_LPUART1)
 328              		.loc 1 277 3 view .LVU104
 329              		.loc 1 277 21 is_stmt 0 view .LVU105
 330 0170 2368     		ldr	r3, [r4]
 331              		.loc 1 277 5 view .LVU106
 332 0172 13F0200F 		tst	r3, #32
 333 0176 08D0     		beq	.L17
ARM GAS  C:\Users\HYDROG~1\AppData\Local\Temp\cc0rSm9d.s 			page 12


 278:Drivers/STM32G4xx_HAL_Driver/Src/stm32g4xx_hal_rcc_ex.c ****   {
 279:Drivers/STM32G4xx_HAL_Driver/Src/stm32g4xx_hal_rcc_ex.c ****     /* Check the parameters */
 280:Drivers/STM32G4xx_HAL_Driver/Src/stm32g4xx_hal_rcc_ex.c ****     assert_param(IS_RCC_LPUART1CLKSOURCE(PeriphClkInit->Lpuart1ClockSelection));
 334              		.loc 1 280 5 is_stmt 1 view .LVU107
 281:Drivers/STM32G4xx_HAL_Driver/Src/stm32g4xx_hal_rcc_ex.c **** 
 282:Drivers/STM32G4xx_HAL_Driver/Src/stm32g4xx_hal_rcc_ex.c ****     /* Configure the LPUAR1 clock source */
 283:Drivers/STM32G4xx_HAL_Driver/Src/stm32g4xx_hal_rcc_ex.c ****     __HAL_RCC_LPUART1_CONFIG(PeriphClkInit->Lpuart1ClockSelection);
 335              		.loc 1 283 5 view .LVU108
 336 0178 7E4A     		ldr	r2, .L48
 337 017a D2F88830 		ldr	r3, [r2, #136]
 338 017e 23F44063 		bic	r3, r3, #3072
 339 0182 A169     		ldr	r1, [r4, #24]
 340 0184 0B43     		orrs	r3, r3, r1
 341 0186 C2F88830 		str	r3, [r2, #136]
 342              	.L17:
 284:Drivers/STM32G4xx_HAL_Driver/Src/stm32g4xx_hal_rcc_ex.c ****   }
 285:Drivers/STM32G4xx_HAL_Driver/Src/stm32g4xx_hal_rcc_ex.c **** 
 286:Drivers/STM32G4xx_HAL_Driver/Src/stm32g4xx_hal_rcc_ex.c ****   /*-------------------------- I2C1 clock source configuration ---------------------*/
 287:Drivers/STM32G4xx_HAL_Driver/Src/stm32g4xx_hal_rcc_ex.c ****   if(((PeriphClkInit->PeriphClockSelection) & RCC_PERIPHCLK_I2C1) == RCC_PERIPHCLK_I2C1)
 343              		.loc 1 287 3 view .LVU109
 344              		.loc 1 287 21 is_stmt 0 view .LVU110
 345 018a 2368     		ldr	r3, [r4]
 346              		.loc 1 287 5 view .LVU111
 347 018c 13F0400F 		tst	r3, #64
 348 0190 08D0     		beq	.L18
 288:Drivers/STM32G4xx_HAL_Driver/Src/stm32g4xx_hal_rcc_ex.c ****   {
 289:Drivers/STM32G4xx_HAL_Driver/Src/stm32g4xx_hal_rcc_ex.c ****     /* Check the parameters */
 290:Drivers/STM32G4xx_HAL_Driver/Src/stm32g4xx_hal_rcc_ex.c ****     assert_param(IS_RCC_I2C1CLKSOURCE(PeriphClkInit->I2c1ClockSelection));
 349              		.loc 1 290 5 is_stmt 1 view .LVU112
 291:Drivers/STM32G4xx_HAL_Driver/Src/stm32g4xx_hal_rcc_ex.c **** 
 292:Drivers/STM32G4xx_HAL_Driver/Src/stm32g4xx_hal_rcc_ex.c ****     /* Configure the I2C1 clock source */
 293:Drivers/STM32G4xx_HAL_Driver/Src/stm32g4xx_hal_rcc_ex.c ****     __HAL_RCC_I2C1_CONFIG(PeriphClkInit->I2c1ClockSelection);
 350              		.loc 1 293 5 view .LVU113
 351 0192 784A     		ldr	r2, .L48
 352 0194 D2F88830 		ldr	r3, [r2, #136]
 353 0198 23F44053 		bic	r3, r3, #12288
 354 019c E169     		ldr	r1, [r4, #28]
 355 019e 0B43     		orrs	r3, r3, r1
 356 01a0 C2F88830 		str	r3, [r2, #136]
 357              	.L18:
 294:Drivers/STM32G4xx_HAL_Driver/Src/stm32g4xx_hal_rcc_ex.c ****   }
 295:Drivers/STM32G4xx_HAL_Driver/Src/stm32g4xx_hal_rcc_ex.c **** 
 296:Drivers/STM32G4xx_HAL_Driver/Src/stm32g4xx_hal_rcc_ex.c ****   /*-------------------------- I2C2 clock source configuration ---------------------*/
 297:Drivers/STM32G4xx_HAL_Driver/Src/stm32g4xx_hal_rcc_ex.c ****   if(((PeriphClkInit->PeriphClockSelection) & RCC_PERIPHCLK_I2C2) == RCC_PERIPHCLK_I2C2)
 358              		.loc 1 297 3 view .LVU114
 359              		.loc 1 297 21 is_stmt 0 view .LVU115
 360 01a4 2368     		ldr	r3, [r4]
 361              		.loc 1 297 5 view .LVU116
 362 01a6 13F0800F 		tst	r3, #128
 363 01aa 08D0     		beq	.L19
 298:Drivers/STM32G4xx_HAL_Driver/Src/stm32g4xx_hal_rcc_ex.c ****   {
 299:Drivers/STM32G4xx_HAL_Driver/Src/stm32g4xx_hal_rcc_ex.c ****     /* Check the parameters */
 300:Drivers/STM32G4xx_HAL_Driver/Src/stm32g4xx_hal_rcc_ex.c ****     assert_param(IS_RCC_I2C2CLKSOURCE(PeriphClkInit->I2c2ClockSelection));
 364              		.loc 1 300 5 is_stmt 1 view .LVU117
 301:Drivers/STM32G4xx_HAL_Driver/Src/stm32g4xx_hal_rcc_ex.c **** 
 302:Drivers/STM32G4xx_HAL_Driver/Src/stm32g4xx_hal_rcc_ex.c ****     /* Configure the I2C2 clock source */
 303:Drivers/STM32G4xx_HAL_Driver/Src/stm32g4xx_hal_rcc_ex.c ****     __HAL_RCC_I2C2_CONFIG(PeriphClkInit->I2c2ClockSelection);
ARM GAS  C:\Users\HYDROG~1\AppData\Local\Temp\cc0rSm9d.s 			page 13


 365              		.loc 1 303 5 view .LVU118
 366 01ac 714A     		ldr	r2, .L48
 367 01ae D2F88830 		ldr	r3, [r2, #136]
 368 01b2 23F44043 		bic	r3, r3, #49152
 369 01b6 216A     		ldr	r1, [r4, #32]
 370 01b8 0B43     		orrs	r3, r3, r1
 371 01ba C2F88830 		str	r3, [r2, #136]
 372              	.L19:
 304:Drivers/STM32G4xx_HAL_Driver/Src/stm32g4xx_hal_rcc_ex.c ****   }
 305:Drivers/STM32G4xx_HAL_Driver/Src/stm32g4xx_hal_rcc_ex.c **** 
 306:Drivers/STM32G4xx_HAL_Driver/Src/stm32g4xx_hal_rcc_ex.c ****   /*-------------------------- I2C3 clock source configuration ---------------------*/
 307:Drivers/STM32G4xx_HAL_Driver/Src/stm32g4xx_hal_rcc_ex.c ****   if(((PeriphClkInit->PeriphClockSelection) & RCC_PERIPHCLK_I2C3) == RCC_PERIPHCLK_I2C3)
 373              		.loc 1 307 3 view .LVU119
 374              		.loc 1 307 21 is_stmt 0 view .LVU120
 375 01be 2368     		ldr	r3, [r4]
 376              		.loc 1 307 5 view .LVU121
 377 01c0 13F4807F 		tst	r3, #256
 378 01c4 08D0     		beq	.L20
 308:Drivers/STM32G4xx_HAL_Driver/Src/stm32g4xx_hal_rcc_ex.c ****   {
 309:Drivers/STM32G4xx_HAL_Driver/Src/stm32g4xx_hal_rcc_ex.c ****     /* Check the parameters */
 310:Drivers/STM32G4xx_HAL_Driver/Src/stm32g4xx_hal_rcc_ex.c ****     assert_param(IS_RCC_I2C3CLKSOURCE(PeriphClkInit->I2c3ClockSelection));
 379              		.loc 1 310 5 is_stmt 1 view .LVU122
 311:Drivers/STM32G4xx_HAL_Driver/Src/stm32g4xx_hal_rcc_ex.c **** 
 312:Drivers/STM32G4xx_HAL_Driver/Src/stm32g4xx_hal_rcc_ex.c ****     /* Configure the I2C3 clock source */
 313:Drivers/STM32G4xx_HAL_Driver/Src/stm32g4xx_hal_rcc_ex.c ****     __HAL_RCC_I2C3_CONFIG(PeriphClkInit->I2c3ClockSelection);
 380              		.loc 1 313 5 view .LVU123
 381 01c6 6B4A     		ldr	r2, .L48
 382 01c8 D2F88830 		ldr	r3, [r2, #136]
 383 01cc 23F44033 		bic	r3, r3, #196608
 384 01d0 616A     		ldr	r1, [r4, #36]
 385 01d2 0B43     		orrs	r3, r3, r1
 386 01d4 C2F88830 		str	r3, [r2, #136]
 387              	.L20:
 314:Drivers/STM32G4xx_HAL_Driver/Src/stm32g4xx_hal_rcc_ex.c ****   }
 315:Drivers/STM32G4xx_HAL_Driver/Src/stm32g4xx_hal_rcc_ex.c **** 
 316:Drivers/STM32G4xx_HAL_Driver/Src/stm32g4xx_hal_rcc_ex.c **** #if defined(I2C4)  
 317:Drivers/STM32G4xx_HAL_Driver/Src/stm32g4xx_hal_rcc_ex.c **** 
 318:Drivers/STM32G4xx_HAL_Driver/Src/stm32g4xx_hal_rcc_ex.c ****   /*-------------------------- I2C4 clock source configuration ---------------------*/
 319:Drivers/STM32G4xx_HAL_Driver/Src/stm32g4xx_hal_rcc_ex.c ****   if(((PeriphClkInit->PeriphClockSelection) & RCC_PERIPHCLK_I2C4) == RCC_PERIPHCLK_I2C4)
 388              		.loc 1 319 3 view .LVU124
 389              		.loc 1 319 21 is_stmt 0 view .LVU125
 390 01d8 2368     		ldr	r3, [r4]
 391              		.loc 1 319 5 view .LVU126
 392 01da 13F4003F 		tst	r3, #131072
 393 01de 08D0     		beq	.L21
 320:Drivers/STM32G4xx_HAL_Driver/Src/stm32g4xx_hal_rcc_ex.c ****   {
 321:Drivers/STM32G4xx_HAL_Driver/Src/stm32g4xx_hal_rcc_ex.c ****     /* Check the parameters */
 322:Drivers/STM32G4xx_HAL_Driver/Src/stm32g4xx_hal_rcc_ex.c ****     assert_param(IS_RCC_I2C4CLKSOURCE(PeriphClkInit->I2c4ClockSelection));
 394              		.loc 1 322 5 is_stmt 1 view .LVU127
 323:Drivers/STM32G4xx_HAL_Driver/Src/stm32g4xx_hal_rcc_ex.c **** 
 324:Drivers/STM32G4xx_HAL_Driver/Src/stm32g4xx_hal_rcc_ex.c ****     /* Configure the I2C4 clock source */
 325:Drivers/STM32G4xx_HAL_Driver/Src/stm32g4xx_hal_rcc_ex.c ****     __HAL_RCC_I2C4_CONFIG(PeriphClkInit->I2c4ClockSelection);
 395              		.loc 1 325 5 view .LVU128
 396 01e0 644A     		ldr	r2, .L48
 397 01e2 D2F89C30 		ldr	r3, [r2, #156]
 398 01e6 23F00303 		bic	r3, r3, #3
 399 01ea A16A     		ldr	r1, [r4, #40]
ARM GAS  C:\Users\HYDROG~1\AppData\Local\Temp\cc0rSm9d.s 			page 14


 400 01ec 0B43     		orrs	r3, r3, r1
 401 01ee C2F89C30 		str	r3, [r2, #156]
 402              	.L21:
 326:Drivers/STM32G4xx_HAL_Driver/Src/stm32g4xx_hal_rcc_ex.c ****   }
 327:Drivers/STM32G4xx_HAL_Driver/Src/stm32g4xx_hal_rcc_ex.c **** 
 328:Drivers/STM32G4xx_HAL_Driver/Src/stm32g4xx_hal_rcc_ex.c **** #endif /* I2C4 */
 329:Drivers/STM32G4xx_HAL_Driver/Src/stm32g4xx_hal_rcc_ex.c **** 
 330:Drivers/STM32G4xx_HAL_Driver/Src/stm32g4xx_hal_rcc_ex.c ****   /*-------------------------- LPTIM1 clock source configuration ---------------------*/
 331:Drivers/STM32G4xx_HAL_Driver/Src/stm32g4xx_hal_rcc_ex.c ****   if(((PeriphClkInit->PeriphClockSelection) & RCC_PERIPHCLK_LPTIM1) == RCC_PERIPHCLK_LPTIM1)
 403              		.loc 1 331 3 view .LVU129
 404              		.loc 1 331 21 is_stmt 0 view .LVU130
 405 01f2 2368     		ldr	r3, [r4]
 406              		.loc 1 331 5 view .LVU131
 407 01f4 13F4007F 		tst	r3, #512
 408 01f8 08D0     		beq	.L22
 332:Drivers/STM32G4xx_HAL_Driver/Src/stm32g4xx_hal_rcc_ex.c ****   {
 333:Drivers/STM32G4xx_HAL_Driver/Src/stm32g4xx_hal_rcc_ex.c ****     /* Check the parameters */
 334:Drivers/STM32G4xx_HAL_Driver/Src/stm32g4xx_hal_rcc_ex.c ****     assert_param(IS_RCC_LPTIM1CLKSOURCE(PeriphClkInit->Lptim1ClockSelection));
 409              		.loc 1 334 5 is_stmt 1 view .LVU132
 335:Drivers/STM32G4xx_HAL_Driver/Src/stm32g4xx_hal_rcc_ex.c **** 
 336:Drivers/STM32G4xx_HAL_Driver/Src/stm32g4xx_hal_rcc_ex.c ****     /* Configure the LPTIM1 clock source */
 337:Drivers/STM32G4xx_HAL_Driver/Src/stm32g4xx_hal_rcc_ex.c ****     __HAL_RCC_LPTIM1_CONFIG(PeriphClkInit->Lptim1ClockSelection);
 410              		.loc 1 337 5 view .LVU133
 411 01fa 5E4A     		ldr	r2, .L48
 412 01fc D2F88830 		ldr	r3, [r2, #136]
 413 0200 23F44023 		bic	r3, r3, #786432
 414 0204 E16A     		ldr	r1, [r4, #44]
 415 0206 0B43     		orrs	r3, r3, r1
 416 0208 C2F88830 		str	r3, [r2, #136]
 417              	.L22:
 338:Drivers/STM32G4xx_HAL_Driver/Src/stm32g4xx_hal_rcc_ex.c ****   }
 339:Drivers/STM32G4xx_HAL_Driver/Src/stm32g4xx_hal_rcc_ex.c **** 
 340:Drivers/STM32G4xx_HAL_Driver/Src/stm32g4xx_hal_rcc_ex.c ****   /*-------------------------- SAI1 clock source configuration ---------------------*/
 341:Drivers/STM32G4xx_HAL_Driver/Src/stm32g4xx_hal_rcc_ex.c ****   if(((PeriphClkInit->PeriphClockSelection) & RCC_PERIPHCLK_SAI1) == RCC_PERIPHCLK_SAI1)
 418              		.loc 1 341 3 view .LVU134
 419              		.loc 1 341 21 is_stmt 0 view .LVU135
 420 020c 2368     		ldr	r3, [r4]
 421              		.loc 1 341 5 view .LVU136
 422 020e 13F4806F 		tst	r3, #1024
 423 0212 0CD0     		beq	.L23
 342:Drivers/STM32G4xx_HAL_Driver/Src/stm32g4xx_hal_rcc_ex.c ****   {
 343:Drivers/STM32G4xx_HAL_Driver/Src/stm32g4xx_hal_rcc_ex.c ****     /* Check the parameters */
 344:Drivers/STM32G4xx_HAL_Driver/Src/stm32g4xx_hal_rcc_ex.c ****     assert_param(IS_RCC_SAI1CLKSOURCE(PeriphClkInit->Sai1ClockSelection));
 424              		.loc 1 344 5 is_stmt 1 view .LVU137
 345:Drivers/STM32G4xx_HAL_Driver/Src/stm32g4xx_hal_rcc_ex.c **** 
 346:Drivers/STM32G4xx_HAL_Driver/Src/stm32g4xx_hal_rcc_ex.c ****     /* Configure the SAI1 interface clock source */
 347:Drivers/STM32G4xx_HAL_Driver/Src/stm32g4xx_hal_rcc_ex.c ****     __HAL_RCC_SAI1_CONFIG(PeriphClkInit->Sai1ClockSelection);
 425              		.loc 1 347 5 view .LVU138
 426 0214 574A     		ldr	r2, .L48
 427 0216 D2F88830 		ldr	r3, [r2, #136]
 428 021a 23F44013 		bic	r3, r3, #3145728
 429 021e 216B     		ldr	r1, [r4, #48]
 430 0220 0B43     		orrs	r3, r3, r1
 431 0222 C2F88830 		str	r3, [r2, #136]
 348:Drivers/STM32G4xx_HAL_Driver/Src/stm32g4xx_hal_rcc_ex.c ****     
 349:Drivers/STM32G4xx_HAL_Driver/Src/stm32g4xx_hal_rcc_ex.c ****     if(PeriphClkInit->Sai1ClockSelection == RCC_SAI1CLKSOURCE_PLL)
 432              		.loc 1 349 5 view .LVU139
ARM GAS  C:\Users\HYDROG~1\AppData\Local\Temp\cc0rSm9d.s 			page 15


 433              		.loc 1 349 21 is_stmt 0 view .LVU140
 434 0226 236B     		ldr	r3, [r4, #48]
 435              		.loc 1 349 7 view .LVU141
 436 0228 B3F5801F 		cmp	r3, #1048576
 437 022c 79D0     		beq	.L38
 438              	.L23:
 350:Drivers/STM32G4xx_HAL_Driver/Src/stm32g4xx_hal_rcc_ex.c ****     {
 351:Drivers/STM32G4xx_HAL_Driver/Src/stm32g4xx_hal_rcc_ex.c ****       /* Enable PLL48M1CLK output */
 352:Drivers/STM32G4xx_HAL_Driver/Src/stm32g4xx_hal_rcc_ex.c ****       __HAL_RCC_PLLCLKOUT_ENABLE(RCC_PLL_48M1CLK);
 353:Drivers/STM32G4xx_HAL_Driver/Src/stm32g4xx_hal_rcc_ex.c ****     }
 354:Drivers/STM32G4xx_HAL_Driver/Src/stm32g4xx_hal_rcc_ex.c ****   }
 355:Drivers/STM32G4xx_HAL_Driver/Src/stm32g4xx_hal_rcc_ex.c **** 
 356:Drivers/STM32G4xx_HAL_Driver/Src/stm32g4xx_hal_rcc_ex.c ****   /*-------------------------- I2S clock source configuration ---------------------*/
 357:Drivers/STM32G4xx_HAL_Driver/Src/stm32g4xx_hal_rcc_ex.c ****   if(((PeriphClkInit->PeriphClockSelection) & RCC_PERIPHCLK_I2S) == RCC_PERIPHCLK_I2S)
 439              		.loc 1 357 3 is_stmt 1 view .LVU142
 440              		.loc 1 357 21 is_stmt 0 view .LVU143
 441 022e 2368     		ldr	r3, [r4]
 442              		.loc 1 357 5 view .LVU144
 443 0230 13F4006F 		tst	r3, #2048
 444 0234 0CD0     		beq	.L24
 358:Drivers/STM32G4xx_HAL_Driver/Src/stm32g4xx_hal_rcc_ex.c ****   {
 359:Drivers/STM32G4xx_HAL_Driver/Src/stm32g4xx_hal_rcc_ex.c ****     /* Check the parameters */
 360:Drivers/STM32G4xx_HAL_Driver/Src/stm32g4xx_hal_rcc_ex.c ****     assert_param(IS_RCC_I2SCLKSOURCE(PeriphClkInit->I2sClockSelection));
 445              		.loc 1 360 5 is_stmt 1 view .LVU145
 361:Drivers/STM32G4xx_HAL_Driver/Src/stm32g4xx_hal_rcc_ex.c **** 
 362:Drivers/STM32G4xx_HAL_Driver/Src/stm32g4xx_hal_rcc_ex.c ****     /* Configure the I2S interface clock source */
 363:Drivers/STM32G4xx_HAL_Driver/Src/stm32g4xx_hal_rcc_ex.c ****     __HAL_RCC_I2S_CONFIG(PeriphClkInit->I2sClockSelection);
 446              		.loc 1 363 5 view .LVU146
 447 0236 4F4A     		ldr	r2, .L48
 448 0238 D2F88830 		ldr	r3, [r2, #136]
 449 023c 23F44003 		bic	r3, r3, #12582912
 450 0240 616B     		ldr	r1, [r4, #52]
 451 0242 0B43     		orrs	r3, r3, r1
 452 0244 C2F88830 		str	r3, [r2, #136]
 364:Drivers/STM32G4xx_HAL_Driver/Src/stm32g4xx_hal_rcc_ex.c ****     
 365:Drivers/STM32G4xx_HAL_Driver/Src/stm32g4xx_hal_rcc_ex.c ****     if(PeriphClkInit->I2sClockSelection == RCC_I2SCLKSOURCE_PLL)
 453              		.loc 1 365 5 view .LVU147
 454              		.loc 1 365 21 is_stmt 0 view .LVU148
 455 0248 636B     		ldr	r3, [r4, #52]
 456              		.loc 1 365 7 view .LVU149
 457 024a B3F5800F 		cmp	r3, #4194304
 458 024e 6DD0     		beq	.L39
 459              	.L24:
 366:Drivers/STM32G4xx_HAL_Driver/Src/stm32g4xx_hal_rcc_ex.c ****     {
 367:Drivers/STM32G4xx_HAL_Driver/Src/stm32g4xx_hal_rcc_ex.c ****       /* Enable PLL48M1CLK output */
 368:Drivers/STM32G4xx_HAL_Driver/Src/stm32g4xx_hal_rcc_ex.c ****       __HAL_RCC_PLLCLKOUT_ENABLE(RCC_PLL_48M1CLK);
 369:Drivers/STM32G4xx_HAL_Driver/Src/stm32g4xx_hal_rcc_ex.c ****     }
 370:Drivers/STM32G4xx_HAL_Driver/Src/stm32g4xx_hal_rcc_ex.c ****   }
 371:Drivers/STM32G4xx_HAL_Driver/Src/stm32g4xx_hal_rcc_ex.c **** 
 372:Drivers/STM32G4xx_HAL_Driver/Src/stm32g4xx_hal_rcc_ex.c **** #if defined(FDCAN1)
 373:Drivers/STM32G4xx_HAL_Driver/Src/stm32g4xx_hal_rcc_ex.c ****   /*-------------------------- FDCAN clock source configuration ---------------------*/
 374:Drivers/STM32G4xx_HAL_Driver/Src/stm32g4xx_hal_rcc_ex.c ****   if(((PeriphClkInit->PeriphClockSelection) & RCC_PERIPHCLK_FDCAN) == RCC_PERIPHCLK_FDCAN)
 460              		.loc 1 374 3 is_stmt 1 view .LVU150
 461              		.loc 1 374 21 is_stmt 0 view .LVU151
 462 0250 2368     		ldr	r3, [r4]
 463              		.loc 1 374 5 view .LVU152
 464 0252 13F4805F 		tst	r3, #4096
ARM GAS  C:\Users\HYDROG~1\AppData\Local\Temp\cc0rSm9d.s 			page 16


 465 0256 0CD0     		beq	.L25
 375:Drivers/STM32G4xx_HAL_Driver/Src/stm32g4xx_hal_rcc_ex.c ****   {
 376:Drivers/STM32G4xx_HAL_Driver/Src/stm32g4xx_hal_rcc_ex.c ****     /* Check the parameters */
 377:Drivers/STM32G4xx_HAL_Driver/Src/stm32g4xx_hal_rcc_ex.c ****     assert_param(IS_RCC_FDCANCLKSOURCE(PeriphClkInit->FdcanClockSelection));
 466              		.loc 1 377 5 is_stmt 1 view .LVU153
 378:Drivers/STM32G4xx_HAL_Driver/Src/stm32g4xx_hal_rcc_ex.c **** 
 379:Drivers/STM32G4xx_HAL_Driver/Src/stm32g4xx_hal_rcc_ex.c ****     /* Configure the FDCAN interface clock source */
 380:Drivers/STM32G4xx_HAL_Driver/Src/stm32g4xx_hal_rcc_ex.c ****     __HAL_RCC_FDCAN_CONFIG(PeriphClkInit->FdcanClockSelection);
 467              		.loc 1 380 5 view .LVU154
 468 0258 464A     		ldr	r2, .L48
 469 025a D2F88830 		ldr	r3, [r2, #136]
 470 025e 23F04073 		bic	r3, r3, #50331648
 471 0262 A16B     		ldr	r1, [r4, #56]
 472 0264 0B43     		orrs	r3, r3, r1
 473 0266 C2F88830 		str	r3, [r2, #136]
 381:Drivers/STM32G4xx_HAL_Driver/Src/stm32g4xx_hal_rcc_ex.c ****     
 382:Drivers/STM32G4xx_HAL_Driver/Src/stm32g4xx_hal_rcc_ex.c ****     if(PeriphClkInit->FdcanClockSelection == RCC_FDCANCLKSOURCE_PLL)
 474              		.loc 1 382 5 view .LVU155
 475              		.loc 1 382 21 is_stmt 0 view .LVU156
 476 026a A36B     		ldr	r3, [r4, #56]
 477              		.loc 1 382 7 view .LVU157
 478 026c B3F1807F 		cmp	r3, #16777216
 479 0270 61D0     		beq	.L40
 480              	.L25:
 383:Drivers/STM32G4xx_HAL_Driver/Src/stm32g4xx_hal_rcc_ex.c ****     {
 384:Drivers/STM32G4xx_HAL_Driver/Src/stm32g4xx_hal_rcc_ex.c ****       /* Enable PLL48M1CLK output */
 385:Drivers/STM32G4xx_HAL_Driver/Src/stm32g4xx_hal_rcc_ex.c ****       __HAL_RCC_PLLCLKOUT_ENABLE(RCC_PLL_48M1CLK);
 386:Drivers/STM32G4xx_HAL_Driver/Src/stm32g4xx_hal_rcc_ex.c ****     }
 387:Drivers/STM32G4xx_HAL_Driver/Src/stm32g4xx_hal_rcc_ex.c ****   }
 388:Drivers/STM32G4xx_HAL_Driver/Src/stm32g4xx_hal_rcc_ex.c **** #endif /* FDCAN1 */
 389:Drivers/STM32G4xx_HAL_Driver/Src/stm32g4xx_hal_rcc_ex.c **** 
 390:Drivers/STM32G4xx_HAL_Driver/Src/stm32g4xx_hal_rcc_ex.c **** #if defined(USB)
 391:Drivers/STM32G4xx_HAL_Driver/Src/stm32g4xx_hal_rcc_ex.c **** 
 392:Drivers/STM32G4xx_HAL_Driver/Src/stm32g4xx_hal_rcc_ex.c ****   /*-------------------------- USB clock source configuration ----------------------*/
 393:Drivers/STM32G4xx_HAL_Driver/Src/stm32g4xx_hal_rcc_ex.c ****   if(((PeriphClkInit->PeriphClockSelection) & RCC_PERIPHCLK_USB) == (RCC_PERIPHCLK_USB))
 481              		.loc 1 393 3 is_stmt 1 view .LVU158
 482              		.loc 1 393 21 is_stmt 0 view .LVU159
 483 0272 2368     		ldr	r3, [r4]
 484              		.loc 1 393 5 view .LVU160
 485 0274 13F4005F 		tst	r3, #8192
 486 0278 0CD0     		beq	.L26
 394:Drivers/STM32G4xx_HAL_Driver/Src/stm32g4xx_hal_rcc_ex.c ****   {
 395:Drivers/STM32G4xx_HAL_Driver/Src/stm32g4xx_hal_rcc_ex.c ****     assert_param(IS_RCC_USBCLKSOURCE(PeriphClkInit->UsbClockSelection));
 487              		.loc 1 395 5 is_stmt 1 view .LVU161
 396:Drivers/STM32G4xx_HAL_Driver/Src/stm32g4xx_hal_rcc_ex.c ****     __HAL_RCC_USB_CONFIG(PeriphClkInit->UsbClockSelection);
 488              		.loc 1 396 5 view .LVU162
 489 027a 3E4A     		ldr	r2, .L48
 490 027c D2F88830 		ldr	r3, [r2, #136]
 491 0280 23F04063 		bic	r3, r3, #201326592
 492 0284 E16B     		ldr	r1, [r4, #60]
 493 0286 0B43     		orrs	r3, r3, r1
 494 0288 C2F88830 		str	r3, [r2, #136]
 397:Drivers/STM32G4xx_HAL_Driver/Src/stm32g4xx_hal_rcc_ex.c **** 
 398:Drivers/STM32G4xx_HAL_Driver/Src/stm32g4xx_hal_rcc_ex.c ****     if(PeriphClkInit->UsbClockSelection == RCC_USBCLKSOURCE_PLL)
 495              		.loc 1 398 5 view .LVU163
 496              		.loc 1 398 21 is_stmt 0 view .LVU164
 497 028c E36B     		ldr	r3, [r4, #60]
ARM GAS  C:\Users\HYDROG~1\AppData\Local\Temp\cc0rSm9d.s 			page 17


 498              		.loc 1 398 7 view .LVU165
 499 028e B3F1006F 		cmp	r3, #134217728
 500 0292 55D0     		beq	.L41
 501              	.L26:
 399:Drivers/STM32G4xx_HAL_Driver/Src/stm32g4xx_hal_rcc_ex.c ****     {
 400:Drivers/STM32G4xx_HAL_Driver/Src/stm32g4xx_hal_rcc_ex.c ****       /* Enable PLL48M1CLK output */
 401:Drivers/STM32G4xx_HAL_Driver/Src/stm32g4xx_hal_rcc_ex.c ****       __HAL_RCC_PLLCLKOUT_ENABLE(RCC_PLL_48M1CLK);
 402:Drivers/STM32G4xx_HAL_Driver/Src/stm32g4xx_hal_rcc_ex.c ****     }
 403:Drivers/STM32G4xx_HAL_Driver/Src/stm32g4xx_hal_rcc_ex.c ****   }
 404:Drivers/STM32G4xx_HAL_Driver/Src/stm32g4xx_hal_rcc_ex.c **** 
 405:Drivers/STM32G4xx_HAL_Driver/Src/stm32g4xx_hal_rcc_ex.c **** #endif /* USB */
 406:Drivers/STM32G4xx_HAL_Driver/Src/stm32g4xx_hal_rcc_ex.c **** 
 407:Drivers/STM32G4xx_HAL_Driver/Src/stm32g4xx_hal_rcc_ex.c ****   /*-------------------------- RNG clock source configuration ----------------------*/
 408:Drivers/STM32G4xx_HAL_Driver/Src/stm32g4xx_hal_rcc_ex.c ****   if(((PeriphClkInit->PeriphClockSelection) & RCC_PERIPHCLK_RNG) == (RCC_PERIPHCLK_RNG))
 502              		.loc 1 408 3 is_stmt 1 view .LVU166
 503              		.loc 1 408 21 is_stmt 0 view .LVU167
 504 0294 2368     		ldr	r3, [r4]
 505              		.loc 1 408 5 view .LVU168
 506 0296 13F4804F 		tst	r3, #16384
 507 029a 0CD0     		beq	.L27
 409:Drivers/STM32G4xx_HAL_Driver/Src/stm32g4xx_hal_rcc_ex.c ****   {
 410:Drivers/STM32G4xx_HAL_Driver/Src/stm32g4xx_hal_rcc_ex.c ****     assert_param(IS_RCC_RNGCLKSOURCE(PeriphClkInit->RngClockSelection));
 508              		.loc 1 410 5 is_stmt 1 view .LVU169
 411:Drivers/STM32G4xx_HAL_Driver/Src/stm32g4xx_hal_rcc_ex.c ****     __HAL_RCC_RNG_CONFIG(PeriphClkInit->RngClockSelection);
 509              		.loc 1 411 5 view .LVU170
 510 029c 354A     		ldr	r2, .L48
 511 029e D2F88830 		ldr	r3, [r2, #136]
 512 02a2 23F04063 		bic	r3, r3, #201326592
 513 02a6 216C     		ldr	r1, [r4, #64]
 514 02a8 0B43     		orrs	r3, r3, r1
 515 02aa C2F88830 		str	r3, [r2, #136]
 412:Drivers/STM32G4xx_HAL_Driver/Src/stm32g4xx_hal_rcc_ex.c **** 
 413:Drivers/STM32G4xx_HAL_Driver/Src/stm32g4xx_hal_rcc_ex.c ****     if(PeriphClkInit->RngClockSelection == RCC_RNGCLKSOURCE_PLL)
 516              		.loc 1 413 5 view .LVU171
 517              		.loc 1 413 21 is_stmt 0 view .LVU172
 518 02ae 236C     		ldr	r3, [r4, #64]
 519              		.loc 1 413 7 view .LVU173
 520 02b0 B3F1006F 		cmp	r3, #134217728
 521 02b4 49D0     		beq	.L42
 522              	.L27:
 414:Drivers/STM32G4xx_HAL_Driver/Src/stm32g4xx_hal_rcc_ex.c ****     {
 415:Drivers/STM32G4xx_HAL_Driver/Src/stm32g4xx_hal_rcc_ex.c ****       /* Enable PLL48M1CLK output */
 416:Drivers/STM32G4xx_HAL_Driver/Src/stm32g4xx_hal_rcc_ex.c ****       __HAL_RCC_PLLCLKOUT_ENABLE(RCC_PLL_48M1CLK);
 417:Drivers/STM32G4xx_HAL_Driver/Src/stm32g4xx_hal_rcc_ex.c ****     }
 418:Drivers/STM32G4xx_HAL_Driver/Src/stm32g4xx_hal_rcc_ex.c ****   }
 419:Drivers/STM32G4xx_HAL_Driver/Src/stm32g4xx_hal_rcc_ex.c **** 
 420:Drivers/STM32G4xx_HAL_Driver/Src/stm32g4xx_hal_rcc_ex.c ****   /*-------------------------- ADC12 clock source configuration ----------------------*/
 421:Drivers/STM32G4xx_HAL_Driver/Src/stm32g4xx_hal_rcc_ex.c ****   if(((PeriphClkInit->PeriphClockSelection) & RCC_PERIPHCLK_ADC12) == RCC_PERIPHCLK_ADC12)
 523              		.loc 1 421 3 is_stmt 1 view .LVU174
 524              		.loc 1 421 21 is_stmt 0 view .LVU175
 525 02b6 2368     		ldr	r3, [r4]
 526              		.loc 1 421 5 view .LVU176
 527 02b8 13F4004F 		tst	r3, #32768
 528 02bc 0CD0     		beq	.L28
 422:Drivers/STM32G4xx_HAL_Driver/Src/stm32g4xx_hal_rcc_ex.c ****   {
 423:Drivers/STM32G4xx_HAL_Driver/Src/stm32g4xx_hal_rcc_ex.c ****     /* Check the parameters */
 424:Drivers/STM32G4xx_HAL_Driver/Src/stm32g4xx_hal_rcc_ex.c ****     assert_param(IS_RCC_ADC12CLKSOURCE(PeriphClkInit->Adc12ClockSelection));
ARM GAS  C:\Users\HYDROG~1\AppData\Local\Temp\cc0rSm9d.s 			page 18


 529              		.loc 1 424 5 is_stmt 1 view .LVU177
 425:Drivers/STM32G4xx_HAL_Driver/Src/stm32g4xx_hal_rcc_ex.c **** 
 426:Drivers/STM32G4xx_HAL_Driver/Src/stm32g4xx_hal_rcc_ex.c ****     /* Configure the ADC12 interface clock source */
 427:Drivers/STM32G4xx_HAL_Driver/Src/stm32g4xx_hal_rcc_ex.c ****     __HAL_RCC_ADC12_CONFIG(PeriphClkInit->Adc12ClockSelection);
 530              		.loc 1 427 5 view .LVU178
 531 02be 2D4A     		ldr	r2, .L48
 532 02c0 D2F88830 		ldr	r3, [r2, #136]
 533 02c4 23F04053 		bic	r3, r3, #805306368
 534 02c8 616C     		ldr	r1, [r4, #68]
 535 02ca 0B43     		orrs	r3, r3, r1
 536 02cc C2F88830 		str	r3, [r2, #136]
 428:Drivers/STM32G4xx_HAL_Driver/Src/stm32g4xx_hal_rcc_ex.c ****     
 429:Drivers/STM32G4xx_HAL_Driver/Src/stm32g4xx_hal_rcc_ex.c ****     if(PeriphClkInit->Adc12ClockSelection == RCC_ADC12CLKSOURCE_PLL)
 537              		.loc 1 429 5 view .LVU179
 538              		.loc 1 429 21 is_stmt 0 view .LVU180
 539 02d0 636C     		ldr	r3, [r4, #68]
 540              		.loc 1 429 7 view .LVU181
 541 02d2 B3F1805F 		cmp	r3, #268435456
 542 02d6 3DD0     		beq	.L43
 543              	.L28:
 430:Drivers/STM32G4xx_HAL_Driver/Src/stm32g4xx_hal_rcc_ex.c ****     {
 431:Drivers/STM32G4xx_HAL_Driver/Src/stm32g4xx_hal_rcc_ex.c ****       /* Enable PLLADCCLK output */
 432:Drivers/STM32G4xx_HAL_Driver/Src/stm32g4xx_hal_rcc_ex.c ****       __HAL_RCC_PLLCLKOUT_ENABLE(RCC_PLL_ADCCLK);
 433:Drivers/STM32G4xx_HAL_Driver/Src/stm32g4xx_hal_rcc_ex.c ****     }
 434:Drivers/STM32G4xx_HAL_Driver/Src/stm32g4xx_hal_rcc_ex.c ****   }
 435:Drivers/STM32G4xx_HAL_Driver/Src/stm32g4xx_hal_rcc_ex.c ****   
 436:Drivers/STM32G4xx_HAL_Driver/Src/stm32g4xx_hal_rcc_ex.c **** #if defined(ADC345_COMMON)
 437:Drivers/STM32G4xx_HAL_Driver/Src/stm32g4xx_hal_rcc_ex.c ****   /*-------------------------- ADC345 clock source configuration ----------------------*/
 438:Drivers/STM32G4xx_HAL_Driver/Src/stm32g4xx_hal_rcc_ex.c ****   if(((PeriphClkInit->PeriphClockSelection) & RCC_PERIPHCLK_ADC345) == RCC_PERIPHCLK_ADC345)
 544              		.loc 1 438 3 is_stmt 1 view .LVU182
 545              		.loc 1 438 21 is_stmt 0 view .LVU183
 546 02d8 2368     		ldr	r3, [r4]
 547              		.loc 1 438 5 view .LVU184
 548 02da 13F4803F 		tst	r3, #65536
 549 02de 0CD0     		beq	.L29
 439:Drivers/STM32G4xx_HAL_Driver/Src/stm32g4xx_hal_rcc_ex.c ****   {
 440:Drivers/STM32G4xx_HAL_Driver/Src/stm32g4xx_hal_rcc_ex.c ****     /* Check the parameters */
 441:Drivers/STM32G4xx_HAL_Driver/Src/stm32g4xx_hal_rcc_ex.c ****     assert_param(IS_RCC_ADC345CLKSOURCE(PeriphClkInit->Adc345ClockSelection));
 550              		.loc 1 441 5 is_stmt 1 view .LVU185
 442:Drivers/STM32G4xx_HAL_Driver/Src/stm32g4xx_hal_rcc_ex.c **** 
 443:Drivers/STM32G4xx_HAL_Driver/Src/stm32g4xx_hal_rcc_ex.c ****     /* Configure the ADC345 interface clock source */
 444:Drivers/STM32G4xx_HAL_Driver/Src/stm32g4xx_hal_rcc_ex.c ****     __HAL_RCC_ADC345_CONFIG(PeriphClkInit->Adc345ClockSelection);
 551              		.loc 1 444 5 view .LVU186
 552 02e0 244A     		ldr	r2, .L48
 553 02e2 D2F88830 		ldr	r3, [r2, #136]
 554 02e6 23F04043 		bic	r3, r3, #-1073741824
 555 02ea A16C     		ldr	r1, [r4, #72]
 556 02ec 0B43     		orrs	r3, r3, r1
 557 02ee C2F88830 		str	r3, [r2, #136]
 445:Drivers/STM32G4xx_HAL_Driver/Src/stm32g4xx_hal_rcc_ex.c ****     
 446:Drivers/STM32G4xx_HAL_Driver/Src/stm32g4xx_hal_rcc_ex.c ****     if(PeriphClkInit->Adc345ClockSelection == RCC_ADC345CLKSOURCE_PLL)
 558              		.loc 1 446 5 view .LVU187
 559              		.loc 1 446 21 is_stmt 0 view .LVU188
 560 02f2 A36C     		ldr	r3, [r4, #72]
 561              		.loc 1 446 7 view .LVU189
 562 02f4 B3F1804F 		cmp	r3, #1073741824
 563 02f8 31D0     		beq	.L44
ARM GAS  C:\Users\HYDROG~1\AppData\Local\Temp\cc0rSm9d.s 			page 19


 564              	.L29:
 447:Drivers/STM32G4xx_HAL_Driver/Src/stm32g4xx_hal_rcc_ex.c ****     {
 448:Drivers/STM32G4xx_HAL_Driver/Src/stm32g4xx_hal_rcc_ex.c ****       /* Enable PLLADCCLK output */
 449:Drivers/STM32G4xx_HAL_Driver/Src/stm32g4xx_hal_rcc_ex.c ****       __HAL_RCC_PLLCLKOUT_ENABLE(RCC_PLL_ADCCLK);
 450:Drivers/STM32G4xx_HAL_Driver/Src/stm32g4xx_hal_rcc_ex.c ****     }
 451:Drivers/STM32G4xx_HAL_Driver/Src/stm32g4xx_hal_rcc_ex.c ****   }
 452:Drivers/STM32G4xx_HAL_Driver/Src/stm32g4xx_hal_rcc_ex.c **** #endif /* ADC345_COMMON */
 453:Drivers/STM32G4xx_HAL_Driver/Src/stm32g4xx_hal_rcc_ex.c **** 
 454:Drivers/STM32G4xx_HAL_Driver/Src/stm32g4xx_hal_rcc_ex.c **** #if defined(QUADSPI)
 455:Drivers/STM32G4xx_HAL_Driver/Src/stm32g4xx_hal_rcc_ex.c **** 
 456:Drivers/STM32G4xx_HAL_Driver/Src/stm32g4xx_hal_rcc_ex.c ****   /*-------------------------- QuadSPIx clock source configuration ----------------*/
 457:Drivers/STM32G4xx_HAL_Driver/Src/stm32g4xx_hal_rcc_ex.c ****   if(((PeriphClkInit->PeriphClockSelection) & RCC_PERIPHCLK_QSPI) == RCC_PERIPHCLK_QSPI)
 565              		.loc 1 457 3 is_stmt 1 view .LVU190
 566              		.loc 1 457 21 is_stmt 0 view .LVU191
 567 02fa 2368     		ldr	r3, [r4]
 568              		.loc 1 457 5 view .LVU192
 569 02fc 13F4802F 		tst	r3, #262144
 570 0300 0CD0     		beq	.L30
 458:Drivers/STM32G4xx_HAL_Driver/Src/stm32g4xx_hal_rcc_ex.c ****   {
 459:Drivers/STM32G4xx_HAL_Driver/Src/stm32g4xx_hal_rcc_ex.c ****     /* Check the parameters */
 460:Drivers/STM32G4xx_HAL_Driver/Src/stm32g4xx_hal_rcc_ex.c ****     assert_param(IS_RCC_QSPICLKSOURCE(PeriphClkInit->QspiClockSelection));
 571              		.loc 1 460 5 is_stmt 1 view .LVU193
 461:Drivers/STM32G4xx_HAL_Driver/Src/stm32g4xx_hal_rcc_ex.c **** 
 462:Drivers/STM32G4xx_HAL_Driver/Src/stm32g4xx_hal_rcc_ex.c ****     /* Configure the QuadSPI clock source */
 463:Drivers/STM32G4xx_HAL_Driver/Src/stm32g4xx_hal_rcc_ex.c ****     __HAL_RCC_QSPI_CONFIG(PeriphClkInit->QspiClockSelection);
 572              		.loc 1 463 5 view .LVU194
 573 0302 1C4A     		ldr	r2, .L48
 574 0304 D2F89C30 		ldr	r3, [r2, #156]
 575 0308 23F44013 		bic	r3, r3, #3145728
 576 030c E16C     		ldr	r1, [r4, #76]
 577 030e 0B43     		orrs	r3, r3, r1
 578 0310 C2F89C30 		str	r3, [r2, #156]
 464:Drivers/STM32G4xx_HAL_Driver/Src/stm32g4xx_hal_rcc_ex.c **** 
 465:Drivers/STM32G4xx_HAL_Driver/Src/stm32g4xx_hal_rcc_ex.c ****     if(PeriphClkInit->QspiClockSelection == RCC_QSPICLKSOURCE_PLL)
 579              		.loc 1 465 5 view .LVU195
 580              		.loc 1 465 21 is_stmt 0 view .LVU196
 581 0314 E36C     		ldr	r3, [r4, #76]
 582              		.loc 1 465 7 view .LVU197
 583 0316 B3F5001F 		cmp	r3, #2097152
 584 031a 25D0     		beq	.L45
 585              	.L30:
 466:Drivers/STM32G4xx_HAL_Driver/Src/stm32g4xx_hal_rcc_ex.c ****     {
 467:Drivers/STM32G4xx_HAL_Driver/Src/stm32g4xx_hal_rcc_ex.c ****       /* Enable PLL48M1CLK output */
 468:Drivers/STM32G4xx_HAL_Driver/Src/stm32g4xx_hal_rcc_ex.c ****       __HAL_RCC_PLLCLKOUT_ENABLE(RCC_PLL_48M1CLK);
 469:Drivers/STM32G4xx_HAL_Driver/Src/stm32g4xx_hal_rcc_ex.c ****     }
 470:Drivers/STM32G4xx_HAL_Driver/Src/stm32g4xx_hal_rcc_ex.c ****   }
 471:Drivers/STM32G4xx_HAL_Driver/Src/stm32g4xx_hal_rcc_ex.c **** 
 472:Drivers/STM32G4xx_HAL_Driver/Src/stm32g4xx_hal_rcc_ex.c **** #endif /* QUADSPI */
 473:Drivers/STM32G4xx_HAL_Driver/Src/stm32g4xx_hal_rcc_ex.c **** 
 474:Drivers/STM32G4xx_HAL_Driver/Src/stm32g4xx_hal_rcc_ex.c ****   return status;
 586              		.loc 1 474 3 is_stmt 1 view .LVU198
 475:Drivers/STM32G4xx_HAL_Driver/Src/stm32g4xx_hal_rcc_ex.c **** }
 587              		.loc 1 475 1 is_stmt 0 view .LVU199
 588 031c 2846     		mov	r0, r5
 589 031e 03B0     		add	sp, sp, #12
 590              	.LCFI2:
 591              		.cfi_remember_state
ARM GAS  C:\Users\HYDROG~1\AppData\Local\Temp\cc0rSm9d.s 			page 20


 592              		.cfi_def_cfa_offset 20
 593              		@ sp needed
 594 0320 F0BD     		pop	{r4, r5, r6, r7, pc}
 595              	.LVL25:
 596              	.L38:
 597              	.LCFI3:
 598              		.cfi_restore_state
 352:Drivers/STM32G4xx_HAL_Driver/Src/stm32g4xx_hal_rcc_ex.c ****     }
 599              		.loc 1 352 7 is_stmt 1 view .LVU200
 600 0322 D368     		ldr	r3, [r2, #12]
 601 0324 43F48013 		orr	r3, r3, #1048576
 602 0328 D360     		str	r3, [r2, #12]
 603 032a 80E7     		b	.L23
 604              	.L39:
 368:Drivers/STM32G4xx_HAL_Driver/Src/stm32g4xx_hal_rcc_ex.c ****     }
 605              		.loc 1 368 7 view .LVU201
 606 032c D368     		ldr	r3, [r2, #12]
 607 032e 43F48013 		orr	r3, r3, #1048576
 608 0332 D360     		str	r3, [r2, #12]
 609 0334 8CE7     		b	.L24
 610              	.L40:
 385:Drivers/STM32G4xx_HAL_Driver/Src/stm32g4xx_hal_rcc_ex.c ****     }
 611              		.loc 1 385 7 view .LVU202
 612 0336 D368     		ldr	r3, [r2, #12]
 613 0338 43F48013 		orr	r3, r3, #1048576
 614 033c D360     		str	r3, [r2, #12]
 615 033e 98E7     		b	.L25
 616              	.L41:
 401:Drivers/STM32G4xx_HAL_Driver/Src/stm32g4xx_hal_rcc_ex.c ****     }
 617              		.loc 1 401 7 view .LVU203
 618 0340 D368     		ldr	r3, [r2, #12]
 619 0342 43F48013 		orr	r3, r3, #1048576
 620 0346 D360     		str	r3, [r2, #12]
 621 0348 A4E7     		b	.L26
 622              	.L42:
 416:Drivers/STM32G4xx_HAL_Driver/Src/stm32g4xx_hal_rcc_ex.c ****     }
 623              		.loc 1 416 7 view .LVU204
 624 034a D368     		ldr	r3, [r2, #12]
 625 034c 43F48013 		orr	r3, r3, #1048576
 626 0350 D360     		str	r3, [r2, #12]
 627 0352 B0E7     		b	.L27
 628              	.L43:
 432:Drivers/STM32G4xx_HAL_Driver/Src/stm32g4xx_hal_rcc_ex.c ****     }
 629              		.loc 1 432 7 view .LVU205
 630 0354 D368     		ldr	r3, [r2, #12]
 631 0356 43F48033 		orr	r3, r3, #65536
 632 035a D360     		str	r3, [r2, #12]
 633 035c BCE7     		b	.L28
 634              	.L44:
 449:Drivers/STM32G4xx_HAL_Driver/Src/stm32g4xx_hal_rcc_ex.c ****     }
 635              		.loc 1 449 7 view .LVU206
 636 035e D368     		ldr	r3, [r2, #12]
 637 0360 43F48033 		orr	r3, r3, #65536
 638 0364 D360     		str	r3, [r2, #12]
 639 0366 C8E7     		b	.L29
 640              	.L45:
 468:Drivers/STM32G4xx_HAL_Driver/Src/stm32g4xx_hal_rcc_ex.c ****     }
ARM GAS  C:\Users\HYDROG~1\AppData\Local\Temp\cc0rSm9d.s 			page 21


 641              		.loc 1 468 7 view .LVU207
 642 0368 D368     		ldr	r3, [r2, #12]
 643 036a 43F48013 		orr	r3, r3, #1048576
 644 036e D360     		str	r3, [r2, #12]
 645 0370 D4E7     		b	.L30
 646              	.L49:
 647 0372 00BF     		.align	2
 648              	.L48:
 649 0374 00100240 		.word	1073876992
 650              		.cfi_endproc
 651              	.LFE329:
 653              		.section	.text.HAL_RCCEx_GetPeriphCLKConfig,"ax",%progbits
 654              		.align	1
 655              		.global	HAL_RCCEx_GetPeriphCLKConfig
 656              		.syntax unified
 657              		.thumb
 658              		.thumb_func
 660              	HAL_RCCEx_GetPeriphCLKConfig:
 661              	.LVL26:
 662              	.LFB330:
 476:Drivers/STM32G4xx_HAL_Driver/Src/stm32g4xx_hal_rcc_ex.c **** 
 477:Drivers/STM32G4xx_HAL_Driver/Src/stm32g4xx_hal_rcc_ex.c **** /**
 478:Drivers/STM32G4xx_HAL_Driver/Src/stm32g4xx_hal_rcc_ex.c ****   * @brief  Get the RCC_ClkInitStruct according to the internal RCC configuration registers.
 479:Drivers/STM32G4xx_HAL_Driver/Src/stm32g4xx_hal_rcc_ex.c ****   * @param  PeriphClkInit  pointer to an RCC_PeriphCLKInitTypeDef structure that
 480:Drivers/STM32G4xx_HAL_Driver/Src/stm32g4xx_hal_rcc_ex.c ****   *         returns the configuration information for the Extended Peripherals
 481:Drivers/STM32G4xx_HAL_Driver/Src/stm32g4xx_hal_rcc_ex.c ****   *         clocks(USART1, USART2, USART3, UART4, UART5, LPUART1, I2C1, I2C2, I2C3, I2C4,
 482:Drivers/STM32G4xx_HAL_Driver/Src/stm32g4xx_hal_rcc_ex.c ****   *         LPTIM1, SAI1, I2Sx, FDCANx, USB, RNG, ADCx, RTC, QSPI).
 483:Drivers/STM32G4xx_HAL_Driver/Src/stm32g4xx_hal_rcc_ex.c ****   * @retval None
 484:Drivers/STM32G4xx_HAL_Driver/Src/stm32g4xx_hal_rcc_ex.c ****   */
 485:Drivers/STM32G4xx_HAL_Driver/Src/stm32g4xx_hal_rcc_ex.c **** void HAL_RCCEx_GetPeriphCLKConfig(RCC_PeriphCLKInitTypeDef  *PeriphClkInit)
 486:Drivers/STM32G4xx_HAL_Driver/Src/stm32g4xx_hal_rcc_ex.c **** {
 663              		.loc 1 486 1 view -0
 664              		.cfi_startproc
 665              		@ args = 0, pretend = 0, frame = 0
 666              		@ frame_needed = 0, uses_anonymous_args = 0
 667              		@ link register save eliminated.
 487:Drivers/STM32G4xx_HAL_Driver/Src/stm32g4xx_hal_rcc_ex.c ****   /* Set all possible values for the extended clock type parameter------------*/
 488:Drivers/STM32G4xx_HAL_Driver/Src/stm32g4xx_hal_rcc_ex.c **** 
 489:Drivers/STM32G4xx_HAL_Driver/Src/stm32g4xx_hal_rcc_ex.c **** #if defined(STM32G474xx) || defined(STM32G484xx)
 490:Drivers/STM32G4xx_HAL_Driver/Src/stm32g4xx_hal_rcc_ex.c **** 
 491:Drivers/STM32G4xx_HAL_Driver/Src/stm32g4xx_hal_rcc_ex.c ****   PeriphClkInit->PeriphClockSelection = RCC_PERIPHCLK_USART1  | RCC_PERIPHCLK_USART2 | RCC_PERIPHCL
 492:Drivers/STM32G4xx_HAL_Driver/Src/stm32g4xx_hal_rcc_ex.c ****                                         RCC_PERIPHCLK_UART5   | \
 493:Drivers/STM32G4xx_HAL_Driver/Src/stm32g4xx_hal_rcc_ex.c ****                                         RCC_PERIPHCLK_LPUART1 | RCC_PERIPHCLK_I2C1   | RCC_PERIPHCL
 494:Drivers/STM32G4xx_HAL_Driver/Src/stm32g4xx_hal_rcc_ex.c ****                                         RCC_PERIPHCLK_I2C4    | \
 495:Drivers/STM32G4xx_HAL_Driver/Src/stm32g4xx_hal_rcc_ex.c ****                                         RCC_PERIPHCLK_LPTIM1  | RCC_PERIPHCLK_SAI1   | RCC_PERIPHCL
 496:Drivers/STM32G4xx_HAL_Driver/Src/stm32g4xx_hal_rcc_ex.c ****                                         RCC_PERIPHCLK_RNG     | RCC_PERIPHCLK_USB    | RCC_PERIPHCL
 497:Drivers/STM32G4xx_HAL_Driver/Src/stm32g4xx_hal_rcc_ex.c ****                                         RCC_PERIPHCLK_QSPI    | \
 498:Drivers/STM32G4xx_HAL_Driver/Src/stm32g4xx_hal_rcc_ex.c ****                                         RCC_PERIPHCLK_RTC;
 499:Drivers/STM32G4xx_HAL_Driver/Src/stm32g4xx_hal_rcc_ex.c **** #elif defined(STM32G491xx) || defined(STM32G4A1xx)
 500:Drivers/STM32G4xx_HAL_Driver/Src/stm32g4xx_hal_rcc_ex.c **** 
 501:Drivers/STM32G4xx_HAL_Driver/Src/stm32g4xx_hal_rcc_ex.c ****   PeriphClkInit->PeriphClockSelection = RCC_PERIPHCLK_USART1  | RCC_PERIPHCLK_USART2 | RCC_PERIPHCL
 502:Drivers/STM32G4xx_HAL_Driver/Src/stm32g4xx_hal_rcc_ex.c ****                                         RCC_PERIPHCLK_UART5   | \
 503:Drivers/STM32G4xx_HAL_Driver/Src/stm32g4xx_hal_rcc_ex.c ****                                         RCC_PERIPHCLK_LPUART1 | RCC_PERIPHCLK_I2C1   | RCC_PERIPHCL
 504:Drivers/STM32G4xx_HAL_Driver/Src/stm32g4xx_hal_rcc_ex.c ****                                         RCC_PERIPHCLK_LPTIM1  | RCC_PERIPHCLK_SAI1   | RCC_PERIPHCL
 505:Drivers/STM32G4xx_HAL_Driver/Src/stm32g4xx_hal_rcc_ex.c ****                                         RCC_PERIPHCLK_RNG     | RCC_PERIPHCLK_USB    | RCC_PERIPHCL
 506:Drivers/STM32G4xx_HAL_Driver/Src/stm32g4xx_hal_rcc_ex.c ****                                         RCC_PERIPHCLK_QSPI    | \
 507:Drivers/STM32G4xx_HAL_Driver/Src/stm32g4xx_hal_rcc_ex.c ****                                         RCC_PERIPHCLK_RTC;
ARM GAS  C:\Users\HYDROG~1\AppData\Local\Temp\cc0rSm9d.s 			page 22


 508:Drivers/STM32G4xx_HAL_Driver/Src/stm32g4xx_hal_rcc_ex.c **** 
 509:Drivers/STM32G4xx_HAL_Driver/Src/stm32g4xx_hal_rcc_ex.c **** #elif defined(STM32G473xx) || defined(STM32G483xx)
 510:Drivers/STM32G4xx_HAL_Driver/Src/stm32g4xx_hal_rcc_ex.c **** 
 511:Drivers/STM32G4xx_HAL_Driver/Src/stm32g4xx_hal_rcc_ex.c ****   PeriphClkInit->PeriphClockSelection = RCC_PERIPHCLK_USART1  | RCC_PERIPHCLK_USART2 | RCC_PERIPHCL
 668              		.loc 1 511 3 view .LVU209
 669              		.loc 1 511 39 is_stmt 0 view .LVU210
 670 0000 334B     		ldr	r3, .L51
 671 0002 0360     		str	r3, [r0]
 512:Drivers/STM32G4xx_HAL_Driver/Src/stm32g4xx_hal_rcc_ex.c ****                                         RCC_PERIPHCLK_UART5   | \
 513:Drivers/STM32G4xx_HAL_Driver/Src/stm32g4xx_hal_rcc_ex.c ****                                         RCC_PERIPHCLK_LPUART1 | RCC_PERIPHCLK_I2C1   | RCC_PERIPHCL
 514:Drivers/STM32G4xx_HAL_Driver/Src/stm32g4xx_hal_rcc_ex.c ****                                         RCC_PERIPHCLK_I2C4    | \
 515:Drivers/STM32G4xx_HAL_Driver/Src/stm32g4xx_hal_rcc_ex.c ****                                         RCC_PERIPHCLK_LPTIM1  | RCC_PERIPHCLK_SAI1   | RCC_PERIPHCL
 516:Drivers/STM32G4xx_HAL_Driver/Src/stm32g4xx_hal_rcc_ex.c ****                                         RCC_PERIPHCLK_RNG     | RCC_PERIPHCLK_USB    | RCC_PERIPHCL
 517:Drivers/STM32G4xx_HAL_Driver/Src/stm32g4xx_hal_rcc_ex.c ****                                         RCC_PERIPHCLK_QSPI    | \
 518:Drivers/STM32G4xx_HAL_Driver/Src/stm32g4xx_hal_rcc_ex.c ****                                         RCC_PERIPHCLK_RTC;
 519:Drivers/STM32G4xx_HAL_Driver/Src/stm32g4xx_hal_rcc_ex.c **** 
 520:Drivers/STM32G4xx_HAL_Driver/Src/stm32g4xx_hal_rcc_ex.c **** #elif defined(STM32G471xx)
 521:Drivers/STM32G4xx_HAL_Driver/Src/stm32g4xx_hal_rcc_ex.c **** 
 522:Drivers/STM32G4xx_HAL_Driver/Src/stm32g4xx_hal_rcc_ex.c ****   PeriphClkInit->PeriphClockSelection = RCC_PERIPHCLK_USART1  | RCC_PERIPHCLK_USART2 | RCC_PERIPHCL
 523:Drivers/STM32G4xx_HAL_Driver/Src/stm32g4xx_hal_rcc_ex.c ****                                         RCC_PERIPHCLK_UART5   | \
 524:Drivers/STM32G4xx_HAL_Driver/Src/stm32g4xx_hal_rcc_ex.c ****                                         RCC_PERIPHCLK_LPUART1 | RCC_PERIPHCLK_I2C1   | RCC_PERIPHCL
 525:Drivers/STM32G4xx_HAL_Driver/Src/stm32g4xx_hal_rcc_ex.c ****                                         RCC_PERIPHCLK_I2C4    | \
 526:Drivers/STM32G4xx_HAL_Driver/Src/stm32g4xx_hal_rcc_ex.c ****                                         RCC_PERIPHCLK_LPTIM1  | RCC_PERIPHCLK_SAI1   | RCC_PERIPHCL
 527:Drivers/STM32G4xx_HAL_Driver/Src/stm32g4xx_hal_rcc_ex.c ****                                         RCC_PERIPHCLK_RNG     | RCC_PERIPHCLK_USB    | RCC_PERIPHCL
 528:Drivers/STM32G4xx_HAL_Driver/Src/stm32g4xx_hal_rcc_ex.c ****                                         RCC_PERIPHCLK_RTC;
 529:Drivers/STM32G4xx_HAL_Driver/Src/stm32g4xx_hal_rcc_ex.c **** #elif defined(STM32G431xx) || defined(STM32G441xx)
 530:Drivers/STM32G4xx_HAL_Driver/Src/stm32g4xx_hal_rcc_ex.c **** 
 531:Drivers/STM32G4xx_HAL_Driver/Src/stm32g4xx_hal_rcc_ex.c ****   PeriphClkInit->PeriphClockSelection = RCC_PERIPHCLK_USART1  | RCC_PERIPHCLK_USART2 | RCC_PERIPHCL
 532:Drivers/STM32G4xx_HAL_Driver/Src/stm32g4xx_hal_rcc_ex.c ****                                         RCC_PERIPHCLK_LPUART1 | RCC_PERIPHCLK_I2C1   | RCC_PERIPHCL
 533:Drivers/STM32G4xx_HAL_Driver/Src/stm32g4xx_hal_rcc_ex.c ****                                         RCC_PERIPHCLK_LPTIM1  | RCC_PERIPHCLK_SAI1   | RCC_PERIPHCL
 534:Drivers/STM32G4xx_HAL_Driver/Src/stm32g4xx_hal_rcc_ex.c ****                                         RCC_PERIPHCLK_RNG     | RCC_PERIPHCLK_USB    | RCC_PERIPHCL
 535:Drivers/STM32G4xx_HAL_Driver/Src/stm32g4xx_hal_rcc_ex.c ****                                         RCC_PERIPHCLK_RTC;
 536:Drivers/STM32G4xx_HAL_Driver/Src/stm32g4xx_hal_rcc_ex.c **** #elif defined(STM32GBK1CB)
 537:Drivers/STM32G4xx_HAL_Driver/Src/stm32g4xx_hal_rcc_ex.c **** 
 538:Drivers/STM32G4xx_HAL_Driver/Src/stm32g4xx_hal_rcc_ex.c ****   PeriphClkInit->PeriphClockSelection = RCC_PERIPHCLK_USART1  | RCC_PERIPHCLK_USART2 | RCC_PERIPHCL
 539:Drivers/STM32G4xx_HAL_Driver/Src/stm32g4xx_hal_rcc_ex.c ****                                         RCC_PERIPHCLK_LPUART1 | RCC_PERIPHCLK_I2C1   | RCC_PERIPHCL
 540:Drivers/STM32G4xx_HAL_Driver/Src/stm32g4xx_hal_rcc_ex.c ****                                         RCC_PERIPHCLK_LPTIM1  | RCC_PERIPHCLK_SAI1   | RCC_PERIPHCL
 541:Drivers/STM32G4xx_HAL_Driver/Src/stm32g4xx_hal_rcc_ex.c ****                                         RCC_PERIPHCLK_RNG     | RCC_PERIPHCLK_USB    | RCC_PERIPHCL
 542:Drivers/STM32G4xx_HAL_Driver/Src/stm32g4xx_hal_rcc_ex.c ****                                         RCC_PERIPHCLK_RTC;
 543:Drivers/STM32G4xx_HAL_Driver/Src/stm32g4xx_hal_rcc_ex.c **** 
 544:Drivers/STM32G4xx_HAL_Driver/Src/stm32g4xx_hal_rcc_ex.c **** #endif /* STM32G431xx */
 545:Drivers/STM32G4xx_HAL_Driver/Src/stm32g4xx_hal_rcc_ex.c **** 
 546:Drivers/STM32G4xx_HAL_Driver/Src/stm32g4xx_hal_rcc_ex.c **** 
 547:Drivers/STM32G4xx_HAL_Driver/Src/stm32g4xx_hal_rcc_ex.c ****   /* Get the USART1 clock source ---------------------------------------------*/
 548:Drivers/STM32G4xx_HAL_Driver/Src/stm32g4xx_hal_rcc_ex.c ****   PeriphClkInit->Usart1ClockSelection  = __HAL_RCC_GET_USART1_SOURCE();
 672              		.loc 1 548 3 is_stmt 1 view .LVU211
 673              		.loc 1 548 42 is_stmt 0 view .LVU212
 674 0004 334B     		ldr	r3, .L51+4
 675 0006 D3F88820 		ldr	r2, [r3, #136]
 676 000a 02F00302 		and	r2, r2, #3
 677              		.loc 1 548 40 view .LVU213
 678 000e 4260     		str	r2, [r0, #4]
 549:Drivers/STM32G4xx_HAL_Driver/Src/stm32g4xx_hal_rcc_ex.c ****   /* Get the USART2 clock source ---------------------------------------------*/
 550:Drivers/STM32G4xx_HAL_Driver/Src/stm32g4xx_hal_rcc_ex.c ****   PeriphClkInit->Usart2ClockSelection  = __HAL_RCC_GET_USART2_SOURCE();
 679              		.loc 1 550 3 is_stmt 1 view .LVU214
 680              		.loc 1 550 42 is_stmt 0 view .LVU215
 681 0010 D3F88820 		ldr	r2, [r3, #136]
ARM GAS  C:\Users\HYDROG~1\AppData\Local\Temp\cc0rSm9d.s 			page 23


 682 0014 02F00C02 		and	r2, r2, #12
 683              		.loc 1 550 40 view .LVU216
 684 0018 8260     		str	r2, [r0, #8]
 551:Drivers/STM32G4xx_HAL_Driver/Src/stm32g4xx_hal_rcc_ex.c ****   /* Get the USART3 clock source ---------------------------------------------*/
 552:Drivers/STM32G4xx_HAL_Driver/Src/stm32g4xx_hal_rcc_ex.c ****   PeriphClkInit->Usart3ClockSelection  = __HAL_RCC_GET_USART3_SOURCE();
 685              		.loc 1 552 3 is_stmt 1 view .LVU217
 686              		.loc 1 552 42 is_stmt 0 view .LVU218
 687 001a D3F88820 		ldr	r2, [r3, #136]
 688 001e 02F03002 		and	r2, r2, #48
 689              		.loc 1 552 40 view .LVU219
 690 0022 C260     		str	r2, [r0, #12]
 553:Drivers/STM32G4xx_HAL_Driver/Src/stm32g4xx_hal_rcc_ex.c **** 
 554:Drivers/STM32G4xx_HAL_Driver/Src/stm32g4xx_hal_rcc_ex.c **** #if defined(UART4)
 555:Drivers/STM32G4xx_HAL_Driver/Src/stm32g4xx_hal_rcc_ex.c ****   /* Get the UART4 clock source ----------------------------------------------*/
 556:Drivers/STM32G4xx_HAL_Driver/Src/stm32g4xx_hal_rcc_ex.c ****   PeriphClkInit->Uart4ClockSelection   = __HAL_RCC_GET_UART4_SOURCE();
 691              		.loc 1 556 3 is_stmt 1 view .LVU220
 692              		.loc 1 556 42 is_stmt 0 view .LVU221
 693 0024 D3F88820 		ldr	r2, [r3, #136]
 694 0028 02F0C002 		and	r2, r2, #192
 695              		.loc 1 556 40 view .LVU222
 696 002c 0261     		str	r2, [r0, #16]
 557:Drivers/STM32G4xx_HAL_Driver/Src/stm32g4xx_hal_rcc_ex.c **** #endif /* UART4 */
 558:Drivers/STM32G4xx_HAL_Driver/Src/stm32g4xx_hal_rcc_ex.c **** 
 559:Drivers/STM32G4xx_HAL_Driver/Src/stm32g4xx_hal_rcc_ex.c **** #if defined(UART5)
 560:Drivers/STM32G4xx_HAL_Driver/Src/stm32g4xx_hal_rcc_ex.c ****   /* Get the UART5 clock source ----------------------------------------------*/
 561:Drivers/STM32G4xx_HAL_Driver/Src/stm32g4xx_hal_rcc_ex.c ****   PeriphClkInit->Uart5ClockSelection   = __HAL_RCC_GET_UART5_SOURCE();
 697              		.loc 1 561 3 is_stmt 1 view .LVU223
 698              		.loc 1 561 42 is_stmt 0 view .LVU224
 699 002e D3F88820 		ldr	r2, [r3, #136]
 700 0032 02F44072 		and	r2, r2, #768
 701              		.loc 1 561 40 view .LVU225
 702 0036 4261     		str	r2, [r0, #20]
 562:Drivers/STM32G4xx_HAL_Driver/Src/stm32g4xx_hal_rcc_ex.c **** #endif /* UART5 */
 563:Drivers/STM32G4xx_HAL_Driver/Src/stm32g4xx_hal_rcc_ex.c ****   
 564:Drivers/STM32G4xx_HAL_Driver/Src/stm32g4xx_hal_rcc_ex.c ****   /* Get the LPUART1 clock source --------------------------------------------*/
 565:Drivers/STM32G4xx_HAL_Driver/Src/stm32g4xx_hal_rcc_ex.c ****   PeriphClkInit->Lpuart1ClockSelection = __HAL_RCC_GET_LPUART1_SOURCE();
 703              		.loc 1 565 3 is_stmt 1 view .LVU226
 704              		.loc 1 565 42 is_stmt 0 view .LVU227
 705 0038 D3F88820 		ldr	r2, [r3, #136]
 706 003c 02F44062 		and	r2, r2, #3072
 707              		.loc 1 565 40 view .LVU228
 708 0040 8261     		str	r2, [r0, #24]
 566:Drivers/STM32G4xx_HAL_Driver/Src/stm32g4xx_hal_rcc_ex.c **** 
 567:Drivers/STM32G4xx_HAL_Driver/Src/stm32g4xx_hal_rcc_ex.c ****   /* Get the I2C1 clock source -----------------------------------------------*/
 568:Drivers/STM32G4xx_HAL_Driver/Src/stm32g4xx_hal_rcc_ex.c ****   PeriphClkInit->I2c1ClockSelection    = __HAL_RCC_GET_I2C1_SOURCE();
 709              		.loc 1 568 3 is_stmt 1 view .LVU229
 710              		.loc 1 568 42 is_stmt 0 view .LVU230
 711 0042 D3F88820 		ldr	r2, [r3, #136]
 712 0046 02F44052 		and	r2, r2, #12288
 713              		.loc 1 568 40 view .LVU231
 714 004a C261     		str	r2, [r0, #28]
 569:Drivers/STM32G4xx_HAL_Driver/Src/stm32g4xx_hal_rcc_ex.c **** 
 570:Drivers/STM32G4xx_HAL_Driver/Src/stm32g4xx_hal_rcc_ex.c ****   /* Get the I2C2 clock source ----------------------------------------------*/
 571:Drivers/STM32G4xx_HAL_Driver/Src/stm32g4xx_hal_rcc_ex.c ****   PeriphClkInit->I2c2ClockSelection    = __HAL_RCC_GET_I2C2_SOURCE();
 715              		.loc 1 571 3 is_stmt 1 view .LVU232
 716              		.loc 1 571 42 is_stmt 0 view .LVU233
 717 004c D3F88820 		ldr	r2, [r3, #136]
ARM GAS  C:\Users\HYDROG~1\AppData\Local\Temp\cc0rSm9d.s 			page 24


 718 0050 02F44042 		and	r2, r2, #49152
 719              		.loc 1 571 40 view .LVU234
 720 0054 0262     		str	r2, [r0, #32]
 572:Drivers/STM32G4xx_HAL_Driver/Src/stm32g4xx_hal_rcc_ex.c **** 
 573:Drivers/STM32G4xx_HAL_Driver/Src/stm32g4xx_hal_rcc_ex.c ****   /* Get the I2C3 clock source -----------------------------------------------*/
 574:Drivers/STM32G4xx_HAL_Driver/Src/stm32g4xx_hal_rcc_ex.c ****   PeriphClkInit->I2c3ClockSelection    = __HAL_RCC_GET_I2C3_SOURCE();
 721              		.loc 1 574 3 is_stmt 1 view .LVU235
 722              		.loc 1 574 42 is_stmt 0 view .LVU236
 723 0056 D3F88820 		ldr	r2, [r3, #136]
 724 005a 02F44032 		and	r2, r2, #196608
 725              		.loc 1 574 40 view .LVU237
 726 005e 4262     		str	r2, [r0, #36]
 575:Drivers/STM32G4xx_HAL_Driver/Src/stm32g4xx_hal_rcc_ex.c **** 
 576:Drivers/STM32G4xx_HAL_Driver/Src/stm32g4xx_hal_rcc_ex.c **** #if defined(I2C4)
 577:Drivers/STM32G4xx_HAL_Driver/Src/stm32g4xx_hal_rcc_ex.c ****   /* Get the I2C4 clock source -----------------------------------------------*/
 578:Drivers/STM32G4xx_HAL_Driver/Src/stm32g4xx_hal_rcc_ex.c ****   PeriphClkInit->I2c4ClockSelection    = __HAL_RCC_GET_I2C4_SOURCE();
 727              		.loc 1 578 3 is_stmt 1 view .LVU238
 728              		.loc 1 578 42 is_stmt 0 view .LVU239
 729 0060 D3F89C20 		ldr	r2, [r3, #156]
 730 0064 02F00302 		and	r2, r2, #3
 731              		.loc 1 578 40 view .LVU240
 732 0068 8262     		str	r2, [r0, #40]
 579:Drivers/STM32G4xx_HAL_Driver/Src/stm32g4xx_hal_rcc_ex.c **** #endif /* I2C4 */
 580:Drivers/STM32G4xx_HAL_Driver/Src/stm32g4xx_hal_rcc_ex.c **** 
 581:Drivers/STM32G4xx_HAL_Driver/Src/stm32g4xx_hal_rcc_ex.c ****   /* Get the LPTIM1 clock source ---------------------------------------------*/
 582:Drivers/STM32G4xx_HAL_Driver/Src/stm32g4xx_hal_rcc_ex.c ****   PeriphClkInit->Lptim1ClockSelection  = __HAL_RCC_GET_LPTIM1_SOURCE();
 733              		.loc 1 582 3 is_stmt 1 view .LVU241
 734              		.loc 1 582 42 is_stmt 0 view .LVU242
 735 006a D3F88820 		ldr	r2, [r3, #136]
 736 006e 02F44022 		and	r2, r2, #786432
 737              		.loc 1 582 40 view .LVU243
 738 0072 C262     		str	r2, [r0, #44]
 583:Drivers/STM32G4xx_HAL_Driver/Src/stm32g4xx_hal_rcc_ex.c **** 
 584:Drivers/STM32G4xx_HAL_Driver/Src/stm32g4xx_hal_rcc_ex.c ****   /* Get the SAI1 clock source -----------------------------------------------*/
 585:Drivers/STM32G4xx_HAL_Driver/Src/stm32g4xx_hal_rcc_ex.c ****   PeriphClkInit->Sai1ClockSelection    = __HAL_RCC_GET_SAI1_SOURCE();
 739              		.loc 1 585 3 is_stmt 1 view .LVU244
 740              		.loc 1 585 42 is_stmt 0 view .LVU245
 741 0074 D3F88820 		ldr	r2, [r3, #136]
 742 0078 02F44012 		and	r2, r2, #3145728
 743              		.loc 1 585 40 view .LVU246
 744 007c 0263     		str	r2, [r0, #48]
 586:Drivers/STM32G4xx_HAL_Driver/Src/stm32g4xx_hal_rcc_ex.c **** 
 587:Drivers/STM32G4xx_HAL_Driver/Src/stm32g4xx_hal_rcc_ex.c ****   /* Get the I2S clock source -----------------------------------------------*/
 588:Drivers/STM32G4xx_HAL_Driver/Src/stm32g4xx_hal_rcc_ex.c ****   PeriphClkInit->I2sClockSelection    = __HAL_RCC_GET_I2S_SOURCE();
 745              		.loc 1 588 3 is_stmt 1 view .LVU247
 746              		.loc 1 588 41 is_stmt 0 view .LVU248
 747 007e D3F88820 		ldr	r2, [r3, #136]
 748 0082 02F44002 		and	r2, r2, #12582912
 749              		.loc 1 588 39 view .LVU249
 750 0086 4263     		str	r2, [r0, #52]
 589:Drivers/STM32G4xx_HAL_Driver/Src/stm32g4xx_hal_rcc_ex.c **** 
 590:Drivers/STM32G4xx_HAL_Driver/Src/stm32g4xx_hal_rcc_ex.c **** #if defined(FDCAN1)
 591:Drivers/STM32G4xx_HAL_Driver/Src/stm32g4xx_hal_rcc_ex.c ****   /* Get the FDCAN clock source -----------------------------------------------*/
 592:Drivers/STM32G4xx_HAL_Driver/Src/stm32g4xx_hal_rcc_ex.c ****   PeriphClkInit->FdcanClockSelection    = __HAL_RCC_GET_FDCAN_SOURCE();
 751              		.loc 1 592 3 is_stmt 1 view .LVU250
 752              		.loc 1 592 43 is_stmt 0 view .LVU251
 753 0088 D3F88820 		ldr	r2, [r3, #136]
ARM GAS  C:\Users\HYDROG~1\AppData\Local\Temp\cc0rSm9d.s 			page 25


 754 008c 02F04072 		and	r2, r2, #50331648
 755              		.loc 1 592 41 view .LVU252
 756 0090 8263     		str	r2, [r0, #56]
 593:Drivers/STM32G4xx_HAL_Driver/Src/stm32g4xx_hal_rcc_ex.c **** #endif /* FDCAN1 */
 594:Drivers/STM32G4xx_HAL_Driver/Src/stm32g4xx_hal_rcc_ex.c **** 
 595:Drivers/STM32G4xx_HAL_Driver/Src/stm32g4xx_hal_rcc_ex.c **** #if defined(USB)
 596:Drivers/STM32G4xx_HAL_Driver/Src/stm32g4xx_hal_rcc_ex.c ****   /* Get the USB clock source ------------------------------------------------*/
 597:Drivers/STM32G4xx_HAL_Driver/Src/stm32g4xx_hal_rcc_ex.c ****   PeriphClkInit->UsbClockSelection   = __HAL_RCC_GET_USB_SOURCE();
 757              		.loc 1 597 3 is_stmt 1 view .LVU253
 758              		.loc 1 597 40 is_stmt 0 view .LVU254
 759 0092 D3F88820 		ldr	r2, [r3, #136]
 760 0096 02F04062 		and	r2, r2, #201326592
 761              		.loc 1 597 38 view .LVU255
 762 009a C263     		str	r2, [r0, #60]
 598:Drivers/STM32G4xx_HAL_Driver/Src/stm32g4xx_hal_rcc_ex.c **** #endif /* USB */
 599:Drivers/STM32G4xx_HAL_Driver/Src/stm32g4xx_hal_rcc_ex.c **** 
 600:Drivers/STM32G4xx_HAL_Driver/Src/stm32g4xx_hal_rcc_ex.c ****   /* Get the RNG clock source ------------------------------------------------*/
 601:Drivers/STM32G4xx_HAL_Driver/Src/stm32g4xx_hal_rcc_ex.c ****   PeriphClkInit->RngClockSelection   = __HAL_RCC_GET_RNG_SOURCE();
 763              		.loc 1 601 3 is_stmt 1 view .LVU256
 764              		.loc 1 601 40 is_stmt 0 view .LVU257
 765 009c D3F88820 		ldr	r2, [r3, #136]
 766 00a0 02F04062 		and	r2, r2, #201326592
 767              		.loc 1 601 38 view .LVU258
 768 00a4 0264     		str	r2, [r0, #64]
 602:Drivers/STM32G4xx_HAL_Driver/Src/stm32g4xx_hal_rcc_ex.c **** 
 603:Drivers/STM32G4xx_HAL_Driver/Src/stm32g4xx_hal_rcc_ex.c ****   /* Get the ADC12 clock source -----------------------------------------------*/
 604:Drivers/STM32G4xx_HAL_Driver/Src/stm32g4xx_hal_rcc_ex.c ****   PeriphClkInit->Adc12ClockSelection     = __HAL_RCC_GET_ADC12_SOURCE();
 769              		.loc 1 604 3 is_stmt 1 view .LVU259
 770              		.loc 1 604 44 is_stmt 0 view .LVU260
 771 00a6 D3F88820 		ldr	r2, [r3, #136]
 772 00aa 02F04052 		and	r2, r2, #805306368
 773              		.loc 1 604 42 view .LVU261
 774 00ae 4264     		str	r2, [r0, #68]
 605:Drivers/STM32G4xx_HAL_Driver/Src/stm32g4xx_hal_rcc_ex.c **** 
 606:Drivers/STM32G4xx_HAL_Driver/Src/stm32g4xx_hal_rcc_ex.c **** #if defined(ADC345_COMMON)
 607:Drivers/STM32G4xx_HAL_Driver/Src/stm32g4xx_hal_rcc_ex.c ****   /* Get the ADC345 clock source ----------------------------------------------*/
 608:Drivers/STM32G4xx_HAL_Driver/Src/stm32g4xx_hal_rcc_ex.c ****   PeriphClkInit->Adc345ClockSelection     = __HAL_RCC_GET_ADC345_SOURCE();
 775              		.loc 1 608 3 is_stmt 1 view .LVU262
 776              		.loc 1 608 45 is_stmt 0 view .LVU263
 777 00b0 D3F88820 		ldr	r2, [r3, #136]
 778 00b4 02F04042 		and	r2, r2, #-1073741824
 779              		.loc 1 608 43 view .LVU264
 780 00b8 8264     		str	r2, [r0, #72]
 609:Drivers/STM32G4xx_HAL_Driver/Src/stm32g4xx_hal_rcc_ex.c **** #endif /* ADC345_COMMON */
 610:Drivers/STM32G4xx_HAL_Driver/Src/stm32g4xx_hal_rcc_ex.c **** 
 611:Drivers/STM32G4xx_HAL_Driver/Src/stm32g4xx_hal_rcc_ex.c **** #if defined(QUADSPI)
 612:Drivers/STM32G4xx_HAL_Driver/Src/stm32g4xx_hal_rcc_ex.c ****   /* Get the QuadSPIclock source --------------------------------------------*/
 613:Drivers/STM32G4xx_HAL_Driver/Src/stm32g4xx_hal_rcc_ex.c ****   PeriphClkInit->QspiClockSelection = __HAL_RCC_GET_QSPI_SOURCE();
 781              		.loc 1 613 3 is_stmt 1 view .LVU265
 782              		.loc 1 613 39 is_stmt 0 view .LVU266
 783 00ba D3F89C20 		ldr	r2, [r3, #156]
 784 00be 02F44012 		and	r2, r2, #3145728
 785              		.loc 1 613 37 view .LVU267
 786 00c2 C264     		str	r2, [r0, #76]
 614:Drivers/STM32G4xx_HAL_Driver/Src/stm32g4xx_hal_rcc_ex.c **** #endif /* QUADSPI */
 615:Drivers/STM32G4xx_HAL_Driver/Src/stm32g4xx_hal_rcc_ex.c **** 
 616:Drivers/STM32G4xx_HAL_Driver/Src/stm32g4xx_hal_rcc_ex.c ****   /* Get the RTC clock source ------------------------------------------------*/
ARM GAS  C:\Users\HYDROG~1\AppData\Local\Temp\cc0rSm9d.s 			page 26


 617:Drivers/STM32G4xx_HAL_Driver/Src/stm32g4xx_hal_rcc_ex.c ****   PeriphClkInit->RTCClockSelection     = __HAL_RCC_GET_RTC_SOURCE();
 787              		.loc 1 617 3 is_stmt 1 view .LVU268
 788              		.loc 1 617 42 is_stmt 0 view .LVU269
 789 00c4 D3F89030 		ldr	r3, [r3, #144]
 790 00c8 03F44073 		and	r3, r3, #768
 791              		.loc 1 617 40 view .LVU270
 792 00cc 0365     		str	r3, [r0, #80]
 618:Drivers/STM32G4xx_HAL_Driver/Src/stm32g4xx_hal_rcc_ex.c **** 
 619:Drivers/STM32G4xx_HAL_Driver/Src/stm32g4xx_hal_rcc_ex.c **** }
 793              		.loc 1 619 1 view .LVU271
 794 00ce 7047     		bx	lr
 795              	.L52:
 796              		.align	2
 797              	.L51:
 798 00d0 FFEF0F00 		.word	1044479
 799 00d4 00100240 		.word	1073876992
 800              		.cfi_endproc
 801              	.LFE330:
 803              		.section	.text.HAL_RCCEx_GetPeriphCLKFreq,"ax",%progbits
 804              		.align	1
 805              		.global	HAL_RCCEx_GetPeriphCLKFreq
 806              		.syntax unified
 807              		.thumb
 808              		.thumb_func
 810              	HAL_RCCEx_GetPeriphCLKFreq:
 811              	.LVL27:
 812              	.LFB331:
 620:Drivers/STM32G4xx_HAL_Driver/Src/stm32g4xx_hal_rcc_ex.c **** 
 621:Drivers/STM32G4xx_HAL_Driver/Src/stm32g4xx_hal_rcc_ex.c **** /**
 622:Drivers/STM32G4xx_HAL_Driver/Src/stm32g4xx_hal_rcc_ex.c ****   * @brief  Return the peripheral clock frequency for peripherals with clock source from PLL
 623:Drivers/STM32G4xx_HAL_Driver/Src/stm32g4xx_hal_rcc_ex.c ****   * @note   Return 0 if peripheral clock identifier not managed by this API
 624:Drivers/STM32G4xx_HAL_Driver/Src/stm32g4xx_hal_rcc_ex.c ****   * @param  PeriphClk  Peripheral clock identifier
 625:Drivers/STM32G4xx_HAL_Driver/Src/stm32g4xx_hal_rcc_ex.c ****   *         This parameter can be one of the following values:
 626:Drivers/STM32G4xx_HAL_Driver/Src/stm32g4xx_hal_rcc_ex.c ****   *            @arg @ref RCC_PERIPHCLK_USART1  USART1 peripheral clock
 627:Drivers/STM32G4xx_HAL_Driver/Src/stm32g4xx_hal_rcc_ex.c ****   *            @arg @ref RCC_PERIPHCLK_USART2  USART2 peripheral clock
 628:Drivers/STM32G4xx_HAL_Driver/Src/stm32g4xx_hal_rcc_ex.c ****   *            @arg @ref RCC_PERIPHCLK_USART3  USART3 peripheral clock
 629:Drivers/STM32G4xx_HAL_Driver/Src/stm32g4xx_hal_rcc_ex.c ****   *            @arg @ref RCC_PERIPHCLK_UART4  UART4 peripheral clock (only for devices with UART4)
 630:Drivers/STM32G4xx_HAL_Driver/Src/stm32g4xx_hal_rcc_ex.c ****   *            @arg @ref RCC_PERIPHCLK_UART5  UART5 peripheral clock (only for devices with UART5)
 631:Drivers/STM32G4xx_HAL_Driver/Src/stm32g4xx_hal_rcc_ex.c ****   *            @arg @ref RCC_PERIPHCLK_LPUART1  LPUART1 peripheral clock
 632:Drivers/STM32G4xx_HAL_Driver/Src/stm32g4xx_hal_rcc_ex.c ****   *            @arg @ref RCC_PERIPHCLK_I2C1  I2C1 peripheral clock
 633:Drivers/STM32G4xx_HAL_Driver/Src/stm32g4xx_hal_rcc_ex.c ****   *            @arg @ref RCC_PERIPHCLK_I2C2  I2C2 peripheral clock
 634:Drivers/STM32G4xx_HAL_Driver/Src/stm32g4xx_hal_rcc_ex.c ****   *            @arg @ref RCC_PERIPHCLK_I2C3  I2C3 peripheral clock
 635:Drivers/STM32G4xx_HAL_Driver/Src/stm32g4xx_hal_rcc_ex.c ****   *            @arg @ref RCC_PERIPHCLK_I2C4  I2C4 peripheral clock (only for devices with I2C4)
 636:Drivers/STM32G4xx_HAL_Driver/Src/stm32g4xx_hal_rcc_ex.c ****   *            @arg @ref RCC_PERIPHCLK_LPTIM1  LPTIM1 peripheral clock
 637:Drivers/STM32G4xx_HAL_Driver/Src/stm32g4xx_hal_rcc_ex.c ****   *            @arg @ref RCC_PERIPHCLK_SAI1  SAI1 peripheral clock
 638:Drivers/STM32G4xx_HAL_Driver/Src/stm32g4xx_hal_rcc_ex.c ****   *            @arg @ref RCC_PERIPHCLK_I2S  SPI peripheral clock
 639:Drivers/STM32G4xx_HAL_Driver/Src/stm32g4xx_hal_rcc_ex.c ****   *            @arg @ref RCC_PERIPHCLK_FDCAN  FDCAN peripheral clock (only for devices with FDCAN)
 640:Drivers/STM32G4xx_HAL_Driver/Src/stm32g4xx_hal_rcc_ex.c ****   *            @arg @ref RCC_PERIPHCLK_RNG  RNG peripheral clock
 641:Drivers/STM32G4xx_HAL_Driver/Src/stm32g4xx_hal_rcc_ex.c ****   *            @arg @ref RCC_PERIPHCLK_USB  USB peripheral clock (only for devices with USB)
 642:Drivers/STM32G4xx_HAL_Driver/Src/stm32g4xx_hal_rcc_ex.c ****   *            @arg @ref RCC_PERIPHCLK_ADC12  ADC1 and ADC2 peripheral clock
 643:Drivers/STM32G4xx_HAL_Driver/Src/stm32g4xx_hal_rcc_ex.c ****   *            @arg @ref RCC_PERIPHCLK_ADC345  ADC3, ADC4 and ADC5 peripheral clock (only for devic
 644:Drivers/STM32G4xx_HAL_Driver/Src/stm32g4xx_hal_rcc_ex.c ****   *            @arg @ref RCC_PERIPHCLK_QSPI  QSPI peripheral clock (only for devices with QSPI)
 645:Drivers/STM32G4xx_HAL_Driver/Src/stm32g4xx_hal_rcc_ex.c ****   *            @arg @ref RCC_PERIPHCLK_RTC  RTC peripheral clock
 646:Drivers/STM32G4xx_HAL_Driver/Src/stm32g4xx_hal_rcc_ex.c ****   * @retval Frequency in Hz
 647:Drivers/STM32G4xx_HAL_Driver/Src/stm32g4xx_hal_rcc_ex.c ****   */
 648:Drivers/STM32G4xx_HAL_Driver/Src/stm32g4xx_hal_rcc_ex.c **** uint32_t HAL_RCCEx_GetPeriphCLKFreq(uint32_t PeriphClk)
 649:Drivers/STM32G4xx_HAL_Driver/Src/stm32g4xx_hal_rcc_ex.c **** {
ARM GAS  C:\Users\HYDROG~1\AppData\Local\Temp\cc0rSm9d.s 			page 27


 813              		.loc 1 649 1 is_stmt 1 view -0
 814              		.cfi_startproc
 815              		@ args = 0, pretend = 0, frame = 0
 816              		@ frame_needed = 0, uses_anonymous_args = 0
 817              		.loc 1 649 1 is_stmt 0 view .LVU273
 818 0000 08B5     		push	{r3, lr}
 819              	.LCFI4:
 820              		.cfi_def_cfa_offset 8
 821              		.cfi_offset 3, -8
 822              		.cfi_offset 14, -4
 650:Drivers/STM32G4xx_HAL_Driver/Src/stm32g4xx_hal_rcc_ex.c ****   uint32_t frequency = 0U;
 823              		.loc 1 650 3 is_stmt 1 view .LVU274
 824              	.LVL28:
 651:Drivers/STM32G4xx_HAL_Driver/Src/stm32g4xx_hal_rcc_ex.c ****   uint32_t srcclk;
 825              		.loc 1 651 3 view .LVU275
 652:Drivers/STM32G4xx_HAL_Driver/Src/stm32g4xx_hal_rcc_ex.c ****   uint32_t pllvco, plln, pllp;
 826              		.loc 1 652 3 view .LVU276
 653:Drivers/STM32G4xx_HAL_Driver/Src/stm32g4xx_hal_rcc_ex.c **** 
 654:Drivers/STM32G4xx_HAL_Driver/Src/stm32g4xx_hal_rcc_ex.c ****   /* Check the parameters */
 655:Drivers/STM32G4xx_HAL_Driver/Src/stm32g4xx_hal_rcc_ex.c ****   assert_param(IS_RCC_PERIPHCLOCK(PeriphClk));
 827              		.loc 1 655 3 view .LVU277
 656:Drivers/STM32G4xx_HAL_Driver/Src/stm32g4xx_hal_rcc_ex.c **** 
 657:Drivers/STM32G4xx_HAL_Driver/Src/stm32g4xx_hal_rcc_ex.c ****   if(PeriphClk == RCC_PERIPHCLK_RTC)
 828              		.loc 1 657 3 view .LVU278
 829              		.loc 1 657 5 is_stmt 0 view .LVU279
 830 0002 B0F5002F 		cmp	r0, #524288
 831 0006 44D0     		beq	.L166
 658:Drivers/STM32G4xx_HAL_Driver/Src/stm32g4xx_hal_rcc_ex.c ****   {
 659:Drivers/STM32G4xx_HAL_Driver/Src/stm32g4xx_hal_rcc_ex.c ****     /* Get the current RTC source */
 660:Drivers/STM32G4xx_HAL_Driver/Src/stm32g4xx_hal_rcc_ex.c ****     srcclk = __HAL_RCC_GET_RTC_SOURCE();
 661:Drivers/STM32G4xx_HAL_Driver/Src/stm32g4xx_hal_rcc_ex.c **** 
 662:Drivers/STM32G4xx_HAL_Driver/Src/stm32g4xx_hal_rcc_ex.c ****     /* Check if LSE is ready and if RTC clock selection is LSE */
 663:Drivers/STM32G4xx_HAL_Driver/Src/stm32g4xx_hal_rcc_ex.c ****     if ((HAL_IS_BIT_SET(RCC->BDCR, RCC_BDCR_LSERDY)) && (srcclk == RCC_RTCCLKSOURCE_LSE))
 664:Drivers/STM32G4xx_HAL_Driver/Src/stm32g4xx_hal_rcc_ex.c ****     {
 665:Drivers/STM32G4xx_HAL_Driver/Src/stm32g4xx_hal_rcc_ex.c ****       frequency = LSE_VALUE;
 666:Drivers/STM32G4xx_HAL_Driver/Src/stm32g4xx_hal_rcc_ex.c ****     }
 667:Drivers/STM32G4xx_HAL_Driver/Src/stm32g4xx_hal_rcc_ex.c ****     /* Check if LSI is ready and if RTC clock selection is LSI */
 668:Drivers/STM32G4xx_HAL_Driver/Src/stm32g4xx_hal_rcc_ex.c ****     else if ((HAL_IS_BIT_SET(RCC->CSR, RCC_CSR_LSIRDY)) && (srcclk == RCC_RTCCLKSOURCE_LSI))
 669:Drivers/STM32G4xx_HAL_Driver/Src/stm32g4xx_hal_rcc_ex.c ****     {
 670:Drivers/STM32G4xx_HAL_Driver/Src/stm32g4xx_hal_rcc_ex.c ****       frequency = LSI_VALUE;
 671:Drivers/STM32G4xx_HAL_Driver/Src/stm32g4xx_hal_rcc_ex.c ****     }
 672:Drivers/STM32G4xx_HAL_Driver/Src/stm32g4xx_hal_rcc_ex.c ****     /* Check if HSE is ready  and if RTC clock selection is HSI_DIV32*/
 673:Drivers/STM32G4xx_HAL_Driver/Src/stm32g4xx_hal_rcc_ex.c ****     else if ((HAL_IS_BIT_SET(RCC->CR, RCC_CR_HSERDY)) && (srcclk == RCC_RTCCLKSOURCE_HSE_DIV32))
 674:Drivers/STM32G4xx_HAL_Driver/Src/stm32g4xx_hal_rcc_ex.c ****     {
 675:Drivers/STM32G4xx_HAL_Driver/Src/stm32g4xx_hal_rcc_ex.c ****       frequency = HSE_VALUE / 32U;
 676:Drivers/STM32G4xx_HAL_Driver/Src/stm32g4xx_hal_rcc_ex.c ****     }
 677:Drivers/STM32G4xx_HAL_Driver/Src/stm32g4xx_hal_rcc_ex.c ****     /* Clock not enabled for RTC*/
 678:Drivers/STM32G4xx_HAL_Driver/Src/stm32g4xx_hal_rcc_ex.c ****     else
 679:Drivers/STM32G4xx_HAL_Driver/Src/stm32g4xx_hal_rcc_ex.c ****     {
 680:Drivers/STM32G4xx_HAL_Driver/Src/stm32g4xx_hal_rcc_ex.c ****       /* nothing to do: frequency already initialized to 0 */
 681:Drivers/STM32G4xx_HAL_Driver/Src/stm32g4xx_hal_rcc_ex.c ****     }
 682:Drivers/STM32G4xx_HAL_Driver/Src/stm32g4xx_hal_rcc_ex.c ****   }
 683:Drivers/STM32G4xx_HAL_Driver/Src/stm32g4xx_hal_rcc_ex.c ****   else
 684:Drivers/STM32G4xx_HAL_Driver/Src/stm32g4xx_hal_rcc_ex.c ****   {
 685:Drivers/STM32G4xx_HAL_Driver/Src/stm32g4xx_hal_rcc_ex.c ****     /* Other external peripheral clock source than RTC */
 686:Drivers/STM32G4xx_HAL_Driver/Src/stm32g4xx_hal_rcc_ex.c **** 
 687:Drivers/STM32G4xx_HAL_Driver/Src/stm32g4xx_hal_rcc_ex.c ****     /* Compute PLL clock input */
ARM GAS  C:\Users\HYDROG~1\AppData\Local\Temp\cc0rSm9d.s 			page 28


 688:Drivers/STM32G4xx_HAL_Driver/Src/stm32g4xx_hal_rcc_ex.c ****     if(__HAL_RCC_GET_PLL_OSCSOURCE() == RCC_PLLSOURCE_HSI)   /* HSI ? */
 832              		.loc 1 688 5 is_stmt 1 view .LVU280
 833              		.loc 1 688 8 is_stmt 0 view .LVU281
 834 0008 A64B     		ldr	r3, .L213
 835 000a DB68     		ldr	r3, [r3, #12]
 836 000c 03F00303 		and	r3, r3, #3
 837              		.loc 1 688 7 view .LVU282
 838 0010 022B     		cmp	r3, #2
 839 0012 62D0     		beq	.L167
 689:Drivers/STM32G4xx_HAL_Driver/Src/stm32g4xx_hal_rcc_ex.c ****     {
 690:Drivers/STM32G4xx_HAL_Driver/Src/stm32g4xx_hal_rcc_ex.c ****       if(HAL_IS_BIT_SET(RCC->CR, RCC_CR_HSIRDY))
 691:Drivers/STM32G4xx_HAL_Driver/Src/stm32g4xx_hal_rcc_ex.c ****       {
 692:Drivers/STM32G4xx_HAL_Driver/Src/stm32g4xx_hal_rcc_ex.c ****         pllvco = HSI_VALUE;
 693:Drivers/STM32G4xx_HAL_Driver/Src/stm32g4xx_hal_rcc_ex.c ****       }
 694:Drivers/STM32G4xx_HAL_Driver/Src/stm32g4xx_hal_rcc_ex.c ****       else
 695:Drivers/STM32G4xx_HAL_Driver/Src/stm32g4xx_hal_rcc_ex.c ****       {
 696:Drivers/STM32G4xx_HAL_Driver/Src/stm32g4xx_hal_rcc_ex.c ****         pllvco = 0U;
 697:Drivers/STM32G4xx_HAL_Driver/Src/stm32g4xx_hal_rcc_ex.c ****       }
 698:Drivers/STM32G4xx_HAL_Driver/Src/stm32g4xx_hal_rcc_ex.c ****     }
 699:Drivers/STM32G4xx_HAL_Driver/Src/stm32g4xx_hal_rcc_ex.c ****     else if(__HAL_RCC_GET_PLL_OSCSOURCE() == RCC_PLLSOURCE_HSE)   /* HSE ? */
 840              		.loc 1 699 10 is_stmt 1 view .LVU283
 841              		.loc 1 699 13 is_stmt 0 view .LVU284
 842 0014 A34B     		ldr	r3, .L213
 843 0016 DB68     		ldr	r3, [r3, #12]
 844 0018 03F00303 		and	r3, r3, #3
 845              		.loc 1 699 12 view .LVU285
 846 001c 032B     		cmp	r3, #3
 847 001e 63D0     		beq	.L168
 700:Drivers/STM32G4xx_HAL_Driver/Src/stm32g4xx_hal_rcc_ex.c ****     {
 701:Drivers/STM32G4xx_HAL_Driver/Src/stm32g4xx_hal_rcc_ex.c ****       if(HAL_IS_BIT_SET(RCC->CR, RCC_CR_HSERDY))
 702:Drivers/STM32G4xx_HAL_Driver/Src/stm32g4xx_hal_rcc_ex.c ****       {
 703:Drivers/STM32G4xx_HAL_Driver/Src/stm32g4xx_hal_rcc_ex.c ****         pllvco = HSE_VALUE;
 704:Drivers/STM32G4xx_HAL_Driver/Src/stm32g4xx_hal_rcc_ex.c ****       }
 705:Drivers/STM32G4xx_HAL_Driver/Src/stm32g4xx_hal_rcc_ex.c ****       else
 706:Drivers/STM32G4xx_HAL_Driver/Src/stm32g4xx_hal_rcc_ex.c ****       {
 707:Drivers/STM32G4xx_HAL_Driver/Src/stm32g4xx_hal_rcc_ex.c ****         pllvco = 0U;
 708:Drivers/STM32G4xx_HAL_Driver/Src/stm32g4xx_hal_rcc_ex.c ****       }
 709:Drivers/STM32G4xx_HAL_Driver/Src/stm32g4xx_hal_rcc_ex.c ****     }
 710:Drivers/STM32G4xx_HAL_Driver/Src/stm32g4xx_hal_rcc_ex.c ****     else /* No source */
 711:Drivers/STM32G4xx_HAL_Driver/Src/stm32g4xx_hal_rcc_ex.c ****     {
 712:Drivers/STM32G4xx_HAL_Driver/Src/stm32g4xx_hal_rcc_ex.c ****       pllvco = 0U;
 848              		.loc 1 712 14 view .LVU286
 849 0020 0022     		movs	r2, #0
 850              	.L59:
 851              	.LVL29:
 713:Drivers/STM32G4xx_HAL_Driver/Src/stm32g4xx_hal_rcc_ex.c ****     }
 714:Drivers/STM32G4xx_HAL_Driver/Src/stm32g4xx_hal_rcc_ex.c **** 
 715:Drivers/STM32G4xx_HAL_Driver/Src/stm32g4xx_hal_rcc_ex.c ****     /* f(PLL Source) / PLLM */
 716:Drivers/STM32G4xx_HAL_Driver/Src/stm32g4xx_hal_rcc_ex.c ****     pllvco = (pllvco / ((READ_BIT(RCC->PLLCFGR, RCC_PLLCFGR_PLLM) >> RCC_PLLCFGR_PLLM_Pos) + 1U));
 852              		.loc 1 716 5 is_stmt 1 view .LVU287
 853              		.loc 1 716 26 is_stmt 0 view .LVU288
 854 0022 A04B     		ldr	r3, .L213
 855 0024 DB68     		ldr	r3, [r3, #12]
 856              		.loc 1 716 67 view .LVU289
 857 0026 C3F30313 		ubfx	r3, r3, #4, #4
 858              		.loc 1 716 92 view .LVU290
 859 002a 0133     		adds	r3, r3, #1
ARM GAS  C:\Users\HYDROG~1\AppData\Local\Temp\cc0rSm9d.s 			page 29


 860              		.loc 1 716 12 view .LVU291
 861 002c B2FBF3F3 		udiv	r3, r2, r3
 862              	.LVL30:
 717:Drivers/STM32G4xx_HAL_Driver/Src/stm32g4xx_hal_rcc_ex.c **** 
 718:Drivers/STM32G4xx_HAL_Driver/Src/stm32g4xx_hal_rcc_ex.c ****     switch(PeriphClk)
 863              		.loc 1 718 5 is_stmt 1 view .LVU292
 864 0030 B0F5007F 		cmp	r0, #512
 865 0034 00F02C82 		beq	.L60
 866 0038 00F29580 		bhi	.L61
 867 003c 2028     		cmp	r0, #32
 868 003e 5AD8     		bhi	.L62
 869 0040 0028     		cmp	r0, #0
 870 0042 00F05683 		beq	.L130
 871 0046 0138     		subs	r0, r0, #1
 872              	.LVL31:
 873              		.loc 1 718 5 is_stmt 0 view .LVU293
 874 0048 1F28     		cmp	r0, #31
 875 004a 00F25483 		bhi	.L131
 876 004e DFE810F0 		tbh	[pc, r0, lsl #1]
 877              	.LVL32:
 878              	.L64:
 879 0052 0601     		.2byte	(.L69-.L64)/2
 880 0054 2F01     		.2byte	(.L68-.L64)/2
 881 0056 5203     		.2byte	(.L131-.L64)/2
 882 0058 5101     		.2byte	(.L67-.L64)/2
 883 005a 5203     		.2byte	(.L131-.L64)/2
 884 005c 5203     		.2byte	(.L131-.L64)/2
 885 005e 5203     		.2byte	(.L131-.L64)/2
 886 0060 7301     		.2byte	(.L66-.L64)/2
 887 0062 5203     		.2byte	(.L131-.L64)/2
 888 0064 5203     		.2byte	(.L131-.L64)/2
 889 0066 5203     		.2byte	(.L131-.L64)/2
 890 0068 5203     		.2byte	(.L131-.L64)/2
 891 006a 5203     		.2byte	(.L131-.L64)/2
 892 006c 5203     		.2byte	(.L131-.L64)/2
 893 006e 5203     		.2byte	(.L131-.L64)/2
 894 0070 9501     		.2byte	(.L65-.L64)/2
 895 0072 5203     		.2byte	(.L131-.L64)/2
 896 0074 5203     		.2byte	(.L131-.L64)/2
 897 0076 5203     		.2byte	(.L131-.L64)/2
 898 0078 5203     		.2byte	(.L131-.L64)/2
 899 007a 5203     		.2byte	(.L131-.L64)/2
 900 007c 5203     		.2byte	(.L131-.L64)/2
 901 007e 5203     		.2byte	(.L131-.L64)/2
 902 0080 5203     		.2byte	(.L131-.L64)/2
 903 0082 5203     		.2byte	(.L131-.L64)/2
 904 0084 5203     		.2byte	(.L131-.L64)/2
 905 0086 5203     		.2byte	(.L131-.L64)/2
 906 0088 5203     		.2byte	(.L131-.L64)/2
 907 008a 5203     		.2byte	(.L131-.L64)/2
 908 008c 5203     		.2byte	(.L131-.L64)/2
 909 008e 5203     		.2byte	(.L131-.L64)/2
 910 0090 BA01     		.2byte	(.L63-.L64)/2
 911              		.p2align 1
 912              	.L166:
 660:Drivers/STM32G4xx_HAL_Driver/Src/stm32g4xx_hal_rcc_ex.c **** 
 913              		.loc 1 660 5 is_stmt 1 view .LVU294
ARM GAS  C:\Users\HYDROG~1\AppData\Local\Temp\cc0rSm9d.s 			page 30


 660:Drivers/STM32G4xx_HAL_Driver/Src/stm32g4xx_hal_rcc_ex.c **** 
 914              		.loc 1 660 14 is_stmt 0 view .LVU295
 915 0092 844A     		ldr	r2, .L213
 916 0094 D2F89030 		ldr	r3, [r2, #144]
 660:Drivers/STM32G4xx_HAL_Driver/Src/stm32g4xx_hal_rcc_ex.c **** 
 917              		.loc 1 660 12 view .LVU296
 918 0098 03F44073 		and	r3, r3, #768
 919              	.LVL33:
 663:Drivers/STM32G4xx_HAL_Driver/Src/stm32g4xx_hal_rcc_ex.c ****     {
 920              		.loc 1 663 5 is_stmt 1 view .LVU297
 663:Drivers/STM32G4xx_HAL_Driver/Src/stm32g4xx_hal_rcc_ex.c ****     {
 921              		.loc 1 663 10 is_stmt 0 view .LVU298
 922 009c D2F89020 		ldr	r2, [r2, #144]
 663:Drivers/STM32G4xx_HAL_Driver/Src/stm32g4xx_hal_rcc_ex.c ****     {
 923              		.loc 1 663 8 view .LVU299
 924 00a0 12F0020F 		tst	r2, #2
 925 00a4 03D0     		beq	.L55
 663:Drivers/STM32G4xx_HAL_Driver/Src/stm32g4xx_hal_rcc_ex.c ****     {
 926              		.loc 1 663 54 discriminator 1 view .LVU300
 927 00a6 B3F5807F 		cmp	r3, #256
 928 00aa 00F01A83 		beq	.L126
 929              	.L55:
 668:Drivers/STM32G4xx_HAL_Driver/Src/stm32g4xx_hal_rcc_ex.c ****     {
 930              		.loc 1 668 10 is_stmt 1 view .LVU301
 668:Drivers/STM32G4xx_HAL_Driver/Src/stm32g4xx_hal_rcc_ex.c ****     {
 931              		.loc 1 668 15 is_stmt 0 view .LVU302
 932 00ae 7D4A     		ldr	r2, .L213
 933 00b0 D2F89420 		ldr	r2, [r2, #148]
 668:Drivers/STM32G4xx_HAL_Driver/Src/stm32g4xx_hal_rcc_ex.c ****     {
 934              		.loc 1 668 13 view .LVU303
 935 00b4 12F0020F 		tst	r2, #2
 936 00b8 03D0     		beq	.L57
 668:Drivers/STM32G4xx_HAL_Driver/Src/stm32g4xx_hal_rcc_ex.c ****     {
 937              		.loc 1 668 57 discriminator 1 view .LVU304
 938 00ba B3F5007F 		cmp	r3, #512
 939 00be 00F01383 		beq	.L127
 940              	.L57:
 673:Drivers/STM32G4xx_HAL_Driver/Src/stm32g4xx_hal_rcc_ex.c ****     {
 941              		.loc 1 673 10 is_stmt 1 view .LVU305
 673:Drivers/STM32G4xx_HAL_Driver/Src/stm32g4xx_hal_rcc_ex.c ****     {
 942              		.loc 1 673 15 is_stmt 0 view .LVU306
 943 00c2 784A     		ldr	r2, .L213
 944 00c4 1068     		ldr	r0, [r2]
 945              	.LVL34:
 673:Drivers/STM32G4xx_HAL_Driver/Src/stm32g4xx_hal_rcc_ex.c ****     {
 946              		.loc 1 673 13 view .LVU307
 947 00c6 10F40030 		ands	r0, r0, #131072
 948 00ca 00F01583 		beq	.L53
 673:Drivers/STM32G4xx_HAL_Driver/Src/stm32g4xx_hal_rcc_ex.c ****     {
 949              		.loc 1 673 55 discriminator 1 view .LVU308
 950 00ce B3F5407F 		cmp	r3, #768
 951 00d2 00F00C83 		beq	.L128
 650:Drivers/STM32G4xx_HAL_Driver/Src/stm32g4xx_hal_rcc_ex.c ****   uint32_t srcclk;
 952              		.loc 1 650 12 view .LVU309
 953 00d6 0020     		movs	r0, #0
 954 00d8 0EE3     		b	.L53
 955              	.LVL35:
ARM GAS  C:\Users\HYDROG~1\AppData\Local\Temp\cc0rSm9d.s 			page 31


 956              	.L167:
 690:Drivers/STM32G4xx_HAL_Driver/Src/stm32g4xx_hal_rcc_ex.c ****       {
 957              		.loc 1 690 7 is_stmt 1 view .LVU310
 690:Drivers/STM32G4xx_HAL_Driver/Src/stm32g4xx_hal_rcc_ex.c ****       {
 958              		.loc 1 690 10 is_stmt 0 view .LVU311
 959 00da 724B     		ldr	r3, .L213
 960 00dc 1A68     		ldr	r2, [r3]
 690:Drivers/STM32G4xx_HAL_Driver/Src/stm32g4xx_hal_rcc_ex.c ****       {
 961              		.loc 1 690 9 view .LVU312
 962 00de 12F48062 		ands	r2, r2, #1024
 963 00e2 9ED0     		beq	.L59
 692:Drivers/STM32G4xx_HAL_Driver/Src/stm32g4xx_hal_rcc_ex.c ****       }
 964              		.loc 1 692 16 view .LVU313
 965 00e4 704A     		ldr	r2, .L213+4
 966 00e6 9CE7     		b	.L59
 967              	.L168:
 701:Drivers/STM32G4xx_HAL_Driver/Src/stm32g4xx_hal_rcc_ex.c ****       {
 968              		.loc 1 701 7 is_stmt 1 view .LVU314
 701:Drivers/STM32G4xx_HAL_Driver/Src/stm32g4xx_hal_rcc_ex.c ****       {
 969              		.loc 1 701 10 is_stmt 0 view .LVU315
 970 00e8 6E4B     		ldr	r3, .L213
 971 00ea 1A68     		ldr	r2, [r3]
 701:Drivers/STM32G4xx_HAL_Driver/Src/stm32g4xx_hal_rcc_ex.c ****       {
 972              		.loc 1 701 9 view .LVU316
 973 00ec 12F40032 		ands	r2, r2, #131072
 974 00f0 97D0     		beq	.L59
 703:Drivers/STM32G4xx_HAL_Driver/Src/stm32g4xx_hal_rcc_ex.c ****       }
 975              		.loc 1 703 16 view .LVU317
 976 00f2 6E4A     		ldr	r2, .L213+8
 977 00f4 95E7     		b	.L59
 978              	.LVL36:
 979              	.L62:
 980              		.loc 1 718 5 view .LVU318
 981 00f6 8028     		cmp	r0, #128
 982 00f8 00F09081 		beq	.L70
 983 00fc B0F5807F 		cmp	r0, #256
 984 0100 16D1     		bne	.L169
 719:Drivers/STM32G4xx_HAL_Driver/Src/stm32g4xx_hal_rcc_ex.c ****     {
 720:Drivers/STM32G4xx_HAL_Driver/Src/stm32g4xx_hal_rcc_ex.c **** 
 721:Drivers/STM32G4xx_HAL_Driver/Src/stm32g4xx_hal_rcc_ex.c ****     case RCC_PERIPHCLK_USART1:
 722:Drivers/STM32G4xx_HAL_Driver/Src/stm32g4xx_hal_rcc_ex.c ****       /* Get the current USART1 source */
 723:Drivers/STM32G4xx_HAL_Driver/Src/stm32g4xx_hal_rcc_ex.c ****       srcclk = __HAL_RCC_GET_USART1_SOURCE();
 724:Drivers/STM32G4xx_HAL_Driver/Src/stm32g4xx_hal_rcc_ex.c **** 
 725:Drivers/STM32G4xx_HAL_Driver/Src/stm32g4xx_hal_rcc_ex.c ****       if(srcclk == RCC_USART1CLKSOURCE_PCLK2)
 726:Drivers/STM32G4xx_HAL_Driver/Src/stm32g4xx_hal_rcc_ex.c ****       {
 727:Drivers/STM32G4xx_HAL_Driver/Src/stm32g4xx_hal_rcc_ex.c ****         frequency = HAL_RCC_GetPCLK2Freq();
 728:Drivers/STM32G4xx_HAL_Driver/Src/stm32g4xx_hal_rcc_ex.c ****       }
 729:Drivers/STM32G4xx_HAL_Driver/Src/stm32g4xx_hal_rcc_ex.c ****       else if(srcclk == RCC_USART1CLKSOURCE_SYSCLK)
 730:Drivers/STM32G4xx_HAL_Driver/Src/stm32g4xx_hal_rcc_ex.c ****       {
 731:Drivers/STM32G4xx_HAL_Driver/Src/stm32g4xx_hal_rcc_ex.c ****         frequency = HAL_RCC_GetSysClockFreq();
 732:Drivers/STM32G4xx_HAL_Driver/Src/stm32g4xx_hal_rcc_ex.c ****       }
 733:Drivers/STM32G4xx_HAL_Driver/Src/stm32g4xx_hal_rcc_ex.c ****       else if((HAL_IS_BIT_SET(RCC->CR, RCC_CR_HSIRDY)) && (srcclk == RCC_USART1CLKSOURCE_HSI) )
 734:Drivers/STM32G4xx_HAL_Driver/Src/stm32g4xx_hal_rcc_ex.c ****       {
 735:Drivers/STM32G4xx_HAL_Driver/Src/stm32g4xx_hal_rcc_ex.c ****         frequency = HSI_VALUE;
 736:Drivers/STM32G4xx_HAL_Driver/Src/stm32g4xx_hal_rcc_ex.c ****       }
 737:Drivers/STM32G4xx_HAL_Driver/Src/stm32g4xx_hal_rcc_ex.c ****       else if((HAL_IS_BIT_SET(RCC->BDCR, RCC_BDCR_LSERDY)) && (srcclk == RCC_USART1CLKSOURCE_LSE))
 738:Drivers/STM32G4xx_HAL_Driver/Src/stm32g4xx_hal_rcc_ex.c ****       {
ARM GAS  C:\Users\HYDROG~1\AppData\Local\Temp\cc0rSm9d.s 			page 32


 739:Drivers/STM32G4xx_HAL_Driver/Src/stm32g4xx_hal_rcc_ex.c ****         frequency = LSE_VALUE;
 740:Drivers/STM32G4xx_HAL_Driver/Src/stm32g4xx_hal_rcc_ex.c ****       }
 741:Drivers/STM32G4xx_HAL_Driver/Src/stm32g4xx_hal_rcc_ex.c ****       /* Clock not enabled for USART1 */
 742:Drivers/STM32G4xx_HAL_Driver/Src/stm32g4xx_hal_rcc_ex.c ****       else
 743:Drivers/STM32G4xx_HAL_Driver/Src/stm32g4xx_hal_rcc_ex.c ****       {
 744:Drivers/STM32G4xx_HAL_Driver/Src/stm32g4xx_hal_rcc_ex.c ****         /* nothing to do: frequency already initialized to 0 */
 745:Drivers/STM32G4xx_HAL_Driver/Src/stm32g4xx_hal_rcc_ex.c ****       }
 746:Drivers/STM32G4xx_HAL_Driver/Src/stm32g4xx_hal_rcc_ex.c ****       break;
 747:Drivers/STM32G4xx_HAL_Driver/Src/stm32g4xx_hal_rcc_ex.c **** 
 748:Drivers/STM32G4xx_HAL_Driver/Src/stm32g4xx_hal_rcc_ex.c ****     case RCC_PERIPHCLK_USART2:
 749:Drivers/STM32G4xx_HAL_Driver/Src/stm32g4xx_hal_rcc_ex.c ****       /* Get the current USART2 source */
 750:Drivers/STM32G4xx_HAL_Driver/Src/stm32g4xx_hal_rcc_ex.c ****       srcclk = __HAL_RCC_GET_USART2_SOURCE();
 751:Drivers/STM32G4xx_HAL_Driver/Src/stm32g4xx_hal_rcc_ex.c **** 
 752:Drivers/STM32G4xx_HAL_Driver/Src/stm32g4xx_hal_rcc_ex.c ****       if(srcclk == RCC_USART2CLKSOURCE_PCLK1)
 753:Drivers/STM32G4xx_HAL_Driver/Src/stm32g4xx_hal_rcc_ex.c ****       {
 754:Drivers/STM32G4xx_HAL_Driver/Src/stm32g4xx_hal_rcc_ex.c ****         frequency = HAL_RCC_GetPCLK1Freq();
 755:Drivers/STM32G4xx_HAL_Driver/Src/stm32g4xx_hal_rcc_ex.c ****       }
 756:Drivers/STM32G4xx_HAL_Driver/Src/stm32g4xx_hal_rcc_ex.c ****       else if(srcclk == RCC_USART2CLKSOURCE_SYSCLK)
 757:Drivers/STM32G4xx_HAL_Driver/Src/stm32g4xx_hal_rcc_ex.c ****       {
 758:Drivers/STM32G4xx_HAL_Driver/Src/stm32g4xx_hal_rcc_ex.c ****         frequency = HAL_RCC_GetSysClockFreq();
 759:Drivers/STM32G4xx_HAL_Driver/Src/stm32g4xx_hal_rcc_ex.c ****       }
 760:Drivers/STM32G4xx_HAL_Driver/Src/stm32g4xx_hal_rcc_ex.c ****       else if((HAL_IS_BIT_SET(RCC->CR, RCC_CR_HSIRDY)) && (srcclk == RCC_USART2CLKSOURCE_HSI))
 761:Drivers/STM32G4xx_HAL_Driver/Src/stm32g4xx_hal_rcc_ex.c ****       {
 762:Drivers/STM32G4xx_HAL_Driver/Src/stm32g4xx_hal_rcc_ex.c ****         frequency = HSI_VALUE;
 763:Drivers/STM32G4xx_HAL_Driver/Src/stm32g4xx_hal_rcc_ex.c ****       }
 764:Drivers/STM32G4xx_HAL_Driver/Src/stm32g4xx_hal_rcc_ex.c ****       else if((HAL_IS_BIT_SET(RCC->BDCR, RCC_BDCR_LSERDY))  && (srcclk == RCC_USART2CLKSOURCE_LSE))
 765:Drivers/STM32G4xx_HAL_Driver/Src/stm32g4xx_hal_rcc_ex.c ****       {
 766:Drivers/STM32G4xx_HAL_Driver/Src/stm32g4xx_hal_rcc_ex.c ****         frequency = LSE_VALUE;
 767:Drivers/STM32G4xx_HAL_Driver/Src/stm32g4xx_hal_rcc_ex.c ****       }
 768:Drivers/STM32G4xx_HAL_Driver/Src/stm32g4xx_hal_rcc_ex.c ****       /* Clock not enabled for USART2 */
 769:Drivers/STM32G4xx_HAL_Driver/Src/stm32g4xx_hal_rcc_ex.c ****       else
 770:Drivers/STM32G4xx_HAL_Driver/Src/stm32g4xx_hal_rcc_ex.c ****       {
 771:Drivers/STM32G4xx_HAL_Driver/Src/stm32g4xx_hal_rcc_ex.c ****         /* nothing to do: frequency already initialized to 0 */
 772:Drivers/STM32G4xx_HAL_Driver/Src/stm32g4xx_hal_rcc_ex.c ****       }
 773:Drivers/STM32G4xx_HAL_Driver/Src/stm32g4xx_hal_rcc_ex.c ****       break;
 774:Drivers/STM32G4xx_HAL_Driver/Src/stm32g4xx_hal_rcc_ex.c **** 
 775:Drivers/STM32G4xx_HAL_Driver/Src/stm32g4xx_hal_rcc_ex.c ****     case RCC_PERIPHCLK_USART3:
 776:Drivers/STM32G4xx_HAL_Driver/Src/stm32g4xx_hal_rcc_ex.c ****       /* Get the current USART3 source */
 777:Drivers/STM32G4xx_HAL_Driver/Src/stm32g4xx_hal_rcc_ex.c ****       srcclk = __HAL_RCC_GET_USART3_SOURCE();
 778:Drivers/STM32G4xx_HAL_Driver/Src/stm32g4xx_hal_rcc_ex.c **** 
 779:Drivers/STM32G4xx_HAL_Driver/Src/stm32g4xx_hal_rcc_ex.c ****       if(srcclk == RCC_USART3CLKSOURCE_PCLK1)
 780:Drivers/STM32G4xx_HAL_Driver/Src/stm32g4xx_hal_rcc_ex.c ****       {
 781:Drivers/STM32G4xx_HAL_Driver/Src/stm32g4xx_hal_rcc_ex.c ****         frequency = HAL_RCC_GetPCLK1Freq();
 782:Drivers/STM32G4xx_HAL_Driver/Src/stm32g4xx_hal_rcc_ex.c ****       }
 783:Drivers/STM32G4xx_HAL_Driver/Src/stm32g4xx_hal_rcc_ex.c ****       else if(srcclk == RCC_USART3CLKSOURCE_SYSCLK)
 784:Drivers/STM32G4xx_HAL_Driver/Src/stm32g4xx_hal_rcc_ex.c ****       {
 785:Drivers/STM32G4xx_HAL_Driver/Src/stm32g4xx_hal_rcc_ex.c ****         frequency = HAL_RCC_GetSysClockFreq();
 786:Drivers/STM32G4xx_HAL_Driver/Src/stm32g4xx_hal_rcc_ex.c ****       }
 787:Drivers/STM32G4xx_HAL_Driver/Src/stm32g4xx_hal_rcc_ex.c ****       else if((HAL_IS_BIT_SET(RCC->CR, RCC_CR_HSIRDY)) && (srcclk == RCC_USART3CLKSOURCE_HSI))
 788:Drivers/STM32G4xx_HAL_Driver/Src/stm32g4xx_hal_rcc_ex.c ****       {
 789:Drivers/STM32G4xx_HAL_Driver/Src/stm32g4xx_hal_rcc_ex.c ****         frequency = HSI_VALUE;
 790:Drivers/STM32G4xx_HAL_Driver/Src/stm32g4xx_hal_rcc_ex.c ****       }
 791:Drivers/STM32G4xx_HAL_Driver/Src/stm32g4xx_hal_rcc_ex.c ****       else if((HAL_IS_BIT_SET(RCC->BDCR, RCC_BDCR_LSERDY)) && (srcclk == RCC_USART3CLKSOURCE_LSE))
 792:Drivers/STM32G4xx_HAL_Driver/Src/stm32g4xx_hal_rcc_ex.c ****       {
 793:Drivers/STM32G4xx_HAL_Driver/Src/stm32g4xx_hal_rcc_ex.c ****         frequency = LSE_VALUE;
 794:Drivers/STM32G4xx_HAL_Driver/Src/stm32g4xx_hal_rcc_ex.c ****       }
 795:Drivers/STM32G4xx_HAL_Driver/Src/stm32g4xx_hal_rcc_ex.c ****       /* Clock not enabled for USART3 */
ARM GAS  C:\Users\HYDROG~1\AppData\Local\Temp\cc0rSm9d.s 			page 33


 796:Drivers/STM32G4xx_HAL_Driver/Src/stm32g4xx_hal_rcc_ex.c ****       else
 797:Drivers/STM32G4xx_HAL_Driver/Src/stm32g4xx_hal_rcc_ex.c ****       {
 798:Drivers/STM32G4xx_HAL_Driver/Src/stm32g4xx_hal_rcc_ex.c ****         /* nothing to do: frequency already initialized to 0 */
 799:Drivers/STM32G4xx_HAL_Driver/Src/stm32g4xx_hal_rcc_ex.c ****       }
 800:Drivers/STM32G4xx_HAL_Driver/Src/stm32g4xx_hal_rcc_ex.c ****       break;
 801:Drivers/STM32G4xx_HAL_Driver/Src/stm32g4xx_hal_rcc_ex.c **** 
 802:Drivers/STM32G4xx_HAL_Driver/Src/stm32g4xx_hal_rcc_ex.c **** #if defined(UART4)
 803:Drivers/STM32G4xx_HAL_Driver/Src/stm32g4xx_hal_rcc_ex.c ****     case RCC_PERIPHCLK_UART4:
 804:Drivers/STM32G4xx_HAL_Driver/Src/stm32g4xx_hal_rcc_ex.c ****       /* Get the current UART4 source */
 805:Drivers/STM32G4xx_HAL_Driver/Src/stm32g4xx_hal_rcc_ex.c ****       srcclk = __HAL_RCC_GET_UART4_SOURCE();
 806:Drivers/STM32G4xx_HAL_Driver/Src/stm32g4xx_hal_rcc_ex.c **** 
 807:Drivers/STM32G4xx_HAL_Driver/Src/stm32g4xx_hal_rcc_ex.c ****       if(srcclk == RCC_UART4CLKSOURCE_PCLK1)
 808:Drivers/STM32G4xx_HAL_Driver/Src/stm32g4xx_hal_rcc_ex.c ****       {
 809:Drivers/STM32G4xx_HAL_Driver/Src/stm32g4xx_hal_rcc_ex.c ****         frequency = HAL_RCC_GetPCLK1Freq();
 810:Drivers/STM32G4xx_HAL_Driver/Src/stm32g4xx_hal_rcc_ex.c ****       }
 811:Drivers/STM32G4xx_HAL_Driver/Src/stm32g4xx_hal_rcc_ex.c ****       else if(srcclk == RCC_UART4CLKSOURCE_SYSCLK)
 812:Drivers/STM32G4xx_HAL_Driver/Src/stm32g4xx_hal_rcc_ex.c ****       {
 813:Drivers/STM32G4xx_HAL_Driver/Src/stm32g4xx_hal_rcc_ex.c ****         frequency = HAL_RCC_GetSysClockFreq();
 814:Drivers/STM32G4xx_HAL_Driver/Src/stm32g4xx_hal_rcc_ex.c ****       }
 815:Drivers/STM32G4xx_HAL_Driver/Src/stm32g4xx_hal_rcc_ex.c ****       else if((HAL_IS_BIT_SET(RCC->CR, RCC_CR_HSIRDY)) && (srcclk == RCC_UART4CLKSOURCE_HSI))
 816:Drivers/STM32G4xx_HAL_Driver/Src/stm32g4xx_hal_rcc_ex.c ****       {
 817:Drivers/STM32G4xx_HAL_Driver/Src/stm32g4xx_hal_rcc_ex.c ****         frequency = HSI_VALUE;
 818:Drivers/STM32G4xx_HAL_Driver/Src/stm32g4xx_hal_rcc_ex.c ****       }
 819:Drivers/STM32G4xx_HAL_Driver/Src/stm32g4xx_hal_rcc_ex.c ****       else if((HAL_IS_BIT_SET(RCC->BDCR, RCC_BDCR_LSERDY)) && (srcclk == RCC_UART4CLKSOURCE_LSE))
 820:Drivers/STM32G4xx_HAL_Driver/Src/stm32g4xx_hal_rcc_ex.c ****       {
 821:Drivers/STM32G4xx_HAL_Driver/Src/stm32g4xx_hal_rcc_ex.c ****         frequency = LSE_VALUE;
 822:Drivers/STM32G4xx_HAL_Driver/Src/stm32g4xx_hal_rcc_ex.c ****       }
 823:Drivers/STM32G4xx_HAL_Driver/Src/stm32g4xx_hal_rcc_ex.c ****       /* Clock not enabled for UART4 */
 824:Drivers/STM32G4xx_HAL_Driver/Src/stm32g4xx_hal_rcc_ex.c ****       else
 825:Drivers/STM32G4xx_HAL_Driver/Src/stm32g4xx_hal_rcc_ex.c ****       {
 826:Drivers/STM32G4xx_HAL_Driver/Src/stm32g4xx_hal_rcc_ex.c ****         /* nothing to do: frequency already initialized to 0 */
 827:Drivers/STM32G4xx_HAL_Driver/Src/stm32g4xx_hal_rcc_ex.c ****       }
 828:Drivers/STM32G4xx_HAL_Driver/Src/stm32g4xx_hal_rcc_ex.c ****       break;
 829:Drivers/STM32G4xx_HAL_Driver/Src/stm32g4xx_hal_rcc_ex.c **** #endif /* UART4 */
 830:Drivers/STM32G4xx_HAL_Driver/Src/stm32g4xx_hal_rcc_ex.c **** 
 831:Drivers/STM32G4xx_HAL_Driver/Src/stm32g4xx_hal_rcc_ex.c **** #if defined(UART5)
 832:Drivers/STM32G4xx_HAL_Driver/Src/stm32g4xx_hal_rcc_ex.c ****     case RCC_PERIPHCLK_UART5:
 833:Drivers/STM32G4xx_HAL_Driver/Src/stm32g4xx_hal_rcc_ex.c ****       /* Get the current UART5 source */
 834:Drivers/STM32G4xx_HAL_Driver/Src/stm32g4xx_hal_rcc_ex.c ****       srcclk = __HAL_RCC_GET_UART5_SOURCE();
 835:Drivers/STM32G4xx_HAL_Driver/Src/stm32g4xx_hal_rcc_ex.c **** 
 836:Drivers/STM32G4xx_HAL_Driver/Src/stm32g4xx_hal_rcc_ex.c ****       if(srcclk == RCC_UART5CLKSOURCE_PCLK1)
 837:Drivers/STM32G4xx_HAL_Driver/Src/stm32g4xx_hal_rcc_ex.c ****       {
 838:Drivers/STM32G4xx_HAL_Driver/Src/stm32g4xx_hal_rcc_ex.c ****         frequency = HAL_RCC_GetPCLK1Freq();
 839:Drivers/STM32G4xx_HAL_Driver/Src/stm32g4xx_hal_rcc_ex.c ****       }
 840:Drivers/STM32G4xx_HAL_Driver/Src/stm32g4xx_hal_rcc_ex.c ****       else if(srcclk == RCC_UART5CLKSOURCE_SYSCLK)
 841:Drivers/STM32G4xx_HAL_Driver/Src/stm32g4xx_hal_rcc_ex.c ****       {
 842:Drivers/STM32G4xx_HAL_Driver/Src/stm32g4xx_hal_rcc_ex.c ****         frequency = HAL_RCC_GetSysClockFreq();
 843:Drivers/STM32G4xx_HAL_Driver/Src/stm32g4xx_hal_rcc_ex.c ****       }
 844:Drivers/STM32G4xx_HAL_Driver/Src/stm32g4xx_hal_rcc_ex.c ****       else if((HAL_IS_BIT_SET(RCC->CR, RCC_CR_HSIRDY)) && (srcclk == RCC_UART5CLKSOURCE_HSI))
 845:Drivers/STM32G4xx_HAL_Driver/Src/stm32g4xx_hal_rcc_ex.c ****       {
 846:Drivers/STM32G4xx_HAL_Driver/Src/stm32g4xx_hal_rcc_ex.c ****         frequency = HSI_VALUE;
 847:Drivers/STM32G4xx_HAL_Driver/Src/stm32g4xx_hal_rcc_ex.c ****       }
 848:Drivers/STM32G4xx_HAL_Driver/Src/stm32g4xx_hal_rcc_ex.c ****       else if((HAL_IS_BIT_SET(RCC->BDCR, RCC_BDCR_LSERDY)) && (srcclk == RCC_UART5CLKSOURCE_LSE))
 849:Drivers/STM32G4xx_HAL_Driver/Src/stm32g4xx_hal_rcc_ex.c ****       {
 850:Drivers/STM32G4xx_HAL_Driver/Src/stm32g4xx_hal_rcc_ex.c ****         frequency = LSE_VALUE;
 851:Drivers/STM32G4xx_HAL_Driver/Src/stm32g4xx_hal_rcc_ex.c ****       }
 852:Drivers/STM32G4xx_HAL_Driver/Src/stm32g4xx_hal_rcc_ex.c ****       /* Clock not enabled for UART5 */
ARM GAS  C:\Users\HYDROG~1\AppData\Local\Temp\cc0rSm9d.s 			page 34


 853:Drivers/STM32G4xx_HAL_Driver/Src/stm32g4xx_hal_rcc_ex.c ****       else
 854:Drivers/STM32G4xx_HAL_Driver/Src/stm32g4xx_hal_rcc_ex.c ****       {
 855:Drivers/STM32G4xx_HAL_Driver/Src/stm32g4xx_hal_rcc_ex.c ****         /* nothing to do: frequency already initialized to 0 */
 856:Drivers/STM32G4xx_HAL_Driver/Src/stm32g4xx_hal_rcc_ex.c ****       }
 857:Drivers/STM32G4xx_HAL_Driver/Src/stm32g4xx_hal_rcc_ex.c ****       break;
 858:Drivers/STM32G4xx_HAL_Driver/Src/stm32g4xx_hal_rcc_ex.c **** #endif /* UART5 */
 859:Drivers/STM32G4xx_HAL_Driver/Src/stm32g4xx_hal_rcc_ex.c **** 
 860:Drivers/STM32G4xx_HAL_Driver/Src/stm32g4xx_hal_rcc_ex.c ****     case RCC_PERIPHCLK_LPUART1:
 861:Drivers/STM32G4xx_HAL_Driver/Src/stm32g4xx_hal_rcc_ex.c ****       /* Get the current LPUART1 source */
 862:Drivers/STM32G4xx_HAL_Driver/Src/stm32g4xx_hal_rcc_ex.c ****       srcclk = __HAL_RCC_GET_LPUART1_SOURCE();
 863:Drivers/STM32G4xx_HAL_Driver/Src/stm32g4xx_hal_rcc_ex.c **** 
 864:Drivers/STM32G4xx_HAL_Driver/Src/stm32g4xx_hal_rcc_ex.c ****       if(srcclk == RCC_LPUART1CLKSOURCE_PCLK1)
 865:Drivers/STM32G4xx_HAL_Driver/Src/stm32g4xx_hal_rcc_ex.c ****       {
 866:Drivers/STM32G4xx_HAL_Driver/Src/stm32g4xx_hal_rcc_ex.c ****         frequency = HAL_RCC_GetPCLK1Freq();
 867:Drivers/STM32G4xx_HAL_Driver/Src/stm32g4xx_hal_rcc_ex.c ****       }
 868:Drivers/STM32G4xx_HAL_Driver/Src/stm32g4xx_hal_rcc_ex.c ****       else if(srcclk == RCC_LPUART1CLKSOURCE_SYSCLK)
 869:Drivers/STM32G4xx_HAL_Driver/Src/stm32g4xx_hal_rcc_ex.c ****       {
 870:Drivers/STM32G4xx_HAL_Driver/Src/stm32g4xx_hal_rcc_ex.c ****         frequency = HAL_RCC_GetSysClockFreq();
 871:Drivers/STM32G4xx_HAL_Driver/Src/stm32g4xx_hal_rcc_ex.c ****       }
 872:Drivers/STM32G4xx_HAL_Driver/Src/stm32g4xx_hal_rcc_ex.c ****       else if((HAL_IS_BIT_SET(RCC->CR, RCC_CR_HSIRDY)) && (srcclk == RCC_LPUART1CLKSOURCE_HSI))
 873:Drivers/STM32G4xx_HAL_Driver/Src/stm32g4xx_hal_rcc_ex.c ****       {
 874:Drivers/STM32G4xx_HAL_Driver/Src/stm32g4xx_hal_rcc_ex.c ****         frequency = HSI_VALUE;
 875:Drivers/STM32G4xx_HAL_Driver/Src/stm32g4xx_hal_rcc_ex.c ****       }
 876:Drivers/STM32G4xx_HAL_Driver/Src/stm32g4xx_hal_rcc_ex.c ****       else if((HAL_IS_BIT_SET(RCC->BDCR, RCC_BDCR_LSERDY)) && (srcclk == RCC_LPUART1CLKSOURCE_LSE))
 877:Drivers/STM32G4xx_HAL_Driver/Src/stm32g4xx_hal_rcc_ex.c ****       {
 878:Drivers/STM32G4xx_HAL_Driver/Src/stm32g4xx_hal_rcc_ex.c ****         frequency = LSE_VALUE;
 879:Drivers/STM32G4xx_HAL_Driver/Src/stm32g4xx_hal_rcc_ex.c ****       }
 880:Drivers/STM32G4xx_HAL_Driver/Src/stm32g4xx_hal_rcc_ex.c ****       /* Clock not enabled for LPUART1 */
 881:Drivers/STM32G4xx_HAL_Driver/Src/stm32g4xx_hal_rcc_ex.c ****       else
 882:Drivers/STM32G4xx_HAL_Driver/Src/stm32g4xx_hal_rcc_ex.c ****       {
 883:Drivers/STM32G4xx_HAL_Driver/Src/stm32g4xx_hal_rcc_ex.c ****         /* nothing to do: frequency already initialized to 0 */
 884:Drivers/STM32G4xx_HAL_Driver/Src/stm32g4xx_hal_rcc_ex.c ****       }
 885:Drivers/STM32G4xx_HAL_Driver/Src/stm32g4xx_hal_rcc_ex.c ****       break;
 886:Drivers/STM32G4xx_HAL_Driver/Src/stm32g4xx_hal_rcc_ex.c **** 
 887:Drivers/STM32G4xx_HAL_Driver/Src/stm32g4xx_hal_rcc_ex.c ****     case RCC_PERIPHCLK_I2C1:
 888:Drivers/STM32G4xx_HAL_Driver/Src/stm32g4xx_hal_rcc_ex.c ****       /* Get the current I2C1 source */
 889:Drivers/STM32G4xx_HAL_Driver/Src/stm32g4xx_hal_rcc_ex.c ****       srcclk = __HAL_RCC_GET_I2C1_SOURCE();
 890:Drivers/STM32G4xx_HAL_Driver/Src/stm32g4xx_hal_rcc_ex.c **** 
 891:Drivers/STM32G4xx_HAL_Driver/Src/stm32g4xx_hal_rcc_ex.c ****       if(srcclk == RCC_I2C1CLKSOURCE_PCLK1)
 892:Drivers/STM32G4xx_HAL_Driver/Src/stm32g4xx_hal_rcc_ex.c ****       {
 893:Drivers/STM32G4xx_HAL_Driver/Src/stm32g4xx_hal_rcc_ex.c ****         frequency = HAL_RCC_GetPCLK1Freq();
 894:Drivers/STM32G4xx_HAL_Driver/Src/stm32g4xx_hal_rcc_ex.c ****       }
 895:Drivers/STM32G4xx_HAL_Driver/Src/stm32g4xx_hal_rcc_ex.c ****       else if(srcclk == RCC_I2C1CLKSOURCE_SYSCLK)
 896:Drivers/STM32G4xx_HAL_Driver/Src/stm32g4xx_hal_rcc_ex.c ****       {
 897:Drivers/STM32G4xx_HAL_Driver/Src/stm32g4xx_hal_rcc_ex.c ****         frequency = HAL_RCC_GetSysClockFreq();
 898:Drivers/STM32G4xx_HAL_Driver/Src/stm32g4xx_hal_rcc_ex.c ****       }
 899:Drivers/STM32G4xx_HAL_Driver/Src/stm32g4xx_hal_rcc_ex.c ****       else if((HAL_IS_BIT_SET(RCC->CR, RCC_CR_HSIRDY)) && (srcclk == RCC_I2C1CLKSOURCE_HSI))
 900:Drivers/STM32G4xx_HAL_Driver/Src/stm32g4xx_hal_rcc_ex.c ****       {
 901:Drivers/STM32G4xx_HAL_Driver/Src/stm32g4xx_hal_rcc_ex.c ****         frequency = HSI_VALUE;
 902:Drivers/STM32G4xx_HAL_Driver/Src/stm32g4xx_hal_rcc_ex.c ****       }
 903:Drivers/STM32G4xx_HAL_Driver/Src/stm32g4xx_hal_rcc_ex.c ****       /* Clock not enabled for I2C1 */
 904:Drivers/STM32G4xx_HAL_Driver/Src/stm32g4xx_hal_rcc_ex.c ****       else
 905:Drivers/STM32G4xx_HAL_Driver/Src/stm32g4xx_hal_rcc_ex.c ****       {
 906:Drivers/STM32G4xx_HAL_Driver/Src/stm32g4xx_hal_rcc_ex.c ****         /* nothing to do: frequency already initialized to 0 */
 907:Drivers/STM32G4xx_HAL_Driver/Src/stm32g4xx_hal_rcc_ex.c ****       }
 908:Drivers/STM32G4xx_HAL_Driver/Src/stm32g4xx_hal_rcc_ex.c ****       break;
 909:Drivers/STM32G4xx_HAL_Driver/Src/stm32g4xx_hal_rcc_ex.c **** 
ARM GAS  C:\Users\HYDROG~1\AppData\Local\Temp\cc0rSm9d.s 			page 35


 910:Drivers/STM32G4xx_HAL_Driver/Src/stm32g4xx_hal_rcc_ex.c ****     case RCC_PERIPHCLK_I2C2:
 911:Drivers/STM32G4xx_HAL_Driver/Src/stm32g4xx_hal_rcc_ex.c ****       /* Get the current I2C2 source */
 912:Drivers/STM32G4xx_HAL_Driver/Src/stm32g4xx_hal_rcc_ex.c ****       srcclk = __HAL_RCC_GET_I2C2_SOURCE();
 913:Drivers/STM32G4xx_HAL_Driver/Src/stm32g4xx_hal_rcc_ex.c **** 
 914:Drivers/STM32G4xx_HAL_Driver/Src/stm32g4xx_hal_rcc_ex.c ****       if(srcclk == RCC_I2C2CLKSOURCE_PCLK1)
 915:Drivers/STM32G4xx_HAL_Driver/Src/stm32g4xx_hal_rcc_ex.c ****       {
 916:Drivers/STM32G4xx_HAL_Driver/Src/stm32g4xx_hal_rcc_ex.c ****         frequency = HAL_RCC_GetPCLK1Freq();
 917:Drivers/STM32G4xx_HAL_Driver/Src/stm32g4xx_hal_rcc_ex.c ****       }
 918:Drivers/STM32G4xx_HAL_Driver/Src/stm32g4xx_hal_rcc_ex.c ****       else if(srcclk == RCC_I2C2CLKSOURCE_SYSCLK)
 919:Drivers/STM32G4xx_HAL_Driver/Src/stm32g4xx_hal_rcc_ex.c ****       {
 920:Drivers/STM32G4xx_HAL_Driver/Src/stm32g4xx_hal_rcc_ex.c ****         frequency = HAL_RCC_GetSysClockFreq();
 921:Drivers/STM32G4xx_HAL_Driver/Src/stm32g4xx_hal_rcc_ex.c ****       }
 922:Drivers/STM32G4xx_HAL_Driver/Src/stm32g4xx_hal_rcc_ex.c ****       else if((HAL_IS_BIT_SET(RCC->CR, RCC_CR_HSIRDY)) && (srcclk == RCC_I2C2CLKSOURCE_HSI))
 923:Drivers/STM32G4xx_HAL_Driver/Src/stm32g4xx_hal_rcc_ex.c ****       {
 924:Drivers/STM32G4xx_HAL_Driver/Src/stm32g4xx_hal_rcc_ex.c ****         frequency = HSI_VALUE;
 925:Drivers/STM32G4xx_HAL_Driver/Src/stm32g4xx_hal_rcc_ex.c ****       }
 926:Drivers/STM32G4xx_HAL_Driver/Src/stm32g4xx_hal_rcc_ex.c ****       /* Clock not enabled for I2C2 */
 927:Drivers/STM32G4xx_HAL_Driver/Src/stm32g4xx_hal_rcc_ex.c ****       else
 928:Drivers/STM32G4xx_HAL_Driver/Src/stm32g4xx_hal_rcc_ex.c ****       {
 929:Drivers/STM32G4xx_HAL_Driver/Src/stm32g4xx_hal_rcc_ex.c ****         /* nothing to do: frequency already initialized to 0 */
 930:Drivers/STM32G4xx_HAL_Driver/Src/stm32g4xx_hal_rcc_ex.c ****       }
 931:Drivers/STM32G4xx_HAL_Driver/Src/stm32g4xx_hal_rcc_ex.c ****       break;
 932:Drivers/STM32G4xx_HAL_Driver/Src/stm32g4xx_hal_rcc_ex.c **** 
 933:Drivers/STM32G4xx_HAL_Driver/Src/stm32g4xx_hal_rcc_ex.c ****     case RCC_PERIPHCLK_I2C3:
 934:Drivers/STM32G4xx_HAL_Driver/Src/stm32g4xx_hal_rcc_ex.c ****       /* Get the current I2C3 source */
 935:Drivers/STM32G4xx_HAL_Driver/Src/stm32g4xx_hal_rcc_ex.c ****       srcclk = __HAL_RCC_GET_I2C3_SOURCE();
 985              		.loc 1 935 7 is_stmt 1 view .LVU319
 986              		.loc 1 935 16 is_stmt 0 view .LVU320
 987 0102 684B     		ldr	r3, .L213
 988              	.LVL37:
 989              		.loc 1 935 16 view .LVU321
 990 0104 D3F88830 		ldr	r3, [r3, #136]
 991              	.LVL38:
 936:Drivers/STM32G4xx_HAL_Driver/Src/stm32g4xx_hal_rcc_ex.c **** 
 937:Drivers/STM32G4xx_HAL_Driver/Src/stm32g4xx_hal_rcc_ex.c ****       if(srcclk == RCC_I2C3CLKSOURCE_PCLK1)
 992              		.loc 1 937 7 is_stmt 1 view .LVU322
 993              		.loc 1 937 9 is_stmt 0 view .LVU323
 994 0108 13F44033 		ands	r3, r3, #196608
 995              	.LVL39:
 996              		.loc 1 937 9 view .LVU324
 997 010c 00F0A181 		beq	.L170
 938:Drivers/STM32G4xx_HAL_Driver/Src/stm32g4xx_hal_rcc_ex.c ****       {
 939:Drivers/STM32G4xx_HAL_Driver/Src/stm32g4xx_hal_rcc_ex.c ****         frequency = HAL_RCC_GetPCLK1Freq();
 940:Drivers/STM32G4xx_HAL_Driver/Src/stm32g4xx_hal_rcc_ex.c ****       }
 941:Drivers/STM32G4xx_HAL_Driver/Src/stm32g4xx_hal_rcc_ex.c ****       else if(srcclk == RCC_I2C3CLKSOURCE_SYSCLK)
 998              		.loc 1 941 12 is_stmt 1 view .LVU325
 999              		.loc 1 941 14 is_stmt 0 view .LVU326
 1000 0110 B3F5803F 		cmp	r3, #65536
 1001 0114 00F0A081 		beq	.L171
 942:Drivers/STM32G4xx_HAL_Driver/Src/stm32g4xx_hal_rcc_ex.c ****       {
 943:Drivers/STM32G4xx_HAL_Driver/Src/stm32g4xx_hal_rcc_ex.c ****         frequency = HAL_RCC_GetSysClockFreq();
 944:Drivers/STM32G4xx_HAL_Driver/Src/stm32g4xx_hal_rcc_ex.c ****       }
 945:Drivers/STM32G4xx_HAL_Driver/Src/stm32g4xx_hal_rcc_ex.c ****       else if((HAL_IS_BIT_SET(RCC->CR, RCC_CR_HSIRDY)) && (srcclk == RCC_I2C3CLKSOURCE_HSI))
 1002              		.loc 1 945 12 is_stmt 1 view .LVU327
 1003              		.loc 1 945 16 is_stmt 0 view .LVU328
 1004 0118 624A     		ldr	r2, .L213
 1005              		.loc 1 945 16 view .LVU329
ARM GAS  C:\Users\HYDROG~1\AppData\Local\Temp\cc0rSm9d.s 			page 36


 1006 011a 1068     		ldr	r0, [r2]
 1007              	.LVL40:
 1008              		.loc 1 945 14 view .LVU330
 1009 011c 10F48060 		ands	r0, r0, #1024
 1010 0120 00F0EA82 		beq	.L53
 1011              		.loc 1 945 56 discriminator 1 view .LVU331
 1012 0124 B3F5003F 		cmp	r3, #131072
 1013 0128 00F00983 		beq	.L146
 650:Drivers/STM32G4xx_HAL_Driver/Src/stm32g4xx_hal_rcc_ex.c ****   uint32_t srcclk;
 1014              		.loc 1 650 12 view .LVU332
 1015 012c 0020     		movs	r0, #0
 1016 012e E3E2     		b	.L53
 1017              	.LVL41:
 1018              	.L169:
 718:Drivers/STM32G4xx_HAL_Driver/Src/stm32g4xx_hal_rcc_ex.c ****     {
 1019              		.loc 1 718 5 view .LVU333
 1020 0130 4028     		cmp	r0, #64
 1021 0132 16D1     		bne	.L172
 889:Drivers/STM32G4xx_HAL_Driver/Src/stm32g4xx_hal_rcc_ex.c **** 
 1022              		.loc 1 889 7 is_stmt 1 view .LVU334
 889:Drivers/STM32G4xx_HAL_Driver/Src/stm32g4xx_hal_rcc_ex.c **** 
 1023              		.loc 1 889 16 is_stmt 0 view .LVU335
 1024 0134 5B4B     		ldr	r3, .L213
 1025              	.LVL42:
 889:Drivers/STM32G4xx_HAL_Driver/Src/stm32g4xx_hal_rcc_ex.c **** 
 1026              		.loc 1 889 16 view .LVU336
 1027 0136 D3F88830 		ldr	r3, [r3, #136]
 1028              	.LVL43:
 891:Drivers/STM32G4xx_HAL_Driver/Src/stm32g4xx_hal_rcc_ex.c ****       {
 1029              		.loc 1 891 7 is_stmt 1 view .LVU337
 891:Drivers/STM32G4xx_HAL_Driver/Src/stm32g4xx_hal_rcc_ex.c ****       {
 1030              		.loc 1 891 9 is_stmt 0 view .LVU338
 1031 013a 13F44053 		ands	r3, r3, #12288
 1032              	.LVL44:
 891:Drivers/STM32G4xx_HAL_Driver/Src/stm32g4xx_hal_rcc_ex.c ****       {
 1033              		.loc 1 891 9 view .LVU339
 1034 013e 00F06781 		beq	.L173
 895:Drivers/STM32G4xx_HAL_Driver/Src/stm32g4xx_hal_rcc_ex.c ****       {
 1035              		.loc 1 895 12 is_stmt 1 view .LVU340
 895:Drivers/STM32G4xx_HAL_Driver/Src/stm32g4xx_hal_rcc_ex.c ****       {
 1036              		.loc 1 895 14 is_stmt 0 view .LVU341
 1037 0142 B3F5805F 		cmp	r3, #4096
 1038 0146 00F06681 		beq	.L174
 899:Drivers/STM32G4xx_HAL_Driver/Src/stm32g4xx_hal_rcc_ex.c ****       {
 1039              		.loc 1 899 12 is_stmt 1 view .LVU342
 899:Drivers/STM32G4xx_HAL_Driver/Src/stm32g4xx_hal_rcc_ex.c ****       {
 1040              		.loc 1 899 16 is_stmt 0 view .LVU343
 1041 014a 564A     		ldr	r2, .L213
 899:Drivers/STM32G4xx_HAL_Driver/Src/stm32g4xx_hal_rcc_ex.c ****       {
 1042              		.loc 1 899 16 view .LVU344
 1043 014c 1068     		ldr	r0, [r2]
 1044              	.LVL45:
 899:Drivers/STM32G4xx_HAL_Driver/Src/stm32g4xx_hal_rcc_ex.c ****       {
 1045              		.loc 1 899 14 view .LVU345
 1046 014e 10F48060 		ands	r0, r0, #1024
 1047 0152 00F0D182 		beq	.L53
 899:Drivers/STM32G4xx_HAL_Driver/Src/stm32g4xx_hal_rcc_ex.c ****       {
ARM GAS  C:\Users\HYDROG~1\AppData\Local\Temp\cc0rSm9d.s 			page 37


 1048              		.loc 1 899 56 discriminator 1 view .LVU346
 1049 0156 B3F5005F 		cmp	r3, #8192
 1050 015a 00F0EC82 		beq	.L144
 650:Drivers/STM32G4xx_HAL_Driver/Src/stm32g4xx_hal_rcc_ex.c ****   uint32_t srcclk;
 1051              		.loc 1 650 12 view .LVU347
 1052 015e 0020     		movs	r0, #0
 1053 0160 CAE2     		b	.L53
 1054              	.LVL46:
 1055              	.L172:
 718:Drivers/STM32G4xx_HAL_Driver/Src/stm32g4xx_hal_rcc_ex.c ****     {
 1056              		.loc 1 718 5 view .LVU348
 1057 0162 0020     		movs	r0, #0
 1058              	.LVL47:
 718:Drivers/STM32G4xx_HAL_Driver/Src/stm32g4xx_hal_rcc_ex.c ****     {
 1059              		.loc 1 718 5 view .LVU349
 1060 0164 C8E2     		b	.L53
 1061              	.LVL48:
 1062              	.L61:
 718:Drivers/STM32G4xx_HAL_Driver/Src/stm32g4xx_hal_rcc_ex.c ****     {
 1063              		.loc 1 718 5 view .LVU350
 1064 0166 B0F5804F 		cmp	r0, #16384
 1065 016a 00F04182 		beq	.L73
 1066 016e 19D9     		bls	.L175
 1067 0170 B0F5003F 		cmp	r0, #131072
 1068 0174 00F07381 		beq	.L80
 1069 0178 57D9     		bls	.L176
 1070 017a B0F5802F 		cmp	r0, #262144
 1071 017e 6CD1     		bne	.L177
 946:Drivers/STM32G4xx_HAL_Driver/Src/stm32g4xx_hal_rcc_ex.c ****       {
 947:Drivers/STM32G4xx_HAL_Driver/Src/stm32g4xx_hal_rcc_ex.c ****         frequency = HSI_VALUE;
 948:Drivers/STM32G4xx_HAL_Driver/Src/stm32g4xx_hal_rcc_ex.c ****       }
 949:Drivers/STM32G4xx_HAL_Driver/Src/stm32g4xx_hal_rcc_ex.c ****       /* Clock not enabled for I2C3 */
 950:Drivers/STM32G4xx_HAL_Driver/Src/stm32g4xx_hal_rcc_ex.c ****       else
 951:Drivers/STM32G4xx_HAL_Driver/Src/stm32g4xx_hal_rcc_ex.c ****       {
 952:Drivers/STM32G4xx_HAL_Driver/Src/stm32g4xx_hal_rcc_ex.c ****         /* nothing to do: frequency already initialized to 0 */
 953:Drivers/STM32G4xx_HAL_Driver/Src/stm32g4xx_hal_rcc_ex.c ****       }
 954:Drivers/STM32G4xx_HAL_Driver/Src/stm32g4xx_hal_rcc_ex.c ****       break;
 955:Drivers/STM32G4xx_HAL_Driver/Src/stm32g4xx_hal_rcc_ex.c **** 
 956:Drivers/STM32G4xx_HAL_Driver/Src/stm32g4xx_hal_rcc_ex.c **** #if defined(I2C4)
 957:Drivers/STM32G4xx_HAL_Driver/Src/stm32g4xx_hal_rcc_ex.c **** 
 958:Drivers/STM32G4xx_HAL_Driver/Src/stm32g4xx_hal_rcc_ex.c ****     case RCC_PERIPHCLK_I2C4:
 959:Drivers/STM32G4xx_HAL_Driver/Src/stm32g4xx_hal_rcc_ex.c ****       /* Get the current I2C4 source */
 960:Drivers/STM32G4xx_HAL_Driver/Src/stm32g4xx_hal_rcc_ex.c ****       srcclk = __HAL_RCC_GET_I2C4_SOURCE();
 961:Drivers/STM32G4xx_HAL_Driver/Src/stm32g4xx_hal_rcc_ex.c **** 
 962:Drivers/STM32G4xx_HAL_Driver/Src/stm32g4xx_hal_rcc_ex.c ****       if(srcclk == RCC_I2C4CLKSOURCE_PCLK1)
 963:Drivers/STM32G4xx_HAL_Driver/Src/stm32g4xx_hal_rcc_ex.c ****       {
 964:Drivers/STM32G4xx_HAL_Driver/Src/stm32g4xx_hal_rcc_ex.c ****         frequency = HAL_RCC_GetPCLK1Freq();
 965:Drivers/STM32G4xx_HAL_Driver/Src/stm32g4xx_hal_rcc_ex.c ****       }
 966:Drivers/STM32G4xx_HAL_Driver/Src/stm32g4xx_hal_rcc_ex.c ****       else if(srcclk == RCC_I2C4CLKSOURCE_SYSCLK)
 967:Drivers/STM32G4xx_HAL_Driver/Src/stm32g4xx_hal_rcc_ex.c ****       {
 968:Drivers/STM32G4xx_HAL_Driver/Src/stm32g4xx_hal_rcc_ex.c ****         frequency = HAL_RCC_GetSysClockFreq();
 969:Drivers/STM32G4xx_HAL_Driver/Src/stm32g4xx_hal_rcc_ex.c ****       }
 970:Drivers/STM32G4xx_HAL_Driver/Src/stm32g4xx_hal_rcc_ex.c ****       else if((HAL_IS_BIT_SET(RCC->CR, RCC_CR_HSIRDY)) && (srcclk == RCC_I2C4CLKSOURCE_HSI))
 971:Drivers/STM32G4xx_HAL_Driver/Src/stm32g4xx_hal_rcc_ex.c ****       {
 972:Drivers/STM32G4xx_HAL_Driver/Src/stm32g4xx_hal_rcc_ex.c ****         frequency = HSI_VALUE;
 973:Drivers/STM32G4xx_HAL_Driver/Src/stm32g4xx_hal_rcc_ex.c ****       }
 974:Drivers/STM32G4xx_HAL_Driver/Src/stm32g4xx_hal_rcc_ex.c ****       /* Clock not enabled for I2C4 */
ARM GAS  C:\Users\HYDROG~1\AppData\Local\Temp\cc0rSm9d.s 			page 38


 975:Drivers/STM32G4xx_HAL_Driver/Src/stm32g4xx_hal_rcc_ex.c ****       else
 976:Drivers/STM32G4xx_HAL_Driver/Src/stm32g4xx_hal_rcc_ex.c ****       {
 977:Drivers/STM32G4xx_HAL_Driver/Src/stm32g4xx_hal_rcc_ex.c ****         /* nothing to do: frequency already initialized to 0 */
 978:Drivers/STM32G4xx_HAL_Driver/Src/stm32g4xx_hal_rcc_ex.c ****       }
 979:Drivers/STM32G4xx_HAL_Driver/Src/stm32g4xx_hal_rcc_ex.c ****       break;
 980:Drivers/STM32G4xx_HAL_Driver/Src/stm32g4xx_hal_rcc_ex.c **** 
 981:Drivers/STM32G4xx_HAL_Driver/Src/stm32g4xx_hal_rcc_ex.c **** #endif /* I2C4 */
 982:Drivers/STM32G4xx_HAL_Driver/Src/stm32g4xx_hal_rcc_ex.c **** 
 983:Drivers/STM32G4xx_HAL_Driver/Src/stm32g4xx_hal_rcc_ex.c ****     case RCC_PERIPHCLK_LPTIM1:
 984:Drivers/STM32G4xx_HAL_Driver/Src/stm32g4xx_hal_rcc_ex.c ****       /* Get the current LPTIM1 source */
 985:Drivers/STM32G4xx_HAL_Driver/Src/stm32g4xx_hal_rcc_ex.c ****       srcclk = __HAL_RCC_GET_LPTIM1_SOURCE();
 986:Drivers/STM32G4xx_HAL_Driver/Src/stm32g4xx_hal_rcc_ex.c **** 
 987:Drivers/STM32G4xx_HAL_Driver/Src/stm32g4xx_hal_rcc_ex.c ****       if(srcclk == RCC_LPTIM1CLKSOURCE_PCLK1)
 988:Drivers/STM32G4xx_HAL_Driver/Src/stm32g4xx_hal_rcc_ex.c ****       {
 989:Drivers/STM32G4xx_HAL_Driver/Src/stm32g4xx_hal_rcc_ex.c ****         frequency = HAL_RCC_GetPCLK1Freq();
 990:Drivers/STM32G4xx_HAL_Driver/Src/stm32g4xx_hal_rcc_ex.c ****       }
 991:Drivers/STM32G4xx_HAL_Driver/Src/stm32g4xx_hal_rcc_ex.c ****       else if((HAL_IS_BIT_SET(RCC->CSR, RCC_CSR_LSIRDY)) && (srcclk == RCC_LPTIM1CLKSOURCE_LSI))
 992:Drivers/STM32G4xx_HAL_Driver/Src/stm32g4xx_hal_rcc_ex.c ****       {
 993:Drivers/STM32G4xx_HAL_Driver/Src/stm32g4xx_hal_rcc_ex.c ****         frequency = LSI_VALUE;
 994:Drivers/STM32G4xx_HAL_Driver/Src/stm32g4xx_hal_rcc_ex.c ****       }
 995:Drivers/STM32G4xx_HAL_Driver/Src/stm32g4xx_hal_rcc_ex.c ****       else if((HAL_IS_BIT_SET(RCC->CR, RCC_CR_HSIRDY)) && (srcclk == RCC_LPTIM1CLKSOURCE_HSI))
 996:Drivers/STM32G4xx_HAL_Driver/Src/stm32g4xx_hal_rcc_ex.c ****       {
 997:Drivers/STM32G4xx_HAL_Driver/Src/stm32g4xx_hal_rcc_ex.c ****         frequency = HSI_VALUE;
 998:Drivers/STM32G4xx_HAL_Driver/Src/stm32g4xx_hal_rcc_ex.c ****       }
 999:Drivers/STM32G4xx_HAL_Driver/Src/stm32g4xx_hal_rcc_ex.c ****       else if ((HAL_IS_BIT_SET(RCC->BDCR, RCC_BDCR_LSERDY)) && (srcclk == RCC_LPTIM1CLKSOURCE_LSE))
1000:Drivers/STM32G4xx_HAL_Driver/Src/stm32g4xx_hal_rcc_ex.c ****       {
1001:Drivers/STM32G4xx_HAL_Driver/Src/stm32g4xx_hal_rcc_ex.c ****         frequency = LSE_VALUE;
1002:Drivers/STM32G4xx_HAL_Driver/Src/stm32g4xx_hal_rcc_ex.c ****       }
1003:Drivers/STM32G4xx_HAL_Driver/Src/stm32g4xx_hal_rcc_ex.c ****       /* Clock not enabled for LPTIM1 */
1004:Drivers/STM32G4xx_HAL_Driver/Src/stm32g4xx_hal_rcc_ex.c ****       else
1005:Drivers/STM32G4xx_HAL_Driver/Src/stm32g4xx_hal_rcc_ex.c ****       {
1006:Drivers/STM32G4xx_HAL_Driver/Src/stm32g4xx_hal_rcc_ex.c ****         /* nothing to do: frequency already initialized to 0 */
1007:Drivers/STM32G4xx_HAL_Driver/Src/stm32g4xx_hal_rcc_ex.c ****       }
1008:Drivers/STM32G4xx_HAL_Driver/Src/stm32g4xx_hal_rcc_ex.c ****       break;
1009:Drivers/STM32G4xx_HAL_Driver/Src/stm32g4xx_hal_rcc_ex.c **** 
1010:Drivers/STM32G4xx_HAL_Driver/Src/stm32g4xx_hal_rcc_ex.c ****     case RCC_PERIPHCLK_SAI1:
1011:Drivers/STM32G4xx_HAL_Driver/Src/stm32g4xx_hal_rcc_ex.c ****       /* Get the current SAI1 source */
1012:Drivers/STM32G4xx_HAL_Driver/Src/stm32g4xx_hal_rcc_ex.c ****       srcclk = __HAL_RCC_GET_SAI1_SOURCE();
1013:Drivers/STM32G4xx_HAL_Driver/Src/stm32g4xx_hal_rcc_ex.c **** 
1014:Drivers/STM32G4xx_HAL_Driver/Src/stm32g4xx_hal_rcc_ex.c ****       if(srcclk == RCC_SAI1CLKSOURCE_SYSCLK)
1015:Drivers/STM32G4xx_HAL_Driver/Src/stm32g4xx_hal_rcc_ex.c ****       {
1016:Drivers/STM32G4xx_HAL_Driver/Src/stm32g4xx_hal_rcc_ex.c ****         frequency = HAL_RCC_GetSysClockFreq();
1017:Drivers/STM32G4xx_HAL_Driver/Src/stm32g4xx_hal_rcc_ex.c ****       }
1018:Drivers/STM32G4xx_HAL_Driver/Src/stm32g4xx_hal_rcc_ex.c ****       else if(srcclk == RCC_SAI1CLKSOURCE_PLL)
1019:Drivers/STM32G4xx_HAL_Driver/Src/stm32g4xx_hal_rcc_ex.c ****       {
1020:Drivers/STM32G4xx_HAL_Driver/Src/stm32g4xx_hal_rcc_ex.c ****         if(__HAL_RCC_GET_PLLCLKOUT_CONFIG(RCC_PLL_48M1CLK) != 0U)
1021:Drivers/STM32G4xx_HAL_Driver/Src/stm32g4xx_hal_rcc_ex.c ****         {
1022:Drivers/STM32G4xx_HAL_Driver/Src/stm32g4xx_hal_rcc_ex.c ****           /* f(PLLQ) = f(VCO input) * PLLN / PLLQ */
1023:Drivers/STM32G4xx_HAL_Driver/Src/stm32g4xx_hal_rcc_ex.c ****           plln = READ_BIT(RCC->PLLCFGR, RCC_PLLCFGR_PLLN) >> RCC_PLLCFGR_PLLN_Pos;
1024:Drivers/STM32G4xx_HAL_Driver/Src/stm32g4xx_hal_rcc_ex.c ****           frequency = (pllvco * plln) / (((READ_BIT(RCC->PLLCFGR, RCC_PLLCFGR_PLLQ) >> RCC_PLLCFGR_
1025:Drivers/STM32G4xx_HAL_Driver/Src/stm32g4xx_hal_rcc_ex.c ****         }
1026:Drivers/STM32G4xx_HAL_Driver/Src/stm32g4xx_hal_rcc_ex.c ****       }
1027:Drivers/STM32G4xx_HAL_Driver/Src/stm32g4xx_hal_rcc_ex.c ****       else if(srcclk == RCC_SAI1CLKSOURCE_EXT)
1028:Drivers/STM32G4xx_HAL_Driver/Src/stm32g4xx_hal_rcc_ex.c ****       {
1029:Drivers/STM32G4xx_HAL_Driver/Src/stm32g4xx_hal_rcc_ex.c ****         /* External clock used.*/
1030:Drivers/STM32G4xx_HAL_Driver/Src/stm32g4xx_hal_rcc_ex.c ****         frequency = EXTERNAL_CLOCK_VALUE;
1031:Drivers/STM32G4xx_HAL_Driver/Src/stm32g4xx_hal_rcc_ex.c ****       }
ARM GAS  C:\Users\HYDROG~1\AppData\Local\Temp\cc0rSm9d.s 			page 39


1032:Drivers/STM32G4xx_HAL_Driver/Src/stm32g4xx_hal_rcc_ex.c ****       else if((HAL_IS_BIT_SET(RCC->CR, RCC_CR_HSIRDY)) && (srcclk == RCC_SAI1CLKSOURCE_HSI))
1033:Drivers/STM32G4xx_HAL_Driver/Src/stm32g4xx_hal_rcc_ex.c ****       {
1034:Drivers/STM32G4xx_HAL_Driver/Src/stm32g4xx_hal_rcc_ex.c ****         frequency = HSI_VALUE;
1035:Drivers/STM32G4xx_HAL_Driver/Src/stm32g4xx_hal_rcc_ex.c ****       }
1036:Drivers/STM32G4xx_HAL_Driver/Src/stm32g4xx_hal_rcc_ex.c ****       /* Clock not enabled for SAI1 */
1037:Drivers/STM32G4xx_HAL_Driver/Src/stm32g4xx_hal_rcc_ex.c ****       else
1038:Drivers/STM32G4xx_HAL_Driver/Src/stm32g4xx_hal_rcc_ex.c ****       {
1039:Drivers/STM32G4xx_HAL_Driver/Src/stm32g4xx_hal_rcc_ex.c ****         /* nothing to do: frequency already initialized to 0 */
1040:Drivers/STM32G4xx_HAL_Driver/Src/stm32g4xx_hal_rcc_ex.c ****       }
1041:Drivers/STM32G4xx_HAL_Driver/Src/stm32g4xx_hal_rcc_ex.c ****       break;
1042:Drivers/STM32G4xx_HAL_Driver/Src/stm32g4xx_hal_rcc_ex.c **** 
1043:Drivers/STM32G4xx_HAL_Driver/Src/stm32g4xx_hal_rcc_ex.c ****     case RCC_PERIPHCLK_I2S:
1044:Drivers/STM32G4xx_HAL_Driver/Src/stm32g4xx_hal_rcc_ex.c ****       /* Get the current I2Sx source */
1045:Drivers/STM32G4xx_HAL_Driver/Src/stm32g4xx_hal_rcc_ex.c ****       srcclk = __HAL_RCC_GET_I2S_SOURCE();
1046:Drivers/STM32G4xx_HAL_Driver/Src/stm32g4xx_hal_rcc_ex.c **** 
1047:Drivers/STM32G4xx_HAL_Driver/Src/stm32g4xx_hal_rcc_ex.c ****       if(srcclk == RCC_I2SCLKSOURCE_SYSCLK)
1048:Drivers/STM32G4xx_HAL_Driver/Src/stm32g4xx_hal_rcc_ex.c ****       {
1049:Drivers/STM32G4xx_HAL_Driver/Src/stm32g4xx_hal_rcc_ex.c ****         frequency = HAL_RCC_GetSysClockFreq();
1050:Drivers/STM32G4xx_HAL_Driver/Src/stm32g4xx_hal_rcc_ex.c ****       }
1051:Drivers/STM32G4xx_HAL_Driver/Src/stm32g4xx_hal_rcc_ex.c ****       else if(srcclk == RCC_I2SCLKSOURCE_PLL)
1052:Drivers/STM32G4xx_HAL_Driver/Src/stm32g4xx_hal_rcc_ex.c ****       {
1053:Drivers/STM32G4xx_HAL_Driver/Src/stm32g4xx_hal_rcc_ex.c ****         if(__HAL_RCC_GET_PLLCLKOUT_CONFIG(RCC_PLL_48M1CLK) != 0U)
1054:Drivers/STM32G4xx_HAL_Driver/Src/stm32g4xx_hal_rcc_ex.c ****         {
1055:Drivers/STM32G4xx_HAL_Driver/Src/stm32g4xx_hal_rcc_ex.c ****           /* f(PLLQ) = f(VCO input) * PLLN / PLLQ */
1056:Drivers/STM32G4xx_HAL_Driver/Src/stm32g4xx_hal_rcc_ex.c ****           plln = READ_BIT(RCC->PLLCFGR, RCC_PLLCFGR_PLLN) >> RCC_PLLCFGR_PLLN_Pos;
1057:Drivers/STM32G4xx_HAL_Driver/Src/stm32g4xx_hal_rcc_ex.c ****           frequency = (pllvco * plln) / (((READ_BIT(RCC->PLLCFGR, RCC_PLLCFGR_PLLQ) >> RCC_PLLCFGR_
1058:Drivers/STM32G4xx_HAL_Driver/Src/stm32g4xx_hal_rcc_ex.c ****         }
1059:Drivers/STM32G4xx_HAL_Driver/Src/stm32g4xx_hal_rcc_ex.c ****       }
1060:Drivers/STM32G4xx_HAL_Driver/Src/stm32g4xx_hal_rcc_ex.c ****       else if(srcclk == RCC_I2SCLKSOURCE_EXT)
1061:Drivers/STM32G4xx_HAL_Driver/Src/stm32g4xx_hal_rcc_ex.c ****       {
1062:Drivers/STM32G4xx_HAL_Driver/Src/stm32g4xx_hal_rcc_ex.c ****         /* External clock used.*/
1063:Drivers/STM32G4xx_HAL_Driver/Src/stm32g4xx_hal_rcc_ex.c ****         frequency = EXTERNAL_CLOCK_VALUE;
1064:Drivers/STM32G4xx_HAL_Driver/Src/stm32g4xx_hal_rcc_ex.c ****       }      
1065:Drivers/STM32G4xx_HAL_Driver/Src/stm32g4xx_hal_rcc_ex.c ****       else if((HAL_IS_BIT_SET(RCC->CR, RCC_CR_HSIRDY)) && (srcclk == RCC_I2SCLKSOURCE_HSI))
1066:Drivers/STM32G4xx_HAL_Driver/Src/stm32g4xx_hal_rcc_ex.c ****       {
1067:Drivers/STM32G4xx_HAL_Driver/Src/stm32g4xx_hal_rcc_ex.c ****         frequency = HSI_VALUE;
1068:Drivers/STM32G4xx_HAL_Driver/Src/stm32g4xx_hal_rcc_ex.c ****       }
1069:Drivers/STM32G4xx_HAL_Driver/Src/stm32g4xx_hal_rcc_ex.c ****       /* Clock not enabled for I2S */
1070:Drivers/STM32G4xx_HAL_Driver/Src/stm32g4xx_hal_rcc_ex.c ****       else
1071:Drivers/STM32G4xx_HAL_Driver/Src/stm32g4xx_hal_rcc_ex.c ****       {
1072:Drivers/STM32G4xx_HAL_Driver/Src/stm32g4xx_hal_rcc_ex.c ****         /* nothing to do: frequency already initialized to 0 */
1073:Drivers/STM32G4xx_HAL_Driver/Src/stm32g4xx_hal_rcc_ex.c ****       }
1074:Drivers/STM32G4xx_HAL_Driver/Src/stm32g4xx_hal_rcc_ex.c ****       break;
1075:Drivers/STM32G4xx_HAL_Driver/Src/stm32g4xx_hal_rcc_ex.c **** 
1076:Drivers/STM32G4xx_HAL_Driver/Src/stm32g4xx_hal_rcc_ex.c **** #if defined(FDCAN1)
1077:Drivers/STM32G4xx_HAL_Driver/Src/stm32g4xx_hal_rcc_ex.c ****     case RCC_PERIPHCLK_FDCAN:
1078:Drivers/STM32G4xx_HAL_Driver/Src/stm32g4xx_hal_rcc_ex.c ****       /* Get the current FDCANx source */
1079:Drivers/STM32G4xx_HAL_Driver/Src/stm32g4xx_hal_rcc_ex.c ****       srcclk = __HAL_RCC_GET_FDCAN_SOURCE();
1080:Drivers/STM32G4xx_HAL_Driver/Src/stm32g4xx_hal_rcc_ex.c **** 
1081:Drivers/STM32G4xx_HAL_Driver/Src/stm32g4xx_hal_rcc_ex.c ****       if(srcclk == RCC_FDCANCLKSOURCE_PCLK1)
1082:Drivers/STM32G4xx_HAL_Driver/Src/stm32g4xx_hal_rcc_ex.c ****       {
1083:Drivers/STM32G4xx_HAL_Driver/Src/stm32g4xx_hal_rcc_ex.c ****         frequency = HAL_RCC_GetPCLK1Freq();
1084:Drivers/STM32G4xx_HAL_Driver/Src/stm32g4xx_hal_rcc_ex.c ****       }
1085:Drivers/STM32G4xx_HAL_Driver/Src/stm32g4xx_hal_rcc_ex.c ****       else if(srcclk == RCC_FDCANCLKSOURCE_HSE)
1086:Drivers/STM32G4xx_HAL_Driver/Src/stm32g4xx_hal_rcc_ex.c ****       {
1087:Drivers/STM32G4xx_HAL_Driver/Src/stm32g4xx_hal_rcc_ex.c ****         frequency = HSE_VALUE;
1088:Drivers/STM32G4xx_HAL_Driver/Src/stm32g4xx_hal_rcc_ex.c ****       }
ARM GAS  C:\Users\HYDROG~1\AppData\Local\Temp\cc0rSm9d.s 			page 40


1089:Drivers/STM32G4xx_HAL_Driver/Src/stm32g4xx_hal_rcc_ex.c ****       else if(srcclk == RCC_FDCANCLKSOURCE_PLL)
1090:Drivers/STM32G4xx_HAL_Driver/Src/stm32g4xx_hal_rcc_ex.c ****       {
1091:Drivers/STM32G4xx_HAL_Driver/Src/stm32g4xx_hal_rcc_ex.c ****         if(__HAL_RCC_GET_PLLCLKOUT_CONFIG(RCC_PLL_48M1CLK) != 0U)
1092:Drivers/STM32G4xx_HAL_Driver/Src/stm32g4xx_hal_rcc_ex.c ****         {
1093:Drivers/STM32G4xx_HAL_Driver/Src/stm32g4xx_hal_rcc_ex.c ****           /* f(PLLQ) = f(VCO input) * PLLN / PLLQ */
1094:Drivers/STM32G4xx_HAL_Driver/Src/stm32g4xx_hal_rcc_ex.c ****           plln = READ_BIT(RCC->PLLCFGR, RCC_PLLCFGR_PLLN) >> RCC_PLLCFGR_PLLN_Pos;
1095:Drivers/STM32G4xx_HAL_Driver/Src/stm32g4xx_hal_rcc_ex.c ****           frequency = (pllvco * plln) / (((READ_BIT(RCC->PLLCFGR, RCC_PLLCFGR_PLLQ) >> RCC_PLLCFGR_
1096:Drivers/STM32G4xx_HAL_Driver/Src/stm32g4xx_hal_rcc_ex.c ****         }
1097:Drivers/STM32G4xx_HAL_Driver/Src/stm32g4xx_hal_rcc_ex.c ****       }
1098:Drivers/STM32G4xx_HAL_Driver/Src/stm32g4xx_hal_rcc_ex.c ****       /* Clock not enabled for FDCAN */
1099:Drivers/STM32G4xx_HAL_Driver/Src/stm32g4xx_hal_rcc_ex.c ****       else
1100:Drivers/STM32G4xx_HAL_Driver/Src/stm32g4xx_hal_rcc_ex.c ****       {
1101:Drivers/STM32G4xx_HAL_Driver/Src/stm32g4xx_hal_rcc_ex.c ****         /* nothing to do: frequency already initialized to 0 */
1102:Drivers/STM32G4xx_HAL_Driver/Src/stm32g4xx_hal_rcc_ex.c ****       }
1103:Drivers/STM32G4xx_HAL_Driver/Src/stm32g4xx_hal_rcc_ex.c ****       break;
1104:Drivers/STM32G4xx_HAL_Driver/Src/stm32g4xx_hal_rcc_ex.c **** #endif /* FDCAN1 */
1105:Drivers/STM32G4xx_HAL_Driver/Src/stm32g4xx_hal_rcc_ex.c ****     
1106:Drivers/STM32G4xx_HAL_Driver/Src/stm32g4xx_hal_rcc_ex.c **** #if defined(USB)
1107:Drivers/STM32G4xx_HAL_Driver/Src/stm32g4xx_hal_rcc_ex.c ****     
1108:Drivers/STM32G4xx_HAL_Driver/Src/stm32g4xx_hal_rcc_ex.c ****     case RCC_PERIPHCLK_USB:
1109:Drivers/STM32G4xx_HAL_Driver/Src/stm32g4xx_hal_rcc_ex.c ****       /* Get the current USB source */
1110:Drivers/STM32G4xx_HAL_Driver/Src/stm32g4xx_hal_rcc_ex.c ****       srcclk = __HAL_RCC_GET_USB_SOURCE();
1111:Drivers/STM32G4xx_HAL_Driver/Src/stm32g4xx_hal_rcc_ex.c ****       
1112:Drivers/STM32G4xx_HAL_Driver/Src/stm32g4xx_hal_rcc_ex.c ****       if(srcclk == RCC_USBCLKSOURCE_PLL)  /* PLL ? */
1113:Drivers/STM32G4xx_HAL_Driver/Src/stm32g4xx_hal_rcc_ex.c ****       {
1114:Drivers/STM32G4xx_HAL_Driver/Src/stm32g4xx_hal_rcc_ex.c ****         /* f(PLLQ) = f(VCO input) * PLLN / PLLQ */
1115:Drivers/STM32G4xx_HAL_Driver/Src/stm32g4xx_hal_rcc_ex.c ****         plln = READ_BIT(RCC->PLLCFGR, RCC_PLLCFGR_PLLN) >> RCC_PLLCFGR_PLLN_Pos;
1116:Drivers/STM32G4xx_HAL_Driver/Src/stm32g4xx_hal_rcc_ex.c ****         frequency = (pllvco * plln) / (((READ_BIT(RCC->PLLCFGR, RCC_PLLCFGR_PLLQ) >> RCC_PLLCFGR_PL
1117:Drivers/STM32G4xx_HAL_Driver/Src/stm32g4xx_hal_rcc_ex.c ****       }
1118:Drivers/STM32G4xx_HAL_Driver/Src/stm32g4xx_hal_rcc_ex.c ****       else if((HAL_IS_BIT_SET(RCC->CRRCR, RCC_CRRCR_HSI48RDY)) && (srcclk == RCC_USBCLKSOURCE_HSI48
1119:Drivers/STM32G4xx_HAL_Driver/Src/stm32g4xx_hal_rcc_ex.c ****       {
1120:Drivers/STM32G4xx_HAL_Driver/Src/stm32g4xx_hal_rcc_ex.c ****         frequency = HSI48_VALUE;
1121:Drivers/STM32G4xx_HAL_Driver/Src/stm32g4xx_hal_rcc_ex.c ****       }
1122:Drivers/STM32G4xx_HAL_Driver/Src/stm32g4xx_hal_rcc_ex.c ****       else /* No clock source */
1123:Drivers/STM32G4xx_HAL_Driver/Src/stm32g4xx_hal_rcc_ex.c ****       {
1124:Drivers/STM32G4xx_HAL_Driver/Src/stm32g4xx_hal_rcc_ex.c ****         /* nothing to do: frequency already initialized to 0 */
1125:Drivers/STM32G4xx_HAL_Driver/Src/stm32g4xx_hal_rcc_ex.c ****       }
1126:Drivers/STM32G4xx_HAL_Driver/Src/stm32g4xx_hal_rcc_ex.c ****       break;
1127:Drivers/STM32G4xx_HAL_Driver/Src/stm32g4xx_hal_rcc_ex.c ****       
1128:Drivers/STM32G4xx_HAL_Driver/Src/stm32g4xx_hal_rcc_ex.c **** #endif /* USB */
1129:Drivers/STM32G4xx_HAL_Driver/Src/stm32g4xx_hal_rcc_ex.c **** 
1130:Drivers/STM32G4xx_HAL_Driver/Src/stm32g4xx_hal_rcc_ex.c ****     case RCC_PERIPHCLK_RNG:
1131:Drivers/STM32G4xx_HAL_Driver/Src/stm32g4xx_hal_rcc_ex.c ****       /* Get the current RNG source */
1132:Drivers/STM32G4xx_HAL_Driver/Src/stm32g4xx_hal_rcc_ex.c ****       srcclk = __HAL_RCC_GET_RNG_SOURCE();
1133:Drivers/STM32G4xx_HAL_Driver/Src/stm32g4xx_hal_rcc_ex.c **** 
1134:Drivers/STM32G4xx_HAL_Driver/Src/stm32g4xx_hal_rcc_ex.c ****       if(srcclk == RCC_RNGCLKSOURCE_PLL)  /* PLL ? */
1135:Drivers/STM32G4xx_HAL_Driver/Src/stm32g4xx_hal_rcc_ex.c ****       {
1136:Drivers/STM32G4xx_HAL_Driver/Src/stm32g4xx_hal_rcc_ex.c ****         /* f(PLLQ) = f(VCO input) * PLLN / PLLQ */
1137:Drivers/STM32G4xx_HAL_Driver/Src/stm32g4xx_hal_rcc_ex.c ****         plln = READ_BIT(RCC->PLLCFGR, RCC_PLLCFGR_PLLN) >> RCC_PLLCFGR_PLLN_Pos;
1138:Drivers/STM32G4xx_HAL_Driver/Src/stm32g4xx_hal_rcc_ex.c ****         frequency = (pllvco * plln) / (((READ_BIT(RCC->PLLCFGR, RCC_PLLCFGR_PLLQ) >> RCC_PLLCFGR_PL
1139:Drivers/STM32G4xx_HAL_Driver/Src/stm32g4xx_hal_rcc_ex.c ****       }
1140:Drivers/STM32G4xx_HAL_Driver/Src/stm32g4xx_hal_rcc_ex.c ****       else if( (HAL_IS_BIT_SET(RCC->CRRCR, RCC_CRRCR_HSI48RDY)) && (srcclk == RCC_RNGCLKSOURCE_HSI4
1141:Drivers/STM32G4xx_HAL_Driver/Src/stm32g4xx_hal_rcc_ex.c ****       {
1142:Drivers/STM32G4xx_HAL_Driver/Src/stm32g4xx_hal_rcc_ex.c ****         frequency = HSI48_VALUE;
1143:Drivers/STM32G4xx_HAL_Driver/Src/stm32g4xx_hal_rcc_ex.c ****       }
1144:Drivers/STM32G4xx_HAL_Driver/Src/stm32g4xx_hal_rcc_ex.c ****       else /* No clock source */
1145:Drivers/STM32G4xx_HAL_Driver/Src/stm32g4xx_hal_rcc_ex.c ****       {
ARM GAS  C:\Users\HYDROG~1\AppData\Local\Temp\cc0rSm9d.s 			page 41


1146:Drivers/STM32G4xx_HAL_Driver/Src/stm32g4xx_hal_rcc_ex.c ****         /* nothing to do: frequency already initialized to 0 */
1147:Drivers/STM32G4xx_HAL_Driver/Src/stm32g4xx_hal_rcc_ex.c ****       }
1148:Drivers/STM32G4xx_HAL_Driver/Src/stm32g4xx_hal_rcc_ex.c ****       break;
1149:Drivers/STM32G4xx_HAL_Driver/Src/stm32g4xx_hal_rcc_ex.c **** 
1150:Drivers/STM32G4xx_HAL_Driver/Src/stm32g4xx_hal_rcc_ex.c ****     case RCC_PERIPHCLK_ADC12:
1151:Drivers/STM32G4xx_HAL_Driver/Src/stm32g4xx_hal_rcc_ex.c ****       /* Get the current ADC12 source */
1152:Drivers/STM32G4xx_HAL_Driver/Src/stm32g4xx_hal_rcc_ex.c ****       srcclk = __HAL_RCC_GET_ADC12_SOURCE();
1153:Drivers/STM32G4xx_HAL_Driver/Src/stm32g4xx_hal_rcc_ex.c ****       
1154:Drivers/STM32G4xx_HAL_Driver/Src/stm32g4xx_hal_rcc_ex.c ****       if(srcclk == RCC_ADC12CLKSOURCE_PLL)
1155:Drivers/STM32G4xx_HAL_Driver/Src/stm32g4xx_hal_rcc_ex.c ****       {
1156:Drivers/STM32G4xx_HAL_Driver/Src/stm32g4xx_hal_rcc_ex.c ****         if(__HAL_RCC_GET_PLLCLKOUT_CONFIG(RCC_PLL_ADCCLK) != 0U)
1157:Drivers/STM32G4xx_HAL_Driver/Src/stm32g4xx_hal_rcc_ex.c ****         {
1158:Drivers/STM32G4xx_HAL_Driver/Src/stm32g4xx_hal_rcc_ex.c ****           /* f(PLLP) = f(VCO input) * PLLN / PLLP */
1159:Drivers/STM32G4xx_HAL_Driver/Src/stm32g4xx_hal_rcc_ex.c ****           plln = READ_BIT(RCC->PLLCFGR, RCC_PLLCFGR_PLLN) >> RCC_PLLCFGR_PLLN_Pos;
1160:Drivers/STM32G4xx_HAL_Driver/Src/stm32g4xx_hal_rcc_ex.c ****           pllp = READ_BIT(RCC->PLLCFGR, RCC_PLLCFGR_PLLPDIV) >> RCC_PLLCFGR_PLLPDIV_Pos;
1161:Drivers/STM32G4xx_HAL_Driver/Src/stm32g4xx_hal_rcc_ex.c ****           if(pllp == 0U)
1162:Drivers/STM32G4xx_HAL_Driver/Src/stm32g4xx_hal_rcc_ex.c ****           {
1163:Drivers/STM32G4xx_HAL_Driver/Src/stm32g4xx_hal_rcc_ex.c ****             if(READ_BIT(RCC->PLLCFGR, RCC_PLLCFGR_PLLP) != 0U)
1164:Drivers/STM32G4xx_HAL_Driver/Src/stm32g4xx_hal_rcc_ex.c ****             {
1165:Drivers/STM32G4xx_HAL_Driver/Src/stm32g4xx_hal_rcc_ex.c ****               pllp = 17U;
1166:Drivers/STM32G4xx_HAL_Driver/Src/stm32g4xx_hal_rcc_ex.c ****             }
1167:Drivers/STM32G4xx_HAL_Driver/Src/stm32g4xx_hal_rcc_ex.c ****             else
1168:Drivers/STM32G4xx_HAL_Driver/Src/stm32g4xx_hal_rcc_ex.c ****             {
1169:Drivers/STM32G4xx_HAL_Driver/Src/stm32g4xx_hal_rcc_ex.c ****               pllp = 7U;
1170:Drivers/STM32G4xx_HAL_Driver/Src/stm32g4xx_hal_rcc_ex.c ****             }
1171:Drivers/STM32G4xx_HAL_Driver/Src/stm32g4xx_hal_rcc_ex.c ****           }
1172:Drivers/STM32G4xx_HAL_Driver/Src/stm32g4xx_hal_rcc_ex.c ****           frequency = (pllvco * plln) / pllp;
1173:Drivers/STM32G4xx_HAL_Driver/Src/stm32g4xx_hal_rcc_ex.c ****         }
1174:Drivers/STM32G4xx_HAL_Driver/Src/stm32g4xx_hal_rcc_ex.c ****       }
1175:Drivers/STM32G4xx_HAL_Driver/Src/stm32g4xx_hal_rcc_ex.c ****       else if(srcclk == RCC_ADC12CLKSOURCE_SYSCLK)
1176:Drivers/STM32G4xx_HAL_Driver/Src/stm32g4xx_hal_rcc_ex.c ****       {
1177:Drivers/STM32G4xx_HAL_Driver/Src/stm32g4xx_hal_rcc_ex.c ****         frequency = HAL_RCC_GetSysClockFreq();
1178:Drivers/STM32G4xx_HAL_Driver/Src/stm32g4xx_hal_rcc_ex.c ****       }
1179:Drivers/STM32G4xx_HAL_Driver/Src/stm32g4xx_hal_rcc_ex.c ****       /* Clock not enabled for ADC12 */
1180:Drivers/STM32G4xx_HAL_Driver/Src/stm32g4xx_hal_rcc_ex.c ****       else
1181:Drivers/STM32G4xx_HAL_Driver/Src/stm32g4xx_hal_rcc_ex.c ****       {
1182:Drivers/STM32G4xx_HAL_Driver/Src/stm32g4xx_hal_rcc_ex.c ****         /* nothing to do: frequency already initialized to 0 */
1183:Drivers/STM32G4xx_HAL_Driver/Src/stm32g4xx_hal_rcc_ex.c ****       }
1184:Drivers/STM32G4xx_HAL_Driver/Src/stm32g4xx_hal_rcc_ex.c ****       break;
1185:Drivers/STM32G4xx_HAL_Driver/Src/stm32g4xx_hal_rcc_ex.c **** 
1186:Drivers/STM32G4xx_HAL_Driver/Src/stm32g4xx_hal_rcc_ex.c **** #if defined(ADC345_COMMON)
1187:Drivers/STM32G4xx_HAL_Driver/Src/stm32g4xx_hal_rcc_ex.c ****     case RCC_PERIPHCLK_ADC345:
1188:Drivers/STM32G4xx_HAL_Driver/Src/stm32g4xx_hal_rcc_ex.c ****       /* Get the current ADC345 source */
1189:Drivers/STM32G4xx_HAL_Driver/Src/stm32g4xx_hal_rcc_ex.c ****       srcclk = __HAL_RCC_GET_ADC345_SOURCE();
1190:Drivers/STM32G4xx_HAL_Driver/Src/stm32g4xx_hal_rcc_ex.c ****       
1191:Drivers/STM32G4xx_HAL_Driver/Src/stm32g4xx_hal_rcc_ex.c ****       if(srcclk == RCC_ADC345CLKSOURCE_PLL)
1192:Drivers/STM32G4xx_HAL_Driver/Src/stm32g4xx_hal_rcc_ex.c ****       {
1193:Drivers/STM32G4xx_HAL_Driver/Src/stm32g4xx_hal_rcc_ex.c ****         if(__HAL_RCC_GET_PLLCLKOUT_CONFIG(RCC_PLL_ADCCLK) != 0U)
1194:Drivers/STM32G4xx_HAL_Driver/Src/stm32g4xx_hal_rcc_ex.c ****         {
1195:Drivers/STM32G4xx_HAL_Driver/Src/stm32g4xx_hal_rcc_ex.c ****           /* f(PLLP) = f(VCO input) * PLLN / PLLP */
1196:Drivers/STM32G4xx_HAL_Driver/Src/stm32g4xx_hal_rcc_ex.c ****           plln = READ_BIT(RCC->PLLCFGR, RCC_PLLCFGR_PLLN) >> RCC_PLLCFGR_PLLN_Pos;
1197:Drivers/STM32G4xx_HAL_Driver/Src/stm32g4xx_hal_rcc_ex.c ****           pllp = READ_BIT(RCC->PLLCFGR, RCC_PLLCFGR_PLLPDIV) >> RCC_PLLCFGR_PLLPDIV_Pos;
1198:Drivers/STM32G4xx_HAL_Driver/Src/stm32g4xx_hal_rcc_ex.c ****           if(pllp == 0U)
1199:Drivers/STM32G4xx_HAL_Driver/Src/stm32g4xx_hal_rcc_ex.c ****           {
1200:Drivers/STM32G4xx_HAL_Driver/Src/stm32g4xx_hal_rcc_ex.c ****             if(READ_BIT(RCC->PLLCFGR, RCC_PLLCFGR_PLLP) != 0U)
1201:Drivers/STM32G4xx_HAL_Driver/Src/stm32g4xx_hal_rcc_ex.c ****             {
1202:Drivers/STM32G4xx_HAL_Driver/Src/stm32g4xx_hal_rcc_ex.c ****               pllp = 17U;
ARM GAS  C:\Users\HYDROG~1\AppData\Local\Temp\cc0rSm9d.s 			page 42


1203:Drivers/STM32G4xx_HAL_Driver/Src/stm32g4xx_hal_rcc_ex.c ****             }
1204:Drivers/STM32G4xx_HAL_Driver/Src/stm32g4xx_hal_rcc_ex.c ****             else
1205:Drivers/STM32G4xx_HAL_Driver/Src/stm32g4xx_hal_rcc_ex.c ****             {
1206:Drivers/STM32G4xx_HAL_Driver/Src/stm32g4xx_hal_rcc_ex.c ****               pllp = 7U;
1207:Drivers/STM32G4xx_HAL_Driver/Src/stm32g4xx_hal_rcc_ex.c ****             }
1208:Drivers/STM32G4xx_HAL_Driver/Src/stm32g4xx_hal_rcc_ex.c ****           }
1209:Drivers/STM32G4xx_HAL_Driver/Src/stm32g4xx_hal_rcc_ex.c ****           frequency = (pllvco * plln) / pllp;
1210:Drivers/STM32G4xx_HAL_Driver/Src/stm32g4xx_hal_rcc_ex.c ****         }
1211:Drivers/STM32G4xx_HAL_Driver/Src/stm32g4xx_hal_rcc_ex.c ****       }
1212:Drivers/STM32G4xx_HAL_Driver/Src/stm32g4xx_hal_rcc_ex.c ****       else if(srcclk == RCC_ADC345CLKSOURCE_SYSCLK)
1213:Drivers/STM32G4xx_HAL_Driver/Src/stm32g4xx_hal_rcc_ex.c ****       {
1214:Drivers/STM32G4xx_HAL_Driver/Src/stm32g4xx_hal_rcc_ex.c ****         frequency = HAL_RCC_GetSysClockFreq();
1215:Drivers/STM32G4xx_HAL_Driver/Src/stm32g4xx_hal_rcc_ex.c ****       }
1216:Drivers/STM32G4xx_HAL_Driver/Src/stm32g4xx_hal_rcc_ex.c ****       /* Clock not enabled for ADC345 */
1217:Drivers/STM32G4xx_HAL_Driver/Src/stm32g4xx_hal_rcc_ex.c ****       else
1218:Drivers/STM32G4xx_HAL_Driver/Src/stm32g4xx_hal_rcc_ex.c ****       {
1219:Drivers/STM32G4xx_HAL_Driver/Src/stm32g4xx_hal_rcc_ex.c ****         /* nothing to do: frequency already initialized to 0 */
1220:Drivers/STM32G4xx_HAL_Driver/Src/stm32g4xx_hal_rcc_ex.c ****       }
1221:Drivers/STM32G4xx_HAL_Driver/Src/stm32g4xx_hal_rcc_ex.c ****       break;
1222:Drivers/STM32G4xx_HAL_Driver/Src/stm32g4xx_hal_rcc_ex.c **** #endif /* ADC345_COMMON */
1223:Drivers/STM32G4xx_HAL_Driver/Src/stm32g4xx_hal_rcc_ex.c **** 
1224:Drivers/STM32G4xx_HAL_Driver/Src/stm32g4xx_hal_rcc_ex.c **** #if defined(QUADSPI)
1225:Drivers/STM32G4xx_HAL_Driver/Src/stm32g4xx_hal_rcc_ex.c **** 
1226:Drivers/STM32G4xx_HAL_Driver/Src/stm32g4xx_hal_rcc_ex.c ****     case RCC_PERIPHCLK_QSPI:
1227:Drivers/STM32G4xx_HAL_Driver/Src/stm32g4xx_hal_rcc_ex.c ****       /* Get the current QSPI source */
1228:Drivers/STM32G4xx_HAL_Driver/Src/stm32g4xx_hal_rcc_ex.c ****       srcclk = __HAL_RCC_GET_QSPI_SOURCE();
 1072              		.loc 1 1228 7 is_stmt 1 view .LVU351
 1073              		.loc 1 1228 16 is_stmt 0 view .LVU352
 1074 0180 484A     		ldr	r2, .L213
 1075 0182 D2F89C20 		ldr	r2, [r2, #156]
 1076              		.loc 1 1228 14 view .LVU353
 1077 0186 02F44012 		and	r2, r2, #3145728
 1078              	.LVL49:
1229:Drivers/STM32G4xx_HAL_Driver/Src/stm32g4xx_hal_rcc_ex.c ****       
1230:Drivers/STM32G4xx_HAL_Driver/Src/stm32g4xx_hal_rcc_ex.c ****       if(srcclk == RCC_QSPICLKSOURCE_PLL)  /* PLL ? */
 1079              		.loc 1 1230 7 is_stmt 1 view .LVU354
 1080              		.loc 1 1230 9 is_stmt 0 view .LVU355
 1081 018a B2F5001F 		cmp	r2, #2097152
 1082 018e 00F09782 		beq	.L178
1231:Drivers/STM32G4xx_HAL_Driver/Src/stm32g4xx_hal_rcc_ex.c ****       {
1232:Drivers/STM32G4xx_HAL_Driver/Src/stm32g4xx_hal_rcc_ex.c ****         /* f(PLLQ) = f(VCO input) * PLLN / PLLQ */
1233:Drivers/STM32G4xx_HAL_Driver/Src/stm32g4xx_hal_rcc_ex.c ****         plln = READ_BIT(RCC->PLLCFGR, RCC_PLLCFGR_PLLN) >> RCC_PLLCFGR_PLLN_Pos;
1234:Drivers/STM32G4xx_HAL_Driver/Src/stm32g4xx_hal_rcc_ex.c ****         frequency = (pllvco * plln) / (((READ_BIT(RCC->PLLCFGR, RCC_PLLCFGR_PLLQ) >> RCC_PLLCFGR_PL
1235:Drivers/STM32G4xx_HAL_Driver/Src/stm32g4xx_hal_rcc_ex.c ****       }
1236:Drivers/STM32G4xx_HAL_Driver/Src/stm32g4xx_hal_rcc_ex.c ****       else if(srcclk == RCC_QSPICLKSOURCE_HSI)
 1083              		.loc 1 1236 12 is_stmt 1 view .LVU356
 1084              		.loc 1 1236 14 is_stmt 0 view .LVU357
 1085 0192 B2F5801F 		cmp	r2, #1048576
 1086 0196 00F0EC82 		beq	.L163
1237:Drivers/STM32G4xx_HAL_Driver/Src/stm32g4xx_hal_rcc_ex.c ****       {
1238:Drivers/STM32G4xx_HAL_Driver/Src/stm32g4xx_hal_rcc_ex.c ****         frequency = HSI_VALUE;
1239:Drivers/STM32G4xx_HAL_Driver/Src/stm32g4xx_hal_rcc_ex.c ****       }      
1240:Drivers/STM32G4xx_HAL_Driver/Src/stm32g4xx_hal_rcc_ex.c ****       else if(srcclk == RCC_QSPICLKSOURCE_SYSCLK)
 1087              		.loc 1 1240 12 is_stmt 1 view .LVU358
 1088              		.loc 1 1240 14 is_stmt 0 view .LVU359
 1089 019a 002A     		cmp	r2, #0
 1090 019c 00F09E82 		beq	.L179
ARM GAS  C:\Users\HYDROG~1\AppData\Local\Temp\cc0rSm9d.s 			page 43


 650:Drivers/STM32G4xx_HAL_Driver/Src/stm32g4xx_hal_rcc_ex.c ****   uint32_t srcclk;
 1091              		.loc 1 650 12 view .LVU360
 1092 01a0 0020     		movs	r0, #0
 1093              	.LVL50:
1241:Drivers/STM32G4xx_HAL_Driver/Src/stm32g4xx_hal_rcc_ex.c ****       {
1242:Drivers/STM32G4xx_HAL_Driver/Src/stm32g4xx_hal_rcc_ex.c ****         frequency = HAL_RCC_GetSysClockFreq();
1243:Drivers/STM32G4xx_HAL_Driver/Src/stm32g4xx_hal_rcc_ex.c ****       }
1244:Drivers/STM32G4xx_HAL_Driver/Src/stm32g4xx_hal_rcc_ex.c ****       else /* No clock source */
1245:Drivers/STM32G4xx_HAL_Driver/Src/stm32g4xx_hal_rcc_ex.c ****       {
1246:Drivers/STM32G4xx_HAL_Driver/Src/stm32g4xx_hal_rcc_ex.c ****         /* nothing to do: frequency already initialized to 0 */
1247:Drivers/STM32G4xx_HAL_Driver/Src/stm32g4xx_hal_rcc_ex.c ****       }
1248:Drivers/STM32G4xx_HAL_Driver/Src/stm32g4xx_hal_rcc_ex.c ****       break;
1249:Drivers/STM32G4xx_HAL_Driver/Src/stm32g4xx_hal_rcc_ex.c **** 
1250:Drivers/STM32G4xx_HAL_Driver/Src/stm32g4xx_hal_rcc_ex.c **** #endif /* QUADSPI */
1251:Drivers/STM32G4xx_HAL_Driver/Src/stm32g4xx_hal_rcc_ex.c **** 
1252:Drivers/STM32G4xx_HAL_Driver/Src/stm32g4xx_hal_rcc_ex.c ****     default:
1253:Drivers/STM32G4xx_HAL_Driver/Src/stm32g4xx_hal_rcc_ex.c ****       break;
1254:Drivers/STM32G4xx_HAL_Driver/Src/stm32g4xx_hal_rcc_ex.c ****     }
1255:Drivers/STM32G4xx_HAL_Driver/Src/stm32g4xx_hal_rcc_ex.c ****   }
1256:Drivers/STM32G4xx_HAL_Driver/Src/stm32g4xx_hal_rcc_ex.c **** 
1257:Drivers/STM32G4xx_HAL_Driver/Src/stm32g4xx_hal_rcc_ex.c ****   return(frequency);
 1094              		.loc 1 1257 3 is_stmt 1 view .LVU361
 1095              		.loc 1 1257 9 is_stmt 0 view .LVU362
 1096 01a2 A9E2     		b	.L53
 1097              	.LVL51:
 1098              	.L175:
 718:Drivers/STM32G4xx_HAL_Driver/Src/stm32g4xx_hal_rcc_ex.c ****     {
 1099              		.loc 1 718 5 view .LVU363
 1100 01a4 B0F5805F 		cmp	r0, #4096
 1101 01a8 00F0EA81 		beq	.L75
 1102 01ac 17D9     		bls	.L180
 1103 01ae B0F5005F 		cmp	r0, #8192
 1104 01b2 38D1     		bne	.L181
1110:Drivers/STM32G4xx_HAL_Driver/Src/stm32g4xx_hal_rcc_ex.c ****       
 1105              		.loc 1 1110 7 is_stmt 1 view .LVU364
1110:Drivers/STM32G4xx_HAL_Driver/Src/stm32g4xx_hal_rcc_ex.c ****       
 1106              		.loc 1 1110 16 is_stmt 0 view .LVU365
 1107 01b4 3B4A     		ldr	r2, .L213
 1108 01b6 D2F88820 		ldr	r2, [r2, #136]
1110:Drivers/STM32G4xx_HAL_Driver/Src/stm32g4xx_hal_rcc_ex.c ****       
 1109              		.loc 1 1110 14 view .LVU366
 1110 01ba 02F04062 		and	r2, r2, #201326592
 1111              	.LVL52:
1112:Drivers/STM32G4xx_HAL_Driver/Src/stm32g4xx_hal_rcc_ex.c ****       {
 1112              		.loc 1 1112 7 is_stmt 1 view .LVU367
1112:Drivers/STM32G4xx_HAL_Driver/Src/stm32g4xx_hal_rcc_ex.c ****       {
 1113              		.loc 1 1112 9 is_stmt 0 view .LVU368
 1114 01be B2F1006F 		cmp	r2, #134217728
 1115 01c2 00F00782 		beq	.L182
1118:Drivers/STM32G4xx_HAL_Driver/Src/stm32g4xx_hal_rcc_ex.c ****       {
 1116              		.loc 1 1118 12 is_stmt 1 view .LVU369
1118:Drivers/STM32G4xx_HAL_Driver/Src/stm32g4xx_hal_rcc_ex.c ****       {
 1117              		.loc 1 1118 16 is_stmt 0 view .LVU370
 1118 01c6 374B     		ldr	r3, .L213
 1119              	.LVL53:
1118:Drivers/STM32G4xx_HAL_Driver/Src/stm32g4xx_hal_rcc_ex.c ****       {
 1120              		.loc 1 1118 16 view .LVU371
ARM GAS  C:\Users\HYDROG~1\AppData\Local\Temp\cc0rSm9d.s 			page 44


 1121 01c8 D3F89800 		ldr	r0, [r3, #152]
 1122              	.LVL54:
1118:Drivers/STM32G4xx_HAL_Driver/Src/stm32g4xx_hal_rcc_ex.c ****       {
 1123              		.loc 1 1118 14 view .LVU372
 1124 01cc 10F00200 		ands	r0, r0, #2
 1125 01d0 00F09282 		beq	.L53
1118:Drivers/STM32G4xx_HAL_Driver/Src/stm32g4xx_hal_rcc_ex.c ****       {
 1126              		.loc 1 1118 64 discriminator 1 view .LVU373
 1127 01d4 002A     		cmp	r2, #0
 1128 01d6 00F0C882 		beq	.L157
 650:Drivers/STM32G4xx_HAL_Driver/Src/stm32g4xx_hal_rcc_ex.c ****   uint32_t srcclk;
 1129              		.loc 1 650 12 view .LVU374
 1130 01da 0020     		movs	r0, #0
 1131 01dc 8CE2     		b	.L53
 1132              	.LVL55:
 1133              	.L180:
 718:Drivers/STM32G4xx_HAL_Driver/Src/stm32g4xx_hal_rcc_ex.c ****     {
 1134              		.loc 1 718 5 view .LVU375
 1135 01de B0F5806F 		cmp	r0, #1024
 1136 01e2 00F07E81 		beq	.L77
 1137 01e6 B0F5006F 		cmp	r0, #2048
 1138 01ea 1AD1     		bne	.L183
1045:Drivers/STM32G4xx_HAL_Driver/Src/stm32g4xx_hal_rcc_ex.c **** 
 1139              		.loc 1 1045 7 is_stmt 1 view .LVU376
1045:Drivers/STM32G4xx_HAL_Driver/Src/stm32g4xx_hal_rcc_ex.c **** 
 1140              		.loc 1 1045 16 is_stmt 0 view .LVU377
 1141 01ec 2D4A     		ldr	r2, .L213
 1142 01ee D2F88820 		ldr	r2, [r2, #136]
 1143              	.LVL56:
1047:Drivers/STM32G4xx_HAL_Driver/Src/stm32g4xx_hal_rcc_ex.c ****       {
 1144              		.loc 1 1047 7 is_stmt 1 view .LVU378
1047:Drivers/STM32G4xx_HAL_Driver/Src/stm32g4xx_hal_rcc_ex.c ****       {
 1145              		.loc 1 1047 9 is_stmt 0 view .LVU379
 1146 01f2 12F44002 		ands	r2, r2, #12582912
 1147              	.LVL57:
1047:Drivers/STM32G4xx_HAL_Driver/Src/stm32g4xx_hal_rcc_ex.c ****       {
 1148              		.loc 1 1047 9 view .LVU380
 1149 01f6 00F0A781 		beq	.L184
1051:Drivers/STM32G4xx_HAL_Driver/Src/stm32g4xx_hal_rcc_ex.c ****       {
 1150              		.loc 1 1051 12 is_stmt 1 view .LVU381
1051:Drivers/STM32G4xx_HAL_Driver/Src/stm32g4xx_hal_rcc_ex.c ****       {
 1151              		.loc 1 1051 14 is_stmt 0 view .LVU382
 1152 01fa B2F5800F 		cmp	r2, #4194304
 1153 01fe 00F0A681 		beq	.L185
1060:Drivers/STM32G4xx_HAL_Driver/Src/stm32g4xx_hal_rcc_ex.c ****       {
 1154              		.loc 1 1060 12 is_stmt 1 view .LVU383
1060:Drivers/STM32G4xx_HAL_Driver/Src/stm32g4xx_hal_rcc_ex.c ****       {
 1155              		.loc 1 1060 14 is_stmt 0 view .LVU384
 1156 0202 B2F5000F 		cmp	r2, #8388608
 1157 0206 00F0AA82 		beq	.L153
1065:Drivers/STM32G4xx_HAL_Driver/Src/stm32g4xx_hal_rcc_ex.c ****       {
 1158              		.loc 1 1065 12 is_stmt 1 view .LVU385
1065:Drivers/STM32G4xx_HAL_Driver/Src/stm32g4xx_hal_rcc_ex.c ****       {
 1159              		.loc 1 1065 16 is_stmt 0 view .LVU386
 1160 020a 264B     		ldr	r3, .L213
 1161              	.LVL58:
1065:Drivers/STM32G4xx_HAL_Driver/Src/stm32g4xx_hal_rcc_ex.c ****       {
ARM GAS  C:\Users\HYDROG~1\AppData\Local\Temp\cc0rSm9d.s 			page 45


 1162              		.loc 1 1065 16 view .LVU387
 1163 020c 1868     		ldr	r0, [r3]
 1164              	.LVL59:
1065:Drivers/STM32G4xx_HAL_Driver/Src/stm32g4xx_hal_rcc_ex.c ****       {
 1165              		.loc 1 1065 14 view .LVU388
 1166 020e 10F48060 		ands	r0, r0, #1024
 1167 0212 00F07182 		beq	.L53
1065:Drivers/STM32G4xx_HAL_Driver/Src/stm32g4xx_hal_rcc_ex.c ****       {
 1168              		.loc 1 1065 56 discriminator 1 view .LVU389
 1169 0216 B2F5400F 		cmp	r2, #12582912
 1170 021a 00F0A282 		beq	.L154
 650:Drivers/STM32G4xx_HAL_Driver/Src/stm32g4xx_hal_rcc_ex.c ****   uint32_t srcclk;
 1171              		.loc 1 650 12 view .LVU390
 1172 021e 0020     		movs	r0, #0
 1173 0220 6AE2     		b	.L53
 1174              	.LVL60:
 1175              	.L183:
 718:Drivers/STM32G4xx_HAL_Driver/Src/stm32g4xx_hal_rcc_ex.c ****     {
 1176              		.loc 1 718 5 view .LVU391
 1177 0222 0020     		movs	r0, #0
 1178              	.LVL61:
 718:Drivers/STM32G4xx_HAL_Driver/Src/stm32g4xx_hal_rcc_ex.c ****     {
 1179              		.loc 1 718 5 view .LVU392
 1180 0224 68E2     		b	.L53
 1181              	.LVL62:
 1182              	.L181:
 718:Drivers/STM32G4xx_HAL_Driver/Src/stm32g4xx_hal_rcc_ex.c ****     {
 1183              		.loc 1 718 5 view .LVU393
 1184 0226 0020     		movs	r0, #0
 1185              	.LVL63:
 718:Drivers/STM32G4xx_HAL_Driver/Src/stm32g4xx_hal_rcc_ex.c ****     {
 1186              		.loc 1 718 5 view .LVU394
 1187 0228 66E2     		b	.L53
 1188              	.LVL64:
 1189              	.L176:
 718:Drivers/STM32G4xx_HAL_Driver/Src/stm32g4xx_hal_rcc_ex.c ****     {
 1190              		.loc 1 718 5 view .LVU395
 1191 022a B0F5004F 		cmp	r0, #32768
 1192 022e 00F00082 		beq	.L82
 1193 0232 B0F5803F 		cmp	r0, #65536
 1194 0236 0ED1     		bne	.L186
1189:Drivers/STM32G4xx_HAL_Driver/Src/stm32g4xx_hal_rcc_ex.c ****       
 1195              		.loc 1 1189 7 is_stmt 1 view .LVU396
1189:Drivers/STM32G4xx_HAL_Driver/Src/stm32g4xx_hal_rcc_ex.c ****       
 1196              		.loc 1 1189 16 is_stmt 0 view .LVU397
 1197 0238 1A4A     		ldr	r2, .L213
 1198 023a D2F88820 		ldr	r2, [r2, #136]
1189:Drivers/STM32G4xx_HAL_Driver/Src/stm32g4xx_hal_rcc_ex.c ****       
 1199              		.loc 1 1189 14 view .LVU398
 1200 023e 02F04042 		and	r2, r2, #-1073741824
 1201              	.LVL65:
1191:Drivers/STM32G4xx_HAL_Driver/Src/stm32g4xx_hal_rcc_ex.c ****       {
 1202              		.loc 1 1191 7 is_stmt 1 view .LVU399
1191:Drivers/STM32G4xx_HAL_Driver/Src/stm32g4xx_hal_rcc_ex.c ****       {
 1203              		.loc 1 1191 9 is_stmt 0 view .LVU400
 1204 0242 B2F1804F 		cmp	r2, #1073741824
 1205 0246 00F01F82 		beq	.L187
ARM GAS  C:\Users\HYDROG~1\AppData\Local\Temp\cc0rSm9d.s 			page 46


1212:Drivers/STM32G4xx_HAL_Driver/Src/stm32g4xx_hal_rcc_ex.c ****       {
 1206              		.loc 1 1212 12 is_stmt 1 view .LVU401
1212:Drivers/STM32G4xx_HAL_Driver/Src/stm32g4xx_hal_rcc_ex.c ****       {
 1207              		.loc 1 1212 14 is_stmt 0 view .LVU402
 1208 024a B2F1004F 		cmp	r2, #-2147483648
 1209 024e 00F03482 		beq	.L188
 650:Drivers/STM32G4xx_HAL_Driver/Src/stm32g4xx_hal_rcc_ex.c ****   uint32_t srcclk;
 1210              		.loc 1 650 12 view .LVU403
 1211 0252 0020     		movs	r0, #0
 1212              	.LVL66:
 650:Drivers/STM32G4xx_HAL_Driver/Src/stm32g4xx_hal_rcc_ex.c ****   uint32_t srcclk;
 1213              		.loc 1 650 12 view .LVU404
 1214 0254 50E2     		b	.L53
 1215              	.LVL67:
 1216              	.L186:
 718:Drivers/STM32G4xx_HAL_Driver/Src/stm32g4xx_hal_rcc_ex.c ****     {
 1217              		.loc 1 718 5 view .LVU405
 1218 0256 0020     		movs	r0, #0
 1219              	.LVL68:
 718:Drivers/STM32G4xx_HAL_Driver/Src/stm32g4xx_hal_rcc_ex.c ****     {
 1220              		.loc 1 718 5 view .LVU406
 1221 0258 4EE2     		b	.L53
 1222              	.LVL69:
 1223              	.L177:
 718:Drivers/STM32G4xx_HAL_Driver/Src/stm32g4xx_hal_rcc_ex.c ****     {
 1224              		.loc 1 718 5 view .LVU407
 1225 025a 0020     		movs	r0, #0
 1226              	.LVL70:
 718:Drivers/STM32G4xx_HAL_Driver/Src/stm32g4xx_hal_rcc_ex.c ****     {
 1227              		.loc 1 718 5 view .LVU408
 1228 025c 4CE2     		b	.L53
 1229              	.LVL71:
 1230              	.L69:
 723:Drivers/STM32G4xx_HAL_Driver/Src/stm32g4xx_hal_rcc_ex.c **** 
 1231              		.loc 1 723 7 is_stmt 1 view .LVU409
 723:Drivers/STM32G4xx_HAL_Driver/Src/stm32g4xx_hal_rcc_ex.c **** 
 1232              		.loc 1 723 16 is_stmt 0 view .LVU410
 1233 025e 114B     		ldr	r3, .L213
 1234 0260 D3F88830 		ldr	r3, [r3, #136]
 1235              	.LVL72:
 725:Drivers/STM32G4xx_HAL_Driver/Src/stm32g4xx_hal_rcc_ex.c ****       {
 1236              		.loc 1 725 7 is_stmt 1 view .LVU411
 725:Drivers/STM32G4xx_HAL_Driver/Src/stm32g4xx_hal_rcc_ex.c ****       {
 1237              		.loc 1 725 9 is_stmt 0 view .LVU412
 1238 0264 13F00303 		ands	r3, r3, #3
 1239              	.LVL73:
 725:Drivers/STM32G4xx_HAL_Driver/Src/stm32g4xx_hal_rcc_ex.c ****       {
 1240              		.loc 1 725 9 view .LVU413
 1241 0268 15D0     		beq	.L189
 729:Drivers/STM32G4xx_HAL_Driver/Src/stm32g4xx_hal_rcc_ex.c ****       {
 1242              		.loc 1 729 12 is_stmt 1 view .LVU414
 729:Drivers/STM32G4xx_HAL_Driver/Src/stm32g4xx_hal_rcc_ex.c ****       {
 1243              		.loc 1 729 14 is_stmt 0 view .LVU415
 1244 026a 012B     		cmp	r3, #1
 1245 026c 16D0     		beq	.L190
 733:Drivers/STM32G4xx_HAL_Driver/Src/stm32g4xx_hal_rcc_ex.c ****       {
 1246              		.loc 1 733 12 is_stmt 1 view .LVU416
ARM GAS  C:\Users\HYDROG~1\AppData\Local\Temp\cc0rSm9d.s 			page 47


 733:Drivers/STM32G4xx_HAL_Driver/Src/stm32g4xx_hal_rcc_ex.c ****       {
 1247              		.loc 1 733 16 is_stmt 0 view .LVU417
 1248 026e 0D4A     		ldr	r2, .L213
 733:Drivers/STM32G4xx_HAL_Driver/Src/stm32g4xx_hal_rcc_ex.c ****       {
 1249              		.loc 1 733 16 view .LVU418
 1250 0270 1268     		ldr	r2, [r2]
 733:Drivers/STM32G4xx_HAL_Driver/Src/stm32g4xx_hal_rcc_ex.c ****       {
 1251              		.loc 1 733 14 view .LVU419
 1252 0272 12F4806F 		tst	r2, #1024
 1253 0276 02D0     		beq	.L87
 733:Drivers/STM32G4xx_HAL_Driver/Src/stm32g4xx_hal_rcc_ex.c ****       {
 1254              		.loc 1 733 56 discriminator 1 view .LVU420
 1255 0278 022B     		cmp	r3, #2
 1256 027a 00F03E82 		beq	.L132
 1257              	.L87:
 737:Drivers/STM32G4xx_HAL_Driver/Src/stm32g4xx_hal_rcc_ex.c ****       {
 1258              		.loc 1 737 12 is_stmt 1 view .LVU421
 737:Drivers/STM32G4xx_HAL_Driver/Src/stm32g4xx_hal_rcc_ex.c ****       {
 1259              		.loc 1 737 16 is_stmt 0 view .LVU422
 1260 027e 094A     		ldr	r2, .L213
 1261 0280 D2F89000 		ldr	r0, [r2, #144]
 1262              	.LVL74:
 737:Drivers/STM32G4xx_HAL_Driver/Src/stm32g4xx_hal_rcc_ex.c ****       {
 1263              		.loc 1 737 14 view .LVU423
 1264 0284 10F00200 		ands	r0, r0, #2
 1265 0288 00F03682 		beq	.L53
 737:Drivers/STM32G4xx_HAL_Driver/Src/stm32g4xx_hal_rcc_ex.c ****       {
 1266              		.loc 1 737 60 discriminator 1 view .LVU424
 1267 028c 032B     		cmp	r3, #3
 1268 028e 00F03682 		beq	.L133
 650:Drivers/STM32G4xx_HAL_Driver/Src/stm32g4xx_hal_rcc_ex.c ****   uint32_t srcclk;
 1269              		.loc 1 650 12 view .LVU425
 1270 0292 0020     		movs	r0, #0
 1271 0294 30E2     		b	.L53
 1272              	.L189:
 727:Drivers/STM32G4xx_HAL_Driver/Src/stm32g4xx_hal_rcc_ex.c ****       }
 1273              		.loc 1 727 9 is_stmt 1 view .LVU426
 727:Drivers/STM32G4xx_HAL_Driver/Src/stm32g4xx_hal_rcc_ex.c ****       }
 1274              		.loc 1 727 21 is_stmt 0 view .LVU427
 1275 0296 FFF7FEFF 		bl	HAL_RCC_GetPCLK2Freq
 1276              	.LVL75:
 727:Drivers/STM32G4xx_HAL_Driver/Src/stm32g4xx_hal_rcc_ex.c ****       }
 1277              		.loc 1 727 21 view .LVU428
 1278 029a 2DE2     		b	.L53
 1279              	.LVL76:
 1280              	.L190:
 731:Drivers/STM32G4xx_HAL_Driver/Src/stm32g4xx_hal_rcc_ex.c ****       }
 1281              		.loc 1 731 9 is_stmt 1 view .LVU429
 731:Drivers/STM32G4xx_HAL_Driver/Src/stm32g4xx_hal_rcc_ex.c ****       }
 1282              		.loc 1 731 21 is_stmt 0 view .LVU430
 1283 029c FFF7FEFF 		bl	HAL_RCC_GetSysClockFreq
 1284              	.LVL77:
 731:Drivers/STM32G4xx_HAL_Driver/Src/stm32g4xx_hal_rcc_ex.c ****       }
 1285              		.loc 1 731 21 view .LVU431
 1286 02a0 2AE2     		b	.L53
 1287              	.L214:
 1288 02a2 00BF     		.align	2
ARM GAS  C:\Users\HYDROG~1\AppData\Local\Temp\cc0rSm9d.s 			page 48


 1289              	.L213:
 1290 02a4 00100240 		.word	1073876992
 1291 02a8 0024F400 		.word	16000000
 1292 02ac 006CDC02 		.word	48000000
 1293              	.LVL78:
 1294              	.L68:
 750:Drivers/STM32G4xx_HAL_Driver/Src/stm32g4xx_hal_rcc_ex.c **** 
 1295              		.loc 1 750 7 is_stmt 1 view .LVU432
 750:Drivers/STM32G4xx_HAL_Driver/Src/stm32g4xx_hal_rcc_ex.c **** 
 1296              		.loc 1 750 16 is_stmt 0 view .LVU433
 1297 02b0 B24B     		ldr	r3, .L215
 1298 02b2 D3F88830 		ldr	r3, [r3, #136]
 1299              	.LVL79:
 752:Drivers/STM32G4xx_HAL_Driver/Src/stm32g4xx_hal_rcc_ex.c ****       {
 1300              		.loc 1 752 7 is_stmt 1 view .LVU434
 752:Drivers/STM32G4xx_HAL_Driver/Src/stm32g4xx_hal_rcc_ex.c ****       {
 1301              		.loc 1 752 9 is_stmt 0 view .LVU435
 1302 02b6 13F00C03 		ands	r3, r3, #12
 1303              	.LVL80:
 752:Drivers/STM32G4xx_HAL_Driver/Src/stm32g4xx_hal_rcc_ex.c ****       {
 1304              		.loc 1 752 9 view .LVU436
 1305 02ba 15D0     		beq	.L191
 756:Drivers/STM32G4xx_HAL_Driver/Src/stm32g4xx_hal_rcc_ex.c ****       {
 1306              		.loc 1 756 12 is_stmt 1 view .LVU437
 756:Drivers/STM32G4xx_HAL_Driver/Src/stm32g4xx_hal_rcc_ex.c ****       {
 1307              		.loc 1 756 14 is_stmt 0 view .LVU438
 1308 02bc 042B     		cmp	r3, #4
 1309 02be 16D0     		beq	.L192
 760:Drivers/STM32G4xx_HAL_Driver/Src/stm32g4xx_hal_rcc_ex.c ****       {
 1310              		.loc 1 760 12 is_stmt 1 view .LVU439
 760:Drivers/STM32G4xx_HAL_Driver/Src/stm32g4xx_hal_rcc_ex.c ****       {
 1311              		.loc 1 760 16 is_stmt 0 view .LVU440
 1312 02c0 AE4A     		ldr	r2, .L215
 760:Drivers/STM32G4xx_HAL_Driver/Src/stm32g4xx_hal_rcc_ex.c ****       {
 1313              		.loc 1 760 16 view .LVU441
 1314 02c2 1268     		ldr	r2, [r2]
 760:Drivers/STM32G4xx_HAL_Driver/Src/stm32g4xx_hal_rcc_ex.c ****       {
 1315              		.loc 1 760 14 view .LVU442
 1316 02c4 12F4806F 		tst	r2, #1024
 1317 02c8 02D0     		beq	.L90
 760:Drivers/STM32G4xx_HAL_Driver/Src/stm32g4xx_hal_rcc_ex.c ****       {
 1318              		.loc 1 760 56 discriminator 1 view .LVU443
 1319 02ca 082B     		cmp	r3, #8
 1320 02cc 00F01A82 		beq	.L134
 1321              	.L90:
 764:Drivers/STM32G4xx_HAL_Driver/Src/stm32g4xx_hal_rcc_ex.c ****       {
 1322              		.loc 1 764 12 is_stmt 1 view .LVU444
 764:Drivers/STM32G4xx_HAL_Driver/Src/stm32g4xx_hal_rcc_ex.c ****       {
 1323              		.loc 1 764 16 is_stmt 0 view .LVU445
 1324 02d0 AA4A     		ldr	r2, .L215
 1325 02d2 D2F89000 		ldr	r0, [r2, #144]
 764:Drivers/STM32G4xx_HAL_Driver/Src/stm32g4xx_hal_rcc_ex.c ****       {
 1326              		.loc 1 764 14 view .LVU446
 1327 02d6 10F00200 		ands	r0, r0, #2
 1328 02da 00F00D82 		beq	.L53
 764:Drivers/STM32G4xx_HAL_Driver/Src/stm32g4xx_hal_rcc_ex.c ****       {
 1329              		.loc 1 764 61 discriminator 1 view .LVU447
ARM GAS  C:\Users\HYDROG~1\AppData\Local\Temp\cc0rSm9d.s 			page 49


 1330 02de 0C2B     		cmp	r3, #12
 1331 02e0 00F01282 		beq	.L135
 650:Drivers/STM32G4xx_HAL_Driver/Src/stm32g4xx_hal_rcc_ex.c ****   uint32_t srcclk;
 1332              		.loc 1 650 12 view .LVU448
 1333 02e4 0020     		movs	r0, #0
 1334 02e6 07E2     		b	.L53
 1335              	.L191:
 754:Drivers/STM32G4xx_HAL_Driver/Src/stm32g4xx_hal_rcc_ex.c ****       }
 1336              		.loc 1 754 9 is_stmt 1 view .LVU449
 754:Drivers/STM32G4xx_HAL_Driver/Src/stm32g4xx_hal_rcc_ex.c ****       }
 1337              		.loc 1 754 21 is_stmt 0 view .LVU450
 1338 02e8 FFF7FEFF 		bl	HAL_RCC_GetPCLK1Freq
 1339              	.LVL81:
 754:Drivers/STM32G4xx_HAL_Driver/Src/stm32g4xx_hal_rcc_ex.c ****       }
 1340              		.loc 1 754 21 view .LVU451
 1341 02ec 04E2     		b	.L53
 1342              	.LVL82:
 1343              	.L192:
 758:Drivers/STM32G4xx_HAL_Driver/Src/stm32g4xx_hal_rcc_ex.c ****       }
 1344              		.loc 1 758 9 is_stmt 1 view .LVU452
 758:Drivers/STM32G4xx_HAL_Driver/Src/stm32g4xx_hal_rcc_ex.c ****       }
 1345              		.loc 1 758 21 is_stmt 0 view .LVU453
 1346 02ee FFF7FEFF 		bl	HAL_RCC_GetSysClockFreq
 1347              	.LVL83:
 758:Drivers/STM32G4xx_HAL_Driver/Src/stm32g4xx_hal_rcc_ex.c ****       }
 1348              		.loc 1 758 21 view .LVU454
 1349 02f2 01E2     		b	.L53
 1350              	.LVL84:
 1351              	.L67:
 777:Drivers/STM32G4xx_HAL_Driver/Src/stm32g4xx_hal_rcc_ex.c **** 
 1352              		.loc 1 777 7 is_stmt 1 view .LVU455
 777:Drivers/STM32G4xx_HAL_Driver/Src/stm32g4xx_hal_rcc_ex.c **** 
 1353              		.loc 1 777 16 is_stmt 0 view .LVU456
 1354 02f4 A14B     		ldr	r3, .L215
 1355 02f6 D3F88830 		ldr	r3, [r3, #136]
 1356              	.LVL85:
 779:Drivers/STM32G4xx_HAL_Driver/Src/stm32g4xx_hal_rcc_ex.c ****       {
 1357              		.loc 1 779 7 is_stmt 1 view .LVU457
 779:Drivers/STM32G4xx_HAL_Driver/Src/stm32g4xx_hal_rcc_ex.c ****       {
 1358              		.loc 1 779 9 is_stmt 0 view .LVU458
 1359 02fa 13F03003 		ands	r3, r3, #48
 1360              	.LVL86:
 779:Drivers/STM32G4xx_HAL_Driver/Src/stm32g4xx_hal_rcc_ex.c ****       {
 1361              		.loc 1 779 9 view .LVU459
 1362 02fe 15D0     		beq	.L193
 783:Drivers/STM32G4xx_HAL_Driver/Src/stm32g4xx_hal_rcc_ex.c ****       {
 1363              		.loc 1 783 12 is_stmt 1 view .LVU460
 783:Drivers/STM32G4xx_HAL_Driver/Src/stm32g4xx_hal_rcc_ex.c ****       {
 1364              		.loc 1 783 14 is_stmt 0 view .LVU461
 1365 0300 102B     		cmp	r3, #16
 1366 0302 16D0     		beq	.L194
 787:Drivers/STM32G4xx_HAL_Driver/Src/stm32g4xx_hal_rcc_ex.c ****       {
 1367              		.loc 1 787 12 is_stmt 1 view .LVU462
 787:Drivers/STM32G4xx_HAL_Driver/Src/stm32g4xx_hal_rcc_ex.c ****       {
 1368              		.loc 1 787 16 is_stmt 0 view .LVU463
 1369 0304 9D4A     		ldr	r2, .L215
 787:Drivers/STM32G4xx_HAL_Driver/Src/stm32g4xx_hal_rcc_ex.c ****       {
ARM GAS  C:\Users\HYDROG~1\AppData\Local\Temp\cc0rSm9d.s 			page 50


 1370              		.loc 1 787 16 view .LVU464
 1371 0306 1268     		ldr	r2, [r2]
 787:Drivers/STM32G4xx_HAL_Driver/Src/stm32g4xx_hal_rcc_ex.c ****       {
 1372              		.loc 1 787 14 view .LVU465
 1373 0308 12F4806F 		tst	r2, #1024
 1374 030c 02D0     		beq	.L93
 787:Drivers/STM32G4xx_HAL_Driver/Src/stm32g4xx_hal_rcc_ex.c ****       {
 1375              		.loc 1 787 56 discriminator 1 view .LVU466
 1376 030e 202B     		cmp	r3, #32
 1377 0310 00F0FD81 		beq	.L136
 1378              	.L93:
 791:Drivers/STM32G4xx_HAL_Driver/Src/stm32g4xx_hal_rcc_ex.c ****       {
 1379              		.loc 1 791 12 is_stmt 1 view .LVU467
 791:Drivers/STM32G4xx_HAL_Driver/Src/stm32g4xx_hal_rcc_ex.c ****       {
 1380              		.loc 1 791 16 is_stmt 0 view .LVU468
 1381 0314 994A     		ldr	r2, .L215
 1382 0316 D2F89000 		ldr	r0, [r2, #144]
 791:Drivers/STM32G4xx_HAL_Driver/Src/stm32g4xx_hal_rcc_ex.c ****       {
 1383              		.loc 1 791 14 view .LVU469
 1384 031a 10F00200 		ands	r0, r0, #2
 1385 031e 00F0EB81 		beq	.L53
 791:Drivers/STM32G4xx_HAL_Driver/Src/stm32g4xx_hal_rcc_ex.c ****       {
 1386              		.loc 1 791 60 discriminator 1 view .LVU470
 1387 0322 302B     		cmp	r3, #48
 1388 0324 00F0F581 		beq	.L137
 650:Drivers/STM32G4xx_HAL_Driver/Src/stm32g4xx_hal_rcc_ex.c ****   uint32_t srcclk;
 1389              		.loc 1 650 12 view .LVU471
 1390 0328 0020     		movs	r0, #0
 1391 032a E5E1     		b	.L53
 1392              	.L193:
 781:Drivers/STM32G4xx_HAL_Driver/Src/stm32g4xx_hal_rcc_ex.c ****       }
 1393              		.loc 1 781 9 is_stmt 1 view .LVU472
 781:Drivers/STM32G4xx_HAL_Driver/Src/stm32g4xx_hal_rcc_ex.c ****       }
 1394              		.loc 1 781 21 is_stmt 0 view .LVU473
 1395 032c FFF7FEFF 		bl	HAL_RCC_GetPCLK1Freq
 1396              	.LVL87:
 781:Drivers/STM32G4xx_HAL_Driver/Src/stm32g4xx_hal_rcc_ex.c ****       }
 1397              		.loc 1 781 21 view .LVU474
 1398 0330 E2E1     		b	.L53
 1399              	.LVL88:
 1400              	.L194:
 785:Drivers/STM32G4xx_HAL_Driver/Src/stm32g4xx_hal_rcc_ex.c ****       }
 1401              		.loc 1 785 9 is_stmt 1 view .LVU475
 785:Drivers/STM32G4xx_HAL_Driver/Src/stm32g4xx_hal_rcc_ex.c ****       }
 1402              		.loc 1 785 21 is_stmt 0 view .LVU476
 1403 0332 FFF7FEFF 		bl	HAL_RCC_GetSysClockFreq
 1404              	.LVL89:
 785:Drivers/STM32G4xx_HAL_Driver/Src/stm32g4xx_hal_rcc_ex.c ****       }
 1405              		.loc 1 785 21 view .LVU477
 1406 0336 DFE1     		b	.L53
 1407              	.LVL90:
 1408              	.L66:
 805:Drivers/STM32G4xx_HAL_Driver/Src/stm32g4xx_hal_rcc_ex.c **** 
 1409              		.loc 1 805 7 is_stmt 1 view .LVU478
 805:Drivers/STM32G4xx_HAL_Driver/Src/stm32g4xx_hal_rcc_ex.c **** 
 1410              		.loc 1 805 16 is_stmt 0 view .LVU479
 1411 0338 904B     		ldr	r3, .L215
ARM GAS  C:\Users\HYDROG~1\AppData\Local\Temp\cc0rSm9d.s 			page 51


 1412 033a D3F88830 		ldr	r3, [r3, #136]
 1413              	.LVL91:
 807:Drivers/STM32G4xx_HAL_Driver/Src/stm32g4xx_hal_rcc_ex.c ****       {
 1414              		.loc 1 807 7 is_stmt 1 view .LVU480
 807:Drivers/STM32G4xx_HAL_Driver/Src/stm32g4xx_hal_rcc_ex.c ****       {
 1415              		.loc 1 807 9 is_stmt 0 view .LVU481
 1416 033e 13F0C003 		ands	r3, r3, #192
 1417              	.LVL92:
 807:Drivers/STM32G4xx_HAL_Driver/Src/stm32g4xx_hal_rcc_ex.c ****       {
 1418              		.loc 1 807 9 view .LVU482
 1419 0342 15D0     		beq	.L195
 811:Drivers/STM32G4xx_HAL_Driver/Src/stm32g4xx_hal_rcc_ex.c ****       {
 1420              		.loc 1 811 12 is_stmt 1 view .LVU483
 811:Drivers/STM32G4xx_HAL_Driver/Src/stm32g4xx_hal_rcc_ex.c ****       {
 1421              		.loc 1 811 14 is_stmt 0 view .LVU484
 1422 0344 402B     		cmp	r3, #64
 1423 0346 16D0     		beq	.L196
 815:Drivers/STM32G4xx_HAL_Driver/Src/stm32g4xx_hal_rcc_ex.c ****       {
 1424              		.loc 1 815 12 is_stmt 1 view .LVU485
 815:Drivers/STM32G4xx_HAL_Driver/Src/stm32g4xx_hal_rcc_ex.c ****       {
 1425              		.loc 1 815 16 is_stmt 0 view .LVU486
 1426 0348 8C4A     		ldr	r2, .L215
 815:Drivers/STM32G4xx_HAL_Driver/Src/stm32g4xx_hal_rcc_ex.c ****       {
 1427              		.loc 1 815 16 view .LVU487
 1428 034a 1268     		ldr	r2, [r2]
 815:Drivers/STM32G4xx_HAL_Driver/Src/stm32g4xx_hal_rcc_ex.c ****       {
 1429              		.loc 1 815 14 view .LVU488
 1430 034c 12F4806F 		tst	r2, #1024
 1431 0350 02D0     		beq	.L96
 815:Drivers/STM32G4xx_HAL_Driver/Src/stm32g4xx_hal_rcc_ex.c ****       {
 1432              		.loc 1 815 56 discriminator 1 view .LVU489
 1433 0352 802B     		cmp	r3, #128
 1434 0354 00F0E081 		beq	.L138
 1435              	.L96:
 819:Drivers/STM32G4xx_HAL_Driver/Src/stm32g4xx_hal_rcc_ex.c ****       {
 1436              		.loc 1 819 12 is_stmt 1 view .LVU490
 819:Drivers/STM32G4xx_HAL_Driver/Src/stm32g4xx_hal_rcc_ex.c ****       {
 1437              		.loc 1 819 16 is_stmt 0 view .LVU491
 1438 0358 884A     		ldr	r2, .L215
 1439 035a D2F89000 		ldr	r0, [r2, #144]
 819:Drivers/STM32G4xx_HAL_Driver/Src/stm32g4xx_hal_rcc_ex.c ****       {
 1440              		.loc 1 819 14 view .LVU492
 1441 035e 10F00200 		ands	r0, r0, #2
 1442 0362 00F0C981 		beq	.L53
 819:Drivers/STM32G4xx_HAL_Driver/Src/stm32g4xx_hal_rcc_ex.c ****       {
 1443              		.loc 1 819 60 discriminator 1 view .LVU493
 1444 0366 C02B     		cmp	r3, #192
 1445 0368 00F0D881 		beq	.L139
 650:Drivers/STM32G4xx_HAL_Driver/Src/stm32g4xx_hal_rcc_ex.c ****   uint32_t srcclk;
 1446              		.loc 1 650 12 view .LVU494
 1447 036c 0020     		movs	r0, #0
 1448 036e C3E1     		b	.L53
 1449              	.L195:
 809:Drivers/STM32G4xx_HAL_Driver/Src/stm32g4xx_hal_rcc_ex.c ****       }
 1450              		.loc 1 809 9 is_stmt 1 view .LVU495
 809:Drivers/STM32G4xx_HAL_Driver/Src/stm32g4xx_hal_rcc_ex.c ****       }
 1451              		.loc 1 809 21 is_stmt 0 view .LVU496
ARM GAS  C:\Users\HYDROG~1\AppData\Local\Temp\cc0rSm9d.s 			page 52


 1452 0370 FFF7FEFF 		bl	HAL_RCC_GetPCLK1Freq
 1453              	.LVL93:
 809:Drivers/STM32G4xx_HAL_Driver/Src/stm32g4xx_hal_rcc_ex.c ****       }
 1454              		.loc 1 809 21 view .LVU497
 1455 0374 C0E1     		b	.L53
 1456              	.LVL94:
 1457              	.L196:
 813:Drivers/STM32G4xx_HAL_Driver/Src/stm32g4xx_hal_rcc_ex.c ****       }
 1458              		.loc 1 813 9 is_stmt 1 view .LVU498
 813:Drivers/STM32G4xx_HAL_Driver/Src/stm32g4xx_hal_rcc_ex.c ****       }
 1459              		.loc 1 813 21 is_stmt 0 view .LVU499
 1460 0376 FFF7FEFF 		bl	HAL_RCC_GetSysClockFreq
 1461              	.LVL95:
 813:Drivers/STM32G4xx_HAL_Driver/Src/stm32g4xx_hal_rcc_ex.c ****       }
 1462              		.loc 1 813 21 view .LVU500
 1463 037a BDE1     		b	.L53
 1464              	.LVL96:
 1465              	.L65:
 834:Drivers/STM32G4xx_HAL_Driver/Src/stm32g4xx_hal_rcc_ex.c **** 
 1466              		.loc 1 834 7 is_stmt 1 view .LVU501
 834:Drivers/STM32G4xx_HAL_Driver/Src/stm32g4xx_hal_rcc_ex.c **** 
 1467              		.loc 1 834 16 is_stmt 0 view .LVU502
 1468 037c 7F4B     		ldr	r3, .L215
 1469 037e D3F88830 		ldr	r3, [r3, #136]
 1470              	.LVL97:
 836:Drivers/STM32G4xx_HAL_Driver/Src/stm32g4xx_hal_rcc_ex.c ****       {
 1471              		.loc 1 836 7 is_stmt 1 view .LVU503
 836:Drivers/STM32G4xx_HAL_Driver/Src/stm32g4xx_hal_rcc_ex.c ****       {
 1472              		.loc 1 836 9 is_stmt 0 view .LVU504
 1473 0382 13F44073 		ands	r3, r3, #768
 1474              	.LVL98:
 836:Drivers/STM32G4xx_HAL_Driver/Src/stm32g4xx_hal_rcc_ex.c ****       {
 1475              		.loc 1 836 9 view .LVU505
 1476 0386 18D0     		beq	.L197
 840:Drivers/STM32G4xx_HAL_Driver/Src/stm32g4xx_hal_rcc_ex.c ****       {
 1477              		.loc 1 840 12 is_stmt 1 view .LVU506
 840:Drivers/STM32G4xx_HAL_Driver/Src/stm32g4xx_hal_rcc_ex.c ****       {
 1478              		.loc 1 840 14 is_stmt 0 view .LVU507
 1479 0388 B3F5807F 		cmp	r3, #256
 1480 038c 18D0     		beq	.L198
 844:Drivers/STM32G4xx_HAL_Driver/Src/stm32g4xx_hal_rcc_ex.c ****       {
 1481              		.loc 1 844 12 is_stmt 1 view .LVU508
 844:Drivers/STM32G4xx_HAL_Driver/Src/stm32g4xx_hal_rcc_ex.c ****       {
 1482              		.loc 1 844 16 is_stmt 0 view .LVU509
 1483 038e 7B4A     		ldr	r2, .L215
 844:Drivers/STM32G4xx_HAL_Driver/Src/stm32g4xx_hal_rcc_ex.c ****       {
 1484              		.loc 1 844 16 view .LVU510
 1485 0390 1268     		ldr	r2, [r2]
 844:Drivers/STM32G4xx_HAL_Driver/Src/stm32g4xx_hal_rcc_ex.c ****       {
 1486              		.loc 1 844 14 view .LVU511
 1487 0392 12F4806F 		tst	r2, #1024
 1488 0396 03D0     		beq	.L99
 844:Drivers/STM32G4xx_HAL_Driver/Src/stm32g4xx_hal_rcc_ex.c ****       {
 1489              		.loc 1 844 56 discriminator 1 view .LVU512
 1490 0398 B3F5007F 		cmp	r3, #512
 1491 039c 00F0C181 		beq	.L140
 1492              	.L99:
ARM GAS  C:\Users\HYDROG~1\AppData\Local\Temp\cc0rSm9d.s 			page 53


 848:Drivers/STM32G4xx_HAL_Driver/Src/stm32g4xx_hal_rcc_ex.c ****       {
 1493              		.loc 1 848 12 is_stmt 1 view .LVU513
 848:Drivers/STM32G4xx_HAL_Driver/Src/stm32g4xx_hal_rcc_ex.c ****       {
 1494              		.loc 1 848 16 is_stmt 0 view .LVU514
 1495 03a0 764A     		ldr	r2, .L215
 1496 03a2 D2F89000 		ldr	r0, [r2, #144]
 848:Drivers/STM32G4xx_HAL_Driver/Src/stm32g4xx_hal_rcc_ex.c ****       {
 1497              		.loc 1 848 14 view .LVU515
 1498 03a6 10F00200 		ands	r0, r0, #2
 1499 03aa 00F0A581 		beq	.L53
 848:Drivers/STM32G4xx_HAL_Driver/Src/stm32g4xx_hal_rcc_ex.c ****       {
 1500              		.loc 1 848 60 discriminator 1 view .LVU516
 1501 03ae B3F5407F 		cmp	r3, #768
 1502 03b2 00F0B881 		beq	.L141
 650:Drivers/STM32G4xx_HAL_Driver/Src/stm32g4xx_hal_rcc_ex.c ****   uint32_t srcclk;
 1503              		.loc 1 650 12 view .LVU517
 1504 03b6 0020     		movs	r0, #0
 1505 03b8 9EE1     		b	.L53
 1506              	.L197:
 838:Drivers/STM32G4xx_HAL_Driver/Src/stm32g4xx_hal_rcc_ex.c ****       }
 1507              		.loc 1 838 9 is_stmt 1 view .LVU518
 838:Drivers/STM32G4xx_HAL_Driver/Src/stm32g4xx_hal_rcc_ex.c ****       }
 1508              		.loc 1 838 21 is_stmt 0 view .LVU519
 1509 03ba FFF7FEFF 		bl	HAL_RCC_GetPCLK1Freq
 1510              	.LVL99:
 838:Drivers/STM32G4xx_HAL_Driver/Src/stm32g4xx_hal_rcc_ex.c ****       }
 1511              		.loc 1 838 21 view .LVU520
 1512 03be 9BE1     		b	.L53
 1513              	.LVL100:
 1514              	.L198:
 842:Drivers/STM32G4xx_HAL_Driver/Src/stm32g4xx_hal_rcc_ex.c ****       }
 1515              		.loc 1 842 9 is_stmt 1 view .LVU521
 842:Drivers/STM32G4xx_HAL_Driver/Src/stm32g4xx_hal_rcc_ex.c ****       }
 1516              		.loc 1 842 21 is_stmt 0 view .LVU522
 1517 03c0 FFF7FEFF 		bl	HAL_RCC_GetSysClockFreq
 1518              	.LVL101:
 842:Drivers/STM32G4xx_HAL_Driver/Src/stm32g4xx_hal_rcc_ex.c ****       }
 1519              		.loc 1 842 21 view .LVU523
 1520 03c4 98E1     		b	.L53
 1521              	.LVL102:
 1522              	.L63:
 862:Drivers/STM32G4xx_HAL_Driver/Src/stm32g4xx_hal_rcc_ex.c **** 
 1523              		.loc 1 862 7 is_stmt 1 view .LVU524
 862:Drivers/STM32G4xx_HAL_Driver/Src/stm32g4xx_hal_rcc_ex.c **** 
 1524              		.loc 1 862 16 is_stmt 0 view .LVU525
 1525 03c6 6D4B     		ldr	r3, .L215
 1526 03c8 D3F88830 		ldr	r3, [r3, #136]
 1527              	.LVL103:
 864:Drivers/STM32G4xx_HAL_Driver/Src/stm32g4xx_hal_rcc_ex.c ****       {
 1528              		.loc 1 864 7 is_stmt 1 view .LVU526
 864:Drivers/STM32G4xx_HAL_Driver/Src/stm32g4xx_hal_rcc_ex.c ****       {
 1529              		.loc 1 864 9 is_stmt 0 view .LVU527
 1530 03cc 13F44063 		ands	r3, r3, #3072
 1531              	.LVL104:
 864:Drivers/STM32G4xx_HAL_Driver/Src/stm32g4xx_hal_rcc_ex.c ****       {
 1532              		.loc 1 864 9 view .LVU528
 1533 03d0 18D0     		beq	.L199
ARM GAS  C:\Users\HYDROG~1\AppData\Local\Temp\cc0rSm9d.s 			page 54


 868:Drivers/STM32G4xx_HAL_Driver/Src/stm32g4xx_hal_rcc_ex.c ****       {
 1534              		.loc 1 868 12 is_stmt 1 view .LVU529
 868:Drivers/STM32G4xx_HAL_Driver/Src/stm32g4xx_hal_rcc_ex.c ****       {
 1535              		.loc 1 868 14 is_stmt 0 view .LVU530
 1536 03d2 B3F5806F 		cmp	r3, #1024
 1537 03d6 18D0     		beq	.L200
 872:Drivers/STM32G4xx_HAL_Driver/Src/stm32g4xx_hal_rcc_ex.c ****       {
 1538              		.loc 1 872 12 is_stmt 1 view .LVU531
 872:Drivers/STM32G4xx_HAL_Driver/Src/stm32g4xx_hal_rcc_ex.c ****       {
 1539              		.loc 1 872 16 is_stmt 0 view .LVU532
 1540 03d8 684A     		ldr	r2, .L215
 872:Drivers/STM32G4xx_HAL_Driver/Src/stm32g4xx_hal_rcc_ex.c ****       {
 1541              		.loc 1 872 16 view .LVU533
 1542 03da 1268     		ldr	r2, [r2]
 872:Drivers/STM32G4xx_HAL_Driver/Src/stm32g4xx_hal_rcc_ex.c ****       {
 1543              		.loc 1 872 14 view .LVU534
 1544 03dc 12F4806F 		tst	r2, #1024
 1545 03e0 03D0     		beq	.L102
 872:Drivers/STM32G4xx_HAL_Driver/Src/stm32g4xx_hal_rcc_ex.c ****       {
 1546              		.loc 1 872 56 discriminator 1 view .LVU535
 1547 03e2 B3F5006F 		cmp	r3, #2048
 1548 03e6 00F0A181 		beq	.L142
 1549              	.L102:
 876:Drivers/STM32G4xx_HAL_Driver/Src/stm32g4xx_hal_rcc_ex.c ****       {
 1550              		.loc 1 876 12 is_stmt 1 view .LVU536
 876:Drivers/STM32G4xx_HAL_Driver/Src/stm32g4xx_hal_rcc_ex.c ****       {
 1551              		.loc 1 876 16 is_stmt 0 view .LVU537
 1552 03ea 644A     		ldr	r2, .L215
 1553 03ec D2F89000 		ldr	r0, [r2, #144]
 876:Drivers/STM32G4xx_HAL_Driver/Src/stm32g4xx_hal_rcc_ex.c ****       {
 1554              		.loc 1 876 14 view .LVU538
 1555 03f0 10F00200 		ands	r0, r0, #2
 1556 03f4 00F08081 		beq	.L53
 876:Drivers/STM32G4xx_HAL_Driver/Src/stm32g4xx_hal_rcc_ex.c ****       {
 1557              		.loc 1 876 60 discriminator 1 view .LVU539
 1558 03f8 B3F5406F 		cmp	r3, #3072
 1559 03fc 00F09881 		beq	.L143
 650:Drivers/STM32G4xx_HAL_Driver/Src/stm32g4xx_hal_rcc_ex.c ****   uint32_t srcclk;
 1560              		.loc 1 650 12 view .LVU540
 1561 0400 0020     		movs	r0, #0
 1562 0402 79E1     		b	.L53
 1563              	.L199:
 866:Drivers/STM32G4xx_HAL_Driver/Src/stm32g4xx_hal_rcc_ex.c ****       }
 1564              		.loc 1 866 9 is_stmt 1 view .LVU541
 866:Drivers/STM32G4xx_HAL_Driver/Src/stm32g4xx_hal_rcc_ex.c ****       }
 1565              		.loc 1 866 21 is_stmt 0 view .LVU542
 1566 0404 FFF7FEFF 		bl	HAL_RCC_GetPCLK1Freq
 1567              	.LVL105:
 866:Drivers/STM32G4xx_HAL_Driver/Src/stm32g4xx_hal_rcc_ex.c ****       }
 1568              		.loc 1 866 21 view .LVU543
 1569 0408 76E1     		b	.L53
 1570              	.LVL106:
 1571              	.L200:
 870:Drivers/STM32G4xx_HAL_Driver/Src/stm32g4xx_hal_rcc_ex.c ****       }
 1572              		.loc 1 870 9 is_stmt 1 view .LVU544
 870:Drivers/STM32G4xx_HAL_Driver/Src/stm32g4xx_hal_rcc_ex.c ****       }
 1573              		.loc 1 870 21 is_stmt 0 view .LVU545
ARM GAS  C:\Users\HYDROG~1\AppData\Local\Temp\cc0rSm9d.s 			page 55


 1574 040a FFF7FEFF 		bl	HAL_RCC_GetSysClockFreq
 1575              	.LVL107:
 870:Drivers/STM32G4xx_HAL_Driver/Src/stm32g4xx_hal_rcc_ex.c ****       }
 1576              		.loc 1 870 21 view .LVU546
 1577 040e 73E1     		b	.L53
 1578              	.LVL108:
 1579              	.L173:
 893:Drivers/STM32G4xx_HAL_Driver/Src/stm32g4xx_hal_rcc_ex.c ****       }
 1580              		.loc 1 893 9 is_stmt 1 view .LVU547
 893:Drivers/STM32G4xx_HAL_Driver/Src/stm32g4xx_hal_rcc_ex.c ****       }
 1581              		.loc 1 893 21 is_stmt 0 view .LVU548
 1582 0410 FFF7FEFF 		bl	HAL_RCC_GetPCLK1Freq
 1583              	.LVL109:
 893:Drivers/STM32G4xx_HAL_Driver/Src/stm32g4xx_hal_rcc_ex.c ****       }
 1584              		.loc 1 893 21 view .LVU549
 1585 0414 70E1     		b	.L53
 1586              	.LVL110:
 1587              	.L174:
 897:Drivers/STM32G4xx_HAL_Driver/Src/stm32g4xx_hal_rcc_ex.c ****       }
 1588              		.loc 1 897 9 is_stmt 1 view .LVU550
 897:Drivers/STM32G4xx_HAL_Driver/Src/stm32g4xx_hal_rcc_ex.c ****       }
 1589              		.loc 1 897 21 is_stmt 0 view .LVU551
 1590 0416 FFF7FEFF 		bl	HAL_RCC_GetSysClockFreq
 1591              	.LVL111:
 897:Drivers/STM32G4xx_HAL_Driver/Src/stm32g4xx_hal_rcc_ex.c ****       }
 1592              		.loc 1 897 21 view .LVU552
 1593 041a 6DE1     		b	.L53
 1594              	.LVL112:
 1595              	.L70:
 912:Drivers/STM32G4xx_HAL_Driver/Src/stm32g4xx_hal_rcc_ex.c **** 
 1596              		.loc 1 912 7 is_stmt 1 view .LVU553
 912:Drivers/STM32G4xx_HAL_Driver/Src/stm32g4xx_hal_rcc_ex.c **** 
 1597              		.loc 1 912 16 is_stmt 0 view .LVU554
 1598 041c 574B     		ldr	r3, .L215
 1599              	.LVL113:
 912:Drivers/STM32G4xx_HAL_Driver/Src/stm32g4xx_hal_rcc_ex.c **** 
 1600              		.loc 1 912 16 view .LVU555
 1601 041e D3F88830 		ldr	r3, [r3, #136]
 1602              	.LVL114:
 914:Drivers/STM32G4xx_HAL_Driver/Src/stm32g4xx_hal_rcc_ex.c ****       {
 1603              		.loc 1 914 7 is_stmt 1 view .LVU556
 914:Drivers/STM32G4xx_HAL_Driver/Src/stm32g4xx_hal_rcc_ex.c ****       {
 1604              		.loc 1 914 9 is_stmt 0 view .LVU557
 1605 0422 13F44043 		ands	r3, r3, #49152
 1606              	.LVL115:
 914:Drivers/STM32G4xx_HAL_Driver/Src/stm32g4xx_hal_rcc_ex.c ****       {
 1607              		.loc 1 914 9 view .LVU558
 1608 0426 0ED0     		beq	.L201
 918:Drivers/STM32G4xx_HAL_Driver/Src/stm32g4xx_hal_rcc_ex.c ****       {
 1609              		.loc 1 918 12 is_stmt 1 view .LVU559
 918:Drivers/STM32G4xx_HAL_Driver/Src/stm32g4xx_hal_rcc_ex.c ****       {
 1610              		.loc 1 918 14 is_stmt 0 view .LVU560
 1611 0428 B3F5804F 		cmp	r3, #16384
 1612 042c 0ED0     		beq	.L202
 922:Drivers/STM32G4xx_HAL_Driver/Src/stm32g4xx_hal_rcc_ex.c ****       {
 1613              		.loc 1 922 12 is_stmt 1 view .LVU561
 922:Drivers/STM32G4xx_HAL_Driver/Src/stm32g4xx_hal_rcc_ex.c ****       {
ARM GAS  C:\Users\HYDROG~1\AppData\Local\Temp\cc0rSm9d.s 			page 56


 1614              		.loc 1 922 16 is_stmt 0 view .LVU562
 1615 042e 534A     		ldr	r2, .L215
 922:Drivers/STM32G4xx_HAL_Driver/Src/stm32g4xx_hal_rcc_ex.c ****       {
 1616              		.loc 1 922 16 view .LVU563
 1617 0430 1068     		ldr	r0, [r2]
 1618              	.LVL116:
 922:Drivers/STM32G4xx_HAL_Driver/Src/stm32g4xx_hal_rcc_ex.c ****       {
 1619              		.loc 1 922 14 view .LVU564
 1620 0432 10F48060 		ands	r0, r0, #1024
 1621 0436 00F05F81 		beq	.L53
 922:Drivers/STM32G4xx_HAL_Driver/Src/stm32g4xx_hal_rcc_ex.c ****       {
 1622              		.loc 1 922 56 discriminator 1 view .LVU565
 1623 043a B3F5004F 		cmp	r3, #32768
 1624 043e 00F07C81 		beq	.L145
 650:Drivers/STM32G4xx_HAL_Driver/Src/stm32g4xx_hal_rcc_ex.c ****   uint32_t srcclk;
 1625              		.loc 1 650 12 view .LVU566
 1626 0442 0020     		movs	r0, #0
 1627 0444 58E1     		b	.L53
 1628              	.LVL117:
 1629              	.L201:
 916:Drivers/STM32G4xx_HAL_Driver/Src/stm32g4xx_hal_rcc_ex.c ****       }
 1630              		.loc 1 916 9 is_stmt 1 view .LVU567
 916:Drivers/STM32G4xx_HAL_Driver/Src/stm32g4xx_hal_rcc_ex.c ****       }
 1631              		.loc 1 916 21 is_stmt 0 view .LVU568
 1632 0446 FFF7FEFF 		bl	HAL_RCC_GetPCLK1Freq
 1633              	.LVL118:
 916:Drivers/STM32G4xx_HAL_Driver/Src/stm32g4xx_hal_rcc_ex.c ****       }
 1634              		.loc 1 916 21 view .LVU569
 1635 044a 55E1     		b	.L53
 1636              	.LVL119:
 1637              	.L202:
 920:Drivers/STM32G4xx_HAL_Driver/Src/stm32g4xx_hal_rcc_ex.c ****       }
 1638              		.loc 1 920 9 is_stmt 1 view .LVU570
 920:Drivers/STM32G4xx_HAL_Driver/Src/stm32g4xx_hal_rcc_ex.c ****       }
 1639              		.loc 1 920 21 is_stmt 0 view .LVU571
 1640 044c FFF7FEFF 		bl	HAL_RCC_GetSysClockFreq
 1641              	.LVL120:
 920:Drivers/STM32G4xx_HAL_Driver/Src/stm32g4xx_hal_rcc_ex.c ****       }
 1642              		.loc 1 920 21 view .LVU572
 1643 0450 52E1     		b	.L53
 1644              	.LVL121:
 1645              	.L170:
 939:Drivers/STM32G4xx_HAL_Driver/Src/stm32g4xx_hal_rcc_ex.c ****       }
 1646              		.loc 1 939 9 is_stmt 1 view .LVU573
 939:Drivers/STM32G4xx_HAL_Driver/Src/stm32g4xx_hal_rcc_ex.c ****       }
 1647              		.loc 1 939 21 is_stmt 0 view .LVU574
 1648 0452 FFF7FEFF 		bl	HAL_RCC_GetPCLK1Freq
 1649              	.LVL122:
 939:Drivers/STM32G4xx_HAL_Driver/Src/stm32g4xx_hal_rcc_ex.c ****       }
 1650              		.loc 1 939 21 view .LVU575
 1651 0456 4FE1     		b	.L53
 1652              	.LVL123:
 1653              	.L171:
 943:Drivers/STM32G4xx_HAL_Driver/Src/stm32g4xx_hal_rcc_ex.c ****       }
 1654              		.loc 1 943 9 is_stmt 1 view .LVU576
 943:Drivers/STM32G4xx_HAL_Driver/Src/stm32g4xx_hal_rcc_ex.c ****       }
 1655              		.loc 1 943 21 is_stmt 0 view .LVU577
ARM GAS  C:\Users\HYDROG~1\AppData\Local\Temp\cc0rSm9d.s 			page 57


 1656 0458 FFF7FEFF 		bl	HAL_RCC_GetSysClockFreq
 1657              	.LVL124:
 943:Drivers/STM32G4xx_HAL_Driver/Src/stm32g4xx_hal_rcc_ex.c ****       }
 1658              		.loc 1 943 21 view .LVU578
 1659 045c 4CE1     		b	.L53
 1660              	.LVL125:
 1661              	.L80:
 960:Drivers/STM32G4xx_HAL_Driver/Src/stm32g4xx_hal_rcc_ex.c **** 
 1662              		.loc 1 960 7 is_stmt 1 view .LVU579
 960:Drivers/STM32G4xx_HAL_Driver/Src/stm32g4xx_hal_rcc_ex.c **** 
 1663              		.loc 1 960 16 is_stmt 0 view .LVU580
 1664 045e 474B     		ldr	r3, .L215
 1665              	.LVL126:
 960:Drivers/STM32G4xx_HAL_Driver/Src/stm32g4xx_hal_rcc_ex.c **** 
 1666              		.loc 1 960 16 view .LVU581
 1667 0460 D3F89C30 		ldr	r3, [r3, #156]
 1668              	.LVL127:
 962:Drivers/STM32G4xx_HAL_Driver/Src/stm32g4xx_hal_rcc_ex.c ****       {
 1669              		.loc 1 962 7 is_stmt 1 view .LVU582
 962:Drivers/STM32G4xx_HAL_Driver/Src/stm32g4xx_hal_rcc_ex.c ****       {
 1670              		.loc 1 962 9 is_stmt 0 view .LVU583
 1671 0464 13F00303 		ands	r3, r3, #3
 1672              	.LVL128:
 962:Drivers/STM32G4xx_HAL_Driver/Src/stm32g4xx_hal_rcc_ex.c ****       {
 1673              		.loc 1 962 9 view .LVU584
 1674 0468 0CD0     		beq	.L203
 966:Drivers/STM32G4xx_HAL_Driver/Src/stm32g4xx_hal_rcc_ex.c ****       {
 1675              		.loc 1 966 12 is_stmt 1 view .LVU585
 966:Drivers/STM32G4xx_HAL_Driver/Src/stm32g4xx_hal_rcc_ex.c ****       {
 1676              		.loc 1 966 14 is_stmt 0 view .LVU586
 1677 046a 012B     		cmp	r3, #1
 1678 046c 0DD0     		beq	.L204
 970:Drivers/STM32G4xx_HAL_Driver/Src/stm32g4xx_hal_rcc_ex.c ****       {
 1679              		.loc 1 970 12 is_stmt 1 view .LVU587
 970:Drivers/STM32G4xx_HAL_Driver/Src/stm32g4xx_hal_rcc_ex.c ****       {
 1680              		.loc 1 970 16 is_stmt 0 view .LVU588
 1681 046e 434A     		ldr	r2, .L215
 970:Drivers/STM32G4xx_HAL_Driver/Src/stm32g4xx_hal_rcc_ex.c ****       {
 1682              		.loc 1 970 16 view .LVU589
 1683 0470 1068     		ldr	r0, [r2]
 1684              	.LVL129:
 970:Drivers/STM32G4xx_HAL_Driver/Src/stm32g4xx_hal_rcc_ex.c ****       {
 1685              		.loc 1 970 14 view .LVU590
 1686 0472 10F48060 		ands	r0, r0, #1024
 1687 0476 00F03F81 		beq	.L53
 970:Drivers/STM32G4xx_HAL_Driver/Src/stm32g4xx_hal_rcc_ex.c ****       {
 1688              		.loc 1 970 56 discriminator 1 view .LVU591
 1689 047a 022B     		cmp	r3, #2
 1690 047c 00F06181 		beq	.L147
 650:Drivers/STM32G4xx_HAL_Driver/Src/stm32g4xx_hal_rcc_ex.c ****   uint32_t srcclk;
 1691              		.loc 1 650 12 view .LVU592
 1692 0480 0020     		movs	r0, #0
 1693 0482 39E1     		b	.L53
 1694              	.LVL130:
 1695              	.L203:
 964:Drivers/STM32G4xx_HAL_Driver/Src/stm32g4xx_hal_rcc_ex.c ****       }
 1696              		.loc 1 964 9 is_stmt 1 view .LVU593
ARM GAS  C:\Users\HYDROG~1\AppData\Local\Temp\cc0rSm9d.s 			page 58


 964:Drivers/STM32G4xx_HAL_Driver/Src/stm32g4xx_hal_rcc_ex.c ****       }
 1697              		.loc 1 964 21 is_stmt 0 view .LVU594
 1698 0484 FFF7FEFF 		bl	HAL_RCC_GetPCLK1Freq
 1699              	.LVL131:
 964:Drivers/STM32G4xx_HAL_Driver/Src/stm32g4xx_hal_rcc_ex.c ****       }
 1700              		.loc 1 964 21 view .LVU595
 1701 0488 36E1     		b	.L53
 1702              	.LVL132:
 1703              	.L204:
 968:Drivers/STM32G4xx_HAL_Driver/Src/stm32g4xx_hal_rcc_ex.c ****       }
 1704              		.loc 1 968 9 is_stmt 1 view .LVU596
 968:Drivers/STM32G4xx_HAL_Driver/Src/stm32g4xx_hal_rcc_ex.c ****       }
 1705              		.loc 1 968 21 is_stmt 0 view .LVU597
 1706 048a FFF7FEFF 		bl	HAL_RCC_GetSysClockFreq
 1707              	.LVL133:
 968:Drivers/STM32G4xx_HAL_Driver/Src/stm32g4xx_hal_rcc_ex.c ****       }
 1708              		.loc 1 968 21 view .LVU598
 1709 048e 33E1     		b	.L53
 1710              	.LVL134:
 1711              	.L60:
 985:Drivers/STM32G4xx_HAL_Driver/Src/stm32g4xx_hal_rcc_ex.c **** 
 1712              		.loc 1 985 7 is_stmt 1 view .LVU599
 985:Drivers/STM32G4xx_HAL_Driver/Src/stm32g4xx_hal_rcc_ex.c **** 
 1713              		.loc 1 985 16 is_stmt 0 view .LVU600
 1714 0490 3A4B     		ldr	r3, .L215
 1715              	.LVL135:
 985:Drivers/STM32G4xx_HAL_Driver/Src/stm32g4xx_hal_rcc_ex.c **** 
 1716              		.loc 1 985 16 view .LVU601
 1717 0492 D3F88830 		ldr	r3, [r3, #136]
 1718              	.LVL136:
 987:Drivers/STM32G4xx_HAL_Driver/Src/stm32g4xx_hal_rcc_ex.c ****       {
 1719              		.loc 1 987 7 is_stmt 1 view .LVU602
 987:Drivers/STM32G4xx_HAL_Driver/Src/stm32g4xx_hal_rcc_ex.c ****       {
 1720              		.loc 1 987 9 is_stmt 0 view .LVU603
 1721 0496 13F44023 		ands	r3, r3, #786432
 1722              	.LVL137:
 987:Drivers/STM32G4xx_HAL_Driver/Src/stm32g4xx_hal_rcc_ex.c ****       {
 1723              		.loc 1 987 9 view .LVU604
 1724 049a 1FD0     		beq	.L205
 991:Drivers/STM32G4xx_HAL_Driver/Src/stm32g4xx_hal_rcc_ex.c ****       {
 1725              		.loc 1 991 12 is_stmt 1 view .LVU605
 991:Drivers/STM32G4xx_HAL_Driver/Src/stm32g4xx_hal_rcc_ex.c ****       {
 1726              		.loc 1 991 16 is_stmt 0 view .LVU606
 1727 049c 374A     		ldr	r2, .L215
 991:Drivers/STM32G4xx_HAL_Driver/Src/stm32g4xx_hal_rcc_ex.c ****       {
 1728              		.loc 1 991 16 view .LVU607
 1729 049e D2F89420 		ldr	r2, [r2, #148]
 991:Drivers/STM32G4xx_HAL_Driver/Src/stm32g4xx_hal_rcc_ex.c ****       {
 1730              		.loc 1 991 14 view .LVU608
 1731 04a2 12F0020F 		tst	r2, #2
 1732 04a6 03D0     		beq	.L112
 991:Drivers/STM32G4xx_HAL_Driver/Src/stm32g4xx_hal_rcc_ex.c ****       {
 1733              		.loc 1 991 58 discriminator 1 view .LVU609
 1734 04a8 B3F5802F 		cmp	r3, #262144
 1735 04ac 00F04B81 		beq	.L148
 1736              	.L112:
 995:Drivers/STM32G4xx_HAL_Driver/Src/stm32g4xx_hal_rcc_ex.c ****       {
ARM GAS  C:\Users\HYDROG~1\AppData\Local\Temp\cc0rSm9d.s 			page 59


 1737              		.loc 1 995 12 is_stmt 1 view .LVU610
 995:Drivers/STM32G4xx_HAL_Driver/Src/stm32g4xx_hal_rcc_ex.c ****       {
 1738              		.loc 1 995 16 is_stmt 0 view .LVU611
 1739 04b0 324A     		ldr	r2, .L215
 1740 04b2 1268     		ldr	r2, [r2]
 995:Drivers/STM32G4xx_HAL_Driver/Src/stm32g4xx_hal_rcc_ex.c ****       {
 1741              		.loc 1 995 14 view .LVU612
 1742 04b4 12F4806F 		tst	r2, #1024
 1743 04b8 03D0     		beq	.L113
 995:Drivers/STM32G4xx_HAL_Driver/Src/stm32g4xx_hal_rcc_ex.c ****       {
 1744              		.loc 1 995 56 discriminator 1 view .LVU613
 1745 04ba B3F5002F 		cmp	r3, #524288
 1746 04be 00F04581 		beq	.L149
 1747              	.L113:
 999:Drivers/STM32G4xx_HAL_Driver/Src/stm32g4xx_hal_rcc_ex.c ****       {
 1748              		.loc 1 999 12 is_stmt 1 view .LVU614
 999:Drivers/STM32G4xx_HAL_Driver/Src/stm32g4xx_hal_rcc_ex.c ****       {
 1749              		.loc 1 999 17 is_stmt 0 view .LVU615
 1750 04c2 2E4A     		ldr	r2, .L215
 1751 04c4 D2F89000 		ldr	r0, [r2, #144]
 1752              	.LVL138:
 999:Drivers/STM32G4xx_HAL_Driver/Src/stm32g4xx_hal_rcc_ex.c ****       {
 1753              		.loc 1 999 15 view .LVU616
 1754 04c8 10F00200 		ands	r0, r0, #2
 1755 04cc 00F01481 		beq	.L53
 999:Drivers/STM32G4xx_HAL_Driver/Src/stm32g4xx_hal_rcc_ex.c ****       {
 1756              		.loc 1 999 61 discriminator 1 view .LVU617
 1757 04d0 B3F5402F 		cmp	r3, #786432
 1758 04d4 00F03C81 		beq	.L150
 650:Drivers/STM32G4xx_HAL_Driver/Src/stm32g4xx_hal_rcc_ex.c ****   uint32_t srcclk;
 1759              		.loc 1 650 12 view .LVU618
 1760 04d8 0020     		movs	r0, #0
 1761 04da 0DE1     		b	.L53
 1762              	.LVL139:
 1763              	.L205:
 989:Drivers/STM32G4xx_HAL_Driver/Src/stm32g4xx_hal_rcc_ex.c ****       }
 1764              		.loc 1 989 9 is_stmt 1 view .LVU619
 989:Drivers/STM32G4xx_HAL_Driver/Src/stm32g4xx_hal_rcc_ex.c ****       }
 1765              		.loc 1 989 21 is_stmt 0 view .LVU620
 1766 04dc FFF7FEFF 		bl	HAL_RCC_GetPCLK1Freq
 1767              	.LVL140:
 989:Drivers/STM32G4xx_HAL_Driver/Src/stm32g4xx_hal_rcc_ex.c ****       }
 1768              		.loc 1 989 21 view .LVU621
 1769 04e0 0AE1     		b	.L53
 1770              	.LVL141:
 1771              	.L77:
1012:Drivers/STM32G4xx_HAL_Driver/Src/stm32g4xx_hal_rcc_ex.c **** 
 1772              		.loc 1 1012 7 is_stmt 1 view .LVU622
1012:Drivers/STM32G4xx_HAL_Driver/Src/stm32g4xx_hal_rcc_ex.c **** 
 1773              		.loc 1 1012 16 is_stmt 0 view .LVU623
 1774 04e2 264A     		ldr	r2, .L215
 1775 04e4 D2F88820 		ldr	r2, [r2, #136]
 1776              	.LVL142:
1014:Drivers/STM32G4xx_HAL_Driver/Src/stm32g4xx_hal_rcc_ex.c ****       {
 1777              		.loc 1 1014 7 is_stmt 1 view .LVU624
1014:Drivers/STM32G4xx_HAL_Driver/Src/stm32g4xx_hal_rcc_ex.c ****       {
 1778              		.loc 1 1014 9 is_stmt 0 view .LVU625
ARM GAS  C:\Users\HYDROG~1\AppData\Local\Temp\cc0rSm9d.s 			page 60


 1779 04e8 12F44012 		ands	r2, r2, #3145728
 1780              	.LVL143:
1014:Drivers/STM32G4xx_HAL_Driver/Src/stm32g4xx_hal_rcc_ex.c ****       {
 1781              		.loc 1 1014 9 view .LVU626
 1782 04ec 12D0     		beq	.L206
1018:Drivers/STM32G4xx_HAL_Driver/Src/stm32g4xx_hal_rcc_ex.c ****       {
 1783              		.loc 1 1018 12 is_stmt 1 view .LVU627
1018:Drivers/STM32G4xx_HAL_Driver/Src/stm32g4xx_hal_rcc_ex.c ****       {
 1784              		.loc 1 1018 14 is_stmt 0 view .LVU628
 1785 04ee B2F5801F 		cmp	r2, #1048576
 1786 04f2 12D0     		beq	.L207
1027:Drivers/STM32G4xx_HAL_Driver/Src/stm32g4xx_hal_rcc_ex.c ****       {
 1787              		.loc 1 1027 12 is_stmt 1 view .LVU629
1027:Drivers/STM32G4xx_HAL_Driver/Src/stm32g4xx_hal_rcc_ex.c ****       {
 1788              		.loc 1 1027 14 is_stmt 0 view .LVU630
 1789 04f4 B2F5001F 		cmp	r2, #2097152
 1790 04f8 00F02D81 		beq	.L151
1032:Drivers/STM32G4xx_HAL_Driver/Src/stm32g4xx_hal_rcc_ex.c ****       {
 1791              		.loc 1 1032 12 is_stmt 1 view .LVU631
1032:Drivers/STM32G4xx_HAL_Driver/Src/stm32g4xx_hal_rcc_ex.c ****       {
 1792              		.loc 1 1032 16 is_stmt 0 view .LVU632
 1793 04fc 1F4B     		ldr	r3, .L215
 1794              	.LVL144:
1032:Drivers/STM32G4xx_HAL_Driver/Src/stm32g4xx_hal_rcc_ex.c ****       {
 1795              		.loc 1 1032 16 view .LVU633
 1796 04fe 1868     		ldr	r0, [r3]
 1797              	.LVL145:
1032:Drivers/STM32G4xx_HAL_Driver/Src/stm32g4xx_hal_rcc_ex.c ****       {
 1798              		.loc 1 1032 14 view .LVU634
 1799 0500 10F48060 		ands	r0, r0, #1024
 1800 0504 00F0F880 		beq	.L53
1032:Drivers/STM32G4xx_HAL_Driver/Src/stm32g4xx_hal_rcc_ex.c ****       {
 1801              		.loc 1 1032 56 discriminator 1 view .LVU635
 1802 0508 B2F5401F 		cmp	r2, #3145728
 1803 050c 00F02581 		beq	.L152
 650:Drivers/STM32G4xx_HAL_Driver/Src/stm32g4xx_hal_rcc_ex.c ****   uint32_t srcclk;
 1804              		.loc 1 650 12 view .LVU636
 1805 0510 0020     		movs	r0, #0
 1806 0512 F1E0     		b	.L53
 1807              	.LVL146:
 1808              	.L206:
1016:Drivers/STM32G4xx_HAL_Driver/Src/stm32g4xx_hal_rcc_ex.c ****       }
 1809              		.loc 1 1016 9 is_stmt 1 view .LVU637
1016:Drivers/STM32G4xx_HAL_Driver/Src/stm32g4xx_hal_rcc_ex.c ****       }
 1810              		.loc 1 1016 21 is_stmt 0 view .LVU638
 1811 0514 FFF7FEFF 		bl	HAL_RCC_GetSysClockFreq
 1812              	.LVL147:
1016:Drivers/STM32G4xx_HAL_Driver/Src/stm32g4xx_hal_rcc_ex.c ****       }
 1813              		.loc 1 1016 21 view .LVU639
 1814 0518 EEE0     		b	.L53
 1815              	.LVL148:
 1816              	.L207:
1020:Drivers/STM32G4xx_HAL_Driver/Src/stm32g4xx_hal_rcc_ex.c ****         {
 1817              		.loc 1 1020 9 is_stmt 1 view .LVU640
1020:Drivers/STM32G4xx_HAL_Driver/Src/stm32g4xx_hal_rcc_ex.c ****         {
 1818              		.loc 1 1020 12 is_stmt 0 view .LVU641
 1819 051a 02F18042 		add	r2, r2, #1073741824
ARM GAS  C:\Users\HYDROG~1\AppData\Local\Temp\cc0rSm9d.s 			page 61


 1820              	.LVL149:
1020:Drivers/STM32G4xx_HAL_Driver/Src/stm32g4xx_hal_rcc_ex.c ****         {
 1821              		.loc 1 1020 12 view .LVU642
 1822 051e A2F55F22 		sub	r2, r2, #913408
 1823              	.LVL150:
1020:Drivers/STM32G4xx_HAL_Driver/Src/stm32g4xx_hal_rcc_ex.c ****         {
 1824              		.loc 1 1020 12 view .LVU643
 1825 0522 D068     		ldr	r0, [r2, #12]
 1826              	.LVL151:
1020:Drivers/STM32G4xx_HAL_Driver/Src/stm32g4xx_hal_rcc_ex.c ****         {
 1827              		.loc 1 1020 11 view .LVU644
 1828 0524 10F48010 		ands	r0, r0, #1048576
 1829 0528 00F0E680 		beq	.L53
1023:Drivers/STM32G4xx_HAL_Driver/Src/stm32g4xx_hal_rcc_ex.c ****           frequency = (pllvco * plln) / (((READ_BIT(RCC->PLLCFGR, RCC_PLLCFGR_PLLQ) >> RCC_PLLCFGR_
 1830              		.loc 1 1023 11 is_stmt 1 view .LVU645
1023:Drivers/STM32G4xx_HAL_Driver/Src/stm32g4xx_hal_rcc_ex.c ****           frequency = (pllvco * plln) / (((READ_BIT(RCC->PLLCFGR, RCC_PLLCFGR_PLLQ) >> RCC_PLLCFGR_
 1831              		.loc 1 1023 18 is_stmt 0 view .LVU646
 1832 052c 1146     		mov	r1, r2
 1833 052e D268     		ldr	r2, [r2, #12]
 1834              	.LVL152:
1023:Drivers/STM32G4xx_HAL_Driver/Src/stm32g4xx_hal_rcc_ex.c ****           frequency = (pllvco * plln) / (((READ_BIT(RCC->PLLCFGR, RCC_PLLCFGR_PLLQ) >> RCC_PLLCFGR_
 1835              		.loc 1 1023 16 view .LVU647
 1836 0530 C2F30622 		ubfx	r2, r2, #8, #7
 1837              	.LVL153:
1024:Drivers/STM32G4xx_HAL_Driver/Src/stm32g4xx_hal_rcc_ex.c ****         }
 1838              		.loc 1 1024 11 is_stmt 1 view .LVU648
1024:Drivers/STM32G4xx_HAL_Driver/Src/stm32g4xx_hal_rcc_ex.c ****         }
 1839              		.loc 1 1024 31 is_stmt 0 view .LVU649
 1840 0534 03FB02F2 		mul	r2, r3, r2
 1841              	.LVL154:
1024:Drivers/STM32G4xx_HAL_Driver/Src/stm32g4xx_hal_rcc_ex.c ****         }
 1842              		.loc 1 1024 44 view .LVU650
 1843 0538 CB68     		ldr	r3, [r1, #12]
 1844              	.LVL155:
1024:Drivers/STM32G4xx_HAL_Driver/Src/stm32g4xx_hal_rcc_ex.c ****         }
 1845              		.loc 1 1024 85 view .LVU651
 1846 053a C3F34153 		ubfx	r3, r3, #21, #2
1024:Drivers/STM32G4xx_HAL_Driver/Src/stm32g4xx_hal_rcc_ex.c ****         }
 1847              		.loc 1 1024 110 view .LVU652
 1848 053e 0133     		adds	r3, r3, #1
1024:Drivers/STM32G4xx_HAL_Driver/Src/stm32g4xx_hal_rcc_ex.c ****         }
 1849              		.loc 1 1024 116 view .LVU653
 1850 0540 5B00     		lsls	r3, r3, #1
1024:Drivers/STM32G4xx_HAL_Driver/Src/stm32g4xx_hal_rcc_ex.c ****         }
 1851              		.loc 1 1024 21 view .LVU654
 1852 0542 B2FBF3F0 		udiv	r0, r2, r3
 1853              	.LVL156:
1024:Drivers/STM32G4xx_HAL_Driver/Src/stm32g4xx_hal_rcc_ex.c ****         }
 1854              		.loc 1 1024 21 view .LVU655
 1855 0546 D7E0     		b	.L53
 1856              	.LVL157:
 1857              	.L184:
1049:Drivers/STM32G4xx_HAL_Driver/Src/stm32g4xx_hal_rcc_ex.c ****       }
 1858              		.loc 1 1049 9 is_stmt 1 view .LVU656
1049:Drivers/STM32G4xx_HAL_Driver/Src/stm32g4xx_hal_rcc_ex.c ****       }
 1859              		.loc 1 1049 21 is_stmt 0 view .LVU657
 1860 0548 FFF7FEFF 		bl	HAL_RCC_GetSysClockFreq
ARM GAS  C:\Users\HYDROG~1\AppData\Local\Temp\cc0rSm9d.s 			page 62


 1861              	.LVL158:
1049:Drivers/STM32G4xx_HAL_Driver/Src/stm32g4xx_hal_rcc_ex.c ****       }
 1862              		.loc 1 1049 21 view .LVU658
 1863 054c D4E0     		b	.L53
 1864              	.LVL159:
 1865              	.L185:
1053:Drivers/STM32G4xx_HAL_Driver/Src/stm32g4xx_hal_rcc_ex.c ****         {
 1866              		.loc 1 1053 9 is_stmt 1 view .LVU659
1053:Drivers/STM32G4xx_HAL_Driver/Src/stm32g4xx_hal_rcc_ex.c ****         {
 1867              		.loc 1 1053 12 is_stmt 0 view .LVU660
 1868 054e 02F17F52 		add	r2, r2, #1069547520
 1869              	.LVL160:
1053:Drivers/STM32G4xx_HAL_Driver/Src/stm32g4xx_hal_rcc_ex.c ****         {
 1870              		.loc 1 1053 12 view .LVU661
 1871 0552 02F50432 		add	r2, r2, #135168
 1872              	.LVL161:
1053:Drivers/STM32G4xx_HAL_Driver/Src/stm32g4xx_hal_rcc_ex.c ****         {
 1873              		.loc 1 1053 12 view .LVU662
 1874 0556 D068     		ldr	r0, [r2, #12]
 1875              	.LVL162:
1053:Drivers/STM32G4xx_HAL_Driver/Src/stm32g4xx_hal_rcc_ex.c ****         {
 1876              		.loc 1 1053 11 view .LVU663
 1877 0558 10F48010 		ands	r0, r0, #1048576
 1878 055c 00F0CC80 		beq	.L53
1056:Drivers/STM32G4xx_HAL_Driver/Src/stm32g4xx_hal_rcc_ex.c ****           frequency = (pllvco * plln) / (((READ_BIT(RCC->PLLCFGR, RCC_PLLCFGR_PLLQ) >> RCC_PLLCFGR_
 1879              		.loc 1 1056 11 is_stmt 1 view .LVU664
1056:Drivers/STM32G4xx_HAL_Driver/Src/stm32g4xx_hal_rcc_ex.c ****           frequency = (pllvco * plln) / (((READ_BIT(RCC->PLLCFGR, RCC_PLLCFGR_PLLQ) >> RCC_PLLCFGR_
 1880              		.loc 1 1056 18 is_stmt 0 view .LVU665
 1881 0560 1146     		mov	r1, r2
 1882 0562 D268     		ldr	r2, [r2, #12]
 1883              	.LVL163:
1056:Drivers/STM32G4xx_HAL_Driver/Src/stm32g4xx_hal_rcc_ex.c ****           frequency = (pllvco * plln) / (((READ_BIT(RCC->PLLCFGR, RCC_PLLCFGR_PLLQ) >> RCC_PLLCFGR_
 1884              		.loc 1 1056 16 view .LVU666
 1885 0564 C2F30622 		ubfx	r2, r2, #8, #7
 1886              	.LVL164:
1057:Drivers/STM32G4xx_HAL_Driver/Src/stm32g4xx_hal_rcc_ex.c ****         }
 1887              		.loc 1 1057 11 is_stmt 1 view .LVU667
1057:Drivers/STM32G4xx_HAL_Driver/Src/stm32g4xx_hal_rcc_ex.c ****         }
 1888              		.loc 1 1057 31 is_stmt 0 view .LVU668
 1889 0568 03FB02F2 		mul	r2, r3, r2
 1890              	.LVL165:
1057:Drivers/STM32G4xx_HAL_Driver/Src/stm32g4xx_hal_rcc_ex.c ****         }
 1891              		.loc 1 1057 44 view .LVU669
 1892 056c CB68     		ldr	r3, [r1, #12]
 1893              	.LVL166:
1057:Drivers/STM32G4xx_HAL_Driver/Src/stm32g4xx_hal_rcc_ex.c ****         }
 1894              		.loc 1 1057 85 view .LVU670
 1895 056e C3F34153 		ubfx	r3, r3, #21, #2
1057:Drivers/STM32G4xx_HAL_Driver/Src/stm32g4xx_hal_rcc_ex.c ****         }
 1896              		.loc 1 1057 110 view .LVU671
 1897 0572 0133     		adds	r3, r3, #1
1057:Drivers/STM32G4xx_HAL_Driver/Src/stm32g4xx_hal_rcc_ex.c ****         }
 1898              		.loc 1 1057 116 view .LVU672
 1899 0574 5B00     		lsls	r3, r3, #1
1057:Drivers/STM32G4xx_HAL_Driver/Src/stm32g4xx_hal_rcc_ex.c ****         }
 1900              		.loc 1 1057 21 view .LVU673
 1901 0576 B2FBF3F0 		udiv	r0, r2, r3
ARM GAS  C:\Users\HYDROG~1\AppData\Local\Temp\cc0rSm9d.s 			page 63


 1902              	.LVL167:
1057:Drivers/STM32G4xx_HAL_Driver/Src/stm32g4xx_hal_rcc_ex.c ****         }
 1903              		.loc 1 1057 21 view .LVU674
 1904 057a BDE0     		b	.L53
 1905              	.L216:
 1906              		.align	2
 1907              	.L215:
 1908 057c 00100240 		.word	1073876992
 1909              	.LVL168:
 1910              	.L75:
1079:Drivers/STM32G4xx_HAL_Driver/Src/stm32g4xx_hal_rcc_ex.c **** 
 1911              		.loc 1 1079 7 is_stmt 1 view .LVU675
1079:Drivers/STM32G4xx_HAL_Driver/Src/stm32g4xx_hal_rcc_ex.c **** 
 1912              		.loc 1 1079 16 is_stmt 0 view .LVU676
 1913 0580 7D4A     		ldr	r2, .L217
 1914 0582 D2F88820 		ldr	r2, [r2, #136]
1079:Drivers/STM32G4xx_HAL_Driver/Src/stm32g4xx_hal_rcc_ex.c **** 
 1915              		.loc 1 1079 14 view .LVU677
 1916 0586 02F04072 		and	r2, r2, #50331648
 1917              	.LVL169:
1081:Drivers/STM32G4xx_HAL_Driver/Src/stm32g4xx_hal_rcc_ex.c ****       {
 1918              		.loc 1 1081 7 is_stmt 1 view .LVU678
1081:Drivers/STM32G4xx_HAL_Driver/Src/stm32g4xx_hal_rcc_ex.c ****       {
 1919              		.loc 1 1081 9 is_stmt 0 view .LVU679
 1920 058a B2F1007F 		cmp	r2, #33554432
 1921 058e 07D0     		beq	.L208
1085:Drivers/STM32G4xx_HAL_Driver/Src/stm32g4xx_hal_rcc_ex.c ****       {
 1922              		.loc 1 1085 12 is_stmt 1 view .LVU680
1085:Drivers/STM32G4xx_HAL_Driver/Src/stm32g4xx_hal_rcc_ex.c ****       {
 1923              		.loc 1 1085 14 is_stmt 0 view .LVU681
 1924 0590 002A     		cmp	r2, #0
 1925 0592 00F0E880 		beq	.L155
1089:Drivers/STM32G4xx_HAL_Driver/Src/stm32g4xx_hal_rcc_ex.c ****       {
 1926              		.loc 1 1089 12 is_stmt 1 view .LVU682
1089:Drivers/STM32G4xx_HAL_Driver/Src/stm32g4xx_hal_rcc_ex.c ****       {
 1927              		.loc 1 1089 14 is_stmt 0 view .LVU683
 1928 0596 B2F1807F 		cmp	r2, #16777216
 1929 059a 04D0     		beq	.L209
 650:Drivers/STM32G4xx_HAL_Driver/Src/stm32g4xx_hal_rcc_ex.c ****   uint32_t srcclk;
 1930              		.loc 1 650 12 view .LVU684
 1931 059c 0020     		movs	r0, #0
 1932              	.LVL170:
 650:Drivers/STM32G4xx_HAL_Driver/Src/stm32g4xx_hal_rcc_ex.c ****   uint32_t srcclk;
 1933              		.loc 1 650 12 view .LVU685
 1934 059e ABE0     		b	.L53
 1935              	.LVL171:
 1936              	.L208:
1083:Drivers/STM32G4xx_HAL_Driver/Src/stm32g4xx_hal_rcc_ex.c ****       }
 1937              		.loc 1 1083 9 is_stmt 1 view .LVU686
1083:Drivers/STM32G4xx_HAL_Driver/Src/stm32g4xx_hal_rcc_ex.c ****       }
 1938              		.loc 1 1083 21 is_stmt 0 view .LVU687
 1939 05a0 FFF7FEFF 		bl	HAL_RCC_GetPCLK1Freq
 1940              	.LVL172:
1083:Drivers/STM32G4xx_HAL_Driver/Src/stm32g4xx_hal_rcc_ex.c ****       }
 1941              		.loc 1 1083 21 view .LVU688
 1942 05a4 A8E0     		b	.L53
 1943              	.LVL173:
ARM GAS  C:\Users\HYDROG~1\AppData\Local\Temp\cc0rSm9d.s 			page 64


 1944              	.L209:
1091:Drivers/STM32G4xx_HAL_Driver/Src/stm32g4xx_hal_rcc_ex.c ****         {
 1945              		.loc 1 1091 9 is_stmt 1 view .LVU689
1091:Drivers/STM32G4xx_HAL_Driver/Src/stm32g4xx_hal_rcc_ex.c ****         {
 1946              		.loc 1 1091 12 is_stmt 0 view .LVU690
 1947 05a6 02F17C52 		add	r2, r2, #1056964608
 1948              	.LVL174:
1091:Drivers/STM32G4xx_HAL_Driver/Src/stm32g4xx_hal_rcc_ex.c ****         {
 1949              		.loc 1 1091 12 view .LVU691
 1950 05aa 02F50432 		add	r2, r2, #135168
 1951              	.LVL175:
1091:Drivers/STM32G4xx_HAL_Driver/Src/stm32g4xx_hal_rcc_ex.c ****         {
 1952              		.loc 1 1091 12 view .LVU692
 1953 05ae D068     		ldr	r0, [r2, #12]
 1954              	.LVL176:
1091:Drivers/STM32G4xx_HAL_Driver/Src/stm32g4xx_hal_rcc_ex.c ****         {
 1955              		.loc 1 1091 11 view .LVU693
 1956 05b0 10F48010 		ands	r0, r0, #1048576
 1957 05b4 00F0A080 		beq	.L53
1094:Drivers/STM32G4xx_HAL_Driver/Src/stm32g4xx_hal_rcc_ex.c ****           frequency = (pllvco * plln) / (((READ_BIT(RCC->PLLCFGR, RCC_PLLCFGR_PLLQ) >> RCC_PLLCFGR_
 1958              		.loc 1 1094 11 is_stmt 1 view .LVU694
1094:Drivers/STM32G4xx_HAL_Driver/Src/stm32g4xx_hal_rcc_ex.c ****           frequency = (pllvco * plln) / (((READ_BIT(RCC->PLLCFGR, RCC_PLLCFGR_PLLQ) >> RCC_PLLCFGR_
 1959              		.loc 1 1094 18 is_stmt 0 view .LVU695
 1960 05b8 1146     		mov	r1, r2
 1961 05ba D268     		ldr	r2, [r2, #12]
 1962              	.LVL177:
1094:Drivers/STM32G4xx_HAL_Driver/Src/stm32g4xx_hal_rcc_ex.c ****           frequency = (pllvco * plln) / (((READ_BIT(RCC->PLLCFGR, RCC_PLLCFGR_PLLQ) >> RCC_PLLCFGR_
 1963              		.loc 1 1094 16 view .LVU696
 1964 05bc C2F30622 		ubfx	r2, r2, #8, #7
 1965              	.LVL178:
1095:Drivers/STM32G4xx_HAL_Driver/Src/stm32g4xx_hal_rcc_ex.c ****         }
 1966              		.loc 1 1095 11 is_stmt 1 view .LVU697
1095:Drivers/STM32G4xx_HAL_Driver/Src/stm32g4xx_hal_rcc_ex.c ****         }
 1967              		.loc 1 1095 31 is_stmt 0 view .LVU698
 1968 05c0 03FB02F2 		mul	r2, r3, r2
 1969              	.LVL179:
1095:Drivers/STM32G4xx_HAL_Driver/Src/stm32g4xx_hal_rcc_ex.c ****         }
 1970              		.loc 1 1095 44 view .LVU699
 1971 05c4 CB68     		ldr	r3, [r1, #12]
 1972              	.LVL180:
1095:Drivers/STM32G4xx_HAL_Driver/Src/stm32g4xx_hal_rcc_ex.c ****         }
 1973              		.loc 1 1095 85 view .LVU700
 1974 05c6 C3F34153 		ubfx	r3, r3, #21, #2
1095:Drivers/STM32G4xx_HAL_Driver/Src/stm32g4xx_hal_rcc_ex.c ****         }
 1975              		.loc 1 1095 110 view .LVU701
 1976 05ca 0133     		adds	r3, r3, #1
1095:Drivers/STM32G4xx_HAL_Driver/Src/stm32g4xx_hal_rcc_ex.c ****         }
 1977              		.loc 1 1095 116 view .LVU702
 1978 05cc 5B00     		lsls	r3, r3, #1
1095:Drivers/STM32G4xx_HAL_Driver/Src/stm32g4xx_hal_rcc_ex.c ****         }
 1979              		.loc 1 1095 21 view .LVU703
 1980 05ce B2FBF3F0 		udiv	r0, r2, r3
 1981              	.LVL181:
1095:Drivers/STM32G4xx_HAL_Driver/Src/stm32g4xx_hal_rcc_ex.c ****         }
 1982              		.loc 1 1095 21 view .LVU704
 1983 05d2 91E0     		b	.L53
 1984              	.LVL182:
ARM GAS  C:\Users\HYDROG~1\AppData\Local\Temp\cc0rSm9d.s 			page 65


 1985              	.L182:
1115:Drivers/STM32G4xx_HAL_Driver/Src/stm32g4xx_hal_rcc_ex.c ****         frequency = (pllvco * plln) / (((READ_BIT(RCC->PLLCFGR, RCC_PLLCFGR_PLLQ) >> RCC_PLLCFGR_PL
 1986              		.loc 1 1115 9 is_stmt 1 view .LVU705
1115:Drivers/STM32G4xx_HAL_Driver/Src/stm32g4xx_hal_rcc_ex.c ****         frequency = (pllvco * plln) / (((READ_BIT(RCC->PLLCFGR, RCC_PLLCFGR_PLLQ) >> RCC_PLLCFGR_PL
 1987              		.loc 1 1115 16 is_stmt 0 view .LVU706
 1988 05d4 6849     		ldr	r1, .L217
 1989 05d6 CA68     		ldr	r2, [r1, #12]
 1990              	.LVL183:
1115:Drivers/STM32G4xx_HAL_Driver/Src/stm32g4xx_hal_rcc_ex.c ****         frequency = (pllvco * plln) / (((READ_BIT(RCC->PLLCFGR, RCC_PLLCFGR_PLLQ) >> RCC_PLLCFGR_PL
 1991              		.loc 1 1115 14 view .LVU707
 1992 05d8 C2F30622 		ubfx	r2, r2, #8, #7
 1993              	.LVL184:
1116:Drivers/STM32G4xx_HAL_Driver/Src/stm32g4xx_hal_rcc_ex.c ****       }
 1994              		.loc 1 1116 9 is_stmt 1 view .LVU708
1116:Drivers/STM32G4xx_HAL_Driver/Src/stm32g4xx_hal_rcc_ex.c ****       }
 1995              		.loc 1 1116 29 is_stmt 0 view .LVU709
 1996 05dc 03FB02F2 		mul	r2, r3, r2
 1997              	.LVL185:
1116:Drivers/STM32G4xx_HAL_Driver/Src/stm32g4xx_hal_rcc_ex.c ****       }
 1998              		.loc 1 1116 42 view .LVU710
 1999 05e0 CB68     		ldr	r3, [r1, #12]
 2000              	.LVL186:
1116:Drivers/STM32G4xx_HAL_Driver/Src/stm32g4xx_hal_rcc_ex.c ****       }
 2001              		.loc 1 1116 83 view .LVU711
 2002 05e2 C3F34153 		ubfx	r3, r3, #21, #2
1116:Drivers/STM32G4xx_HAL_Driver/Src/stm32g4xx_hal_rcc_ex.c ****       }
 2003              		.loc 1 1116 108 view .LVU712
 2004 05e6 0133     		adds	r3, r3, #1
1116:Drivers/STM32G4xx_HAL_Driver/Src/stm32g4xx_hal_rcc_ex.c ****       }
 2005              		.loc 1 1116 114 view .LVU713
 2006 05e8 5B00     		lsls	r3, r3, #1
1116:Drivers/STM32G4xx_HAL_Driver/Src/stm32g4xx_hal_rcc_ex.c ****       }
 2007              		.loc 1 1116 19 view .LVU714
 2008 05ea B2FBF3F0 		udiv	r0, r2, r3
 2009              	.LVL187:
1116:Drivers/STM32G4xx_HAL_Driver/Src/stm32g4xx_hal_rcc_ex.c ****       }
 2010              		.loc 1 1116 19 view .LVU715
 2011 05ee 83E0     		b	.L53
 2012              	.LVL188:
 2013              	.L73:
1132:Drivers/STM32G4xx_HAL_Driver/Src/stm32g4xx_hal_rcc_ex.c **** 
 2014              		.loc 1 1132 7 is_stmt 1 view .LVU716
1132:Drivers/STM32G4xx_HAL_Driver/Src/stm32g4xx_hal_rcc_ex.c **** 
 2015              		.loc 1 1132 16 is_stmt 0 view .LVU717
 2016 05f0 614A     		ldr	r2, .L217
 2017 05f2 D2F88820 		ldr	r2, [r2, #136]
1132:Drivers/STM32G4xx_HAL_Driver/Src/stm32g4xx_hal_rcc_ex.c **** 
 2018              		.loc 1 1132 14 view .LVU718
 2019 05f6 02F04062 		and	r2, r2, #201326592
 2020              	.LVL189:
1134:Drivers/STM32G4xx_HAL_Driver/Src/stm32g4xx_hal_rcc_ex.c ****       {
 2021              		.loc 1 1134 7 is_stmt 1 view .LVU719
1134:Drivers/STM32G4xx_HAL_Driver/Src/stm32g4xx_hal_rcc_ex.c ****       {
 2022              		.loc 1 1134 9 is_stmt 0 view .LVU720
 2023 05fa B2F1006F 		cmp	r2, #134217728
 2024 05fe 0AD0     		beq	.L210
1140:Drivers/STM32G4xx_HAL_Driver/Src/stm32g4xx_hal_rcc_ex.c ****       {
ARM GAS  C:\Users\HYDROG~1\AppData\Local\Temp\cc0rSm9d.s 			page 66


 2025              		.loc 1 1140 12 is_stmt 1 view .LVU721
1140:Drivers/STM32G4xx_HAL_Driver/Src/stm32g4xx_hal_rcc_ex.c ****       {
 2026              		.loc 1 1140 17 is_stmt 0 view .LVU722
 2027 0600 5D4B     		ldr	r3, .L217
 2028              	.LVL190:
1140:Drivers/STM32G4xx_HAL_Driver/Src/stm32g4xx_hal_rcc_ex.c ****       {
 2029              		.loc 1 1140 17 view .LVU723
 2030 0602 D3F89800 		ldr	r0, [r3, #152]
 2031              	.LVL191:
1140:Drivers/STM32G4xx_HAL_Driver/Src/stm32g4xx_hal_rcc_ex.c ****       {
 2032              		.loc 1 1140 14 view .LVU724
 2033 0606 10F00200 		ands	r0, r0, #2
 2034 060a 75D0     		beq	.L53
1140:Drivers/STM32G4xx_HAL_Driver/Src/stm32g4xx_hal_rcc_ex.c ****       {
 2035              		.loc 1 1140 65 discriminator 1 view .LVU725
 2036 060c 002A     		cmp	r2, #0
 2037 060e 00F0AE80 		beq	.L158
 650:Drivers/STM32G4xx_HAL_Driver/Src/stm32g4xx_hal_rcc_ex.c ****   uint32_t srcclk;
 2038              		.loc 1 650 12 view .LVU726
 2039 0612 0020     		movs	r0, #0
 2040 0614 70E0     		b	.L53
 2041              	.LVL192:
 2042              	.L210:
1137:Drivers/STM32G4xx_HAL_Driver/Src/stm32g4xx_hal_rcc_ex.c ****         frequency = (pllvco * plln) / (((READ_BIT(RCC->PLLCFGR, RCC_PLLCFGR_PLLQ) >> RCC_PLLCFGR_PL
 2043              		.loc 1 1137 9 is_stmt 1 view .LVU727
1137:Drivers/STM32G4xx_HAL_Driver/Src/stm32g4xx_hal_rcc_ex.c ****         frequency = (pllvco * plln) / (((READ_BIT(RCC->PLLCFGR, RCC_PLLCFGR_PLLQ) >> RCC_PLLCFGR_PL
 2044              		.loc 1 1137 16 is_stmt 0 view .LVU728
 2045 0616 5849     		ldr	r1, .L217
 2046 0618 CA68     		ldr	r2, [r1, #12]
 2047              	.LVL193:
1137:Drivers/STM32G4xx_HAL_Driver/Src/stm32g4xx_hal_rcc_ex.c ****         frequency = (pllvco * plln) / (((READ_BIT(RCC->PLLCFGR, RCC_PLLCFGR_PLLQ) >> RCC_PLLCFGR_PL
 2048              		.loc 1 1137 14 view .LVU729
 2049 061a C2F30622 		ubfx	r2, r2, #8, #7
 2050              	.LVL194:
1138:Drivers/STM32G4xx_HAL_Driver/Src/stm32g4xx_hal_rcc_ex.c ****       }
 2051              		.loc 1 1138 9 is_stmt 1 view .LVU730
1138:Drivers/STM32G4xx_HAL_Driver/Src/stm32g4xx_hal_rcc_ex.c ****       }
 2052              		.loc 1 1138 29 is_stmt 0 view .LVU731
 2053 061e 03FB02F2 		mul	r2, r3, r2
 2054              	.LVL195:
1138:Drivers/STM32G4xx_HAL_Driver/Src/stm32g4xx_hal_rcc_ex.c ****       }
 2055              		.loc 1 1138 42 view .LVU732
 2056 0622 CB68     		ldr	r3, [r1, #12]
 2057              	.LVL196:
1138:Drivers/STM32G4xx_HAL_Driver/Src/stm32g4xx_hal_rcc_ex.c ****       }
 2058              		.loc 1 1138 83 view .LVU733
 2059 0624 C3F34153 		ubfx	r3, r3, #21, #2
1138:Drivers/STM32G4xx_HAL_Driver/Src/stm32g4xx_hal_rcc_ex.c ****       }
 2060              		.loc 1 1138 108 view .LVU734
 2061 0628 0133     		adds	r3, r3, #1
1138:Drivers/STM32G4xx_HAL_Driver/Src/stm32g4xx_hal_rcc_ex.c ****       }
 2062              		.loc 1 1138 114 view .LVU735
 2063 062a 5B00     		lsls	r3, r3, #1
1138:Drivers/STM32G4xx_HAL_Driver/Src/stm32g4xx_hal_rcc_ex.c ****       }
 2064              		.loc 1 1138 19 view .LVU736
 2065 062c B2FBF3F0 		udiv	r0, r2, r3
 2066              	.LVL197:
ARM GAS  C:\Users\HYDROG~1\AppData\Local\Temp\cc0rSm9d.s 			page 67


1138:Drivers/STM32G4xx_HAL_Driver/Src/stm32g4xx_hal_rcc_ex.c ****       }
 2067              		.loc 1 1138 19 view .LVU737
 2068 0630 62E0     		b	.L53
 2069              	.LVL198:
 2070              	.L82:
1152:Drivers/STM32G4xx_HAL_Driver/Src/stm32g4xx_hal_rcc_ex.c ****       
 2071              		.loc 1 1152 7 is_stmt 1 view .LVU738
1152:Drivers/STM32G4xx_HAL_Driver/Src/stm32g4xx_hal_rcc_ex.c ****       
 2072              		.loc 1 1152 16 is_stmt 0 view .LVU739
 2073 0632 514A     		ldr	r2, .L217
 2074 0634 D2F88820 		ldr	r2, [r2, #136]
1152:Drivers/STM32G4xx_HAL_Driver/Src/stm32g4xx_hal_rcc_ex.c ****       
 2075              		.loc 1 1152 14 view .LVU740
 2076 0638 02F04052 		and	r2, r2, #805306368
 2077              	.LVL199:
1154:Drivers/STM32G4xx_HAL_Driver/Src/stm32g4xx_hal_rcc_ex.c ****       {
 2078              		.loc 1 1154 7 is_stmt 1 view .LVU741
1154:Drivers/STM32G4xx_HAL_Driver/Src/stm32g4xx_hal_rcc_ex.c ****       {
 2079              		.loc 1 1154 9 is_stmt 0 view .LVU742
 2080 063c B2F1805F 		cmp	r2, #268435456
 2081 0640 04D0     		beq	.L211
1175:Drivers/STM32G4xx_HAL_Driver/Src/stm32g4xx_hal_rcc_ex.c ****       {
 2082              		.loc 1 1175 12 is_stmt 1 view .LVU743
1175:Drivers/STM32G4xx_HAL_Driver/Src/stm32g4xx_hal_rcc_ex.c ****       {
 2083              		.loc 1 1175 14 is_stmt 0 view .LVU744
 2084 0642 B2F1005F 		cmp	r2, #536870912
 2085 0646 1CD0     		beq	.L212
 650:Drivers/STM32G4xx_HAL_Driver/Src/stm32g4xx_hal_rcc_ex.c ****   uint32_t srcclk;
 2086              		.loc 1 650 12 view .LVU745
 2087 0648 0020     		movs	r0, #0
 2088              	.LVL200:
 650:Drivers/STM32G4xx_HAL_Driver/Src/stm32g4xx_hal_rcc_ex.c ****   uint32_t srcclk;
 2089              		.loc 1 650 12 view .LVU746
 2090 064a 55E0     		b	.L53
 2091              	.LVL201:
 2092              	.L211:
1156:Drivers/STM32G4xx_HAL_Driver/Src/stm32g4xx_hal_rcc_ex.c ****         {
 2093              		.loc 1 1156 9 is_stmt 1 view .LVU747
1156:Drivers/STM32G4xx_HAL_Driver/Src/stm32g4xx_hal_rcc_ex.c ****         {
 2094              		.loc 1 1156 12 is_stmt 0 view .LVU748
 2095 064c 02F14052 		add	r2, r2, #805306368
 2096              	.LVL202:
1156:Drivers/STM32G4xx_HAL_Driver/Src/stm32g4xx_hal_rcc_ex.c ****         {
 2097              		.loc 1 1156 12 view .LVU749
 2098 0650 02F50432 		add	r2, r2, #135168
 2099              	.LVL203:
1156:Drivers/STM32G4xx_HAL_Driver/Src/stm32g4xx_hal_rcc_ex.c ****         {
 2100              		.loc 1 1156 12 view .LVU750
 2101 0654 D068     		ldr	r0, [r2, #12]
 2102              	.LVL204:
1156:Drivers/STM32G4xx_HAL_Driver/Src/stm32g4xx_hal_rcc_ex.c ****         {
 2103              		.loc 1 1156 11 view .LVU751
 2104 0656 10F48030 		ands	r0, r0, #65536
 2105 065a 4DD0     		beq	.L53
1159:Drivers/STM32G4xx_HAL_Driver/Src/stm32g4xx_hal_rcc_ex.c ****           pllp = READ_BIT(RCC->PLLCFGR, RCC_PLLCFGR_PLLPDIV) >> RCC_PLLCFGR_PLLPDIV_Pos;
 2106              		.loc 1 1159 11 is_stmt 1 view .LVU752
1159:Drivers/STM32G4xx_HAL_Driver/Src/stm32g4xx_hal_rcc_ex.c ****           pllp = READ_BIT(RCC->PLLCFGR, RCC_PLLCFGR_PLLPDIV) >> RCC_PLLCFGR_PLLPDIV_Pos;
ARM GAS  C:\Users\HYDROG~1\AppData\Local\Temp\cc0rSm9d.s 			page 68


 2107              		.loc 1 1159 18 is_stmt 0 view .LVU753
 2108 065c D068     		ldr	r0, [r2, #12]
1159:Drivers/STM32G4xx_HAL_Driver/Src/stm32g4xx_hal_rcc_ex.c ****           pllp = READ_BIT(RCC->PLLCFGR, RCC_PLLCFGR_PLLPDIV) >> RCC_PLLCFGR_PLLPDIV_Pos;
 2109              		.loc 1 1159 16 view .LVU754
 2110 065e C0F30620 		ubfx	r0, r0, #8, #7
 2111              	.LVL205:
1160:Drivers/STM32G4xx_HAL_Driver/Src/stm32g4xx_hal_rcc_ex.c ****           if(pllp == 0U)
 2112              		.loc 1 1160 11 is_stmt 1 view .LVU755
1160:Drivers/STM32G4xx_HAL_Driver/Src/stm32g4xx_hal_rcc_ex.c ****           if(pllp == 0U)
 2113              		.loc 1 1160 18 is_stmt 0 view .LVU756
 2114 0662 D268     		ldr	r2, [r2, #12]
 2115              	.LVL206:
1161:Drivers/STM32G4xx_HAL_Driver/Src/stm32g4xx_hal_rcc_ex.c ****           {
 2116              		.loc 1 1161 11 is_stmt 1 view .LVU757
1161:Drivers/STM32G4xx_HAL_Driver/Src/stm32g4xx_hal_rcc_ex.c ****           {
 2117              		.loc 1 1161 13 is_stmt 0 view .LVU758
 2118 0664 D20E     		lsrs	r2, r2, #27
 2119              	.LVL207:
1161:Drivers/STM32G4xx_HAL_Driver/Src/stm32g4xx_hal_rcc_ex.c ****           {
 2120              		.loc 1 1161 13 view .LVU759
 2121 0666 05D1     		bne	.L122
1163:Drivers/STM32G4xx_HAL_Driver/Src/stm32g4xx_hal_rcc_ex.c ****             {
 2122              		.loc 1 1163 13 is_stmt 1 view .LVU760
1163:Drivers/STM32G4xx_HAL_Driver/Src/stm32g4xx_hal_rcc_ex.c ****             {
 2123              		.loc 1 1163 16 is_stmt 0 view .LVU761
 2124 0668 434A     		ldr	r2, .L217
 2125              	.LVL208:
1163:Drivers/STM32G4xx_HAL_Driver/Src/stm32g4xx_hal_rcc_ex.c ****             {
 2126              		.loc 1 1163 16 view .LVU762
 2127 066a D268     		ldr	r2, [r2, #12]
1163:Drivers/STM32G4xx_HAL_Driver/Src/stm32g4xx_hal_rcc_ex.c ****             {
 2128              		.loc 1 1163 15 view .LVU763
 2129 066c 12F4003F 		tst	r2, #131072
 2130 0670 05D0     		beq	.L159
1165:Drivers/STM32G4xx_HAL_Driver/Src/stm32g4xx_hal_rcc_ex.c ****             }
 2131              		.loc 1 1165 20 view .LVU764
 2132 0672 1122     		movs	r2, #17
 2133              	.L122:
 2134              	.LVL209:
1172:Drivers/STM32G4xx_HAL_Driver/Src/stm32g4xx_hal_rcc_ex.c ****         }
 2135              		.loc 1 1172 11 is_stmt 1 view .LVU765
1172:Drivers/STM32G4xx_HAL_Driver/Src/stm32g4xx_hal_rcc_ex.c ****         }
 2136              		.loc 1 1172 31 is_stmt 0 view .LVU766
 2137 0674 00FB03F3 		mul	r3, r0, r3
 2138              	.LVL210:
1172:Drivers/STM32G4xx_HAL_Driver/Src/stm32g4xx_hal_rcc_ex.c ****         }
 2139              		.loc 1 1172 21 view .LVU767
 2140 0678 B3FBF2F0 		udiv	r0, r3, r2
 2141              	.LVL211:
1172:Drivers/STM32G4xx_HAL_Driver/Src/stm32g4xx_hal_rcc_ex.c ****         }
 2142              		.loc 1 1172 21 view .LVU768
 2143 067c 3CE0     		b	.L53
 2144              	.LVL212:
 2145              	.L159:
1169:Drivers/STM32G4xx_HAL_Driver/Src/stm32g4xx_hal_rcc_ex.c ****             }
 2146              		.loc 1 1169 20 view .LVU769
 2147 067e 0722     		movs	r2, #7
ARM GAS  C:\Users\HYDROG~1\AppData\Local\Temp\cc0rSm9d.s 			page 69


 2148 0680 F8E7     		b	.L122
 2149              	.LVL213:
 2150              	.L212:
1177:Drivers/STM32G4xx_HAL_Driver/Src/stm32g4xx_hal_rcc_ex.c ****       }
 2151              		.loc 1 1177 9 is_stmt 1 view .LVU770
1177:Drivers/STM32G4xx_HAL_Driver/Src/stm32g4xx_hal_rcc_ex.c ****       }
 2152              		.loc 1 1177 21 is_stmt 0 view .LVU771
 2153 0682 FFF7FEFF 		bl	HAL_RCC_GetSysClockFreq
 2154              	.LVL214:
1177:Drivers/STM32G4xx_HAL_Driver/Src/stm32g4xx_hal_rcc_ex.c ****       }
 2155              		.loc 1 1177 21 view .LVU772
 2156 0686 37E0     		b	.L53
 2157              	.LVL215:
 2158              	.L187:
1193:Drivers/STM32G4xx_HAL_Driver/Src/stm32g4xx_hal_rcc_ex.c ****         {
 2159              		.loc 1 1193 9 is_stmt 1 view .LVU773
1193:Drivers/STM32G4xx_HAL_Driver/Src/stm32g4xx_hal_rcc_ex.c ****         {
 2160              		.loc 1 1193 12 is_stmt 0 view .LVU774
 2161 0688 02F50432 		add	r2, r2, #135168
 2162              	.LVL216:
1193:Drivers/STM32G4xx_HAL_Driver/Src/stm32g4xx_hal_rcc_ex.c ****         {
 2163              		.loc 1 1193 12 view .LVU775
 2164 068c D068     		ldr	r0, [r2, #12]
 2165              	.LVL217:
1193:Drivers/STM32G4xx_HAL_Driver/Src/stm32g4xx_hal_rcc_ex.c ****         {
 2166              		.loc 1 1193 11 view .LVU776
 2167 068e 10F48030 		ands	r0, r0, #65536
 2168 0692 31D0     		beq	.L53
1196:Drivers/STM32G4xx_HAL_Driver/Src/stm32g4xx_hal_rcc_ex.c ****           pllp = READ_BIT(RCC->PLLCFGR, RCC_PLLCFGR_PLLPDIV) >> RCC_PLLCFGR_PLLPDIV_Pos;
 2169              		.loc 1 1196 11 is_stmt 1 view .LVU777
1196:Drivers/STM32G4xx_HAL_Driver/Src/stm32g4xx_hal_rcc_ex.c ****           pllp = READ_BIT(RCC->PLLCFGR, RCC_PLLCFGR_PLLPDIV) >> RCC_PLLCFGR_PLLPDIV_Pos;
 2170              		.loc 1 1196 18 is_stmt 0 view .LVU778
 2171 0694 D068     		ldr	r0, [r2, #12]
1196:Drivers/STM32G4xx_HAL_Driver/Src/stm32g4xx_hal_rcc_ex.c ****           pllp = READ_BIT(RCC->PLLCFGR, RCC_PLLCFGR_PLLPDIV) >> RCC_PLLCFGR_PLLPDIV_Pos;
 2172              		.loc 1 1196 16 view .LVU779
 2173 0696 C0F30620 		ubfx	r0, r0, #8, #7
 2174              	.LVL218:
1197:Drivers/STM32G4xx_HAL_Driver/Src/stm32g4xx_hal_rcc_ex.c ****           if(pllp == 0U)
 2175              		.loc 1 1197 11 is_stmt 1 view .LVU780
1197:Drivers/STM32G4xx_HAL_Driver/Src/stm32g4xx_hal_rcc_ex.c ****           if(pllp == 0U)
 2176              		.loc 1 1197 18 is_stmt 0 view .LVU781
 2177 069a D268     		ldr	r2, [r2, #12]
 2178              	.LVL219:
1198:Drivers/STM32G4xx_HAL_Driver/Src/stm32g4xx_hal_rcc_ex.c ****           {
 2179              		.loc 1 1198 11 is_stmt 1 view .LVU782
1198:Drivers/STM32G4xx_HAL_Driver/Src/stm32g4xx_hal_rcc_ex.c ****           {
 2180              		.loc 1 1198 13 is_stmt 0 view .LVU783
 2181 069c D20E     		lsrs	r2, r2, #27
 2182              	.LVL220:
1198:Drivers/STM32G4xx_HAL_Driver/Src/stm32g4xx_hal_rcc_ex.c ****           {
 2183              		.loc 1 1198 13 view .LVU784
 2184 069e 05D1     		bne	.L124
1200:Drivers/STM32G4xx_HAL_Driver/Src/stm32g4xx_hal_rcc_ex.c ****             {
 2185              		.loc 1 1200 13 is_stmt 1 view .LVU785
1200:Drivers/STM32G4xx_HAL_Driver/Src/stm32g4xx_hal_rcc_ex.c ****             {
 2186              		.loc 1 1200 16 is_stmt 0 view .LVU786
 2187 06a0 354A     		ldr	r2, .L217
ARM GAS  C:\Users\HYDROG~1\AppData\Local\Temp\cc0rSm9d.s 			page 70


 2188              	.LVL221:
1200:Drivers/STM32G4xx_HAL_Driver/Src/stm32g4xx_hal_rcc_ex.c ****             {
 2189              		.loc 1 1200 16 view .LVU787
 2190 06a2 D268     		ldr	r2, [r2, #12]
1200:Drivers/STM32G4xx_HAL_Driver/Src/stm32g4xx_hal_rcc_ex.c ****             {
 2191              		.loc 1 1200 15 view .LVU788
 2192 06a4 12F4003F 		tst	r2, #131072
 2193 06a8 05D0     		beq	.L161
1202:Drivers/STM32G4xx_HAL_Driver/Src/stm32g4xx_hal_rcc_ex.c ****             }
 2194              		.loc 1 1202 20 view .LVU789
 2195 06aa 1122     		movs	r2, #17
 2196              	.L124:
 2197              	.LVL222:
1209:Drivers/STM32G4xx_HAL_Driver/Src/stm32g4xx_hal_rcc_ex.c ****         }
 2198              		.loc 1 1209 11 is_stmt 1 view .LVU790
1209:Drivers/STM32G4xx_HAL_Driver/Src/stm32g4xx_hal_rcc_ex.c ****         }
 2199              		.loc 1 1209 31 is_stmt 0 view .LVU791
 2200 06ac 00FB03F3 		mul	r3, r0, r3
 2201              	.LVL223:
1209:Drivers/STM32G4xx_HAL_Driver/Src/stm32g4xx_hal_rcc_ex.c ****         }
 2202              		.loc 1 1209 21 view .LVU792
 2203 06b0 B3FBF2F0 		udiv	r0, r3, r2
 2204              	.LVL224:
1209:Drivers/STM32G4xx_HAL_Driver/Src/stm32g4xx_hal_rcc_ex.c ****         }
 2205              		.loc 1 1209 21 view .LVU793
 2206 06b4 20E0     		b	.L53
 2207              	.LVL225:
 2208              	.L161:
1206:Drivers/STM32G4xx_HAL_Driver/Src/stm32g4xx_hal_rcc_ex.c ****             }
 2209              		.loc 1 1206 20 view .LVU794
 2210 06b6 0722     		movs	r2, #7
 2211 06b8 F8E7     		b	.L124
 2212              	.LVL226:
 2213              	.L188:
1214:Drivers/STM32G4xx_HAL_Driver/Src/stm32g4xx_hal_rcc_ex.c ****       }
 2214              		.loc 1 1214 9 is_stmt 1 view .LVU795
1214:Drivers/STM32G4xx_HAL_Driver/Src/stm32g4xx_hal_rcc_ex.c ****       }
 2215              		.loc 1 1214 21 is_stmt 0 view .LVU796
 2216 06ba FFF7FEFF 		bl	HAL_RCC_GetSysClockFreq
 2217              	.LVL227:
1214:Drivers/STM32G4xx_HAL_Driver/Src/stm32g4xx_hal_rcc_ex.c ****       }
 2218              		.loc 1 1214 21 view .LVU797
 2219 06be 1BE0     		b	.L53
 2220              	.LVL228:
 2221              	.L178:
1233:Drivers/STM32G4xx_HAL_Driver/Src/stm32g4xx_hal_rcc_ex.c ****         frequency = (pllvco * plln) / (((READ_BIT(RCC->PLLCFGR, RCC_PLLCFGR_PLLQ) >> RCC_PLLCFGR_PL
 2222              		.loc 1 1233 9 is_stmt 1 view .LVU798
1233:Drivers/STM32G4xx_HAL_Driver/Src/stm32g4xx_hal_rcc_ex.c ****         frequency = (pllvco * plln) / (((READ_BIT(RCC->PLLCFGR, RCC_PLLCFGR_PLLQ) >> RCC_PLLCFGR_PL
 2223              		.loc 1 1233 16 is_stmt 0 view .LVU799
 2224 06c0 2D4A     		ldr	r2, .L217
 2225              	.LVL229:
1233:Drivers/STM32G4xx_HAL_Driver/Src/stm32g4xx_hal_rcc_ex.c ****         frequency = (pllvco * plln) / (((READ_BIT(RCC->PLLCFGR, RCC_PLLCFGR_PLLQ) >> RCC_PLLCFGR_PL
 2226              		.loc 1 1233 16 view .LVU800
 2227 06c2 D068     		ldr	r0, [r2, #12]
 2228              	.LVL230:
1233:Drivers/STM32G4xx_HAL_Driver/Src/stm32g4xx_hal_rcc_ex.c ****         frequency = (pllvco * plln) / (((READ_BIT(RCC->PLLCFGR, RCC_PLLCFGR_PLLQ) >> RCC_PLLCFGR_PL
 2229              		.loc 1 1233 14 view .LVU801
ARM GAS  C:\Users\HYDROG~1\AppData\Local\Temp\cc0rSm9d.s 			page 71


 2230 06c4 C0F30620 		ubfx	r0, r0, #8, #7
 2231              	.LVL231:
1234:Drivers/STM32G4xx_HAL_Driver/Src/stm32g4xx_hal_rcc_ex.c ****       }
 2232              		.loc 1 1234 9 is_stmt 1 view .LVU802
1234:Drivers/STM32G4xx_HAL_Driver/Src/stm32g4xx_hal_rcc_ex.c ****       }
 2233              		.loc 1 1234 29 is_stmt 0 view .LVU803
 2234 06c8 00FB03F3 		mul	r3, r0, r3
 2235              	.LVL232:
1234:Drivers/STM32G4xx_HAL_Driver/Src/stm32g4xx_hal_rcc_ex.c ****       }
 2236              		.loc 1 1234 42 view .LVU804
 2237 06cc D068     		ldr	r0, [r2, #12]
 2238              	.LVL233:
1234:Drivers/STM32G4xx_HAL_Driver/Src/stm32g4xx_hal_rcc_ex.c ****       }
 2239              		.loc 1 1234 83 view .LVU805
 2240 06ce C0F34150 		ubfx	r0, r0, #21, #2
1234:Drivers/STM32G4xx_HAL_Driver/Src/stm32g4xx_hal_rcc_ex.c ****       }
 2241              		.loc 1 1234 108 view .LVU806
 2242 06d2 0130     		adds	r0, r0, #1
1234:Drivers/STM32G4xx_HAL_Driver/Src/stm32g4xx_hal_rcc_ex.c ****       }
 2243              		.loc 1 1234 114 view .LVU807
 2244 06d4 4000     		lsls	r0, r0, #1
1234:Drivers/STM32G4xx_HAL_Driver/Src/stm32g4xx_hal_rcc_ex.c ****       }
 2245              		.loc 1 1234 19 view .LVU808
 2246 06d6 B3FBF0F0 		udiv	r0, r3, r0
 2247              	.LVL234:
1234:Drivers/STM32G4xx_HAL_Driver/Src/stm32g4xx_hal_rcc_ex.c ****       }
 2248              		.loc 1 1234 19 view .LVU809
 2249 06da 0DE0     		b	.L53
 2250              	.LVL235:
 2251              	.L179:
1242:Drivers/STM32G4xx_HAL_Driver/Src/stm32g4xx_hal_rcc_ex.c ****       }
 2252              		.loc 1 1242 9 is_stmt 1 view .LVU810
1242:Drivers/STM32G4xx_HAL_Driver/Src/stm32g4xx_hal_rcc_ex.c ****       }
 2253              		.loc 1 1242 21 is_stmt 0 view .LVU811
 2254 06dc FFF7FEFF 		bl	HAL_RCC_GetSysClockFreq
 2255              	.LVL236:
1242:Drivers/STM32G4xx_HAL_Driver/Src/stm32g4xx_hal_rcc_ex.c ****       }
 2256              		.loc 1 1242 21 view .LVU812
 2257 06e0 0AE0     		b	.L53
 2258              	.LVL237:
 2259              	.L126:
 665:Drivers/STM32G4xx_HAL_Driver/Src/stm32g4xx_hal_rcc_ex.c ****     }
 2260              		.loc 1 665 17 view .LVU813
 2261 06e2 4FF40040 		mov	r0, #32768
 2262              	.LVL238:
 665:Drivers/STM32G4xx_HAL_Driver/Src/stm32g4xx_hal_rcc_ex.c ****     }
 2263              		.loc 1 665 17 view .LVU814
 2264 06e6 07E0     		b	.L53
 2265              	.LVL239:
 2266              	.L127:
 670:Drivers/STM32G4xx_HAL_Driver/Src/stm32g4xx_hal_rcc_ex.c ****     }
 2267              		.loc 1 670 17 view .LVU815
 2268 06e8 4FF4FA40 		mov	r0, #32000
 2269              	.LVL240:
 670:Drivers/STM32G4xx_HAL_Driver/Src/stm32g4xx_hal_rcc_ex.c ****     }
 2270              		.loc 1 670 17 view .LVU816
 2271 06ec 04E0     		b	.L53
ARM GAS  C:\Users\HYDROG~1\AppData\Local\Temp\cc0rSm9d.s 			page 72


 2272              	.L128:
 675:Drivers/STM32G4xx_HAL_Driver/Src/stm32g4xx_hal_rcc_ex.c ****     }
 2273              		.loc 1 675 17 view .LVU817
 2274 06ee 2348     		ldr	r0, .L217+4
 2275 06f0 02E0     		b	.L53
 2276              	.LVL241:
 2277              	.L130:
 718:Drivers/STM32G4xx_HAL_Driver/Src/stm32g4xx_hal_rcc_ex.c ****     {
 2278              		.loc 1 718 5 view .LVU818
 2279 06f2 0020     		movs	r0, #0
 2280              	.LVL242:
 718:Drivers/STM32G4xx_HAL_Driver/Src/stm32g4xx_hal_rcc_ex.c ****     {
 2281              		.loc 1 718 5 view .LVU819
 2282 06f4 00E0     		b	.L53
 2283              	.LVL243:
 2284              	.L131:
 718:Drivers/STM32G4xx_HAL_Driver/Src/stm32g4xx_hal_rcc_ex.c ****     {
 2285              		.loc 1 718 5 view .LVU820
 2286 06f6 0020     		movs	r0, #0
 2287              	.LVL244:
 2288              	.L53:
1258:Drivers/STM32G4xx_HAL_Driver/Src/stm32g4xx_hal_rcc_ex.c **** }
 2289              		.loc 1 1258 1 view .LVU821
 2290 06f8 08BD     		pop	{r3, pc}
 2291              	.LVL245:
 2292              	.L132:
 735:Drivers/STM32G4xx_HAL_Driver/Src/stm32g4xx_hal_rcc_ex.c ****       }
 2293              		.loc 1 735 19 view .LVU822
 2294 06fa 2148     		ldr	r0, .L217+8
 2295              	.LVL246:
 735:Drivers/STM32G4xx_HAL_Driver/Src/stm32g4xx_hal_rcc_ex.c ****       }
 2296              		.loc 1 735 19 view .LVU823
 2297 06fc FCE7     		b	.L53
 2298              	.L133:
 739:Drivers/STM32G4xx_HAL_Driver/Src/stm32g4xx_hal_rcc_ex.c ****       }
 2299              		.loc 1 739 19 view .LVU824
 2300 06fe 4FF40040 		mov	r0, #32768
 2301 0702 F9E7     		b	.L53
 2302              	.L134:
 762:Drivers/STM32G4xx_HAL_Driver/Src/stm32g4xx_hal_rcc_ex.c ****       }
 2303              		.loc 1 762 19 view .LVU825
 2304 0704 1E48     		ldr	r0, .L217+8
 2305 0706 F7E7     		b	.L53
 2306              	.L135:
 766:Drivers/STM32G4xx_HAL_Driver/Src/stm32g4xx_hal_rcc_ex.c ****       }
 2307              		.loc 1 766 19 view .LVU826
 2308 0708 4FF40040 		mov	r0, #32768
 2309 070c F4E7     		b	.L53
 2310              	.L136:
 789:Drivers/STM32G4xx_HAL_Driver/Src/stm32g4xx_hal_rcc_ex.c ****       }
 2311              		.loc 1 789 19 view .LVU827
 2312 070e 1C48     		ldr	r0, .L217+8
 2313 0710 F2E7     		b	.L53
 2314              	.L137:
 793:Drivers/STM32G4xx_HAL_Driver/Src/stm32g4xx_hal_rcc_ex.c ****       }
 2315              		.loc 1 793 19 view .LVU828
 2316 0712 4FF40040 		mov	r0, #32768
ARM GAS  C:\Users\HYDROG~1\AppData\Local\Temp\cc0rSm9d.s 			page 73


 2317 0716 EFE7     		b	.L53
 2318              	.L138:
 817:Drivers/STM32G4xx_HAL_Driver/Src/stm32g4xx_hal_rcc_ex.c ****       }
 2319              		.loc 1 817 19 view .LVU829
 2320 0718 1948     		ldr	r0, .L217+8
 2321 071a EDE7     		b	.L53
 2322              	.L139:
 821:Drivers/STM32G4xx_HAL_Driver/Src/stm32g4xx_hal_rcc_ex.c ****       }
 2323              		.loc 1 821 19 view .LVU830
 2324 071c 4FF40040 		mov	r0, #32768
 2325 0720 EAE7     		b	.L53
 2326              	.L140:
 846:Drivers/STM32G4xx_HAL_Driver/Src/stm32g4xx_hal_rcc_ex.c ****       }
 2327              		.loc 1 846 19 view .LVU831
 2328 0722 1748     		ldr	r0, .L217+8
 2329 0724 E8E7     		b	.L53
 2330              	.L141:
 850:Drivers/STM32G4xx_HAL_Driver/Src/stm32g4xx_hal_rcc_ex.c ****       }
 2331              		.loc 1 850 19 view .LVU832
 2332 0726 4FF40040 		mov	r0, #32768
 2333 072a E5E7     		b	.L53
 2334              	.L142:
 874:Drivers/STM32G4xx_HAL_Driver/Src/stm32g4xx_hal_rcc_ex.c ****       }
 2335              		.loc 1 874 19 view .LVU833
 2336 072c 1448     		ldr	r0, .L217+8
 2337 072e E3E7     		b	.L53
 2338              	.L143:
 878:Drivers/STM32G4xx_HAL_Driver/Src/stm32g4xx_hal_rcc_ex.c ****       }
 2339              		.loc 1 878 19 view .LVU834
 2340 0730 4FF40040 		mov	r0, #32768
 2341 0734 E0E7     		b	.L53
 2342              	.L144:
 901:Drivers/STM32G4xx_HAL_Driver/Src/stm32g4xx_hal_rcc_ex.c ****       }
 2343              		.loc 1 901 19 view .LVU835
 2344 0736 1248     		ldr	r0, .L217+8
 2345 0738 DEE7     		b	.L53
 2346              	.L145:
 924:Drivers/STM32G4xx_HAL_Driver/Src/stm32g4xx_hal_rcc_ex.c ****       }
 2347              		.loc 1 924 19 view .LVU836
 2348 073a 1148     		ldr	r0, .L217+8
 2349 073c DCE7     		b	.L53
 2350              	.L146:
 947:Drivers/STM32G4xx_HAL_Driver/Src/stm32g4xx_hal_rcc_ex.c ****       }
 2351              		.loc 1 947 19 view .LVU837
 2352 073e 1048     		ldr	r0, .L217+8
 2353 0740 DAE7     		b	.L53
 2354              	.L147:
 972:Drivers/STM32G4xx_HAL_Driver/Src/stm32g4xx_hal_rcc_ex.c ****       }
 2355              		.loc 1 972 19 view .LVU838
 2356 0742 0F48     		ldr	r0, .L217+8
 2357 0744 D8E7     		b	.L53
 2358              	.LVL247:
 2359              	.L148:
 993:Drivers/STM32G4xx_HAL_Driver/Src/stm32g4xx_hal_rcc_ex.c ****       }
 2360              		.loc 1 993 19 view .LVU839
 2361 0746 4FF4FA40 		mov	r0, #32000
 2362              	.LVL248:
ARM GAS  C:\Users\HYDROG~1\AppData\Local\Temp\cc0rSm9d.s 			page 74


 993:Drivers/STM32G4xx_HAL_Driver/Src/stm32g4xx_hal_rcc_ex.c ****       }
 2363              		.loc 1 993 19 view .LVU840
 2364 074a D5E7     		b	.L53
 2365              	.LVL249:
 2366              	.L149:
 997:Drivers/STM32G4xx_HAL_Driver/Src/stm32g4xx_hal_rcc_ex.c ****       }
 2367              		.loc 1 997 19 view .LVU841
 2368 074c 0C48     		ldr	r0, .L217+8
 2369              	.LVL250:
 997:Drivers/STM32G4xx_HAL_Driver/Src/stm32g4xx_hal_rcc_ex.c ****       }
 2370              		.loc 1 997 19 view .LVU842
 2371 074e D3E7     		b	.L53
 2372              	.L150:
1001:Drivers/STM32G4xx_HAL_Driver/Src/stm32g4xx_hal_rcc_ex.c ****       }
 2373              		.loc 1 1001 19 view .LVU843
 2374 0750 4FF40040 		mov	r0, #32768
 2375 0754 D0E7     		b	.L53
 2376              	.LVL251:
 2377              	.L151:
1030:Drivers/STM32G4xx_HAL_Driver/Src/stm32g4xx_hal_rcc_ex.c ****       }
 2378              		.loc 1 1030 19 view .LVU844
 2379 0756 0B48     		ldr	r0, .L217+12
 2380              	.LVL252:
1030:Drivers/STM32G4xx_HAL_Driver/Src/stm32g4xx_hal_rcc_ex.c ****       }
 2381              		.loc 1 1030 19 view .LVU845
 2382 0758 CEE7     		b	.L53
 2383              	.LVL253:
 2384              	.L152:
1034:Drivers/STM32G4xx_HAL_Driver/Src/stm32g4xx_hal_rcc_ex.c ****       }
 2385              		.loc 1 1034 19 view .LVU846
 2386 075a 0948     		ldr	r0, .L217+8
 2387 075c CCE7     		b	.L53
 2388              	.LVL254:
 2389              	.L153:
1063:Drivers/STM32G4xx_HAL_Driver/Src/stm32g4xx_hal_rcc_ex.c ****       }      
 2390              		.loc 1 1063 19 view .LVU847
 2391 075e 0948     		ldr	r0, .L217+12
 2392              	.LVL255:
1063:Drivers/STM32G4xx_HAL_Driver/Src/stm32g4xx_hal_rcc_ex.c ****       }      
 2393              		.loc 1 1063 19 view .LVU848
 2394 0760 CAE7     		b	.L53
 2395              	.LVL256:
 2396              	.L154:
1067:Drivers/STM32G4xx_HAL_Driver/Src/stm32g4xx_hal_rcc_ex.c ****       }
 2397              		.loc 1 1067 19 view .LVU849
 2398 0762 0748     		ldr	r0, .L217+8
 2399 0764 C8E7     		b	.L53
 2400              	.LVL257:
 2401              	.L155:
1087:Drivers/STM32G4xx_HAL_Driver/Src/stm32g4xx_hal_rcc_ex.c ****       }
 2402              		.loc 1 1087 19 view .LVU850
 2403 0766 0848     		ldr	r0, .L217+16
 2404              	.LVL258:
1087:Drivers/STM32G4xx_HAL_Driver/Src/stm32g4xx_hal_rcc_ex.c ****       }
 2405              		.loc 1 1087 19 view .LVU851
 2406 0768 C6E7     		b	.L53
 2407              	.LVL259:
ARM GAS  C:\Users\HYDROG~1\AppData\Local\Temp\cc0rSm9d.s 			page 75


 2408              	.L157:
1120:Drivers/STM32G4xx_HAL_Driver/Src/stm32g4xx_hal_rcc_ex.c ****       }
 2409              		.loc 1 1120 19 view .LVU852
 2410 076a 0748     		ldr	r0, .L217+16
 2411 076c C4E7     		b	.L53
 2412              	.L158:
1142:Drivers/STM32G4xx_HAL_Driver/Src/stm32g4xx_hal_rcc_ex.c ****       }
 2413              		.loc 1 1142 19 view .LVU853
 2414 076e 0648     		ldr	r0, .L217+16
 2415 0770 C2E7     		b	.L53
 2416              	.LVL260:
 2417              	.L163:
1238:Drivers/STM32G4xx_HAL_Driver/Src/stm32g4xx_hal_rcc_ex.c ****       }      
 2418              		.loc 1 1238 19 view .LVU854
 2419 0772 0348     		ldr	r0, .L217+8
 2420              	.LVL261:
1238:Drivers/STM32G4xx_HAL_Driver/Src/stm32g4xx_hal_rcc_ex.c ****       }      
 2421              		.loc 1 1238 19 view .LVU855
 2422 0774 C0E7     		b	.L53
 2423              	.L218:
 2424 0776 00BF     		.align	2
 2425              	.L217:
 2426 0778 00100240 		.word	1073876992
 2427 077c 60E31600 		.word	1500000
 2428 0780 0024F400 		.word	16000000
 2429 0784 0080BB00 		.word	12288000
 2430 0788 006CDC02 		.word	48000000
 2431              		.cfi_endproc
 2432              	.LFE331:
 2434              		.section	.text.HAL_RCCEx_EnableLSECSS,"ax",%progbits
 2435              		.align	1
 2436              		.global	HAL_RCCEx_EnableLSECSS
 2437              		.syntax unified
 2438              		.thumb
 2439              		.thumb_func
 2441              	HAL_RCCEx_EnableLSECSS:
 2442              	.LFB332:
1259:Drivers/STM32G4xx_HAL_Driver/Src/stm32g4xx_hal_rcc_ex.c **** 
1260:Drivers/STM32G4xx_HAL_Driver/Src/stm32g4xx_hal_rcc_ex.c **** /**
1261:Drivers/STM32G4xx_HAL_Driver/Src/stm32g4xx_hal_rcc_ex.c ****   * @}
1262:Drivers/STM32G4xx_HAL_Driver/Src/stm32g4xx_hal_rcc_ex.c ****   */
1263:Drivers/STM32G4xx_HAL_Driver/Src/stm32g4xx_hal_rcc_ex.c **** 
1264:Drivers/STM32G4xx_HAL_Driver/Src/stm32g4xx_hal_rcc_ex.c **** /** @defgroup RCCEx_Exported_Functions_Group2 Extended Clock management functions
1265:Drivers/STM32G4xx_HAL_Driver/Src/stm32g4xx_hal_rcc_ex.c ****  *  @brief  Extended Clock management functions
1266:Drivers/STM32G4xx_HAL_Driver/Src/stm32g4xx_hal_rcc_ex.c ****  *
1267:Drivers/STM32G4xx_HAL_Driver/Src/stm32g4xx_hal_rcc_ex.c **** @verbatim
1268:Drivers/STM32G4xx_HAL_Driver/Src/stm32g4xx_hal_rcc_ex.c ****  ===============================================================================
1269:Drivers/STM32G4xx_HAL_Driver/Src/stm32g4xx_hal_rcc_ex.c ****                 ##### Extended clock management functions  #####
1270:Drivers/STM32G4xx_HAL_Driver/Src/stm32g4xx_hal_rcc_ex.c ****  ===============================================================================
1271:Drivers/STM32G4xx_HAL_Driver/Src/stm32g4xx_hal_rcc_ex.c ****     [..]
1272:Drivers/STM32G4xx_HAL_Driver/Src/stm32g4xx_hal_rcc_ex.c ****     This subsection provides a set of functions allowing to control the
1273:Drivers/STM32G4xx_HAL_Driver/Src/stm32g4xx_hal_rcc_ex.c ****     activation or deactivation of LSE CSS,
1274:Drivers/STM32G4xx_HAL_Driver/Src/stm32g4xx_hal_rcc_ex.c ****     Low speed clock output and clock after wake-up from STOP mode.
1275:Drivers/STM32G4xx_HAL_Driver/Src/stm32g4xx_hal_rcc_ex.c **** @endverbatim
1276:Drivers/STM32G4xx_HAL_Driver/Src/stm32g4xx_hal_rcc_ex.c ****   * @{
1277:Drivers/STM32G4xx_HAL_Driver/Src/stm32g4xx_hal_rcc_ex.c ****   */
1278:Drivers/STM32G4xx_HAL_Driver/Src/stm32g4xx_hal_rcc_ex.c **** 
ARM GAS  C:\Users\HYDROG~1\AppData\Local\Temp\cc0rSm9d.s 			page 76


1279:Drivers/STM32G4xx_HAL_Driver/Src/stm32g4xx_hal_rcc_ex.c **** /**
1280:Drivers/STM32G4xx_HAL_Driver/Src/stm32g4xx_hal_rcc_ex.c ****   * @brief  Enable the LSE Clock Security System.
1281:Drivers/STM32G4xx_HAL_Driver/Src/stm32g4xx_hal_rcc_ex.c ****   * @note   Prior to enable the LSE Clock Security System, LSE oscillator is to be enabled
1282:Drivers/STM32G4xx_HAL_Driver/Src/stm32g4xx_hal_rcc_ex.c ****   *         with HAL_RCC_OscConfig() and the LSE oscillator clock is to be selected as RTC
1283:Drivers/STM32G4xx_HAL_Driver/Src/stm32g4xx_hal_rcc_ex.c ****   *         clock with HAL_RCCEx_PeriphCLKConfig().
1284:Drivers/STM32G4xx_HAL_Driver/Src/stm32g4xx_hal_rcc_ex.c ****   * @retval None
1285:Drivers/STM32G4xx_HAL_Driver/Src/stm32g4xx_hal_rcc_ex.c ****   */
1286:Drivers/STM32G4xx_HAL_Driver/Src/stm32g4xx_hal_rcc_ex.c **** void HAL_RCCEx_EnableLSECSS(void)
1287:Drivers/STM32G4xx_HAL_Driver/Src/stm32g4xx_hal_rcc_ex.c **** {
 2443              		.loc 1 1287 1 is_stmt 1 view -0
 2444              		.cfi_startproc
 2445              		@ args = 0, pretend = 0, frame = 0
 2446              		@ frame_needed = 0, uses_anonymous_args = 0
 2447              		@ link register save eliminated.
1288:Drivers/STM32G4xx_HAL_Driver/Src/stm32g4xx_hal_rcc_ex.c ****   SET_BIT(RCC->BDCR, RCC_BDCR_LSECSSON) ;
 2448              		.loc 1 1288 3 view .LVU857
 2449 0000 034A     		ldr	r2, .L220
 2450 0002 D2F89030 		ldr	r3, [r2, #144]
 2451 0006 43F02003 		orr	r3, r3, #32
 2452 000a C2F89030 		str	r3, [r2, #144]
1289:Drivers/STM32G4xx_HAL_Driver/Src/stm32g4xx_hal_rcc_ex.c **** }
 2453              		.loc 1 1289 1 is_stmt 0 view .LVU858
 2454 000e 7047     		bx	lr
 2455              	.L221:
 2456              		.align	2
 2457              	.L220:
 2458 0010 00100240 		.word	1073876992
 2459              		.cfi_endproc
 2460              	.LFE332:
 2462              		.section	.text.HAL_RCCEx_DisableLSECSS,"ax",%progbits
 2463              		.align	1
 2464              		.global	HAL_RCCEx_DisableLSECSS
 2465              		.syntax unified
 2466              		.thumb
 2467              		.thumb_func
 2469              	HAL_RCCEx_DisableLSECSS:
 2470              	.LFB333:
1290:Drivers/STM32G4xx_HAL_Driver/Src/stm32g4xx_hal_rcc_ex.c **** 
1291:Drivers/STM32G4xx_HAL_Driver/Src/stm32g4xx_hal_rcc_ex.c **** /**
1292:Drivers/STM32G4xx_HAL_Driver/Src/stm32g4xx_hal_rcc_ex.c ****   * @brief  Disable the LSE Clock Security System.
1293:Drivers/STM32G4xx_HAL_Driver/Src/stm32g4xx_hal_rcc_ex.c ****   * @note   LSE Clock Security System can only be disabled after a LSE failure detection.
1294:Drivers/STM32G4xx_HAL_Driver/Src/stm32g4xx_hal_rcc_ex.c ****   * @retval None
1295:Drivers/STM32G4xx_HAL_Driver/Src/stm32g4xx_hal_rcc_ex.c ****   */
1296:Drivers/STM32G4xx_HAL_Driver/Src/stm32g4xx_hal_rcc_ex.c **** void HAL_RCCEx_DisableLSECSS(void)
1297:Drivers/STM32G4xx_HAL_Driver/Src/stm32g4xx_hal_rcc_ex.c **** {
 2471              		.loc 1 1297 1 is_stmt 1 view -0
 2472              		.cfi_startproc
 2473              		@ args = 0, pretend = 0, frame = 0
 2474              		@ frame_needed = 0, uses_anonymous_args = 0
 2475              		@ link register save eliminated.
1298:Drivers/STM32G4xx_HAL_Driver/Src/stm32g4xx_hal_rcc_ex.c ****   CLEAR_BIT(RCC->BDCR, RCC_BDCR_LSECSSON) ;
 2476              		.loc 1 1298 3 view .LVU860
 2477 0000 054B     		ldr	r3, .L223
 2478 0002 D3F89020 		ldr	r2, [r3, #144]
 2479 0006 22F02002 		bic	r2, r2, #32
 2480 000a C3F89020 		str	r2, [r3, #144]
1299:Drivers/STM32G4xx_HAL_Driver/Src/stm32g4xx_hal_rcc_ex.c **** 
ARM GAS  C:\Users\HYDROG~1\AppData\Local\Temp\cc0rSm9d.s 			page 77


1300:Drivers/STM32G4xx_HAL_Driver/Src/stm32g4xx_hal_rcc_ex.c ****   /* Disable LSE CSS IT if any */
1301:Drivers/STM32G4xx_HAL_Driver/Src/stm32g4xx_hal_rcc_ex.c ****   __HAL_RCC_DISABLE_IT(RCC_IT_LSECSS);
 2481              		.loc 1 1301 3 view .LVU861
 2482 000e 9A69     		ldr	r2, [r3, #24]
 2483 0010 22F40072 		bic	r2, r2, #512
 2484 0014 9A61     		str	r2, [r3, #24]
1302:Drivers/STM32G4xx_HAL_Driver/Src/stm32g4xx_hal_rcc_ex.c **** }
 2485              		.loc 1 1302 1 is_stmt 0 view .LVU862
 2486 0016 7047     		bx	lr
 2487              	.L224:
 2488              		.align	2
 2489              	.L223:
 2490 0018 00100240 		.word	1073876992
 2491              		.cfi_endproc
 2492              	.LFE333:
 2494              		.section	.text.HAL_RCCEx_EnableLSECSS_IT,"ax",%progbits
 2495              		.align	1
 2496              		.global	HAL_RCCEx_EnableLSECSS_IT
 2497              		.syntax unified
 2498              		.thumb
 2499              		.thumb_func
 2501              	HAL_RCCEx_EnableLSECSS_IT:
 2502              	.LFB334:
1303:Drivers/STM32G4xx_HAL_Driver/Src/stm32g4xx_hal_rcc_ex.c **** 
1304:Drivers/STM32G4xx_HAL_Driver/Src/stm32g4xx_hal_rcc_ex.c **** /**
1305:Drivers/STM32G4xx_HAL_Driver/Src/stm32g4xx_hal_rcc_ex.c ****   * @brief  Enable the LSE Clock Security System Interrupt & corresponding EXTI line.
1306:Drivers/STM32G4xx_HAL_Driver/Src/stm32g4xx_hal_rcc_ex.c ****   * @note   LSE Clock Security System Interrupt is mapped on RTC EXTI line 19
1307:Drivers/STM32G4xx_HAL_Driver/Src/stm32g4xx_hal_rcc_ex.c ****   * @retval None
1308:Drivers/STM32G4xx_HAL_Driver/Src/stm32g4xx_hal_rcc_ex.c ****   */
1309:Drivers/STM32G4xx_HAL_Driver/Src/stm32g4xx_hal_rcc_ex.c **** void HAL_RCCEx_EnableLSECSS_IT(void)
1310:Drivers/STM32G4xx_HAL_Driver/Src/stm32g4xx_hal_rcc_ex.c **** {
 2503              		.loc 1 1310 1 is_stmt 1 view -0
 2504              		.cfi_startproc
 2505              		@ args = 0, pretend = 0, frame = 0
 2506              		@ frame_needed = 0, uses_anonymous_args = 0
 2507              		@ link register save eliminated.
1311:Drivers/STM32G4xx_HAL_Driver/Src/stm32g4xx_hal_rcc_ex.c ****   /* Enable LSE CSS */
1312:Drivers/STM32G4xx_HAL_Driver/Src/stm32g4xx_hal_rcc_ex.c ****   SET_BIT(RCC->BDCR, RCC_BDCR_LSECSSON) ;
 2508              		.loc 1 1312 3 view .LVU864
 2509 0000 0A4B     		ldr	r3, .L226
 2510 0002 D3F89020 		ldr	r2, [r3, #144]
 2511 0006 42F02002 		orr	r2, r2, #32
 2512 000a C3F89020 		str	r2, [r3, #144]
1313:Drivers/STM32G4xx_HAL_Driver/Src/stm32g4xx_hal_rcc_ex.c **** 
1314:Drivers/STM32G4xx_HAL_Driver/Src/stm32g4xx_hal_rcc_ex.c ****   /* Enable LSE CSS IT */
1315:Drivers/STM32G4xx_HAL_Driver/Src/stm32g4xx_hal_rcc_ex.c ****   __HAL_RCC_ENABLE_IT(RCC_IT_LSECSS);
 2513              		.loc 1 1315 3 view .LVU865
 2514 000e 9A69     		ldr	r2, [r3, #24]
 2515 0010 42F40072 		orr	r2, r2, #512
 2516 0014 9A61     		str	r2, [r3, #24]
1316:Drivers/STM32G4xx_HAL_Driver/Src/stm32g4xx_hal_rcc_ex.c **** 
1317:Drivers/STM32G4xx_HAL_Driver/Src/stm32g4xx_hal_rcc_ex.c ****   /* Enable IT on EXTI Line 19 */
1318:Drivers/STM32G4xx_HAL_Driver/Src/stm32g4xx_hal_rcc_ex.c ****   __HAL_RCC_LSECSS_EXTI_ENABLE_IT();
 2517              		.loc 1 1318 3 view .LVU866
 2518 0016 A3F58633 		sub	r3, r3, #68608
 2519 001a 1A68     		ldr	r2, [r3]
 2520 001c 42F40022 		orr	r2, r2, #524288
ARM GAS  C:\Users\HYDROG~1\AppData\Local\Temp\cc0rSm9d.s 			page 78


 2521 0020 1A60     		str	r2, [r3]
1319:Drivers/STM32G4xx_HAL_Driver/Src/stm32g4xx_hal_rcc_ex.c ****   __HAL_RCC_LSECSS_EXTI_ENABLE_RISING_EDGE();
 2522              		.loc 1 1319 3 view .LVU867
 2523 0022 9A68     		ldr	r2, [r3, #8]
 2524 0024 42F40022 		orr	r2, r2, #524288
 2525 0028 9A60     		str	r2, [r3, #8]
1320:Drivers/STM32G4xx_HAL_Driver/Src/stm32g4xx_hal_rcc_ex.c **** }
 2526              		.loc 1 1320 1 is_stmt 0 view .LVU868
 2527 002a 7047     		bx	lr
 2528              	.L227:
 2529              		.align	2
 2530              	.L226:
 2531 002c 00100240 		.word	1073876992
 2532              		.cfi_endproc
 2533              	.LFE334:
 2535              		.section	.text.HAL_RCCEx_LSECSS_Callback,"ax",%progbits
 2536              		.align	1
 2537              		.weak	HAL_RCCEx_LSECSS_Callback
 2538              		.syntax unified
 2539              		.thumb
 2540              		.thumb_func
 2542              	HAL_RCCEx_LSECSS_Callback:
 2543              	.LFB336:
1321:Drivers/STM32G4xx_HAL_Driver/Src/stm32g4xx_hal_rcc_ex.c **** 
1322:Drivers/STM32G4xx_HAL_Driver/Src/stm32g4xx_hal_rcc_ex.c **** /**
1323:Drivers/STM32G4xx_HAL_Driver/Src/stm32g4xx_hal_rcc_ex.c ****   * @brief Handle the RCC LSE Clock Security System interrupt request.
1324:Drivers/STM32G4xx_HAL_Driver/Src/stm32g4xx_hal_rcc_ex.c ****   * @retval None
1325:Drivers/STM32G4xx_HAL_Driver/Src/stm32g4xx_hal_rcc_ex.c ****   */
1326:Drivers/STM32G4xx_HAL_Driver/Src/stm32g4xx_hal_rcc_ex.c **** void HAL_RCCEx_LSECSS_IRQHandler(void)
1327:Drivers/STM32G4xx_HAL_Driver/Src/stm32g4xx_hal_rcc_ex.c **** {
1328:Drivers/STM32G4xx_HAL_Driver/Src/stm32g4xx_hal_rcc_ex.c ****   /* Check RCC LSE CSSF flag  */
1329:Drivers/STM32G4xx_HAL_Driver/Src/stm32g4xx_hal_rcc_ex.c ****   if(__HAL_RCC_GET_IT(RCC_IT_LSECSS))
1330:Drivers/STM32G4xx_HAL_Driver/Src/stm32g4xx_hal_rcc_ex.c ****   {
1331:Drivers/STM32G4xx_HAL_Driver/Src/stm32g4xx_hal_rcc_ex.c ****     /* RCC LSE Clock Security System interrupt user callback */
1332:Drivers/STM32G4xx_HAL_Driver/Src/stm32g4xx_hal_rcc_ex.c ****     HAL_RCCEx_LSECSS_Callback();
1333:Drivers/STM32G4xx_HAL_Driver/Src/stm32g4xx_hal_rcc_ex.c **** 
1334:Drivers/STM32G4xx_HAL_Driver/Src/stm32g4xx_hal_rcc_ex.c ****     /* Clear RCC LSE CSS pending bit */
1335:Drivers/STM32G4xx_HAL_Driver/Src/stm32g4xx_hal_rcc_ex.c ****     __HAL_RCC_CLEAR_IT(RCC_IT_LSECSS);
1336:Drivers/STM32G4xx_HAL_Driver/Src/stm32g4xx_hal_rcc_ex.c ****   }
1337:Drivers/STM32G4xx_HAL_Driver/Src/stm32g4xx_hal_rcc_ex.c **** }
1338:Drivers/STM32G4xx_HAL_Driver/Src/stm32g4xx_hal_rcc_ex.c **** 
1339:Drivers/STM32G4xx_HAL_Driver/Src/stm32g4xx_hal_rcc_ex.c **** /**
1340:Drivers/STM32G4xx_HAL_Driver/Src/stm32g4xx_hal_rcc_ex.c ****   * @brief  RCCEx LSE Clock Security System interrupt callback.
1341:Drivers/STM32G4xx_HAL_Driver/Src/stm32g4xx_hal_rcc_ex.c ****   * @retval none
1342:Drivers/STM32G4xx_HAL_Driver/Src/stm32g4xx_hal_rcc_ex.c ****   */
1343:Drivers/STM32G4xx_HAL_Driver/Src/stm32g4xx_hal_rcc_ex.c **** __weak void HAL_RCCEx_LSECSS_Callback(void)
1344:Drivers/STM32G4xx_HAL_Driver/Src/stm32g4xx_hal_rcc_ex.c **** {
 2544              		.loc 1 1344 1 is_stmt 1 view -0
 2545              		.cfi_startproc
 2546              		@ args = 0, pretend = 0, frame = 0
 2547              		@ frame_needed = 0, uses_anonymous_args = 0
 2548              		@ link register save eliminated.
1345:Drivers/STM32G4xx_HAL_Driver/Src/stm32g4xx_hal_rcc_ex.c ****   /* NOTE : This function should not be modified, when the callback is needed,
1346:Drivers/STM32G4xx_HAL_Driver/Src/stm32g4xx_hal_rcc_ex.c ****             the @ref HAL_RCCEx_LSECSS_Callback should be implemented in the user file
1347:Drivers/STM32G4xx_HAL_Driver/Src/stm32g4xx_hal_rcc_ex.c ****    */
1348:Drivers/STM32G4xx_HAL_Driver/Src/stm32g4xx_hal_rcc_ex.c **** }
 2549              		.loc 1 1348 1 view .LVU870
ARM GAS  C:\Users\HYDROG~1\AppData\Local\Temp\cc0rSm9d.s 			page 79


 2550 0000 7047     		bx	lr
 2551              		.cfi_endproc
 2552              	.LFE336:
 2554              		.section	.text.HAL_RCCEx_LSECSS_IRQHandler,"ax",%progbits
 2555              		.align	1
 2556              		.global	HAL_RCCEx_LSECSS_IRQHandler
 2557              		.syntax unified
 2558              		.thumb
 2559              		.thumb_func
 2561              	HAL_RCCEx_LSECSS_IRQHandler:
 2562              	.LFB335:
1327:Drivers/STM32G4xx_HAL_Driver/Src/stm32g4xx_hal_rcc_ex.c ****   /* Check RCC LSE CSSF flag  */
 2563              		.loc 1 1327 1 view -0
 2564              		.cfi_startproc
 2565              		@ args = 0, pretend = 0, frame = 0
 2566              		@ frame_needed = 0, uses_anonymous_args = 0
 2567 0000 08B5     		push	{r3, lr}
 2568              	.LCFI5:
 2569              		.cfi_def_cfa_offset 8
 2570              		.cfi_offset 3, -8
 2571              		.cfi_offset 14, -4
1329:Drivers/STM32G4xx_HAL_Driver/Src/stm32g4xx_hal_rcc_ex.c ****   {
 2572              		.loc 1 1329 3 view .LVU872
1329:Drivers/STM32G4xx_HAL_Driver/Src/stm32g4xx_hal_rcc_ex.c ****   {
 2573              		.loc 1 1329 6 is_stmt 0 view .LVU873
 2574 0002 064B     		ldr	r3, .L233
 2575 0004 DB69     		ldr	r3, [r3, #28]
1329:Drivers/STM32G4xx_HAL_Driver/Src/stm32g4xx_hal_rcc_ex.c ****   {
 2576              		.loc 1 1329 5 view .LVU874
 2577 0006 13F4007F 		tst	r3, #512
 2578 000a 00D1     		bne	.L232
 2579              	.L229:
1337:Drivers/STM32G4xx_HAL_Driver/Src/stm32g4xx_hal_rcc_ex.c **** 
 2580              		.loc 1 1337 1 view .LVU875
 2581 000c 08BD     		pop	{r3, pc}
 2582              	.L232:
1332:Drivers/STM32G4xx_HAL_Driver/Src/stm32g4xx_hal_rcc_ex.c **** 
 2583              		.loc 1 1332 5 is_stmt 1 view .LVU876
 2584 000e FFF7FEFF 		bl	HAL_RCCEx_LSECSS_Callback
 2585              	.LVL262:
1335:Drivers/STM32G4xx_HAL_Driver/Src/stm32g4xx_hal_rcc_ex.c ****   }
 2586              		.loc 1 1335 5 view .LVU877
 2587 0012 024B     		ldr	r3, .L233
 2588 0014 4FF40072 		mov	r2, #512
 2589 0018 1A62     		str	r2, [r3, #32]
1337:Drivers/STM32G4xx_HAL_Driver/Src/stm32g4xx_hal_rcc_ex.c **** 
 2590              		.loc 1 1337 1 is_stmt 0 view .LVU878
 2591 001a F7E7     		b	.L229
 2592              	.L234:
 2593              		.align	2
 2594              	.L233:
 2595 001c 00100240 		.word	1073876992
 2596              		.cfi_endproc
 2597              	.LFE335:
 2599              		.section	.text.HAL_RCCEx_EnableLSCO,"ax",%progbits
 2600              		.align	1
 2601              		.global	HAL_RCCEx_EnableLSCO
ARM GAS  C:\Users\HYDROG~1\AppData\Local\Temp\cc0rSm9d.s 			page 80


 2602              		.syntax unified
 2603              		.thumb
 2604              		.thumb_func
 2606              	HAL_RCCEx_EnableLSCO:
 2607              	.LVL263:
 2608              	.LFB337:
1349:Drivers/STM32G4xx_HAL_Driver/Src/stm32g4xx_hal_rcc_ex.c **** 
1350:Drivers/STM32G4xx_HAL_Driver/Src/stm32g4xx_hal_rcc_ex.c **** /**
1351:Drivers/STM32G4xx_HAL_Driver/Src/stm32g4xx_hal_rcc_ex.c ****   * @brief  Select the Low Speed clock source to output on LSCO pin (PA2).
1352:Drivers/STM32G4xx_HAL_Driver/Src/stm32g4xx_hal_rcc_ex.c ****   * @param  LSCOSource  specifies the Low Speed clock source to output.
1353:Drivers/STM32G4xx_HAL_Driver/Src/stm32g4xx_hal_rcc_ex.c ****   *          This parameter can be one of the following values:
1354:Drivers/STM32G4xx_HAL_Driver/Src/stm32g4xx_hal_rcc_ex.c ****   *            @arg @ref RCC_LSCOSOURCE_LSI  LSI clock selected as LSCO source
1355:Drivers/STM32G4xx_HAL_Driver/Src/stm32g4xx_hal_rcc_ex.c ****   *            @arg @ref RCC_LSCOSOURCE_LSE  LSE clock selected as LSCO source
1356:Drivers/STM32G4xx_HAL_Driver/Src/stm32g4xx_hal_rcc_ex.c ****   * @retval None
1357:Drivers/STM32G4xx_HAL_Driver/Src/stm32g4xx_hal_rcc_ex.c ****   */
1358:Drivers/STM32G4xx_HAL_Driver/Src/stm32g4xx_hal_rcc_ex.c **** void HAL_RCCEx_EnableLSCO(uint32_t LSCOSource)
1359:Drivers/STM32G4xx_HAL_Driver/Src/stm32g4xx_hal_rcc_ex.c **** {
 2609              		.loc 1 1359 1 is_stmt 1 view -0
 2610              		.cfi_startproc
 2611              		@ args = 0, pretend = 0, frame = 32
 2612              		@ frame_needed = 0, uses_anonymous_args = 0
 2613              		.loc 1 1359 1 is_stmt 0 view .LVU880
 2614 0000 30B5     		push	{r4, r5, lr}
 2615              	.LCFI6:
 2616              		.cfi_def_cfa_offset 12
 2617              		.cfi_offset 4, -12
 2618              		.cfi_offset 5, -8
 2619              		.cfi_offset 14, -4
 2620 0002 89B0     		sub	sp, sp, #36
 2621              	.LCFI7:
 2622              		.cfi_def_cfa_offset 48
 2623 0004 0546     		mov	r5, r0
1360:Drivers/STM32G4xx_HAL_Driver/Src/stm32g4xx_hal_rcc_ex.c ****   GPIO_InitTypeDef GPIO_InitStruct;
 2624              		.loc 1 1360 3 is_stmt 1 view .LVU881
1361:Drivers/STM32G4xx_HAL_Driver/Src/stm32g4xx_hal_rcc_ex.c ****   FlagStatus       pwrclkchanged = RESET;
 2625              		.loc 1 1361 3 view .LVU882
 2626              	.LVL264:
1362:Drivers/STM32G4xx_HAL_Driver/Src/stm32g4xx_hal_rcc_ex.c ****   FlagStatus       backupchanged = RESET;
 2627              		.loc 1 1362 3 view .LVU883
1363:Drivers/STM32G4xx_HAL_Driver/Src/stm32g4xx_hal_rcc_ex.c **** 
1364:Drivers/STM32G4xx_HAL_Driver/Src/stm32g4xx_hal_rcc_ex.c ****   /* Check the parameters */
1365:Drivers/STM32G4xx_HAL_Driver/Src/stm32g4xx_hal_rcc_ex.c ****   assert_param(IS_RCC_LSCOSOURCE(LSCOSource));
 2628              		.loc 1 1365 3 view .LVU884
1366:Drivers/STM32G4xx_HAL_Driver/Src/stm32g4xx_hal_rcc_ex.c **** 
1367:Drivers/STM32G4xx_HAL_Driver/Src/stm32g4xx_hal_rcc_ex.c ****   /* LSCO Pin Clock Enable */
1368:Drivers/STM32G4xx_HAL_Driver/Src/stm32g4xx_hal_rcc_ex.c ****   __LSCO_CLK_ENABLE();
 2629              		.loc 1 1368 3 view .LVU885
 2630              	.LBB5:
 2631              		.loc 1 1368 3 view .LVU886
 2632              		.loc 1 1368 3 view .LVU887
 2633 0006 244C     		ldr	r4, .L246
 2634 0008 E36C     		ldr	r3, [r4, #76]
 2635 000a 43F00103 		orr	r3, r3, #1
 2636 000e E364     		str	r3, [r4, #76]
 2637              		.loc 1 1368 3 view .LVU888
 2638 0010 E36C     		ldr	r3, [r4, #76]
 2639 0012 03F00103 		and	r3, r3, #1
ARM GAS  C:\Users\HYDROG~1\AppData\Local\Temp\cc0rSm9d.s 			page 81


 2640 0016 0193     		str	r3, [sp, #4]
 2641              		.loc 1 1368 3 view .LVU889
 2642 0018 019B     		ldr	r3, [sp, #4]
 2643              	.LBE5:
 2644              		.loc 1 1368 3 view .LVU890
1369:Drivers/STM32G4xx_HAL_Driver/Src/stm32g4xx_hal_rcc_ex.c **** 
1370:Drivers/STM32G4xx_HAL_Driver/Src/stm32g4xx_hal_rcc_ex.c ****   /* Configure the LSCO pin in analog mode */
1371:Drivers/STM32G4xx_HAL_Driver/Src/stm32g4xx_hal_rcc_ex.c ****   GPIO_InitStruct.Pin = LSCO_PIN;
 2645              		.loc 1 1371 3 view .LVU891
 2646              		.loc 1 1371 23 is_stmt 0 view .LVU892
 2647 001a 0423     		movs	r3, #4
 2648 001c 0393     		str	r3, [sp, #12]
1372:Drivers/STM32G4xx_HAL_Driver/Src/stm32g4xx_hal_rcc_ex.c ****   GPIO_InitStruct.Mode = GPIO_MODE_ANALOG;
 2649              		.loc 1 1372 3 is_stmt 1 view .LVU893
 2650              		.loc 1 1372 24 is_stmt 0 view .LVU894
 2651 001e 0323     		movs	r3, #3
 2652 0020 0493     		str	r3, [sp, #16]
1373:Drivers/STM32G4xx_HAL_Driver/Src/stm32g4xx_hal_rcc_ex.c ****   GPIO_InitStruct.Speed = GPIO_SPEED_FREQ_HIGH;
 2653              		.loc 1 1373 3 is_stmt 1 view .LVU895
 2654              		.loc 1 1373 25 is_stmt 0 view .LVU896
 2655 0022 0223     		movs	r3, #2
 2656 0024 0693     		str	r3, [sp, #24]
1374:Drivers/STM32G4xx_HAL_Driver/Src/stm32g4xx_hal_rcc_ex.c ****   GPIO_InitStruct.Pull = GPIO_NOPULL;
 2657              		.loc 1 1374 3 is_stmt 1 view .LVU897
 2658              		.loc 1 1374 24 is_stmt 0 view .LVU898
 2659 0026 0023     		movs	r3, #0
 2660 0028 0593     		str	r3, [sp, #20]
1375:Drivers/STM32G4xx_HAL_Driver/Src/stm32g4xx_hal_rcc_ex.c ****   HAL_GPIO_Init(LSCO_GPIO_PORT, &GPIO_InitStruct);
 2661              		.loc 1 1375 3 is_stmt 1 view .LVU899
 2662 002a 03A9     		add	r1, sp, #12
 2663 002c 4FF09040 		mov	r0, #1207959552
 2664              	.LVL265:
 2665              		.loc 1 1375 3 is_stmt 0 view .LVU900
 2666 0030 FFF7FEFF 		bl	HAL_GPIO_Init
 2667              	.LVL266:
1376:Drivers/STM32G4xx_HAL_Driver/Src/stm32g4xx_hal_rcc_ex.c **** 
1377:Drivers/STM32G4xx_HAL_Driver/Src/stm32g4xx_hal_rcc_ex.c ****   /* Update LSCOSEL clock source in Backup Domain control register */
1378:Drivers/STM32G4xx_HAL_Driver/Src/stm32g4xx_hal_rcc_ex.c ****   if(__HAL_RCC_PWR_IS_CLK_DISABLED())
 2668              		.loc 1 1378 3 is_stmt 1 view .LVU901
 2669              		.loc 1 1378 6 is_stmt 0 view .LVU902
 2670 0034 A36D     		ldr	r3, [r4, #88]
 2671              		.loc 1 1378 5 view .LVU903
 2672 0036 13F0805F 		tst	r3, #268435456
 2673 003a 1ED1     		bne	.L240
1379:Drivers/STM32G4xx_HAL_Driver/Src/stm32g4xx_hal_rcc_ex.c ****   {
1380:Drivers/STM32G4xx_HAL_Driver/Src/stm32g4xx_hal_rcc_ex.c ****     __HAL_RCC_PWR_CLK_ENABLE();
 2674              		.loc 1 1380 5 is_stmt 1 view .LVU904
 2675              	.LBB6:
 2676              		.loc 1 1380 5 view .LVU905
 2677              		.loc 1 1380 5 view .LVU906
 2678 003c A26D     		ldr	r2, [r4, #88]
 2679 003e 42F08052 		orr	r2, r2, #268435456
 2680 0042 A265     		str	r2, [r4, #88]
 2681              		.loc 1 1380 5 view .LVU907
 2682 0044 A36D     		ldr	r3, [r4, #88]
 2683 0046 03F08053 		and	r3, r3, #268435456
 2684 004a 0293     		str	r3, [sp, #8]
ARM GAS  C:\Users\HYDROG~1\AppData\Local\Temp\cc0rSm9d.s 			page 82


 2685              		.loc 1 1380 5 view .LVU908
 2686 004c 029B     		ldr	r3, [sp, #8]
 2687              	.LBE6:
 2688              		.loc 1 1380 5 view .LVU909
1381:Drivers/STM32G4xx_HAL_Driver/Src/stm32g4xx_hal_rcc_ex.c ****     pwrclkchanged = SET;
 2689              		.loc 1 1381 5 view .LVU910
 2690              	.LVL267:
 2691              		.loc 1 1381 19 is_stmt 0 view .LVU911
 2692 004e 0124     		movs	r4, #1
 2693              	.LVL268:
 2694              	.L236:
1382:Drivers/STM32G4xx_HAL_Driver/Src/stm32g4xx_hal_rcc_ex.c ****   }
1383:Drivers/STM32G4xx_HAL_Driver/Src/stm32g4xx_hal_rcc_ex.c ****   if(HAL_IS_BIT_CLR(PWR->CR1, PWR_CR1_DBP))
 2695              		.loc 1 1383 3 is_stmt 1 view .LVU912
 2696              		.loc 1 1383 6 is_stmt 0 view .LVU913
 2697 0050 124B     		ldr	r3, .L246+4
 2698 0052 1B68     		ldr	r3, [r3]
 2699              		.loc 1 1383 5 view .LVU914
 2700 0054 13F4807F 		tst	r3, #256
 2701 0058 11D0     		beq	.L243
1362:Drivers/STM32G4xx_HAL_Driver/Src/stm32g4xx_hal_rcc_ex.c **** 
 2702              		.loc 1 1362 20 view .LVU915
 2703 005a 0021     		movs	r1, #0
 2704              	.LVL269:
 2705              	.L237:
1384:Drivers/STM32G4xx_HAL_Driver/Src/stm32g4xx_hal_rcc_ex.c ****   {
1385:Drivers/STM32G4xx_HAL_Driver/Src/stm32g4xx_hal_rcc_ex.c ****     HAL_PWR_EnableBkUpAccess();
1386:Drivers/STM32G4xx_HAL_Driver/Src/stm32g4xx_hal_rcc_ex.c ****     backupchanged = SET;
1387:Drivers/STM32G4xx_HAL_Driver/Src/stm32g4xx_hal_rcc_ex.c ****   }
1388:Drivers/STM32G4xx_HAL_Driver/Src/stm32g4xx_hal_rcc_ex.c **** 
1389:Drivers/STM32G4xx_HAL_Driver/Src/stm32g4xx_hal_rcc_ex.c ****   MODIFY_REG(RCC->BDCR, RCC_BDCR_LSCOSEL | RCC_BDCR_LSCOEN, LSCOSource | RCC_BDCR_LSCOEN);
 2706              		.loc 1 1389 3 is_stmt 1 view .LVU916
 2707 005c 0E4A     		ldr	r2, .L246
 2708 005e D2F89030 		ldr	r3, [r2, #144]
 2709 0062 23F04073 		bic	r3, r3, #50331648
 2710 0066 43EA0500 		orr	r0, r3, r5
 2711 006a 40F08070 		orr	r0, r0, #16777216
 2712 006e C2F89000 		str	r0, [r2, #144]
1390:Drivers/STM32G4xx_HAL_Driver/Src/stm32g4xx_hal_rcc_ex.c **** 
1391:Drivers/STM32G4xx_HAL_Driver/Src/stm32g4xx_hal_rcc_ex.c ****   if(backupchanged == SET)
 2713              		.loc 1 1391 3 view .LVU917
 2714              		.loc 1 1391 5 is_stmt 0 view .LVU918
 2715 0072 41B9     		cbnz	r1, .L244
 2716              	.LVL270:
 2717              	.L238:
1392:Drivers/STM32G4xx_HAL_Driver/Src/stm32g4xx_hal_rcc_ex.c ****   {
1393:Drivers/STM32G4xx_HAL_Driver/Src/stm32g4xx_hal_rcc_ex.c ****     HAL_PWR_DisableBkUpAccess();
1394:Drivers/STM32G4xx_HAL_Driver/Src/stm32g4xx_hal_rcc_ex.c ****   }
1395:Drivers/STM32G4xx_HAL_Driver/Src/stm32g4xx_hal_rcc_ex.c ****   if(pwrclkchanged == SET)
 2718              		.loc 1 1395 3 is_stmt 1 view .LVU919
 2719              		.loc 1 1395 5 is_stmt 0 view .LVU920
 2720 0074 54B9     		cbnz	r4, .L245
 2721              	.L235:
1396:Drivers/STM32G4xx_HAL_Driver/Src/stm32g4xx_hal_rcc_ex.c ****   {
1397:Drivers/STM32G4xx_HAL_Driver/Src/stm32g4xx_hal_rcc_ex.c ****     __HAL_RCC_PWR_CLK_DISABLE();
1398:Drivers/STM32G4xx_HAL_Driver/Src/stm32g4xx_hal_rcc_ex.c ****   }
1399:Drivers/STM32G4xx_HAL_Driver/Src/stm32g4xx_hal_rcc_ex.c **** }
ARM GAS  C:\Users\HYDROG~1\AppData\Local\Temp\cc0rSm9d.s 			page 83


 2722              		.loc 1 1399 1 view .LVU921
 2723 0076 09B0     		add	sp, sp, #36
 2724              	.LCFI8:
 2725              		.cfi_remember_state
 2726              		.cfi_def_cfa_offset 12
 2727              		@ sp needed
 2728 0078 30BD     		pop	{r4, r5, pc}
 2729              	.LVL271:
 2730              	.L240:
 2731              	.LCFI9:
 2732              		.cfi_restore_state
1361:Drivers/STM32G4xx_HAL_Driver/Src/stm32g4xx_hal_rcc_ex.c ****   FlagStatus       backupchanged = RESET;
 2733              		.loc 1 1361 20 view .LVU922
 2734 007a 0024     		movs	r4, #0
 2735 007c E8E7     		b	.L236
 2736              	.LVL272:
 2737              	.L243:
1385:Drivers/STM32G4xx_HAL_Driver/Src/stm32g4xx_hal_rcc_ex.c ****     backupchanged = SET;
 2738              		.loc 1 1385 5 is_stmt 1 view .LVU923
 2739 007e FFF7FEFF 		bl	HAL_PWR_EnableBkUpAccess
 2740              	.LVL273:
1386:Drivers/STM32G4xx_HAL_Driver/Src/stm32g4xx_hal_rcc_ex.c ****   }
 2741              		.loc 1 1386 5 view .LVU924
1386:Drivers/STM32G4xx_HAL_Driver/Src/stm32g4xx_hal_rcc_ex.c ****   }
 2742              		.loc 1 1386 19 is_stmt 0 view .LVU925
 2743 0082 0121     		movs	r1, #1
 2744 0084 EAE7     		b	.L237
 2745              	.LVL274:
 2746              	.L244:
1393:Drivers/STM32G4xx_HAL_Driver/Src/stm32g4xx_hal_rcc_ex.c ****   }
 2747              		.loc 1 1393 5 is_stmt 1 view .LVU926
 2748 0086 FFF7FEFF 		bl	HAL_PWR_DisableBkUpAccess
 2749              	.LVL275:
1393:Drivers/STM32G4xx_HAL_Driver/Src/stm32g4xx_hal_rcc_ex.c ****   }
 2750              		.loc 1 1393 5 is_stmt 0 view .LVU927
 2751 008a F3E7     		b	.L238
 2752              	.L245:
1397:Drivers/STM32G4xx_HAL_Driver/Src/stm32g4xx_hal_rcc_ex.c ****   }
 2753              		.loc 1 1397 5 is_stmt 1 view .LVU928
 2754 008c 024A     		ldr	r2, .L246
 2755 008e 936D     		ldr	r3, [r2, #88]
 2756 0090 23F08053 		bic	r3, r3, #268435456
 2757 0094 9365     		str	r3, [r2, #88]
 2758              		.loc 1 1399 1 is_stmt 0 view .LVU929
 2759 0096 EEE7     		b	.L235
 2760              	.L247:
 2761              		.align	2
 2762              	.L246:
 2763 0098 00100240 		.word	1073876992
 2764 009c 00700040 		.word	1073770496
 2765              		.cfi_endproc
 2766              	.LFE337:
 2768              		.section	.text.HAL_RCCEx_DisableLSCO,"ax",%progbits
 2769              		.align	1
 2770              		.global	HAL_RCCEx_DisableLSCO
 2771              		.syntax unified
 2772              		.thumb
ARM GAS  C:\Users\HYDROG~1\AppData\Local\Temp\cc0rSm9d.s 			page 84


 2773              		.thumb_func
 2775              	HAL_RCCEx_DisableLSCO:
 2776              	.LFB338:
1400:Drivers/STM32G4xx_HAL_Driver/Src/stm32g4xx_hal_rcc_ex.c **** 
1401:Drivers/STM32G4xx_HAL_Driver/Src/stm32g4xx_hal_rcc_ex.c **** /**
1402:Drivers/STM32G4xx_HAL_Driver/Src/stm32g4xx_hal_rcc_ex.c ****   * @brief  Disable the Low Speed clock output.
1403:Drivers/STM32G4xx_HAL_Driver/Src/stm32g4xx_hal_rcc_ex.c ****   * @retval None
1404:Drivers/STM32G4xx_HAL_Driver/Src/stm32g4xx_hal_rcc_ex.c ****   */
1405:Drivers/STM32G4xx_HAL_Driver/Src/stm32g4xx_hal_rcc_ex.c **** void HAL_RCCEx_DisableLSCO(void)
1406:Drivers/STM32G4xx_HAL_Driver/Src/stm32g4xx_hal_rcc_ex.c **** {
 2777              		.loc 1 1406 1 is_stmt 1 view -0
 2778              		.cfi_startproc
 2779              		@ args = 0, pretend = 0, frame = 8
 2780              		@ frame_needed = 0, uses_anonymous_args = 0
 2781 0000 10B5     		push	{r4, lr}
 2782              	.LCFI10:
 2783              		.cfi_def_cfa_offset 8
 2784              		.cfi_offset 4, -8
 2785              		.cfi_offset 14, -4
 2786 0002 82B0     		sub	sp, sp, #8
 2787              	.LCFI11:
 2788              		.cfi_def_cfa_offset 16
1407:Drivers/STM32G4xx_HAL_Driver/Src/stm32g4xx_hal_rcc_ex.c ****   FlagStatus       pwrclkchanged = RESET;
 2789              		.loc 1 1407 3 view .LVU931
 2790              	.LVL276:
1408:Drivers/STM32G4xx_HAL_Driver/Src/stm32g4xx_hal_rcc_ex.c ****   FlagStatus       backupchanged = RESET;
 2791              		.loc 1 1408 3 view .LVU932
1409:Drivers/STM32G4xx_HAL_Driver/Src/stm32g4xx_hal_rcc_ex.c **** 
1410:Drivers/STM32G4xx_HAL_Driver/Src/stm32g4xx_hal_rcc_ex.c ****   /* Update LSCOEN bit in Backup Domain control register */
1411:Drivers/STM32G4xx_HAL_Driver/Src/stm32g4xx_hal_rcc_ex.c ****   if(__HAL_RCC_PWR_IS_CLK_DISABLED())
 2792              		.loc 1 1411 3 view .LVU933
 2793              		.loc 1 1411 6 is_stmt 0 view .LVU934
 2794 0004 174B     		ldr	r3, .L259
 2795 0006 9B6D     		ldr	r3, [r3, #88]
 2796              		.loc 1 1411 5 view .LVU935
 2797 0008 13F0805F 		tst	r3, #268435456
 2798 000c 1BD1     		bne	.L253
1412:Drivers/STM32G4xx_HAL_Driver/Src/stm32g4xx_hal_rcc_ex.c ****   {
1413:Drivers/STM32G4xx_HAL_Driver/Src/stm32g4xx_hal_rcc_ex.c ****     __HAL_RCC_PWR_CLK_ENABLE();
 2799              		.loc 1 1413 5 is_stmt 1 view .LVU936
 2800              	.LBB7:
 2801              		.loc 1 1413 5 view .LVU937
 2802              		.loc 1 1413 5 view .LVU938
 2803 000e 154B     		ldr	r3, .L259
 2804 0010 9A6D     		ldr	r2, [r3, #88]
 2805 0012 42F08052 		orr	r2, r2, #268435456
 2806 0016 9A65     		str	r2, [r3, #88]
 2807              		.loc 1 1413 5 view .LVU939
 2808 0018 9B6D     		ldr	r3, [r3, #88]
 2809 001a 03F08053 		and	r3, r3, #268435456
 2810 001e 0193     		str	r3, [sp, #4]
 2811              		.loc 1 1413 5 view .LVU940
 2812 0020 019B     		ldr	r3, [sp, #4]
 2813              	.LBE7:
 2814              		.loc 1 1413 5 view .LVU941
1414:Drivers/STM32G4xx_HAL_Driver/Src/stm32g4xx_hal_rcc_ex.c ****     pwrclkchanged = SET;
 2815              		.loc 1 1414 5 view .LVU942
ARM GAS  C:\Users\HYDROG~1\AppData\Local\Temp\cc0rSm9d.s 			page 85


 2816              	.LVL277:
 2817              		.loc 1 1414 19 is_stmt 0 view .LVU943
 2818 0022 0124     		movs	r4, #1
 2819              	.LVL278:
 2820              	.L249:
1415:Drivers/STM32G4xx_HAL_Driver/Src/stm32g4xx_hal_rcc_ex.c ****   }
1416:Drivers/STM32G4xx_HAL_Driver/Src/stm32g4xx_hal_rcc_ex.c ****   if(HAL_IS_BIT_CLR(PWR->CR1, PWR_CR1_DBP))
 2821              		.loc 1 1416 3 is_stmt 1 view .LVU944
 2822              		.loc 1 1416 6 is_stmt 0 view .LVU945
 2823 0024 104B     		ldr	r3, .L259+4
 2824 0026 1B68     		ldr	r3, [r3]
 2825              		.loc 1 1416 5 view .LVU946
 2826 0028 13F4807F 		tst	r3, #256
 2827 002c 0DD0     		beq	.L256
1408:Drivers/STM32G4xx_HAL_Driver/Src/stm32g4xx_hal_rcc_ex.c **** 
 2828              		.loc 1 1408 20 view .LVU947
 2829 002e 0021     		movs	r1, #0
 2830              	.LVL279:
 2831              	.L250:
1417:Drivers/STM32G4xx_HAL_Driver/Src/stm32g4xx_hal_rcc_ex.c ****   {
1418:Drivers/STM32G4xx_HAL_Driver/Src/stm32g4xx_hal_rcc_ex.c ****     /* Enable access to the backup domain */
1419:Drivers/STM32G4xx_HAL_Driver/Src/stm32g4xx_hal_rcc_ex.c ****     HAL_PWR_EnableBkUpAccess();
1420:Drivers/STM32G4xx_HAL_Driver/Src/stm32g4xx_hal_rcc_ex.c ****     backupchanged = SET;
1421:Drivers/STM32G4xx_HAL_Driver/Src/stm32g4xx_hal_rcc_ex.c ****   }
1422:Drivers/STM32G4xx_HAL_Driver/Src/stm32g4xx_hal_rcc_ex.c **** 
1423:Drivers/STM32G4xx_HAL_Driver/Src/stm32g4xx_hal_rcc_ex.c ****   CLEAR_BIT(RCC->BDCR, RCC_BDCR_LSCOEN);
 2832              		.loc 1 1423 3 is_stmt 1 view .LVU948
 2833 0030 0C4A     		ldr	r2, .L259
 2834 0032 D2F89030 		ldr	r3, [r2, #144]
 2835 0036 23F08073 		bic	r3, r3, #16777216
 2836 003a C2F89030 		str	r3, [r2, #144]
1424:Drivers/STM32G4xx_HAL_Driver/Src/stm32g4xx_hal_rcc_ex.c **** 
1425:Drivers/STM32G4xx_HAL_Driver/Src/stm32g4xx_hal_rcc_ex.c ****   /* Restore previous configuration */
1426:Drivers/STM32G4xx_HAL_Driver/Src/stm32g4xx_hal_rcc_ex.c ****   if(backupchanged == SET)
 2837              		.loc 1 1426 3 view .LVU949
 2838              		.loc 1 1426 5 is_stmt 0 view .LVU950
 2839 003e 41B9     		cbnz	r1, .L257
 2840              	.LVL280:
 2841              	.L251:
1427:Drivers/STM32G4xx_HAL_Driver/Src/stm32g4xx_hal_rcc_ex.c ****   {
1428:Drivers/STM32G4xx_HAL_Driver/Src/stm32g4xx_hal_rcc_ex.c ****     /* Disable access to the backup domain */
1429:Drivers/STM32G4xx_HAL_Driver/Src/stm32g4xx_hal_rcc_ex.c ****     HAL_PWR_DisableBkUpAccess();
1430:Drivers/STM32G4xx_HAL_Driver/Src/stm32g4xx_hal_rcc_ex.c ****   }
1431:Drivers/STM32G4xx_HAL_Driver/Src/stm32g4xx_hal_rcc_ex.c ****   if(pwrclkchanged == SET)
 2842              		.loc 1 1431 3 is_stmt 1 view .LVU951
 2843              		.loc 1 1431 5 is_stmt 0 view .LVU952
 2844 0040 54B9     		cbnz	r4, .L258
 2845              	.L248:
1432:Drivers/STM32G4xx_HAL_Driver/Src/stm32g4xx_hal_rcc_ex.c ****   {
1433:Drivers/STM32G4xx_HAL_Driver/Src/stm32g4xx_hal_rcc_ex.c ****     __HAL_RCC_PWR_CLK_DISABLE();
1434:Drivers/STM32G4xx_HAL_Driver/Src/stm32g4xx_hal_rcc_ex.c ****   }
1435:Drivers/STM32G4xx_HAL_Driver/Src/stm32g4xx_hal_rcc_ex.c **** }
 2846              		.loc 1 1435 1 view .LVU953
 2847 0042 02B0     		add	sp, sp, #8
 2848              	.LCFI12:
 2849              		.cfi_remember_state
 2850              		.cfi_def_cfa_offset 8
ARM GAS  C:\Users\HYDROG~1\AppData\Local\Temp\cc0rSm9d.s 			page 86


 2851              		@ sp needed
 2852 0044 10BD     		pop	{r4, pc}
 2853              	.LVL281:
 2854              	.L253:
 2855              	.LCFI13:
 2856              		.cfi_restore_state
1407:Drivers/STM32G4xx_HAL_Driver/Src/stm32g4xx_hal_rcc_ex.c ****   FlagStatus       backupchanged = RESET;
 2857              		.loc 1 1407 20 view .LVU954
 2858 0046 0024     		movs	r4, #0
 2859 0048 ECE7     		b	.L249
 2860              	.LVL282:
 2861              	.L256:
1419:Drivers/STM32G4xx_HAL_Driver/Src/stm32g4xx_hal_rcc_ex.c ****     backupchanged = SET;
 2862              		.loc 1 1419 5 is_stmt 1 view .LVU955
 2863 004a FFF7FEFF 		bl	HAL_PWR_EnableBkUpAccess
 2864              	.LVL283:
1420:Drivers/STM32G4xx_HAL_Driver/Src/stm32g4xx_hal_rcc_ex.c ****   }
 2865              		.loc 1 1420 5 view .LVU956
1420:Drivers/STM32G4xx_HAL_Driver/Src/stm32g4xx_hal_rcc_ex.c ****   }
 2866              		.loc 1 1420 19 is_stmt 0 view .LVU957
 2867 004e 0121     		movs	r1, #1
 2868 0050 EEE7     		b	.L250
 2869              	.LVL284:
 2870              	.L257:
1429:Drivers/STM32G4xx_HAL_Driver/Src/stm32g4xx_hal_rcc_ex.c ****   }
 2871              		.loc 1 1429 5 is_stmt 1 view .LVU958
 2872 0052 FFF7FEFF 		bl	HAL_PWR_DisableBkUpAccess
 2873              	.LVL285:
1429:Drivers/STM32G4xx_HAL_Driver/Src/stm32g4xx_hal_rcc_ex.c ****   }
 2874              		.loc 1 1429 5 is_stmt 0 view .LVU959
 2875 0056 F3E7     		b	.L251
 2876              	.L258:
1433:Drivers/STM32G4xx_HAL_Driver/Src/stm32g4xx_hal_rcc_ex.c ****   }
 2877              		.loc 1 1433 5 is_stmt 1 view .LVU960
 2878 0058 024A     		ldr	r2, .L259
 2879 005a 936D     		ldr	r3, [r2, #88]
 2880 005c 23F08053 		bic	r3, r3, #268435456
 2881 0060 9365     		str	r3, [r2, #88]
 2882              		.loc 1 1435 1 is_stmt 0 view .LVU961
 2883 0062 EEE7     		b	.L248
 2884              	.L260:
 2885              		.align	2
 2886              	.L259:
 2887 0064 00100240 		.word	1073876992
 2888 0068 00700040 		.word	1073770496
 2889              		.cfi_endproc
 2890              	.LFE338:
 2892              		.section	.text.HAL_RCCEx_CRSConfig,"ax",%progbits
 2893              		.align	1
 2894              		.global	HAL_RCCEx_CRSConfig
 2895              		.syntax unified
 2896              		.thumb
 2897              		.thumb_func
 2899              	HAL_RCCEx_CRSConfig:
 2900              	.LVL286:
 2901              	.LFB339:
1436:Drivers/STM32G4xx_HAL_Driver/Src/stm32g4xx_hal_rcc_ex.c **** 
ARM GAS  C:\Users\HYDROG~1\AppData\Local\Temp\cc0rSm9d.s 			page 87


1437:Drivers/STM32G4xx_HAL_Driver/Src/stm32g4xx_hal_rcc_ex.c **** 
1438:Drivers/STM32G4xx_HAL_Driver/Src/stm32g4xx_hal_rcc_ex.c **** /**
1439:Drivers/STM32G4xx_HAL_Driver/Src/stm32g4xx_hal_rcc_ex.c ****   * @}
1440:Drivers/STM32G4xx_HAL_Driver/Src/stm32g4xx_hal_rcc_ex.c ****   */
1441:Drivers/STM32G4xx_HAL_Driver/Src/stm32g4xx_hal_rcc_ex.c **** 
1442:Drivers/STM32G4xx_HAL_Driver/Src/stm32g4xx_hal_rcc_ex.c **** #if defined(CRS)
1443:Drivers/STM32G4xx_HAL_Driver/Src/stm32g4xx_hal_rcc_ex.c **** 
1444:Drivers/STM32G4xx_HAL_Driver/Src/stm32g4xx_hal_rcc_ex.c **** /** @defgroup RCCEx_Exported_Functions_Group3 Extended Clock Recovery System Control functions
1445:Drivers/STM32G4xx_HAL_Driver/Src/stm32g4xx_hal_rcc_ex.c ****  *  @brief  Extended Clock Recovery System Control functions
1446:Drivers/STM32G4xx_HAL_Driver/Src/stm32g4xx_hal_rcc_ex.c ****  *
1447:Drivers/STM32G4xx_HAL_Driver/Src/stm32g4xx_hal_rcc_ex.c **** @verbatim
1448:Drivers/STM32G4xx_HAL_Driver/Src/stm32g4xx_hal_rcc_ex.c ****  ===============================================================================
1449:Drivers/STM32G4xx_HAL_Driver/Src/stm32g4xx_hal_rcc_ex.c ****                 ##### Extended Clock Recovery System Control functions  #####
1450:Drivers/STM32G4xx_HAL_Driver/Src/stm32g4xx_hal_rcc_ex.c ****  ===============================================================================
1451:Drivers/STM32G4xx_HAL_Driver/Src/stm32g4xx_hal_rcc_ex.c ****     [..]
1452:Drivers/STM32G4xx_HAL_Driver/Src/stm32g4xx_hal_rcc_ex.c ****       For devices with Clock Recovery System feature (CRS), RCC Extension HAL driver can be used as
1453:Drivers/STM32G4xx_HAL_Driver/Src/stm32g4xx_hal_rcc_ex.c **** 
1454:Drivers/STM32G4xx_HAL_Driver/Src/stm32g4xx_hal_rcc_ex.c ****       (#) In System clock config, HSI48 needs to be enabled
1455:Drivers/STM32G4xx_HAL_Driver/Src/stm32g4xx_hal_rcc_ex.c **** 
1456:Drivers/STM32G4xx_HAL_Driver/Src/stm32g4xx_hal_rcc_ex.c ****       (#) Enable CRS clock in IP MSP init which will use CRS functions
1457:Drivers/STM32G4xx_HAL_Driver/Src/stm32g4xx_hal_rcc_ex.c **** 
1458:Drivers/STM32G4xx_HAL_Driver/Src/stm32g4xx_hal_rcc_ex.c ****       (#) Call CRS functions as follows:
1459:Drivers/STM32G4xx_HAL_Driver/Src/stm32g4xx_hal_rcc_ex.c ****           (##) Prepare synchronization configuration necessary for HSI48 calibration
1460:Drivers/STM32G4xx_HAL_Driver/Src/stm32g4xx_hal_rcc_ex.c ****               (+++) Default values can be set for frequency Error Measurement (reload and error lim
1461:Drivers/STM32G4xx_HAL_Driver/Src/stm32g4xx_hal_rcc_ex.c ****                         and also HSI48 oscillator smooth trimming.
1462:Drivers/STM32G4xx_HAL_Driver/Src/stm32g4xx_hal_rcc_ex.c ****               (+++) Macro __HAL_RCC_CRS_RELOADVALUE_CALCULATE can be also used to calculate
1463:Drivers/STM32G4xx_HAL_Driver/Src/stm32g4xx_hal_rcc_ex.c ****                         directly reload value with target and sychronization frequencies values
1464:Drivers/STM32G4xx_HAL_Driver/Src/stm32g4xx_hal_rcc_ex.c ****           (##) Call function HAL_RCCEx_CRSConfig which
1465:Drivers/STM32G4xx_HAL_Driver/Src/stm32g4xx_hal_rcc_ex.c ****               (+++) Resets CRS registers to their default values.
1466:Drivers/STM32G4xx_HAL_Driver/Src/stm32g4xx_hal_rcc_ex.c ****               (+++) Configures CRS registers with synchronization configuration
1467:Drivers/STM32G4xx_HAL_Driver/Src/stm32g4xx_hal_rcc_ex.c ****               (+++) Enables automatic calibration and frequency error counter feature
1468:Drivers/STM32G4xx_HAL_Driver/Src/stm32g4xx_hal_rcc_ex.c ****            Note: When using USB LPM (Link Power Management) and the device is in Sleep mode, the
1469:Drivers/STM32G4xx_HAL_Driver/Src/stm32g4xx_hal_rcc_ex.c ****            periodic USB SOF will not be generated by the host. No SYNC signal will therefore be
1470:Drivers/STM32G4xx_HAL_Driver/Src/stm32g4xx_hal_rcc_ex.c ****            provided to the CRS to calibrate the HSI48 on the run. To guarantee the required clock
1471:Drivers/STM32G4xx_HAL_Driver/Src/stm32g4xx_hal_rcc_ex.c ****            precision after waking up from Sleep mode, the LSE or reference clock on the GPIOs
1472:Drivers/STM32G4xx_HAL_Driver/Src/stm32g4xx_hal_rcc_ex.c ****            should be used as SYNC signal.
1473:Drivers/STM32G4xx_HAL_Driver/Src/stm32g4xx_hal_rcc_ex.c **** 
1474:Drivers/STM32G4xx_HAL_Driver/Src/stm32g4xx_hal_rcc_ex.c ****           (##) A polling function is provided to wait for complete synchronization
1475:Drivers/STM32G4xx_HAL_Driver/Src/stm32g4xx_hal_rcc_ex.c ****               (+++) Call function HAL_RCCEx_CRSWaitSynchronization()
1476:Drivers/STM32G4xx_HAL_Driver/Src/stm32g4xx_hal_rcc_ex.c ****               (+++) According to CRS status, user can decide to adjust again the calibration or con
1477:Drivers/STM32G4xx_HAL_Driver/Src/stm32g4xx_hal_rcc_ex.c ****                         application if synchronization is OK
1478:Drivers/STM32G4xx_HAL_Driver/Src/stm32g4xx_hal_rcc_ex.c **** 
1479:Drivers/STM32G4xx_HAL_Driver/Src/stm32g4xx_hal_rcc_ex.c ****       (#) User can retrieve information related to synchronization in calling function
1480:Drivers/STM32G4xx_HAL_Driver/Src/stm32g4xx_hal_rcc_ex.c ****             HAL_RCCEx_CRSGetSynchronizationInfo()
1481:Drivers/STM32G4xx_HAL_Driver/Src/stm32g4xx_hal_rcc_ex.c **** 
1482:Drivers/STM32G4xx_HAL_Driver/Src/stm32g4xx_hal_rcc_ex.c ****       (#) Regarding synchronization status and synchronization information, user can try a new cali
1483:Drivers/STM32G4xx_HAL_Driver/Src/stm32g4xx_hal_rcc_ex.c ****            in changing synchronization configuration and call again HAL_RCCEx_CRSConfig.
1484:Drivers/STM32G4xx_HAL_Driver/Src/stm32g4xx_hal_rcc_ex.c ****            Note: When the SYNC event is detected during the downcounting phase (before reaching the
1485:Drivers/STM32G4xx_HAL_Driver/Src/stm32g4xx_hal_rcc_ex.c ****            it means that the actual frequency is lower than the target (and so, that the TRIM value
1486:Drivers/STM32G4xx_HAL_Driver/Src/stm32g4xx_hal_rcc_ex.c ****            incremented), while when it is detected during the upcounting phase it means that the ac
1487:Drivers/STM32G4xx_HAL_Driver/Src/stm32g4xx_hal_rcc_ex.c ****            is higher (and that the TRIM value should be decremented).
1488:Drivers/STM32G4xx_HAL_Driver/Src/stm32g4xx_hal_rcc_ex.c **** 
1489:Drivers/STM32G4xx_HAL_Driver/Src/stm32g4xx_hal_rcc_ex.c ****       (#) In interrupt mode, user can resort to the available macros (__HAL_RCC_CRS_XXX_IT). Interr
1490:Drivers/STM32G4xx_HAL_Driver/Src/stm32g4xx_hal_rcc_ex.c ****           through CRS Handler (CRS_IRQn/CRS_IRQHandler)
1491:Drivers/STM32G4xx_HAL_Driver/Src/stm32g4xx_hal_rcc_ex.c ****               (++) Call function HAL_RCCEx_CRSConfig()
1492:Drivers/STM32G4xx_HAL_Driver/Src/stm32g4xx_hal_rcc_ex.c ****               (++) Enable CRS_IRQn (thanks to NVIC functions)
1493:Drivers/STM32G4xx_HAL_Driver/Src/stm32g4xx_hal_rcc_ex.c ****               (++) Enable CRS interrupt (__HAL_RCC_CRS_ENABLE_IT)
ARM GAS  C:\Users\HYDROG~1\AppData\Local\Temp\cc0rSm9d.s 			page 88


1494:Drivers/STM32G4xx_HAL_Driver/Src/stm32g4xx_hal_rcc_ex.c ****               (++) Implement CRS status management in the following user callbacks called from
1495:Drivers/STM32G4xx_HAL_Driver/Src/stm32g4xx_hal_rcc_ex.c ****                    HAL_RCCEx_CRS_IRQHandler():
1496:Drivers/STM32G4xx_HAL_Driver/Src/stm32g4xx_hal_rcc_ex.c ****                    (+++) HAL_RCCEx_CRS_SyncOkCallback()
1497:Drivers/STM32G4xx_HAL_Driver/Src/stm32g4xx_hal_rcc_ex.c ****                    (+++) HAL_RCCEx_CRS_SyncWarnCallback()
1498:Drivers/STM32G4xx_HAL_Driver/Src/stm32g4xx_hal_rcc_ex.c ****                    (+++) HAL_RCCEx_CRS_ExpectedSyncCallback()
1499:Drivers/STM32G4xx_HAL_Driver/Src/stm32g4xx_hal_rcc_ex.c ****                    (+++) HAL_RCCEx_CRS_ErrorCallback()
1500:Drivers/STM32G4xx_HAL_Driver/Src/stm32g4xx_hal_rcc_ex.c **** 
1501:Drivers/STM32G4xx_HAL_Driver/Src/stm32g4xx_hal_rcc_ex.c ****       (#) To force a SYNC EVENT, user can use the function HAL_RCCEx_CRSSoftwareSynchronizationGene
1502:Drivers/STM32G4xx_HAL_Driver/Src/stm32g4xx_hal_rcc_ex.c ****           This function can be called before calling HAL_RCCEx_CRSConfig (for instance in Systick h
1503:Drivers/STM32G4xx_HAL_Driver/Src/stm32g4xx_hal_rcc_ex.c **** 
1504:Drivers/STM32G4xx_HAL_Driver/Src/stm32g4xx_hal_rcc_ex.c **** @endverbatim
1505:Drivers/STM32G4xx_HAL_Driver/Src/stm32g4xx_hal_rcc_ex.c ****  * @{
1506:Drivers/STM32G4xx_HAL_Driver/Src/stm32g4xx_hal_rcc_ex.c ****  */
1507:Drivers/STM32G4xx_HAL_Driver/Src/stm32g4xx_hal_rcc_ex.c **** 
1508:Drivers/STM32G4xx_HAL_Driver/Src/stm32g4xx_hal_rcc_ex.c **** /**
1509:Drivers/STM32G4xx_HAL_Driver/Src/stm32g4xx_hal_rcc_ex.c ****   * @brief  Start automatic synchronization for polling mode
1510:Drivers/STM32G4xx_HAL_Driver/Src/stm32g4xx_hal_rcc_ex.c ****   * @param  pInit Pointer on RCC_CRSInitTypeDef structure
1511:Drivers/STM32G4xx_HAL_Driver/Src/stm32g4xx_hal_rcc_ex.c ****   * @retval None
1512:Drivers/STM32G4xx_HAL_Driver/Src/stm32g4xx_hal_rcc_ex.c ****   */
1513:Drivers/STM32G4xx_HAL_Driver/Src/stm32g4xx_hal_rcc_ex.c **** void HAL_RCCEx_CRSConfig(RCC_CRSInitTypeDef *pInit)
1514:Drivers/STM32G4xx_HAL_Driver/Src/stm32g4xx_hal_rcc_ex.c **** {
 2902              		.loc 1 1514 1 is_stmt 1 view -0
 2903              		.cfi_startproc
 2904              		@ args = 0, pretend = 0, frame = 0
 2905              		@ frame_needed = 0, uses_anonymous_args = 0
 2906              		@ link register save eliminated.
1515:Drivers/STM32G4xx_HAL_Driver/Src/stm32g4xx_hal_rcc_ex.c ****   uint32_t value;
 2907              		.loc 1 1515 3 view .LVU963
1516:Drivers/STM32G4xx_HAL_Driver/Src/stm32g4xx_hal_rcc_ex.c **** 
1517:Drivers/STM32G4xx_HAL_Driver/Src/stm32g4xx_hal_rcc_ex.c ****   /* Check the parameters */
1518:Drivers/STM32G4xx_HAL_Driver/Src/stm32g4xx_hal_rcc_ex.c ****   assert_param(IS_RCC_CRS_SYNC_DIV(pInit->Prescaler));
 2908              		.loc 1 1518 3 view .LVU964
1519:Drivers/STM32G4xx_HAL_Driver/Src/stm32g4xx_hal_rcc_ex.c ****   assert_param(IS_RCC_CRS_SYNC_SOURCE(pInit->Source));
 2909              		.loc 1 1519 3 view .LVU965
1520:Drivers/STM32G4xx_HAL_Driver/Src/stm32g4xx_hal_rcc_ex.c ****   assert_param(IS_RCC_CRS_SYNC_POLARITY(pInit->Polarity));
 2910              		.loc 1 1520 3 view .LVU966
1521:Drivers/STM32G4xx_HAL_Driver/Src/stm32g4xx_hal_rcc_ex.c ****   assert_param(IS_RCC_CRS_RELOADVALUE(pInit->ReloadValue));
 2911              		.loc 1 1521 3 view .LVU967
1522:Drivers/STM32G4xx_HAL_Driver/Src/stm32g4xx_hal_rcc_ex.c ****   assert_param(IS_RCC_CRS_ERRORLIMIT(pInit->ErrorLimitValue));
 2912              		.loc 1 1522 3 view .LVU968
1523:Drivers/STM32G4xx_HAL_Driver/Src/stm32g4xx_hal_rcc_ex.c ****   assert_param(IS_RCC_CRS_HSI48CALIBRATION(pInit->HSI48CalibrationValue));
 2913              		.loc 1 1523 3 view .LVU969
1524:Drivers/STM32G4xx_HAL_Driver/Src/stm32g4xx_hal_rcc_ex.c **** 
1525:Drivers/STM32G4xx_HAL_Driver/Src/stm32g4xx_hal_rcc_ex.c ****   /* CONFIGURATION */
1526:Drivers/STM32G4xx_HAL_Driver/Src/stm32g4xx_hal_rcc_ex.c **** 
1527:Drivers/STM32G4xx_HAL_Driver/Src/stm32g4xx_hal_rcc_ex.c ****   /* Before configuration, reset CRS registers to their default values*/
1528:Drivers/STM32G4xx_HAL_Driver/Src/stm32g4xx_hal_rcc_ex.c ****   __HAL_RCC_CRS_FORCE_RESET();
 2914              		.loc 1 1528 3 view .LVU970
 2915 0000 104B     		ldr	r3, .L262
 2916 0002 9A6B     		ldr	r2, [r3, #56]
 2917 0004 42F48072 		orr	r2, r2, #256
 2918 0008 9A63     		str	r2, [r3, #56]
1529:Drivers/STM32G4xx_HAL_Driver/Src/stm32g4xx_hal_rcc_ex.c ****   __HAL_RCC_CRS_RELEASE_RESET();
 2919              		.loc 1 1529 3 view .LVU971
 2920 000a 9A6B     		ldr	r2, [r3, #56]
 2921 000c 22F48072 		bic	r2, r2, #256
 2922 0010 9A63     		str	r2, [r3, #56]
ARM GAS  C:\Users\HYDROG~1\AppData\Local\Temp\cc0rSm9d.s 			page 89


1530:Drivers/STM32G4xx_HAL_Driver/Src/stm32g4xx_hal_rcc_ex.c **** 
1531:Drivers/STM32G4xx_HAL_Driver/Src/stm32g4xx_hal_rcc_ex.c ****   /* Set the SYNCDIV[2:0] bits according to Prescaler value */
1532:Drivers/STM32G4xx_HAL_Driver/Src/stm32g4xx_hal_rcc_ex.c ****   /* Set the SYNCSRC[1:0] bits according to Source value */
1533:Drivers/STM32G4xx_HAL_Driver/Src/stm32g4xx_hal_rcc_ex.c ****   /* Set the SYNCSPOL bit according to Polarity value */
1534:Drivers/STM32G4xx_HAL_Driver/Src/stm32g4xx_hal_rcc_ex.c ****   value = (pInit->Prescaler | pInit->Source | pInit->Polarity);
 2923              		.loc 1 1534 3 view .LVU972
 2924              		.loc 1 1534 17 is_stmt 0 view .LVU973
 2925 0012 0268     		ldr	r2, [r0]
 2926              		.loc 1 1534 36 view .LVU974
 2927 0014 4368     		ldr	r3, [r0, #4]
 2928              		.loc 1 1534 29 view .LVU975
 2929 0016 1A43     		orrs	r2, r2, r3
 2930              		.loc 1 1534 52 view .LVU976
 2931 0018 8368     		ldr	r3, [r0, #8]
 2932              		.loc 1 1534 9 view .LVU977
 2933 001a 1A43     		orrs	r2, r2, r3
 2934              	.LVL287:
1535:Drivers/STM32G4xx_HAL_Driver/Src/stm32g4xx_hal_rcc_ex.c ****   /* Set the RELOAD[15:0] bits according to ReloadValue value */
1536:Drivers/STM32G4xx_HAL_Driver/Src/stm32g4xx_hal_rcc_ex.c ****   value |= pInit->ReloadValue;
 2935              		.loc 1 1536 3 is_stmt 1 view .LVU978
 2936              		.loc 1 1536 17 is_stmt 0 view .LVU979
 2937 001c C368     		ldr	r3, [r0, #12]
 2938              		.loc 1 1536 9 view .LVU980
 2939 001e 1343     		orrs	r3, r3, r2
 2940              	.LVL288:
1537:Drivers/STM32G4xx_HAL_Driver/Src/stm32g4xx_hal_rcc_ex.c ****   /* Set the FELIM[7:0] bits according to ErrorLimitValue value */
1538:Drivers/STM32G4xx_HAL_Driver/Src/stm32g4xx_hal_rcc_ex.c ****   value |= (pInit->ErrorLimitValue << CRS_CFGR_FELIM_Pos);
 2941              		.loc 1 1538 3 is_stmt 1 view .LVU981
 2942              		.loc 1 1538 18 is_stmt 0 view .LVU982
 2943 0020 0269     		ldr	r2, [r0, #16]
 2944              		.loc 1 1538 9 view .LVU983
 2945 0022 43EA0242 		orr	r2, r3, r2, lsl #16
 2946              	.LVL289:
1539:Drivers/STM32G4xx_HAL_Driver/Src/stm32g4xx_hal_rcc_ex.c ****   WRITE_REG(CRS->CFGR, value);
 2947              		.loc 1 1539 3 is_stmt 1 view .LVU984
 2948 0026 084B     		ldr	r3, .L262+4
 2949 0028 5A60     		str	r2, [r3, #4]
1540:Drivers/STM32G4xx_HAL_Driver/Src/stm32g4xx_hal_rcc_ex.c **** 
1541:Drivers/STM32G4xx_HAL_Driver/Src/stm32g4xx_hal_rcc_ex.c ****   /* Adjust HSI48 oscillator smooth trimming */
1542:Drivers/STM32G4xx_HAL_Driver/Src/stm32g4xx_hal_rcc_ex.c ****   /* Set the TRIM[6:0] bits according to RCC_CRS_HSI48CalibrationValue value */
1543:Drivers/STM32G4xx_HAL_Driver/Src/stm32g4xx_hal_rcc_ex.c ****   MODIFY_REG(CRS->CR, CRS_CR_TRIM, (pInit->HSI48CalibrationValue << CRS_CR_TRIM_Pos));
 2950              		.loc 1 1543 3 view .LVU985
 2951 002a 1A68     		ldr	r2, [r3]
 2952              	.LVL290:
 2953              		.loc 1 1543 3 is_stmt 0 view .LVU986
 2954 002c 22F4FE42 		bic	r2, r2, #32512
 2955 0030 4169     		ldr	r1, [r0, #20]
 2956 0032 42EA0122 		orr	r2, r2, r1, lsl #8
 2957 0036 1A60     		str	r2, [r3]
 2958              	.LVL291:
1544:Drivers/STM32G4xx_HAL_Driver/Src/stm32g4xx_hal_rcc_ex.c **** 
1545:Drivers/STM32G4xx_HAL_Driver/Src/stm32g4xx_hal_rcc_ex.c ****   /* START AUTOMATIC SYNCHRONIZATION*/
1546:Drivers/STM32G4xx_HAL_Driver/Src/stm32g4xx_hal_rcc_ex.c **** 
1547:Drivers/STM32G4xx_HAL_Driver/Src/stm32g4xx_hal_rcc_ex.c ****   /* Enable Automatic trimming & Frequency error counter */
1548:Drivers/STM32G4xx_HAL_Driver/Src/stm32g4xx_hal_rcc_ex.c ****   SET_BIT(CRS->CR, CRS_CR_AUTOTRIMEN | CRS_CR_CEN);
 2959              		.loc 1 1548 3 is_stmt 1 view .LVU987
 2960 0038 1A68     		ldr	r2, [r3]
ARM GAS  C:\Users\HYDROG~1\AppData\Local\Temp\cc0rSm9d.s 			page 90


 2961 003a 42F06002 		orr	r2, r2, #96
 2962 003e 1A60     		str	r2, [r3]
1549:Drivers/STM32G4xx_HAL_Driver/Src/stm32g4xx_hal_rcc_ex.c **** }
 2963              		.loc 1 1549 1 is_stmt 0 view .LVU988
 2964 0040 7047     		bx	lr
 2965              	.L263:
 2966 0042 00BF     		.align	2
 2967              	.L262:
 2968 0044 00100240 		.word	1073876992
 2969 0048 00200040 		.word	1073750016
 2970              		.cfi_endproc
 2971              	.LFE339:
 2973              		.section	.text.HAL_RCCEx_CRSSoftwareSynchronizationGenerate,"ax",%progbits
 2974              		.align	1
 2975              		.global	HAL_RCCEx_CRSSoftwareSynchronizationGenerate
 2976              		.syntax unified
 2977              		.thumb
 2978              		.thumb_func
 2980              	HAL_RCCEx_CRSSoftwareSynchronizationGenerate:
 2981              	.LFB340:
1550:Drivers/STM32G4xx_HAL_Driver/Src/stm32g4xx_hal_rcc_ex.c **** 
1551:Drivers/STM32G4xx_HAL_Driver/Src/stm32g4xx_hal_rcc_ex.c **** /**
1552:Drivers/STM32G4xx_HAL_Driver/Src/stm32g4xx_hal_rcc_ex.c ****   * @brief  Generate the software synchronization event
1553:Drivers/STM32G4xx_HAL_Driver/Src/stm32g4xx_hal_rcc_ex.c ****   * @retval None
1554:Drivers/STM32G4xx_HAL_Driver/Src/stm32g4xx_hal_rcc_ex.c ****   */
1555:Drivers/STM32G4xx_HAL_Driver/Src/stm32g4xx_hal_rcc_ex.c **** void HAL_RCCEx_CRSSoftwareSynchronizationGenerate(void)
1556:Drivers/STM32G4xx_HAL_Driver/Src/stm32g4xx_hal_rcc_ex.c **** {
 2982              		.loc 1 1556 1 is_stmt 1 view -0
 2983              		.cfi_startproc
 2984              		@ args = 0, pretend = 0, frame = 0
 2985              		@ frame_needed = 0, uses_anonymous_args = 0
 2986              		@ link register save eliminated.
1557:Drivers/STM32G4xx_HAL_Driver/Src/stm32g4xx_hal_rcc_ex.c ****   SET_BIT(CRS->CR, CRS_CR_SWSYNC);
 2987              		.loc 1 1557 3 view .LVU990
 2988 0000 024A     		ldr	r2, .L265
 2989 0002 1368     		ldr	r3, [r2]
 2990 0004 43F08003 		orr	r3, r3, #128
 2991 0008 1360     		str	r3, [r2]
1558:Drivers/STM32G4xx_HAL_Driver/Src/stm32g4xx_hal_rcc_ex.c **** }
 2992              		.loc 1 1558 1 is_stmt 0 view .LVU991
 2993 000a 7047     		bx	lr
 2994              	.L266:
 2995              		.align	2
 2996              	.L265:
 2997 000c 00200040 		.word	1073750016
 2998              		.cfi_endproc
 2999              	.LFE340:
 3001              		.section	.text.HAL_RCCEx_CRSGetSynchronizationInfo,"ax",%progbits
 3002              		.align	1
 3003              		.global	HAL_RCCEx_CRSGetSynchronizationInfo
 3004              		.syntax unified
 3005              		.thumb
 3006              		.thumb_func
 3008              	HAL_RCCEx_CRSGetSynchronizationInfo:
 3009              	.LVL292:
 3010              	.LFB341:
1559:Drivers/STM32G4xx_HAL_Driver/Src/stm32g4xx_hal_rcc_ex.c **** 
ARM GAS  C:\Users\HYDROG~1\AppData\Local\Temp\cc0rSm9d.s 			page 91


1560:Drivers/STM32G4xx_HAL_Driver/Src/stm32g4xx_hal_rcc_ex.c **** /**
1561:Drivers/STM32G4xx_HAL_Driver/Src/stm32g4xx_hal_rcc_ex.c ****   * @brief  Return synchronization info
1562:Drivers/STM32G4xx_HAL_Driver/Src/stm32g4xx_hal_rcc_ex.c ****   * @param  pSynchroInfo Pointer on RCC_CRSSynchroInfoTypeDef structure
1563:Drivers/STM32G4xx_HAL_Driver/Src/stm32g4xx_hal_rcc_ex.c ****   * @retval None
1564:Drivers/STM32G4xx_HAL_Driver/Src/stm32g4xx_hal_rcc_ex.c ****   */
1565:Drivers/STM32G4xx_HAL_Driver/Src/stm32g4xx_hal_rcc_ex.c **** void HAL_RCCEx_CRSGetSynchronizationInfo(RCC_CRSSynchroInfoTypeDef *pSynchroInfo)
1566:Drivers/STM32G4xx_HAL_Driver/Src/stm32g4xx_hal_rcc_ex.c **** {
 3011              		.loc 1 1566 1 is_stmt 1 view -0
 3012              		.cfi_startproc
 3013              		@ args = 0, pretend = 0, frame = 0
 3014              		@ frame_needed = 0, uses_anonymous_args = 0
 3015              		@ link register save eliminated.
1567:Drivers/STM32G4xx_HAL_Driver/Src/stm32g4xx_hal_rcc_ex.c ****   /* Check the parameter */
1568:Drivers/STM32G4xx_HAL_Driver/Src/stm32g4xx_hal_rcc_ex.c ****   assert_param(pSynchroInfo != (void *)NULL);
 3016              		.loc 1 1568 3 view .LVU993
1569:Drivers/STM32G4xx_HAL_Driver/Src/stm32g4xx_hal_rcc_ex.c **** 
1570:Drivers/STM32G4xx_HAL_Driver/Src/stm32g4xx_hal_rcc_ex.c ****   /* Get the reload value */
1571:Drivers/STM32G4xx_HAL_Driver/Src/stm32g4xx_hal_rcc_ex.c ****   pSynchroInfo->ReloadValue = (READ_BIT(CRS->CFGR, CRS_CFGR_RELOAD));
 3017              		.loc 1 1571 3 view .LVU994
 3018              		.loc 1 1571 32 is_stmt 0 view .LVU995
 3019 0000 074B     		ldr	r3, .L268
 3020 0002 5A68     		ldr	r2, [r3, #4]
 3021 0004 92B2     		uxth	r2, r2
 3022              		.loc 1 1571 29 view .LVU996
 3023 0006 0260     		str	r2, [r0]
1572:Drivers/STM32G4xx_HAL_Driver/Src/stm32g4xx_hal_rcc_ex.c **** 
1573:Drivers/STM32G4xx_HAL_Driver/Src/stm32g4xx_hal_rcc_ex.c ****   /* Get HSI48 oscillator smooth trimming */
1574:Drivers/STM32G4xx_HAL_Driver/Src/stm32g4xx_hal_rcc_ex.c ****   pSynchroInfo->HSI48CalibrationValue = (READ_BIT(CRS->CR, CRS_CR_TRIM) >> CRS_CR_TRIM_Pos);
 3024              		.loc 1 1574 3 is_stmt 1 view .LVU997
 3025              		.loc 1 1574 42 is_stmt 0 view .LVU998
 3026 0008 1A68     		ldr	r2, [r3]
 3027              		.loc 1 1574 73 view .LVU999
 3028 000a C2F30622 		ubfx	r2, r2, #8, #7
 3029              		.loc 1 1574 39 view .LVU1000
 3030 000e 4260     		str	r2, [r0, #4]
1575:Drivers/STM32G4xx_HAL_Driver/Src/stm32g4xx_hal_rcc_ex.c **** 
1576:Drivers/STM32G4xx_HAL_Driver/Src/stm32g4xx_hal_rcc_ex.c ****   /* Get Frequency error capture */
1577:Drivers/STM32G4xx_HAL_Driver/Src/stm32g4xx_hal_rcc_ex.c ****   pSynchroInfo->FreqErrorCapture = (READ_BIT(CRS->ISR, CRS_ISR_FECAP) >> CRS_ISR_FECAP_Pos);
 3031              		.loc 1 1577 3 is_stmt 1 view .LVU1001
 3032              		.loc 1 1577 37 is_stmt 0 view .LVU1002
 3033 0010 9A68     		ldr	r2, [r3, #8]
 3034              		.loc 1 1577 71 view .LVU1003
 3035 0012 120C     		lsrs	r2, r2, #16
 3036              		.loc 1 1577 34 view .LVU1004
 3037 0014 8260     		str	r2, [r0, #8]
1578:Drivers/STM32G4xx_HAL_Driver/Src/stm32g4xx_hal_rcc_ex.c **** 
1579:Drivers/STM32G4xx_HAL_Driver/Src/stm32g4xx_hal_rcc_ex.c ****   /* Get Frequency error direction */
1580:Drivers/STM32G4xx_HAL_Driver/Src/stm32g4xx_hal_rcc_ex.c ****   pSynchroInfo->FreqErrorDirection = (READ_BIT(CRS->ISR, CRS_ISR_FEDIR));
 3038              		.loc 1 1580 3 is_stmt 1 view .LVU1005
 3039              		.loc 1 1580 39 is_stmt 0 view .LVU1006
 3040 0016 9B68     		ldr	r3, [r3, #8]
 3041 0018 03F40043 		and	r3, r3, #32768
 3042              		.loc 1 1580 36 view .LVU1007
 3043 001c C360     		str	r3, [r0, #12]
1581:Drivers/STM32G4xx_HAL_Driver/Src/stm32g4xx_hal_rcc_ex.c **** }
 3044              		.loc 1 1581 1 view .LVU1008
 3045 001e 7047     		bx	lr
ARM GAS  C:\Users\HYDROG~1\AppData\Local\Temp\cc0rSm9d.s 			page 92


 3046              	.L269:
 3047              		.align	2
 3048              	.L268:
 3049 0020 00200040 		.word	1073750016
 3050              		.cfi_endproc
 3051              	.LFE341:
 3053              		.section	.text.HAL_RCCEx_CRSWaitSynchronization,"ax",%progbits
 3054              		.align	1
 3055              		.global	HAL_RCCEx_CRSWaitSynchronization
 3056              		.syntax unified
 3057              		.thumb
 3058              		.thumb_func
 3060              	HAL_RCCEx_CRSWaitSynchronization:
 3061              	.LVL293:
 3062              	.LFB342:
1582:Drivers/STM32G4xx_HAL_Driver/Src/stm32g4xx_hal_rcc_ex.c **** 
1583:Drivers/STM32G4xx_HAL_Driver/Src/stm32g4xx_hal_rcc_ex.c **** /**
1584:Drivers/STM32G4xx_HAL_Driver/Src/stm32g4xx_hal_rcc_ex.c **** * @brief Wait for CRS Synchronization status.
1585:Drivers/STM32G4xx_HAL_Driver/Src/stm32g4xx_hal_rcc_ex.c **** * @param Timeout  Duration of the timeout
1586:Drivers/STM32G4xx_HAL_Driver/Src/stm32g4xx_hal_rcc_ex.c **** * @note  Timeout is based on the maximum time to receive a SYNC event based on synchronization
1587:Drivers/STM32G4xx_HAL_Driver/Src/stm32g4xx_hal_rcc_ex.c **** *        frequency.
1588:Drivers/STM32G4xx_HAL_Driver/Src/stm32g4xx_hal_rcc_ex.c **** * @note    If Timeout set to HAL_MAX_DELAY, HAL_TIMEOUT will be never returned.
1589:Drivers/STM32G4xx_HAL_Driver/Src/stm32g4xx_hal_rcc_ex.c **** * @retval Combination of Synchronization status
1590:Drivers/STM32G4xx_HAL_Driver/Src/stm32g4xx_hal_rcc_ex.c **** *          This parameter can be a combination of the following values:
1591:Drivers/STM32G4xx_HAL_Driver/Src/stm32g4xx_hal_rcc_ex.c **** *            @arg @ref RCC_CRS_TIMEOUT
1592:Drivers/STM32G4xx_HAL_Driver/Src/stm32g4xx_hal_rcc_ex.c **** *            @arg @ref RCC_CRS_SYNCOK
1593:Drivers/STM32G4xx_HAL_Driver/Src/stm32g4xx_hal_rcc_ex.c **** *            @arg @ref RCC_CRS_SYNCWARN
1594:Drivers/STM32G4xx_HAL_Driver/Src/stm32g4xx_hal_rcc_ex.c **** *            @arg @ref RCC_CRS_SYNCERR
1595:Drivers/STM32G4xx_HAL_Driver/Src/stm32g4xx_hal_rcc_ex.c **** *            @arg @ref RCC_CRS_SYNCMISS
1596:Drivers/STM32G4xx_HAL_Driver/Src/stm32g4xx_hal_rcc_ex.c **** *            @arg @ref RCC_CRS_TRIMOVF
1597:Drivers/STM32G4xx_HAL_Driver/Src/stm32g4xx_hal_rcc_ex.c **** */
1598:Drivers/STM32G4xx_HAL_Driver/Src/stm32g4xx_hal_rcc_ex.c **** uint32_t HAL_RCCEx_CRSWaitSynchronization(uint32_t Timeout)
1599:Drivers/STM32G4xx_HAL_Driver/Src/stm32g4xx_hal_rcc_ex.c **** {
 3063              		.loc 1 1599 1 is_stmt 1 view -0
 3064              		.cfi_startproc
 3065              		@ args = 0, pretend = 0, frame = 0
 3066              		@ frame_needed = 0, uses_anonymous_args = 0
 3067              		.loc 1 1599 1 is_stmt 0 view .LVU1010
 3068 0000 70B5     		push	{r4, r5, r6, lr}
 3069              	.LCFI14:
 3070              		.cfi_def_cfa_offset 16
 3071              		.cfi_offset 4, -16
 3072              		.cfi_offset 5, -12
 3073              		.cfi_offset 6, -8
 3074              		.cfi_offset 14, -4
 3075 0002 0546     		mov	r5, r0
1600:Drivers/STM32G4xx_HAL_Driver/Src/stm32g4xx_hal_rcc_ex.c ****   uint32_t crsstatus = RCC_CRS_NONE;
 3076              		.loc 1 1600 3 is_stmt 1 view .LVU1011
 3077              	.LVL294:
1601:Drivers/STM32G4xx_HAL_Driver/Src/stm32g4xx_hal_rcc_ex.c ****   uint32_t tickstart;
 3078              		.loc 1 1601 3 view .LVU1012
1602:Drivers/STM32G4xx_HAL_Driver/Src/stm32g4xx_hal_rcc_ex.c **** 
1603:Drivers/STM32G4xx_HAL_Driver/Src/stm32g4xx_hal_rcc_ex.c ****   /* Get timeout */
1604:Drivers/STM32G4xx_HAL_Driver/Src/stm32g4xx_hal_rcc_ex.c ****   tickstart = HAL_GetTick();
 3079              		.loc 1 1604 3 view .LVU1013
 3080              		.loc 1 1604 15 is_stmt 0 view .LVU1014
 3081 0004 FFF7FEFF 		bl	HAL_GetTick
ARM GAS  C:\Users\HYDROG~1\AppData\Local\Temp\cc0rSm9d.s 			page 93


 3082              	.LVL295:
 3083              		.loc 1 1604 15 view .LVU1015
 3084 0008 0646     		mov	r6, r0
 3085              	.LVL296:
1600:Drivers/STM32G4xx_HAL_Driver/Src/stm32g4xx_hal_rcc_ex.c ****   uint32_t tickstart;
 3086              		.loc 1 1600 12 view .LVU1016
 3087 000a 0024     		movs	r4, #0
 3088 000c 0EE0     		b	.L278
 3089              	.LVL297:
 3090              	.L283:
1605:Drivers/STM32G4xx_HAL_Driver/Src/stm32g4xx_hal_rcc_ex.c **** 
1606:Drivers/STM32G4xx_HAL_Driver/Src/stm32g4xx_hal_rcc_ex.c ****   /* Wait for CRS flag or timeout detection */
1607:Drivers/STM32G4xx_HAL_Driver/Src/stm32g4xx_hal_rcc_ex.c ****   do
1608:Drivers/STM32G4xx_HAL_Driver/Src/stm32g4xx_hal_rcc_ex.c ****   {
1609:Drivers/STM32G4xx_HAL_Driver/Src/stm32g4xx_hal_rcc_ex.c ****     if(Timeout != HAL_MAX_DELAY)
1610:Drivers/STM32G4xx_HAL_Driver/Src/stm32g4xx_hal_rcc_ex.c ****     {
1611:Drivers/STM32G4xx_HAL_Driver/Src/stm32g4xx_hal_rcc_ex.c ****       if(((HAL_GetTick() - tickstart) > Timeout) || (Timeout == 0U))
 3091              		.loc 1 1611 7 is_stmt 1 view .LVU1017
 3092              		.loc 1 1611 12 is_stmt 0 view .LVU1018
 3093 000e FFF7FEFF 		bl	HAL_GetTick
 3094              	.LVL298:
 3095              		.loc 1 1611 26 view .LVU1019
 3096 0012 801B     		subs	r0, r0, r6
 3097              		.loc 1 1611 9 view .LVU1020
 3098 0014 A842     		cmp	r0, r5
 3099 0016 02D8     		bhi	.L279
 3100              		.loc 1 1611 50 discriminator 1 view .LVU1021
 3101 0018 5DB9     		cbnz	r5, .L271
1612:Drivers/STM32G4xx_HAL_Driver/Src/stm32g4xx_hal_rcc_ex.c ****       {
1613:Drivers/STM32G4xx_HAL_Driver/Src/stm32g4xx_hal_rcc_ex.c ****         crsstatus = RCC_CRS_TIMEOUT;
 3102              		.loc 1 1613 19 view .LVU1022
 3103 001a 0124     		movs	r4, #1
 3104              	.LVL299:
 3105              		.loc 1 1613 19 view .LVU1023
 3106 001c 09E0     		b	.L271
 3107              	.LVL300:
 3108              	.L279:
 3109              		.loc 1 1613 19 view .LVU1024
 3110 001e 0124     		movs	r4, #1
 3111              	.LVL301:
 3112              		.loc 1 1613 19 view .LVU1025
 3113 0020 07E0     		b	.L271
 3114              	.LVL302:
 3115              	.L284:
1614:Drivers/STM32G4xx_HAL_Driver/Src/stm32g4xx_hal_rcc_ex.c ****       }
1615:Drivers/STM32G4xx_HAL_Driver/Src/stm32g4xx_hal_rcc_ex.c ****     }
1616:Drivers/STM32G4xx_HAL_Driver/Src/stm32g4xx_hal_rcc_ex.c ****     /* Check CRS SYNCOK flag  */
1617:Drivers/STM32G4xx_HAL_Driver/Src/stm32g4xx_hal_rcc_ex.c ****     if(__HAL_RCC_CRS_GET_FLAG(RCC_CRS_FLAG_SYNCOK))
1618:Drivers/STM32G4xx_HAL_Driver/Src/stm32g4xx_hal_rcc_ex.c ****     {
1619:Drivers/STM32G4xx_HAL_Driver/Src/stm32g4xx_hal_rcc_ex.c ****       /* CRS SYNC event OK */
1620:Drivers/STM32G4xx_HAL_Driver/Src/stm32g4xx_hal_rcc_ex.c ****       crsstatus |= RCC_CRS_SYNCOK;
1621:Drivers/STM32G4xx_HAL_Driver/Src/stm32g4xx_hal_rcc_ex.c **** 
1622:Drivers/STM32G4xx_HAL_Driver/Src/stm32g4xx_hal_rcc_ex.c ****       /* Clear CRS SYNC event OK bit */
1623:Drivers/STM32G4xx_HAL_Driver/Src/stm32g4xx_hal_rcc_ex.c ****       __HAL_RCC_CRS_CLEAR_FLAG(RCC_CRS_FLAG_SYNCOK);
1624:Drivers/STM32G4xx_HAL_Driver/Src/stm32g4xx_hal_rcc_ex.c ****     }
1625:Drivers/STM32G4xx_HAL_Driver/Src/stm32g4xx_hal_rcc_ex.c **** 
1626:Drivers/STM32G4xx_HAL_Driver/Src/stm32g4xx_hal_rcc_ex.c ****     /* Check CRS SYNCWARN flag  */
ARM GAS  C:\Users\HYDROG~1\AppData\Local\Temp\cc0rSm9d.s 			page 94


1627:Drivers/STM32G4xx_HAL_Driver/Src/stm32g4xx_hal_rcc_ex.c ****     if(__HAL_RCC_CRS_GET_FLAG(RCC_CRS_FLAG_SYNCWARN))
1628:Drivers/STM32G4xx_HAL_Driver/Src/stm32g4xx_hal_rcc_ex.c ****     {
1629:Drivers/STM32G4xx_HAL_Driver/Src/stm32g4xx_hal_rcc_ex.c ****       /* CRS SYNC warning */
1630:Drivers/STM32G4xx_HAL_Driver/Src/stm32g4xx_hal_rcc_ex.c ****       crsstatus |= RCC_CRS_SYNCWARN;
1631:Drivers/STM32G4xx_HAL_Driver/Src/stm32g4xx_hal_rcc_ex.c **** 
1632:Drivers/STM32G4xx_HAL_Driver/Src/stm32g4xx_hal_rcc_ex.c ****       /* Clear CRS SYNCWARN bit */
1633:Drivers/STM32G4xx_HAL_Driver/Src/stm32g4xx_hal_rcc_ex.c ****       __HAL_RCC_CRS_CLEAR_FLAG(RCC_CRS_FLAG_SYNCWARN);
1634:Drivers/STM32G4xx_HAL_Driver/Src/stm32g4xx_hal_rcc_ex.c ****     }
1635:Drivers/STM32G4xx_HAL_Driver/Src/stm32g4xx_hal_rcc_ex.c **** 
1636:Drivers/STM32G4xx_HAL_Driver/Src/stm32g4xx_hal_rcc_ex.c ****     /* Check CRS TRIM overflow flag  */
1637:Drivers/STM32G4xx_HAL_Driver/Src/stm32g4xx_hal_rcc_ex.c ****     if(__HAL_RCC_CRS_GET_FLAG(RCC_CRS_FLAG_TRIMOVF))
1638:Drivers/STM32G4xx_HAL_Driver/Src/stm32g4xx_hal_rcc_ex.c ****     {
1639:Drivers/STM32G4xx_HAL_Driver/Src/stm32g4xx_hal_rcc_ex.c ****       /* CRS SYNC Error */
1640:Drivers/STM32G4xx_HAL_Driver/Src/stm32g4xx_hal_rcc_ex.c ****       crsstatus |= RCC_CRS_TRIMOVF;
1641:Drivers/STM32G4xx_HAL_Driver/Src/stm32g4xx_hal_rcc_ex.c **** 
1642:Drivers/STM32G4xx_HAL_Driver/Src/stm32g4xx_hal_rcc_ex.c ****       /* Clear CRS Error bit */
1643:Drivers/STM32G4xx_HAL_Driver/Src/stm32g4xx_hal_rcc_ex.c ****       __HAL_RCC_CRS_CLEAR_FLAG(RCC_CRS_FLAG_TRIMOVF);
1644:Drivers/STM32G4xx_HAL_Driver/Src/stm32g4xx_hal_rcc_ex.c ****     }
1645:Drivers/STM32G4xx_HAL_Driver/Src/stm32g4xx_hal_rcc_ex.c **** 
1646:Drivers/STM32G4xx_HAL_Driver/Src/stm32g4xx_hal_rcc_ex.c ****     /* Check CRS Error flag  */
1647:Drivers/STM32G4xx_HAL_Driver/Src/stm32g4xx_hal_rcc_ex.c ****     if(__HAL_RCC_CRS_GET_FLAG(RCC_CRS_FLAG_SYNCERR))
1648:Drivers/STM32G4xx_HAL_Driver/Src/stm32g4xx_hal_rcc_ex.c ****     {
1649:Drivers/STM32G4xx_HAL_Driver/Src/stm32g4xx_hal_rcc_ex.c ****       /* CRS SYNC Error */
1650:Drivers/STM32G4xx_HAL_Driver/Src/stm32g4xx_hal_rcc_ex.c ****       crsstatus |= RCC_CRS_SYNCERR;
1651:Drivers/STM32G4xx_HAL_Driver/Src/stm32g4xx_hal_rcc_ex.c **** 
1652:Drivers/STM32G4xx_HAL_Driver/Src/stm32g4xx_hal_rcc_ex.c ****       /* Clear CRS Error bit */
1653:Drivers/STM32G4xx_HAL_Driver/Src/stm32g4xx_hal_rcc_ex.c ****       __HAL_RCC_CRS_CLEAR_FLAG(RCC_CRS_FLAG_SYNCERR);
1654:Drivers/STM32G4xx_HAL_Driver/Src/stm32g4xx_hal_rcc_ex.c ****     }
1655:Drivers/STM32G4xx_HAL_Driver/Src/stm32g4xx_hal_rcc_ex.c **** 
1656:Drivers/STM32G4xx_HAL_Driver/Src/stm32g4xx_hal_rcc_ex.c ****     /* Check CRS SYNC Missed flag  */
1657:Drivers/STM32G4xx_HAL_Driver/Src/stm32g4xx_hal_rcc_ex.c ****     if(__HAL_RCC_CRS_GET_FLAG(RCC_CRS_FLAG_SYNCMISS))
1658:Drivers/STM32G4xx_HAL_Driver/Src/stm32g4xx_hal_rcc_ex.c ****     {
1659:Drivers/STM32G4xx_HAL_Driver/Src/stm32g4xx_hal_rcc_ex.c ****       /* CRS SYNC Missed */
1660:Drivers/STM32G4xx_HAL_Driver/Src/stm32g4xx_hal_rcc_ex.c ****       crsstatus |= RCC_CRS_SYNCMISS;
1661:Drivers/STM32G4xx_HAL_Driver/Src/stm32g4xx_hal_rcc_ex.c **** 
1662:Drivers/STM32G4xx_HAL_Driver/Src/stm32g4xx_hal_rcc_ex.c ****       /* Clear CRS SYNC Missed bit */
1663:Drivers/STM32G4xx_HAL_Driver/Src/stm32g4xx_hal_rcc_ex.c ****       __HAL_RCC_CRS_CLEAR_FLAG(RCC_CRS_FLAG_SYNCMISS);
1664:Drivers/STM32G4xx_HAL_Driver/Src/stm32g4xx_hal_rcc_ex.c ****     }
1665:Drivers/STM32G4xx_HAL_Driver/Src/stm32g4xx_hal_rcc_ex.c **** 
1666:Drivers/STM32G4xx_HAL_Driver/Src/stm32g4xx_hal_rcc_ex.c ****     /* Check CRS Expected SYNC flag  */
1667:Drivers/STM32G4xx_HAL_Driver/Src/stm32g4xx_hal_rcc_ex.c ****     if(__HAL_RCC_CRS_GET_FLAG(RCC_CRS_FLAG_ESYNC))
1668:Drivers/STM32G4xx_HAL_Driver/Src/stm32g4xx_hal_rcc_ex.c ****     {
1669:Drivers/STM32G4xx_HAL_Driver/Src/stm32g4xx_hal_rcc_ex.c ****       /* frequency error counter reached a zero value */
1670:Drivers/STM32G4xx_HAL_Driver/Src/stm32g4xx_hal_rcc_ex.c ****       __HAL_RCC_CRS_CLEAR_FLAG(RCC_CRS_FLAG_ESYNC);
 3116              		.loc 1 1670 7 is_stmt 1 discriminator 2 view .LVU1026
 3117              		.loc 1 1670 7 discriminator 2 view .LVU1027
 3118              		.loc 1 1670 7 discriminator 2 view .LVU1028
 3119 0022 214B     		ldr	r3, .L285
 3120 0024 0822     		movs	r2, #8
 3121 0026 DA60     		str	r2, [r3, #12]
 3122              	.L277:
 3123              		.loc 1 1670 7 discriminator 4 view .LVU1029
1671:Drivers/STM32G4xx_HAL_Driver/Src/stm32g4xx_hal_rcc_ex.c ****     }
1672:Drivers/STM32G4xx_HAL_Driver/Src/stm32g4xx_hal_rcc_ex.c ****   } while(RCC_CRS_NONE == crsstatus);
 3124              		.loc 1 1672 10 discriminator 4 view .LVU1030
 3125              		.loc 1 1672 3 is_stmt 0 discriminator 4 view .LVU1031
 3126 0028 002C     		cmp	r4, #0
ARM GAS  C:\Users\HYDROG~1\AppData\Local\Temp\cc0rSm9d.s 			page 95


 3127 002a 3AD1     		bne	.L282
 3128              	.LVL303:
 3129              	.L278:
1607:Drivers/STM32G4xx_HAL_Driver/Src/stm32g4xx_hal_rcc_ex.c ****   {
 3130              		.loc 1 1607 3 is_stmt 1 view .LVU1032
1609:Drivers/STM32G4xx_HAL_Driver/Src/stm32g4xx_hal_rcc_ex.c ****     {
 3131              		.loc 1 1609 5 view .LVU1033
1609:Drivers/STM32G4xx_HAL_Driver/Src/stm32g4xx_hal_rcc_ex.c ****     {
 3132              		.loc 1 1609 7 is_stmt 0 view .LVU1034
 3133 002c B5F1FF3F 		cmp	r5, #-1
 3134 0030 EDD1     		bne	.L283
 3135              	.LVL304:
 3136              	.L271:
1617:Drivers/STM32G4xx_HAL_Driver/Src/stm32g4xx_hal_rcc_ex.c ****     {
 3137              		.loc 1 1617 5 is_stmt 1 view .LVU1035
1617:Drivers/STM32G4xx_HAL_Driver/Src/stm32g4xx_hal_rcc_ex.c ****     {
 3138              		.loc 1 1617 8 is_stmt 0 view .LVU1036
 3139 0032 1D4B     		ldr	r3, .L285
 3140 0034 9B68     		ldr	r3, [r3, #8]
1617:Drivers/STM32G4xx_HAL_Driver/Src/stm32g4xx_hal_rcc_ex.c ****     {
 3141              		.loc 1 1617 7 view .LVU1037
 3142 0036 13F0010F 		tst	r3, #1
 3143 003a 04D0     		beq	.L272
1620:Drivers/STM32G4xx_HAL_Driver/Src/stm32g4xx_hal_rcc_ex.c **** 
 3144              		.loc 1 1620 7 is_stmt 1 view .LVU1038
1620:Drivers/STM32G4xx_HAL_Driver/Src/stm32g4xx_hal_rcc_ex.c **** 
 3145              		.loc 1 1620 17 is_stmt 0 view .LVU1039
 3146 003c 44F00204 		orr	r4, r4, #2
 3147              	.LVL305:
1623:Drivers/STM32G4xx_HAL_Driver/Src/stm32g4xx_hal_rcc_ex.c ****     }
 3148              		.loc 1 1623 7 is_stmt 1 view .LVU1040
1623:Drivers/STM32G4xx_HAL_Driver/Src/stm32g4xx_hal_rcc_ex.c ****     }
 3149              		.loc 1 1623 7 view .LVU1041
1623:Drivers/STM32G4xx_HAL_Driver/Src/stm32g4xx_hal_rcc_ex.c ****     }
 3150              		.loc 1 1623 7 view .LVU1042
 3151 0040 194B     		ldr	r3, .L285
 3152 0042 0122     		movs	r2, #1
 3153 0044 DA60     		str	r2, [r3, #12]
 3154              	.L272:
1623:Drivers/STM32G4xx_HAL_Driver/Src/stm32g4xx_hal_rcc_ex.c ****     }
 3155              		.loc 1 1623 7 discriminator 4 view .LVU1043
1627:Drivers/STM32G4xx_HAL_Driver/Src/stm32g4xx_hal_rcc_ex.c ****     {
 3156              		.loc 1 1627 5 discriminator 4 view .LVU1044
1627:Drivers/STM32G4xx_HAL_Driver/Src/stm32g4xx_hal_rcc_ex.c ****     {
 3157              		.loc 1 1627 8 is_stmt 0 discriminator 4 view .LVU1045
 3158 0046 184B     		ldr	r3, .L285
 3159 0048 9B68     		ldr	r3, [r3, #8]
1627:Drivers/STM32G4xx_HAL_Driver/Src/stm32g4xx_hal_rcc_ex.c ****     {
 3160              		.loc 1 1627 7 discriminator 4 view .LVU1046
 3161 004a 13F0020F 		tst	r3, #2
 3162 004e 04D0     		beq	.L273
1630:Drivers/STM32G4xx_HAL_Driver/Src/stm32g4xx_hal_rcc_ex.c **** 
 3163              		.loc 1 1630 7 is_stmt 1 view .LVU1047
1630:Drivers/STM32G4xx_HAL_Driver/Src/stm32g4xx_hal_rcc_ex.c **** 
 3164              		.loc 1 1630 17 is_stmt 0 view .LVU1048
 3165 0050 44F00404 		orr	r4, r4, #4
 3166              	.LVL306:
ARM GAS  C:\Users\HYDROG~1\AppData\Local\Temp\cc0rSm9d.s 			page 96


1633:Drivers/STM32G4xx_HAL_Driver/Src/stm32g4xx_hal_rcc_ex.c ****     }
 3167              		.loc 1 1633 7 is_stmt 1 view .LVU1049
1633:Drivers/STM32G4xx_HAL_Driver/Src/stm32g4xx_hal_rcc_ex.c ****     }
 3168              		.loc 1 1633 7 view .LVU1050
1633:Drivers/STM32G4xx_HAL_Driver/Src/stm32g4xx_hal_rcc_ex.c ****     }
 3169              		.loc 1 1633 7 view .LVU1051
 3170 0054 144B     		ldr	r3, .L285
 3171 0056 0222     		movs	r2, #2
 3172 0058 DA60     		str	r2, [r3, #12]
 3173              	.L273:
1633:Drivers/STM32G4xx_HAL_Driver/Src/stm32g4xx_hal_rcc_ex.c ****     }
 3174              		.loc 1 1633 7 discriminator 4 view .LVU1052
1637:Drivers/STM32G4xx_HAL_Driver/Src/stm32g4xx_hal_rcc_ex.c ****     {
 3175              		.loc 1 1637 5 discriminator 4 view .LVU1053
1637:Drivers/STM32G4xx_HAL_Driver/Src/stm32g4xx_hal_rcc_ex.c ****     {
 3176              		.loc 1 1637 8 is_stmt 0 discriminator 4 view .LVU1054
 3177 005a 134B     		ldr	r3, .L285
 3178 005c 9B68     		ldr	r3, [r3, #8]
1637:Drivers/STM32G4xx_HAL_Driver/Src/stm32g4xx_hal_rcc_ex.c ****     {
 3179              		.loc 1 1637 7 discriminator 4 view .LVU1055
 3180 005e 13F4806F 		tst	r3, #1024
 3181 0062 04D0     		beq	.L274
1640:Drivers/STM32G4xx_HAL_Driver/Src/stm32g4xx_hal_rcc_ex.c **** 
 3182              		.loc 1 1640 7 is_stmt 1 view .LVU1056
1640:Drivers/STM32G4xx_HAL_Driver/Src/stm32g4xx_hal_rcc_ex.c **** 
 3183              		.loc 1 1640 17 is_stmt 0 view .LVU1057
 3184 0064 44F02004 		orr	r4, r4, #32
 3185              	.LVL307:
1643:Drivers/STM32G4xx_HAL_Driver/Src/stm32g4xx_hal_rcc_ex.c ****     }
 3186              		.loc 1 1643 7 is_stmt 1 view .LVU1058
1643:Drivers/STM32G4xx_HAL_Driver/Src/stm32g4xx_hal_rcc_ex.c ****     }
 3187              		.loc 1 1643 7 view .LVU1059
1643:Drivers/STM32G4xx_HAL_Driver/Src/stm32g4xx_hal_rcc_ex.c ****     }
 3188              		.loc 1 1643 7 view .LVU1060
 3189 0068 0F4B     		ldr	r3, .L285
 3190 006a 0422     		movs	r2, #4
 3191 006c DA60     		str	r2, [r3, #12]
 3192              	.L274:
1643:Drivers/STM32G4xx_HAL_Driver/Src/stm32g4xx_hal_rcc_ex.c ****     }
 3193              		.loc 1 1643 7 discriminator 4 view .LVU1061
1647:Drivers/STM32G4xx_HAL_Driver/Src/stm32g4xx_hal_rcc_ex.c ****     {
 3194              		.loc 1 1647 5 discriminator 4 view .LVU1062
1647:Drivers/STM32G4xx_HAL_Driver/Src/stm32g4xx_hal_rcc_ex.c ****     {
 3195              		.loc 1 1647 8 is_stmt 0 discriminator 4 view .LVU1063
 3196 006e 0E4B     		ldr	r3, .L285
 3197 0070 9B68     		ldr	r3, [r3, #8]
1647:Drivers/STM32G4xx_HAL_Driver/Src/stm32g4xx_hal_rcc_ex.c ****     {
 3198              		.loc 1 1647 7 discriminator 4 view .LVU1064
 3199 0072 13F4807F 		tst	r3, #256
 3200 0076 04D0     		beq	.L275
1650:Drivers/STM32G4xx_HAL_Driver/Src/stm32g4xx_hal_rcc_ex.c **** 
 3201              		.loc 1 1650 7 is_stmt 1 view .LVU1065
1650:Drivers/STM32G4xx_HAL_Driver/Src/stm32g4xx_hal_rcc_ex.c **** 
 3202              		.loc 1 1650 17 is_stmt 0 view .LVU1066
 3203 0078 44F00804 		orr	r4, r4, #8
 3204              	.LVL308:
1653:Drivers/STM32G4xx_HAL_Driver/Src/stm32g4xx_hal_rcc_ex.c ****     }
ARM GAS  C:\Users\HYDROG~1\AppData\Local\Temp\cc0rSm9d.s 			page 97


 3205              		.loc 1 1653 7 is_stmt 1 view .LVU1067
1653:Drivers/STM32G4xx_HAL_Driver/Src/stm32g4xx_hal_rcc_ex.c ****     }
 3206              		.loc 1 1653 7 view .LVU1068
1653:Drivers/STM32G4xx_HAL_Driver/Src/stm32g4xx_hal_rcc_ex.c ****     }
 3207              		.loc 1 1653 7 view .LVU1069
 3208 007c 0A4B     		ldr	r3, .L285
 3209 007e 0422     		movs	r2, #4
 3210 0080 DA60     		str	r2, [r3, #12]
 3211              	.L275:
1653:Drivers/STM32G4xx_HAL_Driver/Src/stm32g4xx_hal_rcc_ex.c ****     }
 3212              		.loc 1 1653 7 discriminator 4 view .LVU1070
1657:Drivers/STM32G4xx_HAL_Driver/Src/stm32g4xx_hal_rcc_ex.c ****     {
 3213              		.loc 1 1657 5 discriminator 4 view .LVU1071
1657:Drivers/STM32G4xx_HAL_Driver/Src/stm32g4xx_hal_rcc_ex.c ****     {
 3214              		.loc 1 1657 8 is_stmt 0 discriminator 4 view .LVU1072
 3215 0082 094B     		ldr	r3, .L285
 3216 0084 9B68     		ldr	r3, [r3, #8]
1657:Drivers/STM32G4xx_HAL_Driver/Src/stm32g4xx_hal_rcc_ex.c ****     {
 3217              		.loc 1 1657 7 discriminator 4 view .LVU1073
 3218 0086 13F4007F 		tst	r3, #512
 3219 008a 04D0     		beq	.L276
1660:Drivers/STM32G4xx_HAL_Driver/Src/stm32g4xx_hal_rcc_ex.c **** 
 3220              		.loc 1 1660 7 is_stmt 1 view .LVU1074
1660:Drivers/STM32G4xx_HAL_Driver/Src/stm32g4xx_hal_rcc_ex.c **** 
 3221              		.loc 1 1660 17 is_stmt 0 view .LVU1075
 3222 008c 44F01004 		orr	r4, r4, #16
 3223              	.LVL309:
1663:Drivers/STM32G4xx_HAL_Driver/Src/stm32g4xx_hal_rcc_ex.c ****     }
 3224              		.loc 1 1663 7 is_stmt 1 view .LVU1076
1663:Drivers/STM32G4xx_HAL_Driver/Src/stm32g4xx_hal_rcc_ex.c ****     }
 3225              		.loc 1 1663 7 view .LVU1077
1663:Drivers/STM32G4xx_HAL_Driver/Src/stm32g4xx_hal_rcc_ex.c ****     }
 3226              		.loc 1 1663 7 view .LVU1078
 3227 0090 054B     		ldr	r3, .L285
 3228 0092 0422     		movs	r2, #4
 3229 0094 DA60     		str	r2, [r3, #12]
 3230              	.L276:
1663:Drivers/STM32G4xx_HAL_Driver/Src/stm32g4xx_hal_rcc_ex.c ****     }
 3231              		.loc 1 1663 7 discriminator 4 view .LVU1079
1667:Drivers/STM32G4xx_HAL_Driver/Src/stm32g4xx_hal_rcc_ex.c ****     {
 3232              		.loc 1 1667 5 discriminator 4 view .LVU1080
1667:Drivers/STM32G4xx_HAL_Driver/Src/stm32g4xx_hal_rcc_ex.c ****     {
 3233              		.loc 1 1667 8 is_stmt 0 discriminator 4 view .LVU1081
 3234 0096 044B     		ldr	r3, .L285
 3235 0098 9B68     		ldr	r3, [r3, #8]
1667:Drivers/STM32G4xx_HAL_Driver/Src/stm32g4xx_hal_rcc_ex.c ****     {
 3236              		.loc 1 1667 7 discriminator 4 view .LVU1082
 3237 009a 13F0080F 		tst	r3, #8
 3238 009e C3D0     		beq	.L277
1667:Drivers/STM32G4xx_HAL_Driver/Src/stm32g4xx_hal_rcc_ex.c ****     {
 3239              		.loc 1 1667 7 discriminator 4 view .LVU1083
 3240 00a0 BFE7     		b	.L284
 3241              	.L282:
1673:Drivers/STM32G4xx_HAL_Driver/Src/stm32g4xx_hal_rcc_ex.c **** 
1674:Drivers/STM32G4xx_HAL_Driver/Src/stm32g4xx_hal_rcc_ex.c ****   return crsstatus;
 3242              		.loc 1 1674 3 is_stmt 1 view .LVU1084
1675:Drivers/STM32G4xx_HAL_Driver/Src/stm32g4xx_hal_rcc_ex.c **** }
ARM GAS  C:\Users\HYDROG~1\AppData\Local\Temp\cc0rSm9d.s 			page 98


 3243              		.loc 1 1675 1 is_stmt 0 view .LVU1085
 3244 00a2 2046     		mov	r0, r4
 3245 00a4 70BD     		pop	{r4, r5, r6, pc}
 3246              	.LVL310:
 3247              	.L286:
 3248              		.loc 1 1675 1 view .LVU1086
 3249 00a6 00BF     		.align	2
 3250              	.L285:
 3251 00a8 00200040 		.word	1073750016
 3252              		.cfi_endproc
 3253              	.LFE342:
 3255              		.section	.text.HAL_RCCEx_CRS_SyncOkCallback,"ax",%progbits
 3256              		.align	1
 3257              		.weak	HAL_RCCEx_CRS_SyncOkCallback
 3258              		.syntax unified
 3259              		.thumb
 3260              		.thumb_func
 3262              	HAL_RCCEx_CRS_SyncOkCallback:
 3263              	.LFB344:
1676:Drivers/STM32G4xx_HAL_Driver/Src/stm32g4xx_hal_rcc_ex.c **** 
1677:Drivers/STM32G4xx_HAL_Driver/Src/stm32g4xx_hal_rcc_ex.c **** /**
1678:Drivers/STM32G4xx_HAL_Driver/Src/stm32g4xx_hal_rcc_ex.c ****   * @brief Handle the Clock Recovery System interrupt request.
1679:Drivers/STM32G4xx_HAL_Driver/Src/stm32g4xx_hal_rcc_ex.c ****   * @retval None
1680:Drivers/STM32G4xx_HAL_Driver/Src/stm32g4xx_hal_rcc_ex.c ****   */
1681:Drivers/STM32G4xx_HAL_Driver/Src/stm32g4xx_hal_rcc_ex.c **** void HAL_RCCEx_CRS_IRQHandler(void)
1682:Drivers/STM32G4xx_HAL_Driver/Src/stm32g4xx_hal_rcc_ex.c **** {
1683:Drivers/STM32G4xx_HAL_Driver/Src/stm32g4xx_hal_rcc_ex.c ****   uint32_t crserror = RCC_CRS_NONE;
1684:Drivers/STM32G4xx_HAL_Driver/Src/stm32g4xx_hal_rcc_ex.c ****   /* Get current IT flags and IT sources values */
1685:Drivers/STM32G4xx_HAL_Driver/Src/stm32g4xx_hal_rcc_ex.c ****   uint32_t itflags = READ_REG(CRS->ISR);
1686:Drivers/STM32G4xx_HAL_Driver/Src/stm32g4xx_hal_rcc_ex.c ****   uint32_t itsources = READ_REG(CRS->CR);
1687:Drivers/STM32G4xx_HAL_Driver/Src/stm32g4xx_hal_rcc_ex.c **** 
1688:Drivers/STM32G4xx_HAL_Driver/Src/stm32g4xx_hal_rcc_ex.c ****   /* Check CRS SYNCOK flag  */
1689:Drivers/STM32G4xx_HAL_Driver/Src/stm32g4xx_hal_rcc_ex.c ****   if(((itflags & RCC_CRS_FLAG_SYNCOK) != 0U) && ((itsources & RCC_CRS_IT_SYNCOK) != 0U))
1690:Drivers/STM32G4xx_HAL_Driver/Src/stm32g4xx_hal_rcc_ex.c ****   {
1691:Drivers/STM32G4xx_HAL_Driver/Src/stm32g4xx_hal_rcc_ex.c ****     /* Clear CRS SYNC event OK flag */
1692:Drivers/STM32G4xx_HAL_Driver/Src/stm32g4xx_hal_rcc_ex.c ****     WRITE_REG(CRS->ICR, CRS_ICR_SYNCOKC);
1693:Drivers/STM32G4xx_HAL_Driver/Src/stm32g4xx_hal_rcc_ex.c **** 
1694:Drivers/STM32G4xx_HAL_Driver/Src/stm32g4xx_hal_rcc_ex.c ****     /* user callback */
1695:Drivers/STM32G4xx_HAL_Driver/Src/stm32g4xx_hal_rcc_ex.c ****     HAL_RCCEx_CRS_SyncOkCallback();
1696:Drivers/STM32G4xx_HAL_Driver/Src/stm32g4xx_hal_rcc_ex.c ****   }
1697:Drivers/STM32G4xx_HAL_Driver/Src/stm32g4xx_hal_rcc_ex.c ****   /* Check CRS SYNCWARN flag  */
1698:Drivers/STM32G4xx_HAL_Driver/Src/stm32g4xx_hal_rcc_ex.c ****   else if(((itflags & RCC_CRS_FLAG_SYNCWARN) != 0U) && ((itsources & RCC_CRS_IT_SYNCWARN) != 0U))
1699:Drivers/STM32G4xx_HAL_Driver/Src/stm32g4xx_hal_rcc_ex.c ****   {
1700:Drivers/STM32G4xx_HAL_Driver/Src/stm32g4xx_hal_rcc_ex.c ****     /* Clear CRS SYNCWARN flag */
1701:Drivers/STM32G4xx_HAL_Driver/Src/stm32g4xx_hal_rcc_ex.c ****     WRITE_REG(CRS->ICR, CRS_ICR_SYNCWARNC);
1702:Drivers/STM32G4xx_HAL_Driver/Src/stm32g4xx_hal_rcc_ex.c **** 
1703:Drivers/STM32G4xx_HAL_Driver/Src/stm32g4xx_hal_rcc_ex.c ****     /* user callback */
1704:Drivers/STM32G4xx_HAL_Driver/Src/stm32g4xx_hal_rcc_ex.c ****     HAL_RCCEx_CRS_SyncWarnCallback();
1705:Drivers/STM32G4xx_HAL_Driver/Src/stm32g4xx_hal_rcc_ex.c ****   }
1706:Drivers/STM32G4xx_HAL_Driver/Src/stm32g4xx_hal_rcc_ex.c ****   /* Check CRS Expected SYNC flag  */
1707:Drivers/STM32G4xx_HAL_Driver/Src/stm32g4xx_hal_rcc_ex.c ****   else if(((itflags & RCC_CRS_FLAG_ESYNC) != 0U) && ((itsources & RCC_CRS_IT_ESYNC) != 0U))
1708:Drivers/STM32G4xx_HAL_Driver/Src/stm32g4xx_hal_rcc_ex.c ****   {
1709:Drivers/STM32G4xx_HAL_Driver/Src/stm32g4xx_hal_rcc_ex.c ****     /* frequency error counter reached a zero value */
1710:Drivers/STM32G4xx_HAL_Driver/Src/stm32g4xx_hal_rcc_ex.c ****     WRITE_REG(CRS->ICR, CRS_ICR_ESYNCC);
1711:Drivers/STM32G4xx_HAL_Driver/Src/stm32g4xx_hal_rcc_ex.c **** 
1712:Drivers/STM32G4xx_HAL_Driver/Src/stm32g4xx_hal_rcc_ex.c ****     /* user callback */
1713:Drivers/STM32G4xx_HAL_Driver/Src/stm32g4xx_hal_rcc_ex.c ****     HAL_RCCEx_CRS_ExpectedSyncCallback();
ARM GAS  C:\Users\HYDROG~1\AppData\Local\Temp\cc0rSm9d.s 			page 99


1714:Drivers/STM32G4xx_HAL_Driver/Src/stm32g4xx_hal_rcc_ex.c ****   }
1715:Drivers/STM32G4xx_HAL_Driver/Src/stm32g4xx_hal_rcc_ex.c ****   /* Check CRS Error flags  */
1716:Drivers/STM32G4xx_HAL_Driver/Src/stm32g4xx_hal_rcc_ex.c ****   else
1717:Drivers/STM32G4xx_HAL_Driver/Src/stm32g4xx_hal_rcc_ex.c ****   {
1718:Drivers/STM32G4xx_HAL_Driver/Src/stm32g4xx_hal_rcc_ex.c ****     if(((itflags & RCC_CRS_FLAG_ERR) != 0U) && ((itsources & RCC_CRS_IT_ERR) != 0U))
1719:Drivers/STM32G4xx_HAL_Driver/Src/stm32g4xx_hal_rcc_ex.c ****     {
1720:Drivers/STM32G4xx_HAL_Driver/Src/stm32g4xx_hal_rcc_ex.c ****       if((itflags & RCC_CRS_FLAG_SYNCERR) != 0U)
1721:Drivers/STM32G4xx_HAL_Driver/Src/stm32g4xx_hal_rcc_ex.c ****       {
1722:Drivers/STM32G4xx_HAL_Driver/Src/stm32g4xx_hal_rcc_ex.c ****         crserror |= RCC_CRS_SYNCERR;
1723:Drivers/STM32G4xx_HAL_Driver/Src/stm32g4xx_hal_rcc_ex.c ****       }
1724:Drivers/STM32G4xx_HAL_Driver/Src/stm32g4xx_hal_rcc_ex.c ****       if((itflags & RCC_CRS_FLAG_SYNCMISS) != 0U)
1725:Drivers/STM32G4xx_HAL_Driver/Src/stm32g4xx_hal_rcc_ex.c ****       {
1726:Drivers/STM32G4xx_HAL_Driver/Src/stm32g4xx_hal_rcc_ex.c ****         crserror |= RCC_CRS_SYNCMISS;
1727:Drivers/STM32G4xx_HAL_Driver/Src/stm32g4xx_hal_rcc_ex.c ****       }
1728:Drivers/STM32G4xx_HAL_Driver/Src/stm32g4xx_hal_rcc_ex.c ****       if((itflags & RCC_CRS_FLAG_TRIMOVF) != 0U)
1729:Drivers/STM32G4xx_HAL_Driver/Src/stm32g4xx_hal_rcc_ex.c ****       {
1730:Drivers/STM32G4xx_HAL_Driver/Src/stm32g4xx_hal_rcc_ex.c ****         crserror |= RCC_CRS_TRIMOVF;
1731:Drivers/STM32G4xx_HAL_Driver/Src/stm32g4xx_hal_rcc_ex.c ****       }
1732:Drivers/STM32G4xx_HAL_Driver/Src/stm32g4xx_hal_rcc_ex.c **** 
1733:Drivers/STM32G4xx_HAL_Driver/Src/stm32g4xx_hal_rcc_ex.c ****       /* Clear CRS Error flags */
1734:Drivers/STM32G4xx_HAL_Driver/Src/stm32g4xx_hal_rcc_ex.c ****       WRITE_REG(CRS->ICR, CRS_ICR_ERRC);
1735:Drivers/STM32G4xx_HAL_Driver/Src/stm32g4xx_hal_rcc_ex.c **** 
1736:Drivers/STM32G4xx_HAL_Driver/Src/stm32g4xx_hal_rcc_ex.c ****       /* user error callback */
1737:Drivers/STM32G4xx_HAL_Driver/Src/stm32g4xx_hal_rcc_ex.c ****       HAL_RCCEx_CRS_ErrorCallback(crserror);
1738:Drivers/STM32G4xx_HAL_Driver/Src/stm32g4xx_hal_rcc_ex.c ****     }
1739:Drivers/STM32G4xx_HAL_Driver/Src/stm32g4xx_hal_rcc_ex.c ****   }
1740:Drivers/STM32G4xx_HAL_Driver/Src/stm32g4xx_hal_rcc_ex.c **** }
1741:Drivers/STM32G4xx_HAL_Driver/Src/stm32g4xx_hal_rcc_ex.c **** 
1742:Drivers/STM32G4xx_HAL_Driver/Src/stm32g4xx_hal_rcc_ex.c **** /**
1743:Drivers/STM32G4xx_HAL_Driver/Src/stm32g4xx_hal_rcc_ex.c ****   * @brief  RCCEx Clock Recovery System SYNCOK interrupt callback.
1744:Drivers/STM32G4xx_HAL_Driver/Src/stm32g4xx_hal_rcc_ex.c ****   * @retval none
1745:Drivers/STM32G4xx_HAL_Driver/Src/stm32g4xx_hal_rcc_ex.c ****   */
1746:Drivers/STM32G4xx_HAL_Driver/Src/stm32g4xx_hal_rcc_ex.c **** __weak void HAL_RCCEx_CRS_SyncOkCallback(void)
1747:Drivers/STM32G4xx_HAL_Driver/Src/stm32g4xx_hal_rcc_ex.c **** {
 3264              		.loc 1 1747 1 is_stmt 1 view -0
 3265              		.cfi_startproc
 3266              		@ args = 0, pretend = 0, frame = 0
 3267              		@ frame_needed = 0, uses_anonymous_args = 0
 3268              		@ link register save eliminated.
1748:Drivers/STM32G4xx_HAL_Driver/Src/stm32g4xx_hal_rcc_ex.c ****   /* NOTE : This function should not be modified, when the callback is needed,
1749:Drivers/STM32G4xx_HAL_Driver/Src/stm32g4xx_hal_rcc_ex.c ****             the @ref HAL_RCCEx_CRS_SyncOkCallback should be implemented in the user file
1750:Drivers/STM32G4xx_HAL_Driver/Src/stm32g4xx_hal_rcc_ex.c ****    */
1751:Drivers/STM32G4xx_HAL_Driver/Src/stm32g4xx_hal_rcc_ex.c **** }
 3269              		.loc 1 1751 1 view .LVU1088
 3270 0000 7047     		bx	lr
 3271              		.cfi_endproc
 3272              	.LFE344:
 3274              		.section	.text.HAL_RCCEx_CRS_SyncWarnCallback,"ax",%progbits
 3275              		.align	1
 3276              		.weak	HAL_RCCEx_CRS_SyncWarnCallback
 3277              		.syntax unified
 3278              		.thumb
 3279              		.thumb_func
 3281              	HAL_RCCEx_CRS_SyncWarnCallback:
 3282              	.LFB345:
1752:Drivers/STM32G4xx_HAL_Driver/Src/stm32g4xx_hal_rcc_ex.c **** 
1753:Drivers/STM32G4xx_HAL_Driver/Src/stm32g4xx_hal_rcc_ex.c **** /**
ARM GAS  C:\Users\HYDROG~1\AppData\Local\Temp\cc0rSm9d.s 			page 100


1754:Drivers/STM32G4xx_HAL_Driver/Src/stm32g4xx_hal_rcc_ex.c ****   * @brief  RCCEx Clock Recovery System SYNCWARN interrupt callback.
1755:Drivers/STM32G4xx_HAL_Driver/Src/stm32g4xx_hal_rcc_ex.c ****   * @retval none
1756:Drivers/STM32G4xx_HAL_Driver/Src/stm32g4xx_hal_rcc_ex.c ****   */
1757:Drivers/STM32G4xx_HAL_Driver/Src/stm32g4xx_hal_rcc_ex.c **** __weak void HAL_RCCEx_CRS_SyncWarnCallback(void)
1758:Drivers/STM32G4xx_HAL_Driver/Src/stm32g4xx_hal_rcc_ex.c **** {
 3283              		.loc 1 1758 1 view -0
 3284              		.cfi_startproc
 3285              		@ args = 0, pretend = 0, frame = 0
 3286              		@ frame_needed = 0, uses_anonymous_args = 0
 3287              		@ link register save eliminated.
1759:Drivers/STM32G4xx_HAL_Driver/Src/stm32g4xx_hal_rcc_ex.c ****   /* NOTE : This function should not be modified, when the callback is needed,
1760:Drivers/STM32G4xx_HAL_Driver/Src/stm32g4xx_hal_rcc_ex.c ****             the @ref HAL_RCCEx_CRS_SyncWarnCallback should be implemented in the user file
1761:Drivers/STM32G4xx_HAL_Driver/Src/stm32g4xx_hal_rcc_ex.c ****    */
1762:Drivers/STM32G4xx_HAL_Driver/Src/stm32g4xx_hal_rcc_ex.c **** }
 3288              		.loc 1 1762 1 view .LVU1090
 3289 0000 7047     		bx	lr
 3290              		.cfi_endproc
 3291              	.LFE345:
 3293              		.section	.text.HAL_RCCEx_CRS_ExpectedSyncCallback,"ax",%progbits
 3294              		.align	1
 3295              		.weak	HAL_RCCEx_CRS_ExpectedSyncCallback
 3296              		.syntax unified
 3297              		.thumb
 3298              		.thumb_func
 3300              	HAL_RCCEx_CRS_ExpectedSyncCallback:
 3301              	.LFB346:
1763:Drivers/STM32G4xx_HAL_Driver/Src/stm32g4xx_hal_rcc_ex.c **** 
1764:Drivers/STM32G4xx_HAL_Driver/Src/stm32g4xx_hal_rcc_ex.c **** /**
1765:Drivers/STM32G4xx_HAL_Driver/Src/stm32g4xx_hal_rcc_ex.c ****   * @brief  RCCEx Clock Recovery System Expected SYNC interrupt callback.
1766:Drivers/STM32G4xx_HAL_Driver/Src/stm32g4xx_hal_rcc_ex.c ****   * @retval none
1767:Drivers/STM32G4xx_HAL_Driver/Src/stm32g4xx_hal_rcc_ex.c ****   */
1768:Drivers/STM32G4xx_HAL_Driver/Src/stm32g4xx_hal_rcc_ex.c **** __weak void HAL_RCCEx_CRS_ExpectedSyncCallback(void)
1769:Drivers/STM32G4xx_HAL_Driver/Src/stm32g4xx_hal_rcc_ex.c **** {
 3302              		.loc 1 1769 1 view -0
 3303              		.cfi_startproc
 3304              		@ args = 0, pretend = 0, frame = 0
 3305              		@ frame_needed = 0, uses_anonymous_args = 0
 3306              		@ link register save eliminated.
1770:Drivers/STM32G4xx_HAL_Driver/Src/stm32g4xx_hal_rcc_ex.c ****   /* NOTE : This function should not be modified, when the callback is needed,
1771:Drivers/STM32G4xx_HAL_Driver/Src/stm32g4xx_hal_rcc_ex.c ****             the @ref HAL_RCCEx_CRS_ExpectedSyncCallback should be implemented in the user file
1772:Drivers/STM32G4xx_HAL_Driver/Src/stm32g4xx_hal_rcc_ex.c ****    */
1773:Drivers/STM32G4xx_HAL_Driver/Src/stm32g4xx_hal_rcc_ex.c **** }
 3307              		.loc 1 1773 1 view .LVU1092
 3308 0000 7047     		bx	lr
 3309              		.cfi_endproc
 3310              	.LFE346:
 3312              		.section	.text.HAL_RCCEx_CRS_ErrorCallback,"ax",%progbits
 3313              		.align	1
 3314              		.weak	HAL_RCCEx_CRS_ErrorCallback
 3315              		.syntax unified
 3316              		.thumb
 3317              		.thumb_func
 3319              	HAL_RCCEx_CRS_ErrorCallback:
 3320              	.LVL311:
 3321              	.LFB347:
1774:Drivers/STM32G4xx_HAL_Driver/Src/stm32g4xx_hal_rcc_ex.c **** 
1775:Drivers/STM32G4xx_HAL_Driver/Src/stm32g4xx_hal_rcc_ex.c **** /**
ARM GAS  C:\Users\HYDROG~1\AppData\Local\Temp\cc0rSm9d.s 			page 101


1776:Drivers/STM32G4xx_HAL_Driver/Src/stm32g4xx_hal_rcc_ex.c ****   * @brief  RCCEx Clock Recovery System Error interrupt callback.
1777:Drivers/STM32G4xx_HAL_Driver/Src/stm32g4xx_hal_rcc_ex.c ****   * @param  Error Combination of Error status.
1778:Drivers/STM32G4xx_HAL_Driver/Src/stm32g4xx_hal_rcc_ex.c ****   *         This parameter can be a combination of the following values:
1779:Drivers/STM32G4xx_HAL_Driver/Src/stm32g4xx_hal_rcc_ex.c ****   *           @arg @ref RCC_CRS_SYNCERR
1780:Drivers/STM32G4xx_HAL_Driver/Src/stm32g4xx_hal_rcc_ex.c ****   *           @arg @ref RCC_CRS_SYNCMISS
1781:Drivers/STM32G4xx_HAL_Driver/Src/stm32g4xx_hal_rcc_ex.c ****   *           @arg @ref RCC_CRS_TRIMOVF
1782:Drivers/STM32G4xx_HAL_Driver/Src/stm32g4xx_hal_rcc_ex.c ****   * @retval none
1783:Drivers/STM32G4xx_HAL_Driver/Src/stm32g4xx_hal_rcc_ex.c ****   */
1784:Drivers/STM32G4xx_HAL_Driver/Src/stm32g4xx_hal_rcc_ex.c **** __weak void HAL_RCCEx_CRS_ErrorCallback(uint32_t Error)
1785:Drivers/STM32G4xx_HAL_Driver/Src/stm32g4xx_hal_rcc_ex.c **** {
 3322              		.loc 1 1785 1 view -0
 3323              		.cfi_startproc
 3324              		@ args = 0, pretend = 0, frame = 0
 3325              		@ frame_needed = 0, uses_anonymous_args = 0
 3326              		@ link register save eliminated.
1786:Drivers/STM32G4xx_HAL_Driver/Src/stm32g4xx_hal_rcc_ex.c ****   /* Prevent unused argument(s) compilation warning */
1787:Drivers/STM32G4xx_HAL_Driver/Src/stm32g4xx_hal_rcc_ex.c ****   UNUSED(Error);
 3327              		.loc 1 1787 3 view .LVU1094
1788:Drivers/STM32G4xx_HAL_Driver/Src/stm32g4xx_hal_rcc_ex.c **** 
1789:Drivers/STM32G4xx_HAL_Driver/Src/stm32g4xx_hal_rcc_ex.c ****   /* NOTE : This function should not be modified, when the callback is needed,
1790:Drivers/STM32G4xx_HAL_Driver/Src/stm32g4xx_hal_rcc_ex.c ****             the @ref HAL_RCCEx_CRS_ErrorCallback should be implemented in the user file
1791:Drivers/STM32G4xx_HAL_Driver/Src/stm32g4xx_hal_rcc_ex.c ****    */
1792:Drivers/STM32G4xx_HAL_Driver/Src/stm32g4xx_hal_rcc_ex.c **** }
 3328              		.loc 1 1792 1 is_stmt 0 view .LVU1095
 3329 0000 7047     		bx	lr
 3330              		.cfi_endproc
 3331              	.LFE347:
 3333              		.section	.text.HAL_RCCEx_CRS_IRQHandler,"ax",%progbits
 3334              		.align	1
 3335              		.global	HAL_RCCEx_CRS_IRQHandler
 3336              		.syntax unified
 3337              		.thumb
 3338              		.thumb_func
 3340              	HAL_RCCEx_CRS_IRQHandler:
 3341              	.LFB343:
1682:Drivers/STM32G4xx_HAL_Driver/Src/stm32g4xx_hal_rcc_ex.c ****   uint32_t crserror = RCC_CRS_NONE;
 3342              		.loc 1 1682 1 is_stmt 1 view -0
 3343              		.cfi_startproc
 3344              		@ args = 0, pretend = 0, frame = 0
 3345              		@ frame_needed = 0, uses_anonymous_args = 0
 3346 0000 08B5     		push	{r3, lr}
 3347              	.LCFI15:
 3348              		.cfi_def_cfa_offset 8
 3349              		.cfi_offset 3, -8
 3350              		.cfi_offset 14, -4
1683:Drivers/STM32G4xx_HAL_Driver/Src/stm32g4xx_hal_rcc_ex.c ****   /* Get current IT flags and IT sources values */
 3351              		.loc 1 1683 3 view .LVU1097
 3352              	.LVL312:
1685:Drivers/STM32G4xx_HAL_Driver/Src/stm32g4xx_hal_rcc_ex.c ****   uint32_t itsources = READ_REG(CRS->CR);
 3353              		.loc 1 1685 3 view .LVU1098
1685:Drivers/STM32G4xx_HAL_Driver/Src/stm32g4xx_hal_rcc_ex.c ****   uint32_t itsources = READ_REG(CRS->CR);
 3354              		.loc 1 1685 12 is_stmt 0 view .LVU1099
 3355 0002 204A     		ldr	r2, .L304
 3356 0004 9368     		ldr	r3, [r2, #8]
 3357              	.LVL313:
1686:Drivers/STM32G4xx_HAL_Driver/Src/stm32g4xx_hal_rcc_ex.c **** 
 3358              		.loc 1 1686 3 is_stmt 1 view .LVU1100
ARM GAS  C:\Users\HYDROG~1\AppData\Local\Temp\cc0rSm9d.s 			page 102


1686:Drivers/STM32G4xx_HAL_Driver/Src/stm32g4xx_hal_rcc_ex.c **** 
 3359              		.loc 1 1686 12 is_stmt 0 view .LVU1101
 3360 0006 1268     		ldr	r2, [r2]
 3361              	.LVL314:
1689:Drivers/STM32G4xx_HAL_Driver/Src/stm32g4xx_hal_rcc_ex.c ****   {
 3362              		.loc 1 1689 3 is_stmt 1 view .LVU1102
1689:Drivers/STM32G4xx_HAL_Driver/Src/stm32g4xx_hal_rcc_ex.c ****   {
 3363              		.loc 1 1689 5 is_stmt 0 view .LVU1103
 3364 0008 13F0010F 		tst	r3, #1
 3365 000c 02D0     		beq	.L292
1689:Drivers/STM32G4xx_HAL_Driver/Src/stm32g4xx_hal_rcc_ex.c ****   {
 3366              		.loc 1 1689 46 discriminator 1 view .LVU1104
 3367 000e 12F0010F 		tst	r2, #1
 3368 0012 25D1     		bne	.L301
 3369              	.L292:
1698:Drivers/STM32G4xx_HAL_Driver/Src/stm32g4xx_hal_rcc_ex.c ****   {
 3370              		.loc 1 1698 8 is_stmt 1 view .LVU1105
1698:Drivers/STM32G4xx_HAL_Driver/Src/stm32g4xx_hal_rcc_ex.c ****   {
 3371              		.loc 1 1698 10 is_stmt 0 view .LVU1106
 3372 0014 13F0020F 		tst	r3, #2
 3373 0018 02D0     		beq	.L294
1698:Drivers/STM32G4xx_HAL_Driver/Src/stm32g4xx_hal_rcc_ex.c ****   {
 3374              		.loc 1 1698 53 discriminator 1 view .LVU1107
 3375 001a 12F0020F 		tst	r2, #2
 3376 001e 25D1     		bne	.L302
 3377              	.L294:
1707:Drivers/STM32G4xx_HAL_Driver/Src/stm32g4xx_hal_rcc_ex.c ****   {
 3378              		.loc 1 1707 8 is_stmt 1 view .LVU1108
1707:Drivers/STM32G4xx_HAL_Driver/Src/stm32g4xx_hal_rcc_ex.c ****   {
 3379              		.loc 1 1707 10 is_stmt 0 view .LVU1109
 3380 0020 13F0080F 		tst	r3, #8
 3381 0024 02D0     		beq	.L295
1707:Drivers/STM32G4xx_HAL_Driver/Src/stm32g4xx_hal_rcc_ex.c ****   {
 3382              		.loc 1 1707 50 discriminator 1 view .LVU1110
 3383 0026 12F0080F 		tst	r2, #8
 3384 002a 25D1     		bne	.L303
 3385              	.L295:
1718:Drivers/STM32G4xx_HAL_Driver/Src/stm32g4xx_hal_rcc_ex.c ****     {
 3386              		.loc 1 1718 5 is_stmt 1 view .LVU1111
1718:Drivers/STM32G4xx_HAL_Driver/Src/stm32g4xx_hal_rcc_ex.c ****     {
 3387              		.loc 1 1718 7 is_stmt 0 view .LVU1112
 3388 002c 13F0040F 		tst	r3, #4
 3389 0030 1BD0     		beq	.L291
1718:Drivers/STM32G4xx_HAL_Driver/Src/stm32g4xx_hal_rcc_ex.c ****     {
 3390              		.loc 1 1718 45 discriminator 1 view .LVU1113
 3391 0032 12F0040F 		tst	r2, #4
 3392 0036 18D0     		beq	.L291
1720:Drivers/STM32G4xx_HAL_Driver/Src/stm32g4xx_hal_rcc_ex.c ****       {
 3393              		.loc 1 1720 7 is_stmt 1 view .LVU1114
1720:Drivers/STM32G4xx_HAL_Driver/Src/stm32g4xx_hal_rcc_ex.c ****       {
 3394              		.loc 1 1720 9 is_stmt 0 view .LVU1115
 3395 0038 13F48070 		ands	r0, r3, #256
 3396 003c 00D0     		beq	.L296
1722:Drivers/STM32G4xx_HAL_Driver/Src/stm32g4xx_hal_rcc_ex.c ****       }
 3397              		.loc 1 1722 18 view .LVU1116
 3398 003e 0820     		movs	r0, #8
 3399              	.L296:
ARM GAS  C:\Users\HYDROG~1\AppData\Local\Temp\cc0rSm9d.s 			page 103


 3400              	.LVL315:
1724:Drivers/STM32G4xx_HAL_Driver/Src/stm32g4xx_hal_rcc_ex.c ****       {
 3401              		.loc 1 1724 7 is_stmt 1 view .LVU1117
1724:Drivers/STM32G4xx_HAL_Driver/Src/stm32g4xx_hal_rcc_ex.c ****       {
 3402              		.loc 1 1724 9 is_stmt 0 view .LVU1118
 3403 0040 13F4007F 		tst	r3, #512
 3404 0044 01D0     		beq	.L297
1726:Drivers/STM32G4xx_HAL_Driver/Src/stm32g4xx_hal_rcc_ex.c ****       }
 3405              		.loc 1 1726 9 is_stmt 1 view .LVU1119
1726:Drivers/STM32G4xx_HAL_Driver/Src/stm32g4xx_hal_rcc_ex.c ****       }
 3406              		.loc 1 1726 18 is_stmt 0 view .LVU1120
 3407 0046 40F01000 		orr	r0, r0, #16
 3408              	.LVL316:
 3409              	.L297:
1728:Drivers/STM32G4xx_HAL_Driver/Src/stm32g4xx_hal_rcc_ex.c ****       {
 3410              		.loc 1 1728 7 is_stmt 1 view .LVU1121
1728:Drivers/STM32G4xx_HAL_Driver/Src/stm32g4xx_hal_rcc_ex.c ****       {
 3411              		.loc 1 1728 9 is_stmt 0 view .LVU1122
 3412 004a 13F4806F 		tst	r3, #1024
 3413 004e 01D0     		beq	.L298
1730:Drivers/STM32G4xx_HAL_Driver/Src/stm32g4xx_hal_rcc_ex.c ****       }
 3414              		.loc 1 1730 9 is_stmt 1 view .LVU1123
1730:Drivers/STM32G4xx_HAL_Driver/Src/stm32g4xx_hal_rcc_ex.c ****       }
 3415              		.loc 1 1730 18 is_stmt 0 view .LVU1124
 3416 0050 40F02000 		orr	r0, r0, #32
 3417              	.LVL317:
 3418              	.L298:
1734:Drivers/STM32G4xx_HAL_Driver/Src/stm32g4xx_hal_rcc_ex.c **** 
 3419              		.loc 1 1734 7 is_stmt 1 view .LVU1125
 3420 0054 0B4B     		ldr	r3, .L304
 3421              	.LVL318:
1734:Drivers/STM32G4xx_HAL_Driver/Src/stm32g4xx_hal_rcc_ex.c **** 
 3422              		.loc 1 1734 7 is_stmt 0 view .LVU1126
 3423 0056 0422     		movs	r2, #4
 3424              	.LVL319:
1734:Drivers/STM32G4xx_HAL_Driver/Src/stm32g4xx_hal_rcc_ex.c **** 
 3425              		.loc 1 1734 7 view .LVU1127
 3426 0058 DA60     		str	r2, [r3, #12]
1737:Drivers/STM32G4xx_HAL_Driver/Src/stm32g4xx_hal_rcc_ex.c ****     }
 3427              		.loc 1 1737 7 is_stmt 1 view .LVU1128
 3428 005a FFF7FEFF 		bl	HAL_RCCEx_CRS_ErrorCallback
 3429              	.LVL320:
1740:Drivers/STM32G4xx_HAL_Driver/Src/stm32g4xx_hal_rcc_ex.c **** 
 3430              		.loc 1 1740 1 is_stmt 0 view .LVU1129
 3431 005e 04E0     		b	.L291
 3432              	.LVL321:
 3433              	.L301:
1692:Drivers/STM32G4xx_HAL_Driver/Src/stm32g4xx_hal_rcc_ex.c **** 
 3434              		.loc 1 1692 5 is_stmt 1 view .LVU1130
 3435 0060 084B     		ldr	r3, .L304
 3436              	.LVL322:
1692:Drivers/STM32G4xx_HAL_Driver/Src/stm32g4xx_hal_rcc_ex.c **** 
 3437              		.loc 1 1692 5 is_stmt 0 view .LVU1131
 3438 0062 0122     		movs	r2, #1
 3439              	.LVL323:
1692:Drivers/STM32G4xx_HAL_Driver/Src/stm32g4xx_hal_rcc_ex.c **** 
 3440              		.loc 1 1692 5 view .LVU1132
ARM GAS  C:\Users\HYDROG~1\AppData\Local\Temp\cc0rSm9d.s 			page 104


 3441 0064 DA60     		str	r2, [r3, #12]
1695:Drivers/STM32G4xx_HAL_Driver/Src/stm32g4xx_hal_rcc_ex.c ****   }
 3442              		.loc 1 1695 5 is_stmt 1 view .LVU1133
 3443 0066 FFF7FEFF 		bl	HAL_RCCEx_CRS_SyncOkCallback
 3444              	.LVL324:
 3445              	.L291:
1740:Drivers/STM32G4xx_HAL_Driver/Src/stm32g4xx_hal_rcc_ex.c **** 
 3446              		.loc 1 1740 1 is_stmt 0 view .LVU1134
 3447 006a 08BD     		pop	{r3, pc}
 3448              	.LVL325:
 3449              	.L302:
1701:Drivers/STM32G4xx_HAL_Driver/Src/stm32g4xx_hal_rcc_ex.c **** 
 3450              		.loc 1 1701 5 is_stmt 1 view .LVU1135
 3451 006c 054B     		ldr	r3, .L304
 3452              	.LVL326:
1701:Drivers/STM32G4xx_HAL_Driver/Src/stm32g4xx_hal_rcc_ex.c **** 
 3453              		.loc 1 1701 5 is_stmt 0 view .LVU1136
 3454 006e 0222     		movs	r2, #2
 3455              	.LVL327:
1701:Drivers/STM32G4xx_HAL_Driver/Src/stm32g4xx_hal_rcc_ex.c **** 
 3456              		.loc 1 1701 5 view .LVU1137
 3457 0070 DA60     		str	r2, [r3, #12]
1704:Drivers/STM32G4xx_HAL_Driver/Src/stm32g4xx_hal_rcc_ex.c ****   }
 3458              		.loc 1 1704 5 is_stmt 1 view .LVU1138
 3459 0072 FFF7FEFF 		bl	HAL_RCCEx_CRS_SyncWarnCallback
 3460              	.LVL328:
 3461 0076 F8E7     		b	.L291
 3462              	.LVL329:
 3463              	.L303:
1710:Drivers/STM32G4xx_HAL_Driver/Src/stm32g4xx_hal_rcc_ex.c **** 
 3464              		.loc 1 1710 5 view .LVU1139
 3465 0078 024B     		ldr	r3, .L304
 3466              	.LVL330:
1710:Drivers/STM32G4xx_HAL_Driver/Src/stm32g4xx_hal_rcc_ex.c **** 
 3467              		.loc 1 1710 5 is_stmt 0 view .LVU1140
 3468 007a 0822     		movs	r2, #8
 3469              	.LVL331:
1710:Drivers/STM32G4xx_HAL_Driver/Src/stm32g4xx_hal_rcc_ex.c **** 
 3470              		.loc 1 1710 5 view .LVU1141
 3471 007c DA60     		str	r2, [r3, #12]
1713:Drivers/STM32G4xx_HAL_Driver/Src/stm32g4xx_hal_rcc_ex.c ****   }
 3472              		.loc 1 1713 5 is_stmt 1 view .LVU1142
 3473 007e FFF7FEFF 		bl	HAL_RCCEx_CRS_ExpectedSyncCallback
 3474              	.LVL332:
 3475 0082 F2E7     		b	.L291
 3476              	.L305:
 3477              		.align	2
 3478              	.L304:
 3479 0084 00200040 		.word	1073750016
 3480              		.cfi_endproc
 3481              	.LFE343:
 3483              		.text
 3484              	.Letext0:
 3485              		.file 2 "c:\\program files (x86)\\gnu arm embedded toolchain\\10 2021.10\\arm-none-eabi\\include\\
 3486              		.file 3 "c:\\program files (x86)\\gnu arm embedded toolchain\\10 2021.10\\arm-none-eabi\\include\\
 3487              		.file 4 "Drivers/CMSIS/Device/ST/STM32G4xx/Include/stm32g473xx.h"
 3488              		.file 5 "Drivers/CMSIS/Device/ST/STM32G4xx/Include/stm32g4xx.h"
ARM GAS  C:\Users\HYDROG~1\AppData\Local\Temp\cc0rSm9d.s 			page 105


 3489              		.file 6 "Drivers/STM32G4xx_HAL_Driver/Inc/stm32g4xx_hal_def.h"
 3490              		.file 7 "Drivers/STM32G4xx_HAL_Driver/Inc/stm32g4xx_hal_rcc_ex.h"
 3491              		.file 8 "Drivers/STM32G4xx_HAL_Driver/Inc/stm32g4xx_hal_gpio.h"
 3492              		.file 9 "Drivers/STM32G4xx_HAL_Driver/Inc/stm32g4xx_hal.h"
 3493              		.file 10 "Drivers/STM32G4xx_HAL_Driver/Inc/stm32g4xx_hal_pwr.h"
 3494              		.file 11 "Drivers/STM32G4xx_HAL_Driver/Inc/stm32g4xx_hal_rcc.h"
ARM GAS  C:\Users\HYDROG~1\AppData\Local\Temp\cc0rSm9d.s 			page 106


DEFINED SYMBOLS
                            *ABS*:00000000 stm32g4xx_hal_rcc_ex.c
C:\Users\HYDROG~1\AppData\Local\Temp\cc0rSm9d.s:20     .text.HAL_RCCEx_PeriphCLKConfig:00000000 $t
C:\Users\HYDROG~1\AppData\Local\Temp\cc0rSm9d.s:26     .text.HAL_RCCEx_PeriphCLKConfig:00000000 HAL_RCCEx_PeriphCLKConfig
C:\Users\HYDROG~1\AppData\Local\Temp\cc0rSm9d.s:243    .text.HAL_RCCEx_PeriphCLKConfig:000000e4 $d
C:\Users\HYDROG~1\AppData\Local\Temp\cc0rSm9d.s:250    .text.HAL_RCCEx_PeriphCLKConfig:000000ec $t
C:\Users\HYDROG~1\AppData\Local\Temp\cc0rSm9d.s:649    .text.HAL_RCCEx_PeriphCLKConfig:00000374 $d
C:\Users\HYDROG~1\AppData\Local\Temp\cc0rSm9d.s:654    .text.HAL_RCCEx_GetPeriphCLKConfig:00000000 $t
C:\Users\HYDROG~1\AppData\Local\Temp\cc0rSm9d.s:660    .text.HAL_RCCEx_GetPeriphCLKConfig:00000000 HAL_RCCEx_GetPeriphCLKConfig
C:\Users\HYDROG~1\AppData\Local\Temp\cc0rSm9d.s:798    .text.HAL_RCCEx_GetPeriphCLKConfig:000000d0 $d
C:\Users\HYDROG~1\AppData\Local\Temp\cc0rSm9d.s:804    .text.HAL_RCCEx_GetPeriphCLKFreq:00000000 $t
C:\Users\HYDROG~1\AppData\Local\Temp\cc0rSm9d.s:810    .text.HAL_RCCEx_GetPeriphCLKFreq:00000000 HAL_RCCEx_GetPeriphCLKFreq
C:\Users\HYDROG~1\AppData\Local\Temp\cc0rSm9d.s:879    .text.HAL_RCCEx_GetPeriphCLKFreq:00000052 $d
C:\Users\HYDROG~1\AppData\Local\Temp\cc0rSm9d.s:911    .text.HAL_RCCEx_GetPeriphCLKFreq:00000092 $t
C:\Users\HYDROG~1\AppData\Local\Temp\cc0rSm9d.s:1290   .text.HAL_RCCEx_GetPeriphCLKFreq:000002a4 $d
C:\Users\HYDROG~1\AppData\Local\Temp\cc0rSm9d.s:1297   .text.HAL_RCCEx_GetPeriphCLKFreq:000002b0 $t
C:\Users\HYDROG~1\AppData\Local\Temp\cc0rSm9d.s:1908   .text.HAL_RCCEx_GetPeriphCLKFreq:0000057c $d
C:\Users\HYDROG~1\AppData\Local\Temp\cc0rSm9d.s:1913   .text.HAL_RCCEx_GetPeriphCLKFreq:00000580 $t
C:\Users\HYDROG~1\AppData\Local\Temp\cc0rSm9d.s:2426   .text.HAL_RCCEx_GetPeriphCLKFreq:00000778 $d
C:\Users\HYDROG~1\AppData\Local\Temp\cc0rSm9d.s:2435   .text.HAL_RCCEx_EnableLSECSS:00000000 $t
C:\Users\HYDROG~1\AppData\Local\Temp\cc0rSm9d.s:2441   .text.HAL_RCCEx_EnableLSECSS:00000000 HAL_RCCEx_EnableLSECSS
C:\Users\HYDROG~1\AppData\Local\Temp\cc0rSm9d.s:2458   .text.HAL_RCCEx_EnableLSECSS:00000010 $d
C:\Users\HYDROG~1\AppData\Local\Temp\cc0rSm9d.s:2463   .text.HAL_RCCEx_DisableLSECSS:00000000 $t
C:\Users\HYDROG~1\AppData\Local\Temp\cc0rSm9d.s:2469   .text.HAL_RCCEx_DisableLSECSS:00000000 HAL_RCCEx_DisableLSECSS
C:\Users\HYDROG~1\AppData\Local\Temp\cc0rSm9d.s:2490   .text.HAL_RCCEx_DisableLSECSS:00000018 $d
C:\Users\HYDROG~1\AppData\Local\Temp\cc0rSm9d.s:2495   .text.HAL_RCCEx_EnableLSECSS_IT:00000000 $t
C:\Users\HYDROG~1\AppData\Local\Temp\cc0rSm9d.s:2501   .text.HAL_RCCEx_EnableLSECSS_IT:00000000 HAL_RCCEx_EnableLSECSS_IT
C:\Users\HYDROG~1\AppData\Local\Temp\cc0rSm9d.s:2531   .text.HAL_RCCEx_EnableLSECSS_IT:0000002c $d
C:\Users\HYDROG~1\AppData\Local\Temp\cc0rSm9d.s:2536   .text.HAL_RCCEx_LSECSS_Callback:00000000 $t
C:\Users\HYDROG~1\AppData\Local\Temp\cc0rSm9d.s:2542   .text.HAL_RCCEx_LSECSS_Callback:00000000 HAL_RCCEx_LSECSS_Callback
C:\Users\HYDROG~1\AppData\Local\Temp\cc0rSm9d.s:2555   .text.HAL_RCCEx_LSECSS_IRQHandler:00000000 $t
C:\Users\HYDROG~1\AppData\Local\Temp\cc0rSm9d.s:2561   .text.HAL_RCCEx_LSECSS_IRQHandler:00000000 HAL_RCCEx_LSECSS_IRQHandler
C:\Users\HYDROG~1\AppData\Local\Temp\cc0rSm9d.s:2595   .text.HAL_RCCEx_LSECSS_IRQHandler:0000001c $d
C:\Users\HYDROG~1\AppData\Local\Temp\cc0rSm9d.s:2600   .text.HAL_RCCEx_EnableLSCO:00000000 $t
C:\Users\HYDROG~1\AppData\Local\Temp\cc0rSm9d.s:2606   .text.HAL_RCCEx_EnableLSCO:00000000 HAL_RCCEx_EnableLSCO
C:\Users\HYDROG~1\AppData\Local\Temp\cc0rSm9d.s:2763   .text.HAL_RCCEx_EnableLSCO:00000098 $d
C:\Users\HYDROG~1\AppData\Local\Temp\cc0rSm9d.s:2769   .text.HAL_RCCEx_DisableLSCO:00000000 $t
C:\Users\HYDROG~1\AppData\Local\Temp\cc0rSm9d.s:2775   .text.HAL_RCCEx_DisableLSCO:00000000 HAL_RCCEx_DisableLSCO
C:\Users\HYDROG~1\AppData\Local\Temp\cc0rSm9d.s:2887   .text.HAL_RCCEx_DisableLSCO:00000064 $d
C:\Users\HYDROG~1\AppData\Local\Temp\cc0rSm9d.s:2893   .text.HAL_RCCEx_CRSConfig:00000000 $t
C:\Users\HYDROG~1\AppData\Local\Temp\cc0rSm9d.s:2899   .text.HAL_RCCEx_CRSConfig:00000000 HAL_RCCEx_CRSConfig
C:\Users\HYDROG~1\AppData\Local\Temp\cc0rSm9d.s:2968   .text.HAL_RCCEx_CRSConfig:00000044 $d
C:\Users\HYDROG~1\AppData\Local\Temp\cc0rSm9d.s:2974   .text.HAL_RCCEx_CRSSoftwareSynchronizationGenerate:00000000 $t
C:\Users\HYDROG~1\AppData\Local\Temp\cc0rSm9d.s:2980   .text.HAL_RCCEx_CRSSoftwareSynchronizationGenerate:00000000 HAL_RCCEx_CRSSoftwareSynchronizationGenerate
C:\Users\HYDROG~1\AppData\Local\Temp\cc0rSm9d.s:2997   .text.HAL_RCCEx_CRSSoftwareSynchronizationGenerate:0000000c $d
C:\Users\HYDROG~1\AppData\Local\Temp\cc0rSm9d.s:3002   .text.HAL_RCCEx_CRSGetSynchronizationInfo:00000000 $t
C:\Users\HYDROG~1\AppData\Local\Temp\cc0rSm9d.s:3008   .text.HAL_RCCEx_CRSGetSynchronizationInfo:00000000 HAL_RCCEx_CRSGetSynchronizationInfo
C:\Users\HYDROG~1\AppData\Local\Temp\cc0rSm9d.s:3049   .text.HAL_RCCEx_CRSGetSynchronizationInfo:00000020 $d
C:\Users\HYDROG~1\AppData\Local\Temp\cc0rSm9d.s:3054   .text.HAL_RCCEx_CRSWaitSynchronization:00000000 $t
C:\Users\HYDROG~1\AppData\Local\Temp\cc0rSm9d.s:3060   .text.HAL_RCCEx_CRSWaitSynchronization:00000000 HAL_RCCEx_CRSWaitSynchronization
C:\Users\HYDROG~1\AppData\Local\Temp\cc0rSm9d.s:3251   .text.HAL_RCCEx_CRSWaitSynchronization:000000a8 $d
C:\Users\HYDROG~1\AppData\Local\Temp\cc0rSm9d.s:3256   .text.HAL_RCCEx_CRS_SyncOkCallback:00000000 $t
C:\Users\HYDROG~1\AppData\Local\Temp\cc0rSm9d.s:3262   .text.HAL_RCCEx_CRS_SyncOkCallback:00000000 HAL_RCCEx_CRS_SyncOkCallback
C:\Users\HYDROG~1\AppData\Local\Temp\cc0rSm9d.s:3275   .text.HAL_RCCEx_CRS_SyncWarnCallback:00000000 $t
C:\Users\HYDROG~1\AppData\Local\Temp\cc0rSm9d.s:3281   .text.HAL_RCCEx_CRS_SyncWarnCallback:00000000 HAL_RCCEx_CRS_SyncWarnCallback
C:\Users\HYDROG~1\AppData\Local\Temp\cc0rSm9d.s:3294   .text.HAL_RCCEx_CRS_ExpectedSyncCallback:00000000 $t
C:\Users\HYDROG~1\AppData\Local\Temp\cc0rSm9d.s:3300   .text.HAL_RCCEx_CRS_ExpectedSyncCallback:00000000 HAL_RCCEx_CRS_ExpectedSyncCallback
ARM GAS  C:\Users\HYDROG~1\AppData\Local\Temp\cc0rSm9d.s 			page 107


C:\Users\HYDROG~1\AppData\Local\Temp\cc0rSm9d.s:3313   .text.HAL_RCCEx_CRS_ErrorCallback:00000000 $t
C:\Users\HYDROG~1\AppData\Local\Temp\cc0rSm9d.s:3319   .text.HAL_RCCEx_CRS_ErrorCallback:00000000 HAL_RCCEx_CRS_ErrorCallback
C:\Users\HYDROG~1\AppData\Local\Temp\cc0rSm9d.s:3334   .text.HAL_RCCEx_CRS_IRQHandler:00000000 $t
C:\Users\HYDROG~1\AppData\Local\Temp\cc0rSm9d.s:3340   .text.HAL_RCCEx_CRS_IRQHandler:00000000 HAL_RCCEx_CRS_IRQHandler
C:\Users\HYDROG~1\AppData\Local\Temp\cc0rSm9d.s:3479   .text.HAL_RCCEx_CRS_IRQHandler:00000084 $d

UNDEFINED SYMBOLS
HAL_GetTick
HAL_RCC_GetPCLK2Freq
HAL_RCC_GetSysClockFreq
HAL_RCC_GetPCLK1Freq
HAL_GPIO_Init
HAL_PWR_EnableBkUpAccess
HAL_PWR_DisableBkUpAccess
