ARM GAS  C:\Users\HYDROG~1\AppData\Local\Temp\ccksZwla.s 			page 1


   1              		.cpu cortex-m4
   2              		.arch armv7e-m
   3              		.fpu fpv4-sp-d16
   4              		.eabi_attribute 27, 1
   5              		.eabi_attribute 28, 1
   6              		.eabi_attribute 20, 1
   7              		.eabi_attribute 21, 1
   8              		.eabi_attribute 23, 3
   9              		.eabi_attribute 24, 1
  10              		.eabi_attribute 25, 1
  11              		.eabi_attribute 26, 1
  12              		.eabi_attribute 30, 1
  13              		.eabi_attribute 34, 1
  14              		.eabi_attribute 18, 4
  15              		.file	"supercap.c"
  16              		.text
  17              	.Ltext0:
  18              		.cfi_sections	.debug_frame
  19              		.section	.text.TIM6_NVIC,"ax",%progbits
  20              		.align	1
  21              		.global	TIM6_NVIC
  22              		.syntax unified
  23              		.thumb
  24              		.thumb_func
  26              	TIM6_NVIC:
  27              	.LFB333:
  28              		.file 1 "Core/Src/supercap.c"
   1:Core/Src/supercap.c **** /**
   2:Core/Src/supercap.c ****   ******************************************************************************
   3:Core/Src/supercap.c ****   * @file    supercap.c
   4:Core/Src/supercap.c ****   * @brief   This file provides code for the configuration
   5:Core/Src/supercap.c ****   *          of all used supercap pins.
   6:Core/Src/supercap.c ****   */
   7:Core/Src/supercap.c **** /* USER CODE END Header */
   8:Core/Src/supercap.c **** #include "supercap.h"
   9:Core/Src/supercap.c **** 
  10:Core/Src/supercap.c **** uint8_t PID_flag = 0;
  11:Core/Src/supercap.c **** uint16_t protection_counter = 0;
  12:Core/Src/supercap.c **** uint16_t fault_counter = 0;
  13:Core/Src/supercap.c **** uint16_t temp_current;
  14:Core/Src/supercap.c **** 
  15:Core/Src/supercap.c **** //Timmer
  16:Core/Src/supercap.c **** void HAL_TIM_PeriodElapsedCallback(TIM_HandleTypeDef *htim) {
  17:Core/Src/supercap.c **** 	if(htim->Instance == TIM5){
  18:Core/Src/supercap.c **** 		//HAL_GPIO_WritePin(GPIOB, GPIO_PIN_15, GPIO_PIN_SET);
  19:Core/Src/supercap.c ****     Supercap_FSM();
  20:Core/Src/supercap.c ****     TIM5_NVIC();
  21:Core/Src/supercap.c **** 		//HAL_GPIO_WritePin(GPIOB, GPIO_PIN_15, GPIO_PIN_RESET);
  22:Core/Src/supercap.c **** 	}
  23:Core/Src/supercap.c ****   else if(htim->Instance == TIM2) {
  24:Core/Src/supercap.c ****     //HAL_GPIO_WritePin(GPIOB, GPIO_PIN_15, GPIO_PIN_SET);
  25:Core/Src/supercap.c ****     TIM2_NVIC();
  26:Core/Src/supercap.c ****     //HAL_GPIO_WritePin(GPIOB, GPIO_PIN_15, GPIO_PIN_RESET);
  27:Core/Src/supercap.c **** 		//debug_counter ++;
  28:Core/Src/supercap.c ****   }
  29:Core/Src/supercap.c **** 	else if(htim->Instance == TIM6){
  30:Core/Src/supercap.c **** 		TIM6_NVIC();
ARM GAS  C:\Users\HYDROG~1\AppData\Local\Temp\ccksZwla.s 			page 2


  31:Core/Src/supercap.c **** 		HAL_GPIO_TogglePin(GPIOE,GPIO_PIN_3); //heart
  32:Core/Src/supercap.c **** 	}
  33:Core/Src/supercap.c **** }
  34:Core/Src/supercap.c **** 
  35:Core/Src/supercap.c **** void TIM6_NVIC(){ //10 Hz for can and update the parameters
  29              		.loc 1 35 17 view -0
  30              		.cfi_startproc
  31              		@ args = 0, pretend = 0, frame = 8
  32              		@ frame_needed = 0, uses_anonymous_args = 0
  33 0000 00B5     		push	{lr}
  34              	.LCFI0:
  35              		.cfi_def_cfa_offset 4
  36              		.cfi_offset 14, -4
  37 0002 83B0     		sub	sp, sp, #12
  38              	.LCFI1:
  39              		.cfi_def_cfa_offset 16
  36:Core/Src/supercap.c ****     TxData[0] = (((100.0f *(V_cap.real_value_12bits-700))/2707.0f));
  40              		.loc 1 36 5 view .LVU1
  41              		.loc 1 36 34 is_stmt 0 view .LVU2
  42 0004 124B     		ldr	r3, .L3
  43 0006 9B89     		ldrh	r3, [r3, #12]
  44              		.loc 1 36 52 view .LVU3
  45 0008 A3F52F73 		sub	r3, r3, #700
  46 000c 07EE903A 		vmov	s15, r3	@ int
  47              		.loc 1 36 27 view .LVU4
  48 0010 F8EEE77A 		vcvt.f32.s32	s15, s15
  49 0014 9FED0F7A 		vldr.32	s14, .L3+4
  50 0018 67EE877A 		vmul.f32	s15, s15, s14
  51              		.loc 1 36 58 view .LVU5
  52 001c DFED0E6A 		vldr.32	s13, .L3+8
  53 0020 87EEA67A 		vdiv.f32	s14, s15, s13
  54              		.loc 1 36 15 view .LVU6
  55 0024 FCEEC77A 		vcvt.u32.f32	s15, s14
  56 0028 CDED017A 		vstr.32	s15, [sp, #4]	@ int
  57 002c 9DF80430 		ldrb	r3, [sp, #4]	@ zero_extendqisi2
  58 0030 0A4A     		ldr	r2, .L3+12
  59 0032 1370     		strb	r3, [r2]
  37:Core/Src/supercap.c **** 		temp2 = TxData[0];
  60              		.loc 1 37 3 is_stmt 1 view .LVU7
  61              		.loc 1 37 9 is_stmt 0 view .LVU8
  62 0034 07EE903A 		vmov	s15, r3	@ int
  63 0038 F8EE677A 		vcvt.f32.u32	s15, s15
  64 003c 084B     		ldr	r3, .L3+16
  65 003e C3ED007A 		vstr.32	s15, [r3]
  38:Core/Src/supercap.c **** 		// Send data using FDCAN1
  39:Core/Src/supercap.c ****     if (HAL_FDCAN_AddMessageToTxFifoQ(&hfdcan1, &TxHeader, TxData) != HAL_OK) {
  66              		.loc 1 39 5 is_stmt 1 view .LVU9
  67              		.loc 1 39 9 is_stmt 0 view .LVU10
  68 0042 0849     		ldr	r1, .L3+20
  69 0044 0848     		ldr	r0, .L3+24
  70 0046 FFF7FEFF 		bl	HAL_FDCAN_AddMessageToTxFifoQ
  71              	.LVL0:
  40:Core/Src/supercap.c ****     }
  72              		.loc 1 40 5 is_stmt 1 view .LVU11
  41:Core/Src/supercap.c **** }
  73              		.loc 1 41 1 is_stmt 0 view .LVU12
  74 004a 03B0     		add	sp, sp, #12
ARM GAS  C:\Users\HYDROG~1\AppData\Local\Temp\ccksZwla.s 			page 3


  75              	.LCFI2:
  76              		.cfi_def_cfa_offset 4
  77              		@ sp needed
  78 004c 5DF804FB 		ldr	pc, [sp], #4
  79              	.L4:
  80              		.align	2
  81              	.L3:
  82 0050 00000000 		.word	V_cap
  83 0054 0000C842 		.word	1120403456
  84 0058 00302945 		.word	1160327168
  85 005c 00000000 		.word	TxData
  86 0060 00000000 		.word	temp2
  87 0064 00000000 		.word	TxHeader
  88 0068 00000000 		.word	hfdcan1
  89              		.cfi_endproc
  90              	.LFE333:
  92              		.section	.text.Update_Current,"ax",%progbits
  93              		.align	1
  94              		.global	Update_Current
  95              		.syntax unified
  96              		.thumb
  97              		.thumb_func
  99              	Update_Current:
 100              	.LVL1:
 101              	.LFB336:
  42:Core/Src/supercap.c **** 
  43:Core/Src/supercap.c **** void TIM2_NVIC(){
  44:Core/Src/supercap.c ****   Supercap_First_Order_Filter_ADC_Function_Alpha(&C_sys, 6);
  45:Core/Src/supercap.c ****   Supercap_First_Order_Filter_ADC_Function_Alpha(&C_right, 6);
  46:Core/Src/supercap.c ****   Supercap_First_Order_Filter_ADC_Function_Alpha(&C_left, 4);
  47:Core/Src/supercap.c ****   //Supercap_First_Order_Filter_ADC_Function_Alpha(&ADC4_12,2);
  48:Core/Src/supercap.c ****   Supercap_First_Order_Filter_ADC_Function_Alpha(&V_bat, 2);
  49:Core/Src/supercap.c ****   Supercap_First_Order_Filter_ADC_Function_Alpha(&V_cap, 4);
  50:Core/Src/supercap.c **** }
  51:Core/Src/supercap.c **** 
  52:Core/Src/supercap.c **** void TIM5_NVIC(){
  53:Core/Src/supercap.c **** 	if(PID_flag == 1){
  54:Core/Src/supercap.c **** 		Supercap_PID_Controller_Function(&PID_45W_loop, &C_sys, supercap_max_power_current, ((supercap_ma
  55:Core/Src/supercap.c **** 		Supercap_PID_Controller_Function(&PID_n7A_loop, &C_right, 500, V_cap.real_value_12bits + 400.0f, 
  56:Core/Src/supercap.c **** 		Supercap_PID_Controller_Function(&PID_7A_loop, &C_right, 3500, V_cap.real_value_12bits - 400.0f, 
  57:Core/Src/supercap.c ****     supercap_target_voltage = Supercap_Compare(PID_45W_loop.output, PID_n7A_loop.output, PID_7A_loo
  58:Core/Src/supercap.c ****     //supercap_target_voltage = PID_45W_loop.output;
  59:Core/Src/supercap.c ****     supercap_target_voltage = Supercap_Limit(supercap_target_voltage, 2800, 0);
  60:Core/Src/supercap.c **** 		Supercap_PID_Controller_Function(&PID_voltage_loop, &V_cap, supercap_target_voltage, supercap_tar
  61:Core/Src/supercap.c **** 		Supercap_PWM_left(PID_voltage_loop.output);
  62:Core/Src/supercap.c **** 	}
  63:Core/Src/supercap.c **** }
  64:Core/Src/supercap.c **** 
  65:Core/Src/supercap.c **** uint16_t Update_Current(uint16_t old_power, uint16_t new_power){
 102              		.loc 1 65 64 is_stmt 1 view -0
 103              		.cfi_startproc
 104              		@ args = 0, pretend = 0, frame = 0
 105              		@ frame_needed = 0, uses_anonymous_args = 0
 106              		@ link register save eliminated.
 107              		.loc 1 65 64 is_stmt 0 view .LVU14
 108 0000 07EE901A 		vmov	s15, r1	@ int
  66:Core/Src/supercap.c **** 	temp_current = (1.65f*4095.0f/3.3f)+(((new_power * 0.95f) / 24.0f)*0.005f)*25.0f*4095.0f/3.3f;
ARM GAS  C:\Users\HYDROG~1\AppData\Local\Temp\ccksZwla.s 			page 4


 109              		.loc 1 66 2 is_stmt 1 view .LVU15
 110              		.loc 1 66 51 is_stmt 0 view .LVU16
 111 0004 F8EEE77A 		vcvt.f32.s32	s15, s15
 112 0008 9FED167A 		vldr.32	s14, .L7
 113 000c 67EE877A 		vmul.f32	s15, s15, s14
 114              		.loc 1 66 60 view .LVU17
 115 0010 F3EE086A 		vmov.f32	s13, #2.4e+1
 116 0014 87EEA67A 		vdiv.f32	s14, s15, s13
 117              		.loc 1 66 68 view .LVU18
 118 0018 DFED137A 		vldr.32	s15, .L7+4
 119 001c 27EE277A 		vmul.f32	s14, s14, s15
 120              		.loc 1 66 76 view .LVU19
 121 0020 F3EE097A 		vmov.f32	s15, #2.5e+1
 122 0024 27EE277A 		vmul.f32	s14, s14, s15
 123              		.loc 1 66 82 view .LVU20
 124 0028 DFED107A 		vldr.32	s15, .L7+8
 125 002c 27EE277A 		vmul.f32	s14, s14, s15
 126              		.loc 1 66 90 view .LVU21
 127 0030 DFED0F6A 		vldr.32	s13, .L7+12
 128 0034 C7EE267A 		vdiv.f32	s15, s14, s13
 129              		.loc 1 66 37 view .LVU22
 130 0038 9FED0E7A 		vldr.32	s14, .L7+16
 131 003c 77EE877A 		vadd.f32	s15, s15, s14
 132              		.loc 1 66 15 view .LVU23
 133 0040 FCEEE77A 		vcvt.u32.f32	s15, s15
 134 0044 17EE903A 		vmov	r3, s15	@ int
 135 0048 9BB2     		uxth	r3, r3
 136 004a 0B4A     		ldr	r2, .L7+20
 137 004c 1380     		strh	r3, [r2]	@ movhi
  67:Core/Src/supercap.c **** 	if(temp_current >= 2040 && temp_current <= 3000){
 138              		.loc 1 67 2 is_stmt 1 view .LVU24
 139              		.loc 1 67 26 is_stmt 0 view .LVU25
 140 004e A3F5FF62 		sub	r2, r3, #2040
 141 0052 92B2     		uxth	r2, r2
 142              		.loc 1 67 4 view .LVU26
 143 0054 B2F5707F 		cmp	r2, #960
 144 0058 01D8     		bhi	.L6
  68:Core/Src/supercap.c **** 	supercap_max_power_current = temp_current;
 145              		.loc 1 68 2 is_stmt 1 view .LVU27
 146              		.loc 1 68 29 is_stmt 0 view .LVU28
 147 005a 084A     		ldr	r2, .L7+24
 148 005c 1380     		strh	r3, [r2]	@ movhi
 149              	.L6:
  69:Core/Src/supercap.c **** 	}
  70:Core/Src/supercap.c ****   return(1);
 150              		.loc 1 70 3 is_stmt 1 view .LVU29
  71:Core/Src/supercap.c **** }
 151              		.loc 1 71 1 is_stmt 0 view .LVU30
 152 005e 0120     		movs	r0, #1
 153              	.LVL2:
 154              		.loc 1 71 1 view .LVU31
 155 0060 7047     		bx	lr
 156              	.L8:
 157 0062 00BF     		.align	2
 158              	.L7:
 159 0064 3333733F 		.word	1064514355
 160 0068 0AD7A33B 		.word	1000593162
ARM GAS  C:\Users\HYDROG~1\AppData\Local\Temp\ccksZwla.s 			page 5


 161 006c 00F07F45 		.word	1166012416
 162 0070 33335340 		.word	1079194419
 163 0074 00F0FF44 		.word	1157623808
 164 0078 00000000 		.word	.LANCHOR0
 165 007c 00000000 		.word	supercap_max_power_current
 166              		.cfi_endproc
 167              	.LFE336:
 169              		.section	.text.Supercap_PID_Controller_Function,"ax",%progbits
 170              		.align	1
 171              		.global	Supercap_PID_Controller_Function
 172              		.syntax unified
 173              		.thumb
 174              		.thumb_func
 176              	Supercap_PID_Controller_Function:
 177              	.LVL3:
 178              	.LFB337:
  72:Core/Src/supercap.c **** 
  73:Core/Src/supercap.c **** void Supercap_PID_Controller_Function(_Supercap_PID_Controller_t *pid_controller, _ADC_Sample_t *ad
 179              		.loc 1 73 163 is_stmt 1 view -0
 180              		.cfi_startproc
 181              		@ args = 0, pretend = 0, frame = 0
 182              		@ frame_needed = 0, uses_anonymous_args = 0
 183              		@ link register save eliminated.
  74:Core/Src/supercap.c **** 	pid_controller->error = target - adc_sample->real_value_12bits + input_offset;
 184              		.loc 1 74 2 view .LVU33
 185              		.loc 1 74 45 is_stmt 0 view .LVU34
 186 0000 8989     		ldrh	r1, [r1, #12]
 187              	.LVL4:
 188              		.loc 1 74 33 view .LVU35
 189 0002 521A     		subs	r2, r2, r1
 190              	.LVL5:
 191              		.loc 1 74 65 view .LVU36
 192 0004 13FA82F2 		uxtah	r2, r3, r2
 193 0008 12B2     		sxth	r2, r2
 194              		.loc 1 74 24 view .LVU37
 195 000a 8281     		strh	r2, [r0, #12]	@ movhi
  75:Core/Src/supercap.c ****   pid_controller->error_sum += pid_controller->error * pid_controller->Ki;
 196              		.loc 1 75 3 is_stmt 1 view .LVU38
 197              		.loc 1 75 54 is_stmt 0 view .LVU39
 198 000c 07EE902A 		vmov	s15, r2	@ int
 199 0010 F8EEE77A 		vcvt.f32.s32	s15, s15
 200              		.loc 1 75 70 view .LVU40
 201 0014 90ED017A 		vldr.32	s14, [r0, #4]
 202              		.loc 1 75 54 view .LVU41
 203 0018 27EE877A 		vmul.f32	s14, s15, s14
 204              		.loc 1 75 29 view .LVU42
 205 001c D0ED046A 		vldr.32	s13, [r0, #16]
 206 0020 37EE267A 		vadd.f32	s14, s14, s13
 207 0024 80ED047A 		vstr.32	s14, [r0, #16]
  76:Core/Src/supercap.c ****   if(pid_controller->error_sum > pid_controller->I_max)
 208              		.loc 1 76 3 is_stmt 1 view .LVU43
 209              		.loc 1 76 48 is_stmt 0 view .LVU44
 210 0028 B0F91A30 		ldrsh	r3, [r0, #26]
 211              	.LVL6:
 212              		.loc 1 76 32 view .LVU45
 213 002c 06EE903A 		vmov	s13, r3	@ int
 214 0030 F8EEE66A 		vcvt.f32.s32	s13, s13
ARM GAS  C:\Users\HYDROG~1\AppData\Local\Temp\ccksZwla.s 			page 6


 215              		.loc 1 76 5 view .LVU46
 216 0034 B4EEE67A 		vcmpe.f32	s14, s13
 217 0038 F1EE10FA 		vmrs	APSR_nzcv, FPSCR
 218 003c 25DD     		ble	.L18
  77:Core/Src/supercap.c ****   {pid_controller->error_sum = pid_controller->I_max;}
 219              		.loc 1 77 4 is_stmt 1 view .LVU47
 220              		.loc 1 77 30 is_stmt 0 view .LVU48
 221 003e C0ED046A 		vstr.32	s13, [r0, #16]
 222              	.L12:
  78:Core/Src/supercap.c ****   else if(pid_controller->error_sum < -pid_controller->I_max)
  79:Core/Src/supercap.c ****   {pid_controller->error_sum = -pid_controller->I_max;}
  80:Core/Src/supercap.c ****   pid_controller->output = pid_controller->Kp*pid_controller->error + pid_controller->error_sum + p
 223              		.loc 1 80 3 is_stmt 1 view .LVU49
 224              		.loc 1 80 42 is_stmt 0 view .LVU50
 225 0042 90ED007A 		vldr.32	s14, [r0]
 226              		.loc 1 80 46 view .LVU51
 227 0046 67EE877A 		vmul.f32	s15, s15, s14
 228              		.loc 1 80 85 view .LVU52
 229 004a 90ED047A 		vldr.32	s14, [r0, #16]
 230              		.loc 1 80 69 view .LVU53
 231 004e 77EE877A 		vadd.f32	s15, s15, s14
 232              		.loc 1 80 113 view .LVU54
 233 0052 D0ED026A 		vldr.32	s13, [r0, #8]
 234              		.loc 1 80 157 view .LVU55
 235 0056 B0F90E30 		ldrsh	r3, [r0, #14]
 236              		.loc 1 80 141 view .LVU56
 237 005a D31A     		subs	r3, r2, r3
 238 005c 07EE103A 		vmov	s14, r3	@ int
 239              		.loc 1 80 117 view .LVU57
 240 0060 B8EEC77A 		vcvt.f32.s32	s14, s14
 241 0064 27EE267A 		vmul.f32	s14, s14, s13
 242              		.loc 1 80 97 view .LVU58
 243 0068 77EE877A 		vadd.f32	s15, s15, s14
 244              		.loc 1 80 171 view .LVU59
 245 006c 37EE800A 		vadd.f32	s0, s15, s0
 246              	.LVL7:
 247              		.loc 1 80 26 view .LVU60
 248 0070 BDEEC00A 		vcvt.s32.f32	s0, s0
 249 0074 10EE103A 		vmov	r3, s0	@ int
 250 0078 1BB2     		sxth	r3, r3
 251 007a 8382     		strh	r3, [r0, #20]	@ movhi
  81:Core/Src/supercap.c ****   pid_controller->error_last = pid_controller->error;
 252              		.loc 1 81 3 is_stmt 1 view .LVU61
 253              		.loc 1 81 30 is_stmt 0 view .LVU62
 254 007c C281     		strh	r2, [r0, #14]	@ movhi
  82:Core/Src/supercap.c ****   if(pid_controller->output > pid_controller->output_max)
 255              		.loc 1 82 3 is_stmt 1 view .LVU63
 256              		.loc 1 82 45 is_stmt 0 view .LVU64
 257 007e B0F91620 		ldrsh	r2, [r0, #22]
 258              		.loc 1 82 5 view .LVU65
 259 0082 9342     		cmp	r3, r2
 260 0084 0EDD     		ble	.L14
  83:Core/Src/supercap.c ****   {pid_controller->output = pid_controller->output_max;}
 261              		.loc 1 83 4 is_stmt 1 view .LVU66
 262              		.loc 1 83 27 is_stmt 0 view .LVU67
 263 0086 8282     		strh	r2, [r0, #20]	@ movhi
 264 0088 7047     		bx	lr
ARM GAS  C:\Users\HYDROG~1\AppData\Local\Temp\ccksZwla.s 			page 7


 265              	.LVL8:
 266              	.L18:
  78:Core/Src/supercap.c ****   {pid_controller->error_sum = -pid_controller->I_max;}
 267              		.loc 1 78 8 is_stmt 1 view .LVU68
  78:Core/Src/supercap.c ****   {pid_controller->error_sum = -pid_controller->I_max;}
 268              		.loc 1 78 39 is_stmt 0 view .LVU69
 269 008a 5B42     		rsbs	r3, r3, #0
  78:Core/Src/supercap.c ****   {pid_controller->error_sum = -pid_controller->I_max;}
 270              		.loc 1 78 37 view .LVU70
 271 008c 06EE903A 		vmov	s13, r3	@ int
 272 0090 F8EEE66A 		vcvt.f32.s32	s13, s13
  78:Core/Src/supercap.c ****   {pid_controller->error_sum = -pid_controller->I_max;}
 273              		.loc 1 78 10 view .LVU71
 274 0094 B4EEE67A 		vcmpe.f32	s14, s13
 275 0098 F1EE10FA 		vmrs	APSR_nzcv, FPSCR
 276 009c D1D5     		bpl	.L12
  79:Core/Src/supercap.c ****   pid_controller->output = pid_controller->Kp*pid_controller->error + pid_controller->error_sum + p
 277              		.loc 1 79 4 is_stmt 1 view .LVU72
  79:Core/Src/supercap.c ****   pid_controller->output = pid_controller->Kp*pid_controller->error + pid_controller->error_sum + p
 278              		.loc 1 79 30 is_stmt 0 view .LVU73
 279 009e C0ED046A 		vstr.32	s13, [r0, #16]
 280 00a2 CEE7     		b	.L12
 281              	.LVL9:
 282              	.L14:
  84:Core/Src/supercap.c ****   else if(pid_controller->output < pid_controller->output_min)
 283              		.loc 1 84 8 is_stmt 1 view .LVU74
 284              		.loc 1 84 50 is_stmt 0 view .LVU75
 285 00a4 B0F91820 		ldrsh	r2, [r0, #24]
 286              		.loc 1 84 10 view .LVU76
 287 00a8 9342     		cmp	r3, r2
 288 00aa 00DA     		bge	.L9
  85:Core/Src/supercap.c ****   {pid_controller->output = pid_controller->output_min;}
 289              		.loc 1 85 4 is_stmt 1 view .LVU77
 290              		.loc 1 85 27 is_stmt 0 view .LVU78
 291 00ac 8282     		strh	r2, [r0, #20]	@ movhi
 292              	.L9:
  86:Core/Src/supercap.c **** }
 293              		.loc 1 86 1 view .LVU79
 294 00ae 7047     		bx	lr
 295              		.cfi_endproc
 296              	.LFE337:
 298              		.section	.text.Supercap_Compare,"ax",%progbits
 299              		.align	1
 300              		.global	Supercap_Compare
 301              		.syntax unified
 302              		.thumb
 303              		.thumb_func
 305              	Supercap_Compare:
 306              	.LVL10:
 307              	.LFB338:
  87:Core/Src/supercap.c **** 
  88:Core/Src/supercap.c **** int16_t Supercap_Compare(int16_t Output1, int16_t Output2, int16_t Output3){
 308              		.loc 1 88 76 is_stmt 1 view -0
 309              		.cfi_startproc
 310              		@ args = 0, pretend = 0, frame = 0
 311              		@ frame_needed = 0, uses_anonymous_args = 0
 312              		@ link register save eliminated.
ARM GAS  C:\Users\HYDROG~1\AppData\Local\Temp\ccksZwla.s 			page 8


  89:Core/Src/supercap.c ****   if ((Output1 >= Output2 && Output1 <= Output3) || (Output1 <= Output2 && Output1 >= Output3)) {
 313              		.loc 1 89 3 view .LVU81
 314              		.loc 1 89 6 is_stmt 0 view .LVU82
 315 0000 8842     		cmp	r0, r1
 316 0002 01DB     		blt	.L20
 317              		.loc 1 89 27 discriminator 1 view .LVU83
 318 0004 9042     		cmp	r0, r2
 319 0006 12DD     		ble	.L21
 320              	.L20:
 321              		.loc 1 89 50 discriminator 3 view .LVU84
 322 0008 8842     		cmp	r0, r1
 323 000a 01DC     		bgt	.L22
 324              		.loc 1 89 73 discriminator 4 view .LVU85
 325 000c 9042     		cmp	r0, r2
 326 000e 0EDA     		bge	.L21
 327              	.L22:
  90:Core/Src/supercap.c ****     return Output1;
  91:Core/Src/supercap.c ****   } else if ((Output2 >= Output1 && Output2 <= Output3) || (Output2 <= Output1 && Output2 >= Output
 328              		.loc 1 91 10 is_stmt 1 view .LVU86
 329              		.loc 1 91 13 is_stmt 0 view .LVU87
 330 0010 8842     		cmp	r0, r1
 331 0012 01DC     		bgt	.L23
 332              		.loc 1 91 34 discriminator 1 view .LVU88
 333 0014 9142     		cmp	r1, r2
 334 0016 05DD     		ble	.L26
 335              	.L23:
 336              		.loc 1 91 57 discriminator 3 view .LVU89
 337 0018 8842     		cmp	r0, r1
 338 001a 05DB     		blt	.L27
 339              		.loc 1 91 80 discriminator 4 view .LVU90
 340 001c 9142     		cmp	r1, r2
 341 001e 05DA     		bge	.L28
  92:Core/Src/supercap.c ****     return Output2;
  93:Core/Src/supercap.c ****   } else {
  94:Core/Src/supercap.c ****     return Output3;
 342              		.loc 1 94 12 view .LVU91
 343 0020 1046     		mov	r0, r2
 344              	.LVL11:
 345              		.loc 1 94 12 view .LVU92
 346 0022 7047     		bx	lr
 347              	.LVL12:
 348              	.L26:
  92:Core/Src/supercap.c ****     return Output2;
 349              		.loc 1 92 12 view .LVU93
 350 0024 0846     		mov	r0, r1
 351              	.LVL13:
  92:Core/Src/supercap.c ****     return Output2;
 352              		.loc 1 92 12 view .LVU94
 353 0026 7047     		bx	lr
 354              	.LVL14:
 355              	.L27:
 356              		.loc 1 94 12 view .LVU95
 357 0028 1046     		mov	r0, r2
 358              	.LVL15:
 359              		.loc 1 94 12 view .LVU96
 360 002a 7047     		bx	lr
 361              	.LVL16:
ARM GAS  C:\Users\HYDROG~1\AppData\Local\Temp\ccksZwla.s 			page 9


 362              	.L28:
  92:Core/Src/supercap.c ****     return Output2;
 363              		.loc 1 92 12 view .LVU97
 364 002c 0846     		mov	r0, r1
 365              	.LVL17:
 366              	.L21:
  95:Core/Src/supercap.c ****   }
  96:Core/Src/supercap.c **** }
 367              		.loc 1 96 1 view .LVU98
 368 002e 7047     		bx	lr
 369              		.cfi_endproc
 370              	.LFE338:
 372              		.section	.text.Supercap_Limit,"ax",%progbits
 373              		.align	1
 374              		.global	Supercap_Limit
 375              		.syntax unified
 376              		.thumb
 377              		.thumb_func
 379              	Supercap_Limit:
 380              	.LVL18:
 381              	.LFB339:
  97:Core/Src/supercap.c **** 
  98:Core/Src/supercap.c **** int16_t Supercap_Limit(int16_t input, int16_t max, int16_t min){
 382              		.loc 1 98 64 is_stmt 1 view -0
 383              		.cfi_startproc
 384              		@ args = 0, pretend = 0, frame = 0
 385              		@ frame_needed = 0, uses_anonymous_args = 0
 386              		@ link register save eliminated.
  99:Core/Src/supercap.c ****   if (input > max) {
 387              		.loc 1 99 3 view .LVU100
 388              		.loc 1 99 6 is_stmt 0 view .LVU101
 389 0000 8842     		cmp	r0, r1
 390 0002 03DC     		bgt	.L31
 100:Core/Src/supercap.c ****     return max;
 101:Core/Src/supercap.c ****   } else if (input < min) {
 391              		.loc 1 101 10 is_stmt 1 view .LVU102
 392              		.loc 1 101 13 is_stmt 0 view .LVU103
 393 0004 9042     		cmp	r0, r2
 394 0006 02DA     		bge	.L30
 102:Core/Src/supercap.c ****     return min;
 395              		.loc 1 102 12 view .LVU104
 396 0008 1046     		mov	r0, r2
 397              	.LVL19:
 398              		.loc 1 102 12 view .LVU105
 399 000a 7047     		bx	lr
 400              	.LVL20:
 401              	.L31:
 100:Core/Src/supercap.c ****     return max;
 402              		.loc 1 100 12 view .LVU106
 403 000c 0846     		mov	r0, r1
 404              	.LVL21:
 405              	.L30:
 103:Core/Src/supercap.c ****   } else {
 104:Core/Src/supercap.c ****     return input;
 105:Core/Src/supercap.c ****   }
 106:Core/Src/supercap.c **** }
 406              		.loc 1 106 1 view .LVU107
ARM GAS  C:\Users\HYDROG~1\AppData\Local\Temp\ccksZwla.s 			page 10


 407 000e 7047     		bx	lr
 408              		.cfi_endproc
 409              	.LFE339:
 411              		.section	.text.Supercap_Average_ADC_Function,"ax",%progbits
 412              		.align	1
 413              		.global	Supercap_Average_ADC_Function
 414              		.syntax unified
 415              		.thumb
 416              		.thumb_func
 418              	Supercap_Average_ADC_Function:
 419              	.LVL22:
 420              	.LFB341:
 107:Core/Src/supercap.c **** 
 108:Core/Src/supercap.c **** void Supercap_FSM(){
 109:Core/Src/supercap.c ****   //Protection
 110:Core/Src/supercap.c ****   if(V_cap.real_value_12bits < VOLTAGE_LIMIT && C_sys.real_value_12bits > CURRENT_LIMIT){
 111:Core/Src/supercap.c **** 		fault_counter++;
 112:Core/Src/supercap.c **** 		if(fault_counter >= 100){
 113:Core/Src/supercap.c **** 			Supercap_DCDC_Stop();
 114:Core/Src/supercap.c **** 			Supercap_AUX_BlueLED(60);
 115:Core/Src/supercap.c **** 			Supercap_AUX_YellowLED(60);
 116:Core/Src/supercap.c ****       Supercap_AUX_MachineSpirit(0);
 117:Core/Src/supercap.c **** 			//Supercap_AUX_Buzzer(80, 11);
 118:Core/Src/supercap.c **** 			CAP_STATE = FAULT;
 119:Core/Src/supercap.c **** 			fault_counter = 0;
 120:Core/Src/supercap.c **** 		}
 121:Core/Src/supercap.c ****   } else{
 122:Core/Src/supercap.c **** 		//fault_counter--;
 123:Core/Src/supercap.c **** 	}
 124:Core/Src/supercap.c ****   
 125:Core/Src/supercap.c ****   if(C_right.real_value_12bits > 4063 || C_right.real_value_12bits < 31){
 126:Core/Src/supercap.c **** 		fault_counter++;
 127:Core/Src/supercap.c **** 		if(fault_counter >= 2){
 128:Core/Src/supercap.c **** 			Supercap_DCDC_Stop();
 129:Core/Src/supercap.c **** 			Supercap_AUX_BlueLED(60);
 130:Core/Src/supercap.c **** 			Supercap_AUX_YellowLED(60);
 131:Core/Src/supercap.c ****       Supercap_AUX_MachineSpirit(0);
 132:Core/Src/supercap.c **** 			//Supercap_AUX_Buzzer(80, -1);
 133:Core/Src/supercap.c **** 			CAP_STATE = FAULT;
 134:Core/Src/supercap.c **** 			fault_counter = 0;
 135:Core/Src/supercap.c **** 		}
 136:Core/Src/supercap.c ****   } else{
 137:Core/Src/supercap.c **** 		fault_counter--;
 138:Core/Src/supercap.c **** 	}
 139:Core/Src/supercap.c ****   if(C_right.real_value_12bits > 3600 || C_right.real_value_12bits < 496){
 140:Core/Src/supercap.c **** 		fault_counter++;
 141:Core/Src/supercap.c **** 		if(fault_counter >= 700){
 142:Core/Src/supercap.c **** 			Supercap_AUX_BlueLED(60);
 143:Core/Src/supercap.c **** 			Supercap_AUX_YellowLED(60);
 144:Core/Src/supercap.c ****       Supercap_AUX_MachineSpirit(0);
 145:Core/Src/supercap.c **** 			Supercap_DCDC_Stop();
 146:Core/Src/supercap.c **** 			//Supercap_AUX_Buzzer(80, 1);
 147:Core/Src/supercap.c **** 			CAP_STATE = FAULT;
 148:Core/Src/supercap.c **** 			fault_counter = 0;
 149:Core/Src/supercap.c **** 		}
 150:Core/Src/supercap.c ****   }	else{
 151:Core/Src/supercap.c **** 		fault_counter--;
ARM GAS  C:\Users\HYDROG~1\AppData\Local\Temp\ccksZwla.s 			page 11


 152:Core/Src/supercap.c **** 	}
 153:Core/Src/supercap.c **** 
 154:Core/Src/supercap.c ****   //State switch
 155:Core/Src/supercap.c ****   switch(CAP_STATE){
 156:Core/Src/supercap.c ****     case INIT:
 157:Core/Src/supercap.c ****       if(V_cap.real_value_12bits > 30){
 158:Core/Src/supercap.c **** 		    //  if(1){
 159:Core/Src/supercap.c ****         Supercap_AUX_YellowLED(60);
 160:Core/Src/supercap.c **** 				Supercap_AUX_BlueLED(0);
 161:Core/Src/supercap.c ****         Supercap_AUX_MachineSpirit(0);
 162:Core/Src/supercap.c ****         CAP_STATE = READY;
 163:Core/Src/supercap.c ****         }
 164:Core/Src/supercap.c ****     case READY:
 165:Core/Src/supercap.c ****       if(V_cap.real_value_12bits > 50){
 166:Core/Src/supercap.c ****       //if(1){
 167:Core/Src/supercap.c ****         CAP_STATE = RUNNING;
 168:Core/Src/supercap.c **** 				Supercap_AUX_YellowLED(0);
 169:Core/Src/supercap.c **** 				Supercap_AUX_BlueLED(0);
 170:Core/Src/supercap.c ****         Supercap_AUX_MachineSpirit(60);
 171:Core/Src/supercap.c **** 				Supercap_DCDC_Start();
 172:Core/Src/supercap.c ****       }
 173:Core/Src/supercap.c ****       break;
 174:Core/Src/supercap.c ****     case RUNNING:
 175:Core/Src/supercap.c ****       if(V_bat.real_value_12bits < 2256 && C_sys.real_value_12bits < 2047){
 176:Core/Src/supercap.c **** 			//if(C_sys.real_value_12bits < 2020){
 177:Core/Src/supercap.c ****         CAP_STATE = STOP;
 178:Core/Src/supercap.c **** 				Supercap_DCDC_Stop();
 179:Core/Src/supercap.c ****         Supercap_AUX_MachineSpirit(0);
 180:Core/Src/supercap.c **** 				Supercap_AUX_BlueLED(0);
 181:Core/Src/supercap.c **** 				Supercap_AUX_YellowLED(0);
 182:Core/Src/supercap.c ****       }
 183:Core/Src/supercap.c ****       break;
 184:Core/Src/supercap.c ****     case STOP:
 185:Core/Src/supercap.c **** 			if(V_bat.real_value_12bits > 2256 && C_sys.real_value_12bits > 2047){
 186:Core/Src/supercap.c ****         CAP_STATE = READY;
 187:Core/Src/supercap.c **** 				Supercap_AUX_BlueLED(0);
 188:Core/Src/supercap.c **** 				Supercap_AUX_YellowLED(80);
 189:Core/Src/supercap.c ****         Supercap_AUX_MachineSpirit(0);
 190:Core/Src/supercap.c **** 			}
 191:Core/Src/supercap.c ****       break;
 192:Core/Src/supercap.c ****     case FAULT:
 193:Core/Src/supercap.c **** 			if(protection_counter >= 1000 && C_sys.real_value_12bits < CURRENT_LIMIT){
 194:Core/Src/supercap.c **** 				CAP_STATE = READY;
 195:Core/Src/supercap.c **** 				Supercap_AUX_BlueLED(0);
 196:Core/Src/supercap.c **** 				Supercap_AUX_YellowLED(80);
 197:Core/Src/supercap.c ****         Supercap_AUX_MachineSpirit(0);
 198:Core/Src/supercap.c **** 			}
 199:Core/Src/supercap.c ****       break;
 200:Core/Src/supercap.c ****   }
 201:Core/Src/supercap.c **** 
 202:Core/Src/supercap.c ****   //State output
 203:Core/Src/supercap.c ****   switch(CAP_STATE){
 204:Core/Src/supercap.c **** 		case INIT:
 205:Core/Src/supercap.c **** 			PID_flag = 0;
 206:Core/Src/supercap.c ****       protection_counter = 0;
 207:Core/Src/supercap.c **** 			break;
 208:Core/Src/supercap.c ****     case READY:
ARM GAS  C:\Users\HYDROG~1\AppData\Local\Temp\ccksZwla.s 			page 12


 209:Core/Src/supercap.c ****       PID_flag = 0;
 210:Core/Src/supercap.c ****       protection_counter = 0;
 211:Core/Src/supercap.c ****       break;
 212:Core/Src/supercap.c ****     case RUNNING:
 213:Core/Src/supercap.c **** 			PID_flag = 1;
 214:Core/Src/supercap.c ****       break;
 215:Core/Src/supercap.c ****     case STOP:
 216:Core/Src/supercap.c **** 			PID_flag = 0;
 217:Core/Src/supercap.c ****       break;
 218:Core/Src/supercap.c ****     case FAULT:
 219:Core/Src/supercap.c ****       Supercap_PID_Reset(&PID_45W_loop);
 220:Core/Src/supercap.c ****       Supercap_PID_Reset(&PID_n7A_loop);
 221:Core/Src/supercap.c ****       Supercap_PID_Reset(&PID_7A_loop);
 222:Core/Src/supercap.c ****       Supercap_PID_Reset(&PID_voltage_loop);
 223:Core/Src/supercap.c ****       protection_counter++;
 224:Core/Src/supercap.c ****       break;
 225:Core/Src/supercap.c ****   }
 226:Core/Src/supercap.c **** 
 227:Core/Src/supercap.c **** }
 228:Core/Src/supercap.c **** 
 229:Core/Src/supercap.c **** void Supercap_Average_ADC_Function(_ADC_Sample_t *adc_sample) {
 421              		.loc 1 229 63 is_stmt 1 view -0
 422              		.cfi_startproc
 423              		@ args = 0, pretend = 0, frame = 0
 424              		@ frame_needed = 0, uses_anonymous_args = 0
 425              		@ link register save eliminated.
 230:Core/Src/supercap.c ****     if(adc_sample->count == 0){
 426              		.loc 1 230 5 view .LVU109
 427              		.loc 1 230 18 is_stmt 0 view .LVU110
 428 0000 0379     		ldrb	r3, [r0, #4]	@ zero_extendqisi2
 429              		.loc 1 230 7 view .LVU111
 430 0002 33B9     		cbnz	r3, .L34
 231:Core/Src/supercap.c ****       adc_sample->average = *(adc_sample->sample);
 431              		.loc 1 231 7 is_stmt 1 view .LVU112
 432              		.loc 1 231 41 is_stmt 0 view .LVU113
 433 0004 0368     		ldr	r3, [r0]
 434              		.loc 1 231 29 view .LVU114
 435 0006 1B88     		ldrh	r3, [r3]
 436              		.loc 1 231 27 view .LVU115
 437 0008 C380     		strh	r3, [r0, #6]	@ movhi
 232:Core/Src/supercap.c ****       adc_sample->history_sum = adc_sample->average << 2;
 438              		.loc 1 232 7 is_stmt 1 view .LVU116
 439              		.loc 1 232 53 is_stmt 0 view .LVU117
 440 000a 9B00     		lsls	r3, r3, #2
 441              		.loc 1 232 31 view .LVU118
 442 000c 8360     		str	r3, [r0, #8]
 233:Core/Src/supercap.c ****       adc_sample->count = 1;
 443              		.loc 1 233 7 is_stmt 1 view .LVU119
 444              		.loc 1 233 25 is_stmt 0 view .LVU120
 445 000e 0123     		movs	r3, #1
 446 0010 0371     		strb	r3, [r0, #4]
 447              	.L34:
 234:Core/Src/supercap.c ****     }
 235:Core/Src/supercap.c ****     adc_sample->history_sum = adc_sample->history_sum - adc_sample->average + *(adc_sample->sample)
 448              		.loc 1 235 5 is_stmt 1 view .LVU121
 449              		.loc 1 235 41 is_stmt 0 view .LVU122
 450 0012 8368     		ldr	r3, [r0, #8]
ARM GAS  C:\Users\HYDROG~1\AppData\Local\Temp\ccksZwla.s 			page 13


 451              		.loc 1 235 67 view .LVU123
 452 0014 C288     		ldrh	r2, [r0, #6]
 453              		.loc 1 235 55 view .LVU124
 454 0016 9B1A     		subs	r3, r3, r2
 455              		.loc 1 235 91 view .LVU125
 456 0018 0268     		ldr	r2, [r0]
 457              		.loc 1 235 79 view .LVU126
 458 001a 1288     		ldrh	r2, [r2]
 459              		.loc 1 235 77 view .LVU127
 460 001c 1344     		add	r3, r3, r2
 461              		.loc 1 235 29 view .LVU128
 462 001e 8360     		str	r3, [r0, #8]
 236:Core/Src/supercap.c ****     adc_sample->average = adc_sample->history_sum >> 2;
 463              		.loc 1 236 5 is_stmt 1 view .LVU129
 464              		.loc 1 236 25 is_stmt 0 view .LVU130
 465 0020 C3F38F03 		ubfx	r3, r3, #2, #16
 466 0024 C380     		strh	r3, [r0, #6]	@ movhi
 237:Core/Src/supercap.c ****     adc_sample->real_value_12bits = (adc_sample->average);
 467              		.loc 1 237 5 is_stmt 1 view .LVU131
 468              		.loc 1 237 35 is_stmt 0 view .LVU132
 469 0026 8381     		strh	r3, [r0, #12]	@ movhi
 238:Core/Src/supercap.c **** }
 470              		.loc 1 238 1 view .LVU133
 471 0028 7047     		bx	lr
 472              		.cfi_endproc
 473              	.LFE341:
 475              		.section	.text.Supercap_First_Order_Filter_ADC_Function,"ax",%progbits
 476              		.align	1
 477              		.global	Supercap_First_Order_Filter_ADC_Function
 478              		.syntax unified
 479              		.thumb
 480              		.thumb_func
 482              	Supercap_First_Order_Filter_ADC_Function:
 483              	.LVL23:
 484              	.LFB342:
 239:Core/Src/supercap.c **** 
 240:Core/Src/supercap.c **** void Supercap_First_Order_Filter_ADC_Function(_ADC_Sample_t *adc_sample) {
 485              		.loc 1 240 74 is_stmt 1 view -0
 486              		.cfi_startproc
 487              		@ args = 0, pretend = 0, frame = 0
 488              		@ frame_needed = 0, uses_anonymous_args = 0
 489              		@ link register save eliminated.
 241:Core/Src/supercap.c **** 			adc_sample->real_value_12bits = (*(adc_sample->sample)>>3) + (adc_sample->real_value_12bits - (a
 490              		.loc 1 241 4 view .LVU135
 491              		.loc 1 241 49 is_stmt 0 view .LVU136
 492 0000 0368     		ldr	r3, [r0]
 493              		.loc 1 241 37 view .LVU137
 494 0002 1A88     		ldrh	r2, [r3]
 495              		.loc 1 241 76 view .LVU138
 496 0004 8389     		ldrh	r3, [r0, #12]
 497              		.loc 1 241 96 view .LVU139
 498 0006 A3EBD303 		sub	r3, r3, r3, lsr #3
 499              		.loc 1 241 63 view .LVU140
 500 000a D208     		lsrs	r2, r2, #3
 501 000c 12FA83F3 		uxtah	r3, r2, r3
 502              		.loc 1 241 34 view .LVU141
 503 0010 8381     		strh	r3, [r0, #12]	@ movhi
ARM GAS  C:\Users\HYDROG~1\AppData\Local\Temp\ccksZwla.s 			page 14


 242:Core/Src/supercap.c **** }
 504              		.loc 1 242 1 view .LVU142
 505 0012 7047     		bx	lr
 506              		.cfi_endproc
 507              	.LFE342:
 509              		.section	.text.Supercap_First_Order_Filter_ADC_Function_Alpha,"ax",%progbits
 510              		.align	1
 511              		.global	Supercap_First_Order_Filter_ADC_Function_Alpha
 512              		.syntax unified
 513              		.thumb
 514              		.thumb_func
 516              	Supercap_First_Order_Filter_ADC_Function_Alpha:
 517              	.LVL24:
 518              	.LFB343:
 243:Core/Src/supercap.c **** 
 244:Core/Src/supercap.c **** void Supercap_First_Order_Filter_ADC_Function_Alpha(_ADC_Sample_t *adc_sample, uint16_t alpha) {
 519              		.loc 1 244 96 is_stmt 1 view -0
 520              		.cfi_startproc
 521              		@ args = 0, pretend = 0, frame = 0
 522              		@ frame_needed = 0, uses_anonymous_args = 0
 523              		@ link register save eliminated.
 245:Core/Src/supercap.c **** 			adc_sample->real_value_12bits = (*(adc_sample->sample)>>alpha) + (adc_sample->real_value_12bits 
 524              		.loc 1 245 4 view .LVU144
 525              		.loc 1 245 49 is_stmt 0 view .LVU145
 526 0000 0368     		ldr	r3, [r0]
 527              		.loc 1 245 37 view .LVU146
 528 0002 1B88     		ldrh	r3, [r3]
 529              		.loc 1 245 58 view .LVU147
 530 0004 43FA01F2 		asr	r2, r3, r1
 531              		.loc 1 245 80 view .LVU148
 532 0008 8389     		ldrh	r3, [r0, #12]
 533              		.loc 1 245 132 view .LVU149
 534 000a 43FA01F1 		asr	r1, r3, r1
 535              	.LVL25:
 536              		.loc 1 245 100 view .LVU150
 537 000e 5B1A     		subs	r3, r3, r1
 538              		.loc 1 245 67 view .LVU151
 539 0010 12FA83F3 		uxtah	r3, r2, r3
 540              		.loc 1 245 34 view .LVU152
 541 0014 8381     		strh	r3, [r0, #12]	@ movhi
 246:Core/Src/supercap.c **** }
 542              		.loc 1 246 1 view .LVU153
 543 0016 7047     		bx	lr
 544              		.cfi_endproc
 545              	.LFE343:
 547              		.section	.text.TIM2_NVIC,"ax",%progbits
 548              		.align	1
 549              		.global	TIM2_NVIC
 550              		.syntax unified
 551              		.thumb
 552              		.thumb_func
 554              	TIM2_NVIC:
 555              	.LFB334:
  43:Core/Src/supercap.c ****   Supercap_First_Order_Filter_ADC_Function_Alpha(&C_sys, 6);
 556              		.loc 1 43 17 is_stmt 1 view -0
 557              		.cfi_startproc
 558              		@ args = 0, pretend = 0, frame = 0
ARM GAS  C:\Users\HYDROG~1\AppData\Local\Temp\ccksZwla.s 			page 15


 559              		@ frame_needed = 0, uses_anonymous_args = 0
 560 0000 08B5     		push	{r3, lr}
 561              	.LCFI3:
 562              		.cfi_def_cfa_offset 8
 563              		.cfi_offset 3, -8
 564              		.cfi_offset 14, -4
  44:Core/Src/supercap.c ****   Supercap_First_Order_Filter_ADC_Function_Alpha(&C_right, 6);
 565              		.loc 1 44 3 view .LVU155
 566 0002 0621     		movs	r1, #6
 567 0004 0948     		ldr	r0, .L39
 568 0006 FFF7FEFF 		bl	Supercap_First_Order_Filter_ADC_Function_Alpha
 569              	.LVL26:
  45:Core/Src/supercap.c ****   Supercap_First_Order_Filter_ADC_Function_Alpha(&C_left, 4);
 570              		.loc 1 45 3 view .LVU156
 571 000a 0621     		movs	r1, #6
 572 000c 0848     		ldr	r0, .L39+4
 573 000e FFF7FEFF 		bl	Supercap_First_Order_Filter_ADC_Function_Alpha
 574              	.LVL27:
  46:Core/Src/supercap.c ****   //Supercap_First_Order_Filter_ADC_Function_Alpha(&ADC4_12,2);
 575              		.loc 1 46 3 view .LVU157
 576 0012 0421     		movs	r1, #4
 577 0014 0748     		ldr	r0, .L39+8
 578 0016 FFF7FEFF 		bl	Supercap_First_Order_Filter_ADC_Function_Alpha
 579              	.LVL28:
  48:Core/Src/supercap.c ****   Supercap_First_Order_Filter_ADC_Function_Alpha(&V_cap, 4);
 580              		.loc 1 48 3 view .LVU158
 581 001a 0221     		movs	r1, #2
 582 001c 0648     		ldr	r0, .L39+12
 583 001e FFF7FEFF 		bl	Supercap_First_Order_Filter_ADC_Function_Alpha
 584              	.LVL29:
  49:Core/Src/supercap.c **** }
 585              		.loc 1 49 3 view .LVU159
 586 0022 0421     		movs	r1, #4
 587 0024 0548     		ldr	r0, .L39+16
 588 0026 FFF7FEFF 		bl	Supercap_First_Order_Filter_ADC_Function_Alpha
 589              	.LVL30:
  50:Core/Src/supercap.c **** 
 590              		.loc 1 50 1 is_stmt 0 view .LVU160
 591 002a 08BD     		pop	{r3, pc}
 592              	.L40:
 593              		.align	2
 594              	.L39:
 595 002c 00000000 		.word	C_sys
 596 0030 00000000 		.word	C_right
 597 0034 00000000 		.word	C_left
 598 0038 00000000 		.word	V_bat
 599 003c 00000000 		.word	V_cap
 600              		.cfi_endproc
 601              	.LFE334:
 603              		.section	.text.Supercap_Function_Init,"ax",%progbits
 604              		.align	1
 605              		.global	Supercap_Function_Init
 606              		.syntax unified
 607              		.thumb
 608              		.thumb_func
 610              	Supercap_Function_Init:
 611              	.LVL31:
ARM GAS  C:\Users\HYDROG~1\AppData\Local\Temp\ccksZwla.s 			page 16


 612              	.LFB344:
 247:Core/Src/supercap.c **** 
 248:Core/Src/supercap.c **** void Supercap_Function_Init(_ADC_Sample_t *adc_sample) {
 613              		.loc 1 248 56 is_stmt 1 view -0
 614              		.cfi_startproc
 615              		@ args = 0, pretend = 0, frame = 0
 616              		@ frame_needed = 0, uses_anonymous_args = 0
 617              		@ link register save eliminated.
 249:Core/Src/supercap.c **** 			adc_sample->real_value_12bits = *(adc_sample->sample);
 618              		.loc 1 249 4 view .LVU162
 619              		.loc 1 249 48 is_stmt 0 view .LVU163
 620 0000 0368     		ldr	r3, [r0]
 621              		.loc 1 249 36 view .LVU164
 622 0002 1B88     		ldrh	r3, [r3]
 623              		.loc 1 249 34 view .LVU165
 624 0004 8381     		strh	r3, [r0, #12]	@ movhi
 250:Core/Src/supercap.c **** }
 625              		.loc 1 250 1 view .LVU166
 626 0006 7047     		bx	lr
 627              		.cfi_endproc
 628              	.LFE344:
 630              		.section	.text.Supercap_ADC_to_Voltage_Funtion,"ax",%progbits
 631              		.align	1
 632              		.global	Supercap_ADC_to_Voltage_Funtion
 633              		.syntax unified
 634              		.thumb
 635              		.thumb_func
 637              	Supercap_ADC_to_Voltage_Funtion:
 638              	.LVL32:
 639              	.LFB345:
 251:Core/Src/supercap.c **** 
 252:Core/Src/supercap.c **** float Supercap_ADC_to_Voltage_Funtion(uint16_t adc_value) {
 640              		.loc 1 252 59 is_stmt 1 view -0
 641              		.cfi_startproc
 642              		@ args = 0, pretend = 0, frame = 0
 643              		@ frame_needed = 0, uses_anonymous_args = 0
 644              		@ link register save eliminated.
 645              		.loc 1 252 59 is_stmt 0 view .LVU168
 646 0000 07EE900A 		vmov	s15, r0	@ int
 253:Core/Src/supercap.c ****   float voltage = ((float)adc_value * 3.3f / 4095.0f) * 11;
 647              		.loc 1 253 3 is_stmt 1 view .LVU169
 648              		.loc 1 253 20 is_stmt 0 view .LVU170
 649 0004 F8EE677A 		vcvt.f32.u32	s15, s15
 650              		.loc 1 253 37 view .LVU171
 651 0008 9FED067A 		vldr.32	s14, .L43
 652 000c 67EE877A 		vmul.f32	s15, s15, s14
 653              		.loc 1 253 44 view .LVU172
 654 0010 9FED057A 		vldr.32	s14, .L43+4
 655 0014 87EE870A 		vdiv.f32	s0, s15, s14
 656              	.LVL33:
 254:Core/Src/supercap.c ****   return voltage;
 657              		.loc 1 254 3 is_stmt 1 view .LVU173
 255:Core/Src/supercap.c **** }
 658              		.loc 1 255 1 is_stmt 0 view .LVU174
 659 0018 F2EE067A 		vmov.f32	s15, #1.1e+1
 660 001c 20EE270A 		vmul.f32	s0, s0, s15
 661              	.LVL34:
ARM GAS  C:\Users\HYDROG~1\AppData\Local\Temp\ccksZwla.s 			page 17


 662              		.loc 1 255 1 view .LVU175
 663 0020 7047     		bx	lr
 664              	.L44:
 665 0022 00BF     		.align	2
 666              	.L43:
 667 0024 33335340 		.word	1079194419
 668 0028 00F07F45 		.word	1166012416
 669              		.cfi_endproc
 670              	.LFE345:
 672              		.section	.text.Supercap_ADC_to_Voltage_Funtion_Ref,"ax",%progbits
 673              		.align	1
 674              		.global	Supercap_ADC_to_Voltage_Funtion_Ref
 675              		.syntax unified
 676              		.thumb
 677              		.thumb_func
 679              	Supercap_ADC_to_Voltage_Funtion_Ref:
 680              	.LVL35:
 681              	.LFB346:
 256:Core/Src/supercap.c **** 
 257:Core/Src/supercap.c **** float Supercap_ADC_to_Voltage_Funtion_Ref(uint16_t adc_value) {
 682              		.loc 1 257 63 is_stmt 1 view -0
 683              		.cfi_startproc
 684              		@ args = 0, pretend = 0, frame = 0
 685              		@ frame_needed = 0, uses_anonymous_args = 0
 686              		@ link register save eliminated.
 687              		.loc 1 257 63 is_stmt 0 view .LVU177
 688 0000 07EE900A 		vmov	s15, r0	@ int
 258:Core/Src/supercap.c ****   float voltage = ((float)adc_value * 3.3f / 4095.0f);
 689              		.loc 1 258 3 is_stmt 1 view .LVU178
 690              		.loc 1 258 20 is_stmt 0 view .LVU179
 691 0004 F8EE677A 		vcvt.f32.u32	s15, s15
 692              		.loc 1 258 37 view .LVU180
 693 0008 9FED040A 		vldr.32	s0, .L46
 694 000c 67EE807A 		vmul.f32	s15, s15, s0
 695              	.LVL36:
 259:Core/Src/supercap.c ****   return voltage;
 696              		.loc 1 259 3 is_stmt 1 view .LVU181
 260:Core/Src/supercap.c **** }
 697              		.loc 1 260 1 is_stmt 0 view .LVU182
 698 0010 9FED030A 		vldr.32	s0, .L46+4
 699 0014 87EE800A 		vdiv.f32	s0, s15, s0
 700              	.LVL37:
 701              		.loc 1 260 1 view .LVU183
 702 0018 7047     		bx	lr
 703              	.L47:
 704 001a 00BF     		.align	2
 705              	.L46:
 706 001c 33335340 		.word	1079194419
 707 0020 00F07F45 		.word	1166012416
 708              		.cfi_endproc
 709              	.LFE346:
 711              		.section	.text.Supercap_ADC_to_Current_Funtion,"ax",%progbits
 712              		.align	1
 713              		.global	Supercap_ADC_to_Current_Funtion
 714              		.syntax unified
 715              		.thumb
 716              		.thumb_func
ARM GAS  C:\Users\HYDROG~1\AppData\Local\Temp\ccksZwla.s 			page 18


 718              	Supercap_ADC_to_Current_Funtion:
 719              	.LVL38:
 720              	.LFB347:
 261:Core/Src/supercap.c **** 
 262:Core/Src/supercap.c **** float Supercap_ADC_to_Current_Funtion(uint16_t adc_value, uint16_t ref_voltage) {
 721              		.loc 1 262 81 is_stmt 1 view -0
 722              		.cfi_startproc
 723              		@ args = 0, pretend = 0, frame = 0
 724              		@ frame_needed = 0, uses_anonymous_args = 0
 725              		@ link register save eliminated.
 263:Core/Src/supercap.c ****   // ((ref_12bits*3.3/4095)+(current_flot*0.005)*25)*4095/3.3=current_12bits
 264:Core/Src/supercap.c ****   float current = 0.00644689f * (float)(adc_value - ref_voltage);
 726              		.loc 1 264 3 view .LVU185
 727              		.loc 1 264 51 is_stmt 0 view .LVU186
 728 0000 401A     		subs	r0, r0, r1
 729              	.LVL39:
 730              		.loc 1 264 33 view .LVU187
 731 0002 07EE900A 		vmov	s15, r0	@ int
 732 0006 F8EEE77A 		vcvt.f32.s32	s15, s15
 733              	.LVL40:
 265:Core/Src/supercap.c ****   return current;
 734              		.loc 1 265 3 is_stmt 1 view .LVU188
 266:Core/Src/supercap.c **** }
 735              		.loc 1 266 1 is_stmt 0 view .LVU189
 736 000a 9FED020A 		vldr.32	s0, .L49
 737 000e 27EE800A 		vmul.f32	s0, s15, s0
 738              	.LVL41:
 739              		.loc 1 266 1 view .LVU190
 740 0012 7047     		bx	lr
 741              	.L50:
 742              		.align	2
 743              	.L49:
 744 0014 6F40D33B 		.word	1003700335
 745              		.cfi_endproc
 746              	.LFE347:
 748              		.section	.text.Supercap_PID_Init,"ax",%progbits
 749              		.align	1
 750              		.global	Supercap_PID_Init
 751              		.syntax unified
 752              		.thumb
 753              		.thumb_func
 755              	Supercap_PID_Init:
 756              	.LVL42:
 757              	.LFB348:
 267:Core/Src/supercap.c **** 
 268:Core/Src/supercap.c **** //Init
 269:Core/Src/supercap.c **** void Supercap_PID_Init(_Supercap_PID_Controller_t *pid_controller, float Kp, float Ki, float Kd, in
 758              		.loc 1 269 153 is_stmt 1 view -0
 759              		.cfi_startproc
 760              		@ args = 0, pretend = 0, frame = 0
 761              		@ frame_needed = 0, uses_anonymous_args = 0
 762              		@ link register save eliminated.
 270:Core/Src/supercap.c ****   pid_controller->Kp = Kp;
 763              		.loc 1 270 3 view .LVU192
 764              		.loc 1 270 22 is_stmt 0 view .LVU193
 765 0000 80ED000A 		vstr.32	s0, [r0]
 271:Core/Src/supercap.c ****   pid_controller->Ki = Ki;
ARM GAS  C:\Users\HYDROG~1\AppData\Local\Temp\ccksZwla.s 			page 19


 766              		.loc 1 271 3 is_stmt 1 view .LVU194
 767              		.loc 1 271 22 is_stmt 0 view .LVU195
 768 0004 C0ED010A 		vstr.32	s1, [r0, #4]
 272:Core/Src/supercap.c ****   pid_controller->Kd = Kd;
 769              		.loc 1 272 3 is_stmt 1 view .LVU196
 770              		.loc 1 272 22 is_stmt 0 view .LVU197
 771 0008 80ED021A 		vstr.32	s2, [r0, #8]
 273:Core/Src/supercap.c ****   pid_controller->output_max = output_max;
 772              		.loc 1 273 3 is_stmt 1 view .LVU198
 773              		.loc 1 273 30 is_stmt 0 view .LVU199
 774 000c C182     		strh	r1, [r0, #22]	@ movhi
 274:Core/Src/supercap.c ****   pid_controller->output_min = output_min;
 775              		.loc 1 274 3 is_stmt 1 view .LVU200
 776              		.loc 1 274 30 is_stmt 0 view .LVU201
 777 000e 0283     		strh	r2, [r0, #24]	@ movhi
 275:Core/Src/supercap.c ****   pid_controller->I_max = I_max;
 778              		.loc 1 275 3 is_stmt 1 view .LVU202
 779              		.loc 1 275 25 is_stmt 0 view .LVU203
 780 0010 4383     		strh	r3, [r0, #26]	@ movhi
 276:Core/Src/supercap.c **** }
 781              		.loc 1 276 1 view .LVU204
 782 0012 7047     		bx	lr
 783              		.cfi_endproc
 784              	.LFE348:
 786              		.section	.text.Supercap_PID_Reset,"ax",%progbits
 787              		.align	1
 788              		.global	Supercap_PID_Reset
 789              		.syntax unified
 790              		.thumb
 791              		.thumb_func
 793              	Supercap_PID_Reset:
 794              	.LVL43:
 795              	.LFB349:
 277:Core/Src/supercap.c **** 
 278:Core/Src/supercap.c **** void Supercap_PID_Reset(_Supercap_PID_Controller_t *pid_controller){
 796              		.loc 1 278 68 is_stmt 1 view -0
 797              		.cfi_startproc
 798              		@ args = 0, pretend = 0, frame = 0
 799              		@ frame_needed = 0, uses_anonymous_args = 0
 800              		@ link register save eliminated.
 279:Core/Src/supercap.c ****   pid_controller->error_sum = 0;
 801              		.loc 1 279 3 view .LVU206
 802              		.loc 1 279 29 is_stmt 0 view .LVU207
 803 0000 0023     		movs	r3, #0
 804 0002 0361     		str	r3, [r0, #16]	@ float
 280:Core/Src/supercap.c **** }
 805              		.loc 1 280 1 view .LVU208
 806 0004 7047     		bx	lr
 807              		.cfi_endproc
 808              	.LFE349:
 810              		.section	.text.Supercap_PWM_left,"ax",%progbits
 811              		.align	1
 812              		.global	Supercap_PWM_left
 813              		.syntax unified
 814              		.thumb
 815              		.thumb_func
 817              	Supercap_PWM_left:
ARM GAS  C:\Users\HYDROG~1\AppData\Local\Temp\ccksZwla.s 			page 20


 818              	.LVL44:
 819              	.LFB350:
 281:Core/Src/supercap.c **** 
 282:Core/Src/supercap.c **** //Driver
 283:Core/Src/supercap.c **** void Supercap_PWM_left(int16_t pwm_duty_cycle) {
 820              		.loc 1 283 48 is_stmt 1 view -0
 821              		.cfi_startproc
 822              		@ args = 0, pretend = 0, frame = 0
 823              		@ frame_needed = 0, uses_anonymous_args = 0
 824              		@ link register save eliminated.
 284:Core/Src/supercap.c ****   __HAL_TIM_SET_COMPARE(&htim1, TIM_CHANNEL_1, pwm_duty_cycle);
 825              		.loc 1 284 3 view .LVU210
 826 0000 024B     		ldr	r3, .L54
 827 0002 1B68     		ldr	r3, [r3]
 828 0004 5863     		str	r0, [r3, #52]
 285:Core/Src/supercap.c ****   __HAL_TIM_SET_COMPARE(&htim1, TIM_CHANNEL_4, 25);
 829              		.loc 1 285 3 view .LVU211
 830 0006 1922     		movs	r2, #25
 831 0008 1A64     		str	r2, [r3, #64]
 286:Core/Src/supercap.c **** }
 832              		.loc 1 286 1 is_stmt 0 view .LVU212
 833 000a 7047     		bx	lr
 834              	.L55:
 835              		.align	2
 836              	.L54:
 837 000c 00000000 		.word	htim1
 838              		.cfi_endproc
 839              	.LFE350:
 841              		.section	.text.TIM5_NVIC,"ax",%progbits
 842              		.align	1
 843              		.global	TIM5_NVIC
 844              		.syntax unified
 845              		.thumb
 846              		.thumb_func
 848              	TIM5_NVIC:
 849              	.LFB335:
  52:Core/Src/supercap.c **** 	if(PID_flag == 1){
 850              		.loc 1 52 17 is_stmt 1 view -0
 851              		.cfi_startproc
 852              		@ args = 0, pretend = 0, frame = 0
 853              		@ frame_needed = 0, uses_anonymous_args = 0
  53:Core/Src/supercap.c **** 		Supercap_PID_Controller_Function(&PID_45W_loop, &C_sys, supercap_max_power_current, ((supercap_ma
 854              		.loc 1 53 2 view .LVU214
  53:Core/Src/supercap.c **** 		Supercap_PID_Controller_Function(&PID_45W_loop, &C_sys, supercap_max_power_current, ((supercap_ma
 855              		.loc 1 53 14 is_stmt 0 view .LVU215
 856 0000 384B     		ldr	r3, .L63
 857 0002 1B78     		ldrb	r3, [r3]	@ zero_extendqisi2
  53:Core/Src/supercap.c **** 		Supercap_PID_Controller_Function(&PID_45W_loop, &C_sys, supercap_max_power_current, ((supercap_ma
 858              		.loc 1 53 4 view .LVU216
 859 0004 012B     		cmp	r3, #1
 860 0006 00D0     		beq	.L62
 861 0008 7047     		bx	lr
 862              	.L62:
  52:Core/Src/supercap.c **** 	if(PID_flag == 1){
 863              		.loc 1 52 17 view .LVU217
 864 000a 2DE9F041 		push	{r4, r5, r6, r7, r8, lr}
 865              	.LCFI4:
ARM GAS  C:\Users\HYDROG~1\AppData\Local\Temp\ccksZwla.s 			page 21


 866              		.cfi_def_cfa_offset 24
 867              		.cfi_offset 4, -24
 868              		.cfi_offset 5, -20
 869              		.cfi_offset 6, -16
 870              		.cfi_offset 7, -12
 871              		.cfi_offset 8, -8
 872              		.cfi_offset 14, -4
 873 000e 2DED028B 		vpush.64	{d8}
 874              	.LCFI5:
 875              		.cfi_def_cfa_offset 32
 876              		.cfi_offset 80, -32
 877              		.cfi_offset 81, -28
  54:Core/Src/supercap.c **** 		Supercap_PID_Controller_Function(&PID_n7A_loop, &C_right, 500, V_cap.real_value_12bits + 400.0f, 
 878              		.loc 1 54 3 is_stmt 1 view .LVU218
 879 0012 354B     		ldr	r3, .L63+4
 880 0014 1A88     		ldrh	r2, [r3]
  54:Core/Src/supercap.c **** 		Supercap_PID_Controller_Function(&PID_n7A_loop, &C_right, 500, V_cap.real_value_12bits + 400.0f, 
 881              		.loc 1 54 121 is_stmt 0 view .LVU219
 882 0016 3549     		ldr	r1, .L63+8
 883 0018 8B89     		ldrh	r3, [r1, #12]
  54:Core/Src/supercap.c **** 		Supercap_PID_Controller_Function(&PID_n7A_loop, &C_right, 500, V_cap.real_value_12bits + 400.0f, 
 884              		.loc 1 54 115 view .LVU220
 885 001a D31A     		subs	r3, r2, r3
 886 001c 00EE103A 		vmov	s0, r3	@ int
  54:Core/Src/supercap.c **** 		Supercap_PID_Controller_Function(&PID_n7A_loop, &C_right, 500, V_cap.real_value_12bits + 400.0f, 
 887              		.loc 1 54 140 view .LVU221
 888 0020 B8EEC00A 		vcvt.f32.s32	s0, s0
 889 0024 30EE000A 		vadd.f32	s0, s0, s0
  54:Core/Src/supercap.c **** 		Supercap_PID_Controller_Function(&PID_n7A_loop, &C_right, 500, V_cap.real_value_12bits + 400.0f, 
 890              		.loc 1 54 151 view .LVU222
 891 0028 314C     		ldr	r4, .L63+12
 892 002a A389     		ldrh	r3, [r4, #12]
 893 002c 07EE903A 		vmov	s15, r3	@ int
  54:Core/Src/supercap.c **** 		Supercap_PID_Controller_Function(&PID_n7A_loop, &C_right, 500, V_cap.real_value_12bits + 400.0f, 
 894              		.loc 1 54 3 view .LVU223
 895 0030 F8EEE77A 		vcvt.f32.s32	s15, s15
 896 0034 2F4D     		ldr	r5, .L63+16
 897 0036 0023     		movs	r3, #0
 898 0038 37EE800A 		vadd.f32	s0, s15, s0
 899 003c 12B2     		sxth	r2, r2
 900 003e 2846     		mov	r0, r5
 901 0040 FFF7FEFF 		bl	Supercap_PID_Controller_Function
 902              	.LVL45:
  55:Core/Src/supercap.c **** 		Supercap_PID_Controller_Function(&PID_7A_loop, &C_right, 3500, V_cap.real_value_12bits - 400.0f, 
 903              		.loc 1 55 3 is_stmt 1 view .LVU224
  55:Core/Src/supercap.c **** 		Supercap_PID_Controller_Function(&PID_7A_loop, &C_right, 3500, V_cap.real_value_12bits - 400.0f, 
 904              		.loc 1 55 71 is_stmt 0 view .LVU225
 905 0044 A389     		ldrh	r3, [r4, #12]
 906 0046 00EE103A 		vmov	s0, r3	@ int
  55:Core/Src/supercap.c **** 		Supercap_PID_Controller_Function(&PID_7A_loop, &C_right, 3500, V_cap.real_value_12bits - 400.0f, 
 907              		.loc 1 55 3 view .LVU226
 908 004a B8EEC00A 		vcvt.f32.s32	s0, s0
 909 004e 9FED2A8A 		vldr.32	s16, .L63+20
 910 0052 DFF8BC80 		ldr	r8, .L63+44
 911 0056 294E     		ldr	r6, .L63+24
 912 0058 0023     		movs	r3, #0
 913 005a 30EE080A 		vadd.f32	s0, s0, s16
ARM GAS  C:\Users\HYDROG~1\AppData\Local\Temp\ccksZwla.s 			page 22


 914 005e 4FF4FA72 		mov	r2, #500
 915 0062 4146     		mov	r1, r8
 916 0064 3046     		mov	r0, r6
 917 0066 FFF7FEFF 		bl	Supercap_PID_Controller_Function
 918              	.LVL46:
  56:Core/Src/supercap.c ****     supercap_target_voltage = Supercap_Compare(PID_45W_loop.output, PID_n7A_loop.output, PID_7A_loo
 919              		.loc 1 56 3 is_stmt 1 view .LVU227
  56:Core/Src/supercap.c ****     supercap_target_voltage = Supercap_Compare(PID_45W_loop.output, PID_n7A_loop.output, PID_7A_loo
 920              		.loc 1 56 71 is_stmt 0 view .LVU228
 921 006a A389     		ldrh	r3, [r4, #12]
 922 006c 00EE103A 		vmov	s0, r3	@ int
  56:Core/Src/supercap.c ****     supercap_target_voltage = Supercap_Compare(PID_45W_loop.output, PID_n7A_loop.output, PID_7A_loo
 923              		.loc 1 56 3 view .LVU229
 924 0070 B8EEC00A 		vcvt.f32.s32	s0, s0
 925 0074 224F     		ldr	r7, .L63+28
 926 0076 0023     		movs	r3, #0
 927 0078 30EE480A 		vsub.f32	s0, s0, s16
 928 007c 40F6AC52 		movw	r2, #3500
 929 0080 4146     		mov	r1, r8
 930 0082 3846     		mov	r0, r7
 931 0084 FFF7FEFF 		bl	Supercap_PID_Controller_Function
 932              	.LVL47:
  57:Core/Src/supercap.c ****     //supercap_target_voltage = PID_45W_loop.output;
 933              		.loc 1 57 5 is_stmt 1 view .LVU230
  57:Core/Src/supercap.c ****     //supercap_target_voltage = PID_45W_loop.output;
 934              		.loc 1 57 31 is_stmt 0 view .LVU231
 935 0088 B7F91420 		ldrsh	r2, [r7, #20]
 936 008c B6F91410 		ldrsh	r1, [r6, #20]
 937 0090 B5F91400 		ldrsh	r0, [r5, #20]
 938 0094 FFF7FEFF 		bl	Supercap_Compare
 939              	.LVL48:
 940 0098 07EE900A 		vmov	s15, r0	@ int
  57:Core/Src/supercap.c ****     //supercap_target_voltage = PID_45W_loop.output;
 941              		.loc 1 57 29 view .LVU232
 942 009c 194D     		ldr	r5, .L63+32
 943 009e F8EEE77A 		vcvt.f32.s32	s15, s15
 944 00a2 C5ED007A 		vstr.32	s15, [r5]
  59:Core/Src/supercap.c **** 		Supercap_PID_Controller_Function(&PID_voltage_loop, &V_cap, supercap_target_voltage, supercap_tar
 945              		.loc 1 59 5 is_stmt 1 view .LVU233
  59:Core/Src/supercap.c **** 		Supercap_PID_Controller_Function(&PID_voltage_loop, &V_cap, supercap_target_voltage, supercap_tar
 946              		.loc 1 59 31 is_stmt 0 view .LVU234
 947 00a6 0022     		movs	r2, #0
 948 00a8 4FF42F61 		mov	r1, #2800
 949 00ac FFF7FEFF 		bl	Supercap_Limit
 950              	.LVL49:
 951 00b0 0246     		mov	r2, r0
  59:Core/Src/supercap.c **** 		Supercap_PID_Controller_Function(&PID_voltage_loop, &V_cap, supercap_target_voltage, supercap_tar
 952              		.loc 1 59 29 view .LVU235
 953 00b2 07EE900A 		vmov	s15, r0	@ int
 954 00b6 F8EEE77A 		vcvt.f32.s32	s15, s15
 955 00ba C5ED007A 		vstr.32	s15, [r5]
  60:Core/Src/supercap.c **** 		Supercap_PWM_left(PID_voltage_loop.output);
 956              		.loc 1 60 3 is_stmt 1 view .LVU236
 957 00be 124D     		ldr	r5, .L63+36
 958 00c0 0023     		movs	r3, #0
 959 00c2 9FED120A 		vldr.32	s0, .L63+40
 960 00c6 27EE800A 		vmul.f32	s0, s15, s0
ARM GAS  C:\Users\HYDROG~1\AppData\Local\Temp\ccksZwla.s 			page 23


 961 00ca 2146     		mov	r1, r4
 962 00cc 2846     		mov	r0, r5
 963 00ce FFF7FEFF 		bl	Supercap_PID_Controller_Function
 964              	.LVL50:
  61:Core/Src/supercap.c **** 	}
 965              		.loc 1 61 3 view .LVU237
 966 00d2 B5F91400 		ldrsh	r0, [r5, #20]
 967 00d6 FFF7FEFF 		bl	Supercap_PWM_left
 968              	.LVL51:
  63:Core/Src/supercap.c **** 
 969              		.loc 1 63 1 is_stmt 0 view .LVU238
 970 00da BDEC028B 		vldm	sp!, {d8}
 971              	.LCFI6:
 972              		.cfi_restore 80
 973              		.cfi_restore 81
 974              		.cfi_def_cfa_offset 24
 975 00de BDE8F081 		pop	{r4, r5, r6, r7, r8, pc}
 976              	.L64:
 977 00e2 00BF     		.align	2
 978              	.L63:
 979 00e4 00000000 		.word	.LANCHOR1
 980 00e8 00000000 		.word	supercap_max_power_current
 981 00ec 00000000 		.word	C_sys
 982 00f0 00000000 		.word	V_cap
 983 00f4 00000000 		.word	PID_45W_loop
 984 00f8 0000C843 		.word	1137180672
 985 00fc 00000000 		.word	PID_n7A_loop
 986 0100 00000000 		.word	PID_7A_loop
 987 0104 00000000 		.word	supercap_target_voltage
 988 0108 00000000 		.word	PID_voltage_loop
 989 010c CDCCCC3D 		.word	1036831949
 990 0110 00000000 		.word	C_right
 991              		.cfi_endproc
 992              	.LFE335:
 994              		.section	.text.Supercap_PWM_right,"ax",%progbits
 995              		.align	1
 996              		.global	Supercap_PWM_right
 997              		.syntax unified
 998              		.thumb
 999              		.thumb_func
 1001              	Supercap_PWM_right:
 1002              	.LVL52:
 1003              	.LFB351:
 287:Core/Src/supercap.c **** 
 288:Core/Src/supercap.c **** void Supercap_PWM_right(int16_t pwm_duty_cycle) {
 1004              		.loc 1 288 49 is_stmt 1 view -0
 1005              		.cfi_startproc
 1006              		@ args = 0, pretend = 0, frame = 0
 1007              		@ frame_needed = 0, uses_anonymous_args = 0
 1008              		@ link register save eliminated.
 289:Core/Src/supercap.c ****   __HAL_TIM_SET_COMPARE(&htim1, TIM_CHANNEL_1, 275);
 1009              		.loc 1 289 3 view .LVU240
 1010 0000 034B     		ldr	r3, .L66
 1011 0002 1B68     		ldr	r3, [r3]
 1012 0004 40F21312 		movw	r2, #275
 1013 0008 5A63     		str	r2, [r3, #52]
 290:Core/Src/supercap.c ****   __HAL_TIM_SET_COMPARE(&htim1, TIM_CHANNEL_4, pwm_duty_cycle);
ARM GAS  C:\Users\HYDROG~1\AppData\Local\Temp\ccksZwla.s 			page 24


 1014              		.loc 1 290 3 view .LVU241
 1015 000a 1864     		str	r0, [r3, #64]
 291:Core/Src/supercap.c **** }
 1016              		.loc 1 291 1 is_stmt 0 view .LVU242
 1017 000c 7047     		bx	lr
 1018              	.L67:
 1019 000e 00BF     		.align	2
 1020              	.L66:
 1021 0010 00000000 		.word	htim1
 1022              		.cfi_endproc
 1023              	.LFE351:
 1025              		.section	.text.Supercap_PWM_GND,"ax",%progbits
 1026              		.align	1
 1027              		.global	Supercap_PWM_GND
 1028              		.syntax unified
 1029              		.thumb
 1030              		.thumb_func
 1032              	Supercap_PWM_GND:
 1033              	.LFB352:
 292:Core/Src/supercap.c **** 
 293:Core/Src/supercap.c **** void Supercap_PWM_GND() {
 1034              		.loc 1 293 25 is_stmt 1 view -0
 1035              		.cfi_startproc
 1036              		@ args = 0, pretend = 0, frame = 0
 1037              		@ frame_needed = 0, uses_anonymous_args = 0
 1038              		@ link register save eliminated.
 294:Core/Src/supercap.c ****   __HAL_TIM_SET_COMPARE(&htim1, TIM_CHANNEL_1, 0);
 1039              		.loc 1 294 3 view .LVU244
 1040 0000 034B     		ldr	r3, .L69
 1041 0002 1B68     		ldr	r3, [r3]
 1042 0004 0022     		movs	r2, #0
 1043 0006 5A63     		str	r2, [r3, #52]
 295:Core/Src/supercap.c ****   __HAL_TIM_SET_COMPARE(&htim1, TIM_CHANNEL_4, 300);
 1044              		.loc 1 295 3 view .LVU245
 1045 0008 4FF49672 		mov	r2, #300
 1046 000c 1A64     		str	r2, [r3, #64]
 296:Core/Src/supercap.c **** }
 1047              		.loc 1 296 1 is_stmt 0 view .LVU246
 1048 000e 7047     		bx	lr
 1049              	.L70:
 1050              		.align	2
 1051              	.L69:
 1052 0010 00000000 		.word	htim1
 1053              		.cfi_endproc
 1054              	.LFE352:
 1056              		.section	.text.Supercap_DCDC_Start,"ax",%progbits
 1057              		.align	1
 1058              		.global	Supercap_DCDC_Start
 1059              		.syntax unified
 1060              		.thumb
 1061              		.thumb_func
 1063              	Supercap_DCDC_Start:
 1064              	.LFB353:
 297:Core/Src/supercap.c **** 
 298:Core/Src/supercap.c **** void Supercap_DCDC_Start(){
 1065              		.loc 1 298 27 is_stmt 1 view -0
 1066              		.cfi_startproc
ARM GAS  C:\Users\HYDROG~1\AppData\Local\Temp\ccksZwla.s 			page 25


 1067              		@ args = 0, pretend = 0, frame = 0
 1068              		@ frame_needed = 0, uses_anonymous_args = 0
 1069 0000 10B5     		push	{r4, lr}
 1070              	.LCFI7:
 1071              		.cfi_def_cfa_offset 8
 1072              		.cfi_offset 4, -8
 1073              		.cfi_offset 14, -4
 299:Core/Src/supercap.c ****   HAL_TIM_PWM_Start(&htim1, TIM_CHANNEL_1);
 1074              		.loc 1 299 3 view .LVU248
 1075 0002 094C     		ldr	r4, .L73
 1076 0004 0021     		movs	r1, #0
 1077 0006 2046     		mov	r0, r4
 1078 0008 FFF7FEFF 		bl	HAL_TIM_PWM_Start
 1079              	.LVL53:
 300:Core/Src/supercap.c ****   HAL_TIMEx_PWMN_Start(&htim1, TIM_CHANNEL_1);
 1080              		.loc 1 300 3 view .LVU249
 1081 000c 0021     		movs	r1, #0
 1082 000e 2046     		mov	r0, r4
 1083 0010 FFF7FEFF 		bl	HAL_TIMEx_PWMN_Start
 1084              	.LVL54:
 301:Core/Src/supercap.c ****   HAL_TIM_PWM_Start(&htim1, TIM_CHANNEL_4);
 1085              		.loc 1 301 3 view .LVU250
 1086 0014 0C21     		movs	r1, #12
 1087 0016 2046     		mov	r0, r4
 1088 0018 FFF7FEFF 		bl	HAL_TIM_PWM_Start
 1089              	.LVL55:
 302:Core/Src/supercap.c ****   HAL_TIMEx_PWMN_Start(&htim1, TIM_CHANNEL_4);
 1090              		.loc 1 302 3 view .LVU251
 1091 001c 0C21     		movs	r1, #12
 1092 001e 2046     		mov	r0, r4
 1093 0020 FFF7FEFF 		bl	HAL_TIMEx_PWMN_Start
 1094              	.LVL56:
 303:Core/Src/supercap.c **** }
 1095              		.loc 1 303 1 is_stmt 0 view .LVU252
 1096 0024 10BD     		pop	{r4, pc}
 1097              	.L74:
 1098 0026 00BF     		.align	2
 1099              	.L73:
 1100 0028 00000000 		.word	htim1
 1101              		.cfi_endproc
 1102              	.LFE353:
 1104              		.section	.text.Supercap_DCDC_Stop,"ax",%progbits
 1105              		.align	1
 1106              		.global	Supercap_DCDC_Stop
 1107              		.syntax unified
 1108              		.thumb
 1109              		.thumb_func
 1111              	Supercap_DCDC_Stop:
 1112              	.LFB354:
 304:Core/Src/supercap.c **** 
 305:Core/Src/supercap.c **** void Supercap_DCDC_Stop(){
 1113              		.loc 1 305 26 is_stmt 1 view -0
 1114              		.cfi_startproc
 1115              		@ args = 0, pretend = 0, frame = 0
 1116              		@ frame_needed = 0, uses_anonymous_args = 0
 1117 0000 10B5     		push	{r4, lr}
 1118              	.LCFI8:
ARM GAS  C:\Users\HYDROG~1\AppData\Local\Temp\ccksZwla.s 			page 26


 1119              		.cfi_def_cfa_offset 8
 1120              		.cfi_offset 4, -8
 1121              		.cfi_offset 14, -4
 306:Core/Src/supercap.c ****   HAL_TIM_PWM_Stop(&htim1, TIM_CHANNEL_1);
 1122              		.loc 1 306 3 view .LVU254
 1123 0002 094C     		ldr	r4, .L77
 1124 0004 0021     		movs	r1, #0
 1125 0006 2046     		mov	r0, r4
 1126 0008 FFF7FEFF 		bl	HAL_TIM_PWM_Stop
 1127              	.LVL57:
 307:Core/Src/supercap.c ****   HAL_TIMEx_PWMN_Stop(&htim1, TIM_CHANNEL_1);
 1128              		.loc 1 307 3 view .LVU255
 1129 000c 0021     		movs	r1, #0
 1130 000e 2046     		mov	r0, r4
 1131 0010 FFF7FEFF 		bl	HAL_TIMEx_PWMN_Stop
 1132              	.LVL58:
 308:Core/Src/supercap.c ****   HAL_TIM_PWM_Stop(&htim1, TIM_CHANNEL_4);
 1133              		.loc 1 308 3 view .LVU256
 1134 0014 0C21     		movs	r1, #12
 1135 0016 2046     		mov	r0, r4
 1136 0018 FFF7FEFF 		bl	HAL_TIM_PWM_Stop
 1137              	.LVL59:
 309:Core/Src/supercap.c ****   HAL_TIMEx_PWMN_Stop(&htim1, TIM_CHANNEL_4);
 1138              		.loc 1 309 3 view .LVU257
 1139 001c 0C21     		movs	r1, #12
 1140 001e 2046     		mov	r0, r4
 1141 0020 FFF7FEFF 		bl	HAL_TIMEx_PWMN_Stop
 1142              	.LVL60:
 310:Core/Src/supercap.c **** }
 1143              		.loc 1 310 1 is_stmt 0 view .LVU258
 1144 0024 10BD     		pop	{r4, pc}
 1145              	.L78:
 1146 0026 00BF     		.align	2
 1147              	.L77:
 1148 0028 00000000 		.word	htim1
 1149              		.cfi_endproc
 1150              	.LFE354:
 1152              		.section	.text.Supercap_AUX_Init,"ax",%progbits
 1153              		.align	1
 1154              		.global	Supercap_AUX_Init
 1155              		.syntax unified
 1156              		.thumb
 1157              		.thumb_func
 1159              	Supercap_AUX_Init:
 1160              	.LFB355:
 311:Core/Src/supercap.c **** 
 312:Core/Src/supercap.c **** void Supercap_AUX_Init(){
 1161              		.loc 1 312 25 is_stmt 1 view -0
 1162              		.cfi_startproc
 1163              		@ args = 0, pretend = 0, frame = 0
 1164              		@ frame_needed = 0, uses_anonymous_args = 0
 1165 0000 38B5     		push	{r3, r4, r5, lr}
 1166              	.LCFI9:
 1167              		.cfi_def_cfa_offset 16
 1168              		.cfi_offset 3, -16
 1169              		.cfi_offset 4, -12
 1170              		.cfi_offset 5, -8
ARM GAS  C:\Users\HYDROG~1\AppData\Local\Temp\ccksZwla.s 			page 27


 1171              		.cfi_offset 14, -4
 313:Core/Src/supercap.c ****   __HAL_TIM_SET_COMPARE(&htim3, TIM_CHANNEL_1, 0);
 1172              		.loc 1 313 3 view .LVU260
 1173 0002 0F4C     		ldr	r4, .L81
 1174 0004 2368     		ldr	r3, [r4]
 1175 0006 0025     		movs	r5, #0
 1176 0008 5D63     		str	r5, [r3, #52]
 314:Core/Src/supercap.c ****   TIM3_AUTORELOAD_over100 = 480;
 1177              		.loc 1 314 3 view .LVU261
 1178              		.loc 1 314 27 is_stmt 0 view .LVU262
 1179 000a 0E4B     		ldr	r3, .L81+4
 1180 000c 4FF4F072 		mov	r2, #480
 1181 0010 1A60     		str	r2, [r3]
 315:Core/Src/supercap.c ****   HAL_TIM_PWM_Start(&htim3, TIM_CHANNEL_1); //Buzzer
 1182              		.loc 1 315 3 is_stmt 1 view .LVU263
 1183 0012 2946     		mov	r1, r5
 1184 0014 2046     		mov	r0, r4
 1185 0016 FFF7FEFF 		bl	HAL_TIM_PWM_Start
 1186              	.LVL61:
 316:Core/Src/supercap.c ****   HAL_TIM_PWM_Start(&htim3, TIM_CHANNEL_2); //LED_0 red
 1187              		.loc 1 316 3 view .LVU264
 1188 001a 0421     		movs	r1, #4
 1189 001c 2046     		mov	r0, r4
 1190 001e FFF7FEFF 		bl	HAL_TIM_PWM_Start
 1191              	.LVL62:
 317:Core/Src/supercap.c **** 	HAL_TIM_PWM_Start(&htim3, TIM_CHANNEL_3); //LED_1 yellow
 1192              		.loc 1 317 2 view .LVU265
 1193 0022 0821     		movs	r1, #8
 1194 0024 2046     		mov	r0, r4
 1195 0026 FFF7FEFF 		bl	HAL_TIM_PWM_Start
 1196              	.LVL63:
 318:Core/Src/supercap.c **** 	
 319:Core/Src/supercap.c **** 	HAL_TIM_PWM_Start(&htim4, TIM_CHANNEL_1); //Machine Spirit
 1197              		.loc 1 319 2 view .LVU266
 1198 002a 074C     		ldr	r4, .L81+8
 1199 002c 2946     		mov	r1, r5
 1200 002e 2046     		mov	r0, r4
 1201 0030 FFF7FEFF 		bl	HAL_TIM_PWM_Start
 1202              	.LVL64:
 320:Core/Src/supercap.c **** 	HAL_TIM_PWM_Start(&htim4, TIM_CHANNEL_2); //LED blue
 1203              		.loc 1 320 2 view .LVU267
 1204 0034 0421     		movs	r1, #4
 1205 0036 2046     		mov	r0, r4
 1206 0038 FFF7FEFF 		bl	HAL_TIM_PWM_Start
 1207              	.LVL65:
 321:Core/Src/supercap.c **** }
 1208              		.loc 1 321 1 is_stmt 0 view .LVU268
 1209 003c 38BD     		pop	{r3, r4, r5, pc}
 1210              	.L82:
 1211 003e 00BF     		.align	2
 1212              	.L81:
 1213 0040 00000000 		.word	htim3
 1214 0044 00000000 		.word	TIM3_AUTORELOAD_over100
 1215 0048 00000000 		.word	htim4
 1216              		.cfi_endproc
 1217              	.LFE355:
 1219              		.section	.text.Supercap_AUX_RedLED,"ax",%progbits
ARM GAS  C:\Users\HYDROG~1\AppData\Local\Temp\ccksZwla.s 			page 28


 1220              		.align	1
 1221              		.global	Supercap_AUX_RedLED
 1222              		.syntax unified
 1223              		.thumb
 1224              		.thumb_func
 1226              	Supercap_AUX_RedLED:
 1227              	.LVL66:
 1228              	.LFB356:
 322:Core/Src/supercap.c **** 
 323:Core/Src/supercap.c **** void Supercap_AUX_RedLED(uint32_t brightness){
 1229              		.loc 1 323 46 is_stmt 1 view -0
 1230              		.cfi_startproc
 1231              		@ args = 0, pretend = 0, frame = 0
 1232              		@ frame_needed = 0, uses_anonymous_args = 0
 1233              		@ link register save eliminated.
 324:Core/Src/supercap.c ****   __HAL_TIM_SET_COMPARE(&htim3, TIM_CHANNEL_2, brightness * TIM3_AUTORELOAD_over100);
 1234              		.loc 1 324 3 view .LVU270
 1235 0000 034B     		ldr	r3, .L84
 1236 0002 1B68     		ldr	r3, [r3]
 1237 0004 034A     		ldr	r2, .L84+4
 1238 0006 1268     		ldr	r2, [r2]
 1239 0008 02FB00F0 		mul	r0, r2, r0
 1240              	.LVL67:
 1241              		.loc 1 324 3 is_stmt 0 view .LVU271
 1242 000c 9863     		str	r0, [r3, #56]
 325:Core/Src/supercap.c **** }
 1243              		.loc 1 325 1 view .LVU272
 1244 000e 7047     		bx	lr
 1245              	.L85:
 1246              		.align	2
 1247              	.L84:
 1248 0010 00000000 		.word	htim3
 1249 0014 00000000 		.word	TIM3_AUTORELOAD_over100
 1250              		.cfi_endproc
 1251              	.LFE356:
 1253              		.section	.text.Supercap_AUX_YellowLED,"ax",%progbits
 1254              		.align	1
 1255              		.global	Supercap_AUX_YellowLED
 1256              		.syntax unified
 1257              		.thumb
 1258              		.thumb_func
 1260              	Supercap_AUX_YellowLED:
 1261              	.LVL68:
 1262              	.LFB357:
 326:Core/Src/supercap.c **** 
 327:Core/Src/supercap.c **** void Supercap_AUX_YellowLED(uint32_t brightness){
 1263              		.loc 1 327 49 is_stmt 1 view -0
 1264              		.cfi_startproc
 1265              		@ args = 0, pretend = 0, frame = 0
 1266              		@ frame_needed = 0, uses_anonymous_args = 0
 1267              		@ link register save eliminated.
 328:Core/Src/supercap.c ****   __HAL_TIM_SET_COMPARE(&htim3, TIM_CHANNEL_3, brightness * TIM3_AUTORELOAD_over100);
 1268              		.loc 1 328 3 view .LVU274
 1269 0000 034B     		ldr	r3, .L87
 1270 0002 1B68     		ldr	r3, [r3]
 1271 0004 034A     		ldr	r2, .L87+4
 1272 0006 1268     		ldr	r2, [r2]
ARM GAS  C:\Users\HYDROG~1\AppData\Local\Temp\ccksZwla.s 			page 29


 1273 0008 02FB00F0 		mul	r0, r2, r0
 1274              	.LVL69:
 1275              		.loc 1 328 3 is_stmt 0 view .LVU275
 1276 000c D863     		str	r0, [r3, #60]
 329:Core/Src/supercap.c **** }
 1277              		.loc 1 329 1 view .LVU276
 1278 000e 7047     		bx	lr
 1279              	.L88:
 1280              		.align	2
 1281              	.L87:
 1282 0010 00000000 		.word	htim3
 1283 0014 00000000 		.word	TIM3_AUTORELOAD_over100
 1284              		.cfi_endproc
 1285              	.LFE357:
 1287              		.section	.text.Supercap_AUX_BlueLED,"ax",%progbits
 1288              		.align	1
 1289              		.global	Supercap_AUX_BlueLED
 1290              		.syntax unified
 1291              		.thumb
 1292              		.thumb_func
 1294              	Supercap_AUX_BlueLED:
 1295              	.LVL70:
 1296              	.LFB358:
 330:Core/Src/supercap.c **** 
 331:Core/Src/supercap.c **** void Supercap_AUX_BlueLED(uint32_t brightness){
 1297              		.loc 1 331 47 is_stmt 1 view -0
 1298              		.cfi_startproc
 1299              		@ args = 0, pretend = 0, frame = 0
 1300              		@ frame_needed = 0, uses_anonymous_args = 0
 1301              		@ link register save eliminated.
 332:Core/Src/supercap.c ****   __HAL_TIM_SET_COMPARE(&htim4, TIM_CHANNEL_2, brightness * 480);
 1302              		.loc 1 332 3 view .LVU278
 1303 0000 034B     		ldr	r3, .L90
 1304 0002 1B68     		ldr	r3, [r3]
 1305 0004 C0EB0010 		rsb	r0, r0, r0, lsl #4
 1306              	.LVL71:
 1307              		.loc 1 332 3 is_stmt 0 view .LVU279
 1308 0008 4001     		lsls	r0, r0, #5
 1309 000a 9863     		str	r0, [r3, #56]
 333:Core/Src/supercap.c **** }
 1310              		.loc 1 333 1 view .LVU280
 1311 000c 7047     		bx	lr
 1312              	.L91:
 1313 000e 00BF     		.align	2
 1314              	.L90:
 1315 0010 00000000 		.word	htim4
 1316              		.cfi_endproc
 1317              	.LFE358:
 1319              		.section	.text.Supercap_AUX_MachineSpirit,"ax",%progbits
 1320              		.align	1
 1321              		.global	Supercap_AUX_MachineSpirit
 1322              		.syntax unified
 1323              		.thumb
 1324              		.thumb_func
 1326              	Supercap_AUX_MachineSpirit:
 1327              	.LVL72:
 1328              	.LFB359:
ARM GAS  C:\Users\HYDROG~1\AppData\Local\Temp\ccksZwla.s 			page 30


 334:Core/Src/supercap.c **** 
 335:Core/Src/supercap.c **** void Supercap_AUX_MachineSpirit(uint32_t brightness){
 1329              		.loc 1 335 53 is_stmt 1 view -0
 1330              		.cfi_startproc
 1331              		@ args = 0, pretend = 0, frame = 0
 1332              		@ frame_needed = 0, uses_anonymous_args = 0
 1333              		@ link register save eliminated.
 336:Core/Src/supercap.c ****   __HAL_TIM_SET_COMPARE(&htim4, TIM_CHANNEL_1, brightness * 480);
 1334              		.loc 1 336 3 view .LVU282
 1335 0000 034B     		ldr	r3, .L93
 1336 0002 1B68     		ldr	r3, [r3]
 1337 0004 C0EB0010 		rsb	r0, r0, r0, lsl #4
 1338              	.LVL73:
 1339              		.loc 1 336 3 is_stmt 0 view .LVU283
 1340 0008 4001     		lsls	r0, r0, #5
 1341 000a 5863     		str	r0, [r3, #52]
 337:Core/Src/supercap.c **** }
 1342              		.loc 1 337 1 view .LVU284
 1343 000c 7047     		bx	lr
 1344              	.L94:
 1345 000e 00BF     		.align	2
 1346              	.L93:
 1347 0010 00000000 		.word	htim4
 1348              		.cfi_endproc
 1349              	.LFE359:
 1351              		.section	.text.Supercap_FSM,"ax",%progbits
 1352              		.align	1
 1353              		.global	Supercap_FSM
 1354              		.syntax unified
 1355              		.thumb
 1356              		.thumb_func
 1358              	Supercap_FSM:
 1359              	.LFB340:
 108:Core/Src/supercap.c ****   //Protection
 1360              		.loc 1 108 20 is_stmt 1 view -0
 1361              		.cfi_startproc
 1362              		@ args = 0, pretend = 0, frame = 0
 1363              		@ frame_needed = 0, uses_anonymous_args = 0
 1364 0000 08B5     		push	{r3, lr}
 1365              	.LCFI10:
 1366              		.cfi_def_cfa_offset 8
 1367              		.cfi_offset 3, -8
 1368              		.cfi_offset 14, -4
 110:Core/Src/supercap.c **** 		fault_counter++;
 1369              		.loc 1 110 3 view .LVU286
 110:Core/Src/supercap.c **** 		fault_counter++;
 1370              		.loc 1 110 11 is_stmt 0 view .LVU287
 1371 0002 954B     		ldr	r3, .L125
 1372 0004 9B89     		ldrh	r3, [r3, #12]
 1373 0006 07EE903A 		vmov	s15, r3	@ int
 110:Core/Src/supercap.c **** 		fault_counter++;
 1374              		.loc 1 110 30 view .LVU288
 1375 000a F8EEE77A 		vcvt.f32.s32	s15, s15
 110:Core/Src/supercap.c **** 		fault_counter++;
 1376              		.loc 1 110 5 view .LVU289
 1377 000e 9FED937A 		vldr.32	s14, .L125+4
 1378 0012 F4EEC77A 		vcmpe.f32	s15, s14
ARM GAS  C:\Users\HYDROG~1\AppData\Local\Temp\ccksZwla.s 			page 31


 1379 0016 F1EE10FA 		vmrs	APSR_nzcv, FPSCR
 1380 001a 13D5     		bpl	.L96
 110:Core/Src/supercap.c **** 		fault_counter++;
 1381              		.loc 1 110 54 discriminator 1 view .LVU290
 1382 001c 904B     		ldr	r3, .L125+8
 1383 001e 9B89     		ldrh	r3, [r3, #12]
 1384 0020 07EE903A 		vmov	s15, r3	@ int
 110:Core/Src/supercap.c **** 		fault_counter++;
 1385              		.loc 1 110 73 discriminator 1 view .LVU291
 1386 0024 F8EEE77A 		vcvt.f32.s32	s15, s15
 110:Core/Src/supercap.c **** 		fault_counter++;
 1387              		.loc 1 110 46 discriminator 1 view .LVU292
 1388 0028 9FED8E7A 		vldr.32	s14, .L125+12
 1389 002c F4EEC77A 		vcmpe.f32	s15, s14
 1390 0030 F1EE10FA 		vmrs	APSR_nzcv, FPSCR
 1391 0034 06DD     		ble	.L96
 111:Core/Src/supercap.c **** 		if(fault_counter >= 100){
 1392              		.loc 1 111 3 is_stmt 1 view .LVU293
 111:Core/Src/supercap.c **** 		if(fault_counter >= 100){
 1393              		.loc 1 111 16 is_stmt 0 view .LVU294
 1394 0036 8C4A     		ldr	r2, .L125+16
 1395 0038 1388     		ldrh	r3, [r2]
 1396 003a 0133     		adds	r3, r3, #1
 1397 003c 9BB2     		uxth	r3, r3
 1398 003e 1380     		strh	r3, [r2]	@ movhi
 112:Core/Src/supercap.c **** 			Supercap_DCDC_Stop();
 1399              		.loc 1 112 3 is_stmt 1 view .LVU295
 112:Core/Src/supercap.c **** 			Supercap_DCDC_Stop();
 1400              		.loc 1 112 5 is_stmt 0 view .LVU296
 1401 0040 632B     		cmp	r3, #99
 1402 0042 1FD8     		bhi	.L122
 1403              	.L96:
 123:Core/Src/supercap.c ****   
 1404              		.loc 1 123 2 is_stmt 1 view .LVU297
 125:Core/Src/supercap.c **** 		fault_counter++;
 1405              		.loc 1 125 3 view .LVU298
 125:Core/Src/supercap.c **** 		fault_counter++;
 1406              		.loc 1 125 13 is_stmt 0 view .LVU299
 1407 0044 894B     		ldr	r3, .L125+20
 1408 0046 9B89     		ldrh	r3, [r3, #12]
 125:Core/Src/supercap.c **** 		fault_counter++;
 1409              		.loc 1 125 39 view .LVU300
 1410 0048 1F3B     		subs	r3, r3, #31
 1411 004a 9BB2     		uxth	r3, r3
 125:Core/Src/supercap.c **** 		fault_counter++;
 1412              		.loc 1 125 5 view .LVU301
 1413 004c B3F57C6F 		cmp	r3, #4032
 1414 0050 2AD9     		bls	.L99
 126:Core/Src/supercap.c **** 		if(fault_counter >= 2){
 1415              		.loc 1 126 3 is_stmt 1 view .LVU302
 126:Core/Src/supercap.c **** 		if(fault_counter >= 2){
 1416              		.loc 1 126 16 is_stmt 0 view .LVU303
 1417 0052 854A     		ldr	r2, .L125+16
 1418 0054 1388     		ldrh	r3, [r2]
 1419 0056 0133     		adds	r3, r3, #1
 1420 0058 9BB2     		uxth	r3, r3
 1421 005a 1380     		strh	r3, [r2]	@ movhi
ARM GAS  C:\Users\HYDROG~1\AppData\Local\Temp\ccksZwla.s 			page 32


 127:Core/Src/supercap.c **** 			Supercap_DCDC_Stop();
 1422              		.loc 1 127 3 is_stmt 1 view .LVU304
 127:Core/Src/supercap.c **** 			Supercap_DCDC_Stop();
 1423              		.loc 1 127 5 is_stmt 0 view .LVU305
 1424 005c 012B     		cmp	r3, #1
 1425 005e 27D9     		bls	.L100
 128:Core/Src/supercap.c **** 			Supercap_AUX_BlueLED(60);
 1426              		.loc 1 128 4 is_stmt 1 view .LVU306
 1427 0060 FFF7FEFF 		bl	Supercap_DCDC_Stop
 1428              	.LVL74:
 129:Core/Src/supercap.c **** 			Supercap_AUX_YellowLED(60);
 1429              		.loc 1 129 4 view .LVU307
 1430 0064 3C20     		movs	r0, #60
 1431 0066 FFF7FEFF 		bl	Supercap_AUX_BlueLED
 1432              	.LVL75:
 130:Core/Src/supercap.c ****       Supercap_AUX_MachineSpirit(0);
 1433              		.loc 1 130 4 view .LVU308
 1434 006a 3C20     		movs	r0, #60
 1435 006c FFF7FEFF 		bl	Supercap_AUX_YellowLED
 1436              	.LVL76:
 131:Core/Src/supercap.c **** 			//Supercap_AUX_Buzzer(80, -1);
 1437              		.loc 1 131 7 view .LVU309
 1438 0070 0020     		movs	r0, #0
 1439 0072 FFF7FEFF 		bl	Supercap_AUX_MachineSpirit
 1440              	.LVL77:
 133:Core/Src/supercap.c **** 			fault_counter = 0;
 1441              		.loc 1 133 4 view .LVU310
 133:Core/Src/supercap.c **** 			fault_counter = 0;
 1442              		.loc 1 133 14 is_stmt 0 view .LVU311
 1443 0076 7E4B     		ldr	r3, .L125+24
 1444 0078 0422     		movs	r2, #4
 1445 007a 1A70     		strb	r2, [r3]
 134:Core/Src/supercap.c **** 		}
 1446              		.loc 1 134 4 is_stmt 1 view .LVU312
 134:Core/Src/supercap.c **** 		}
 1447              		.loc 1 134 18 is_stmt 0 view .LVU313
 1448 007c 7A4B     		ldr	r3, .L125+16
 1449 007e 0022     		movs	r2, #0
 1450 0080 1A80     		strh	r2, [r3]	@ movhi
 1451 0082 15E0     		b	.L100
 1452              	.L122:
 113:Core/Src/supercap.c **** 			Supercap_AUX_BlueLED(60);
 1453              		.loc 1 113 4 is_stmt 1 view .LVU314
 1454 0084 FFF7FEFF 		bl	Supercap_DCDC_Stop
 1455              	.LVL78:
 114:Core/Src/supercap.c **** 			Supercap_AUX_YellowLED(60);
 1456              		.loc 1 114 4 view .LVU315
 1457 0088 3C20     		movs	r0, #60
 1458 008a FFF7FEFF 		bl	Supercap_AUX_BlueLED
 1459              	.LVL79:
 115:Core/Src/supercap.c ****       Supercap_AUX_MachineSpirit(0);
 1460              		.loc 1 115 4 view .LVU316
 1461 008e 3C20     		movs	r0, #60
 1462 0090 FFF7FEFF 		bl	Supercap_AUX_YellowLED
 1463              	.LVL80:
 116:Core/Src/supercap.c **** 			//Supercap_AUX_Buzzer(80, 11);
 1464              		.loc 1 116 7 view .LVU317
ARM GAS  C:\Users\HYDROG~1\AppData\Local\Temp\ccksZwla.s 			page 33


 1465 0094 0020     		movs	r0, #0
 1466 0096 FFF7FEFF 		bl	Supercap_AUX_MachineSpirit
 1467              	.LVL81:
 118:Core/Src/supercap.c **** 			fault_counter = 0;
 1468              		.loc 1 118 4 view .LVU318
 118:Core/Src/supercap.c **** 			fault_counter = 0;
 1469              		.loc 1 118 14 is_stmt 0 view .LVU319
 1470 009a 754B     		ldr	r3, .L125+24
 1471 009c 0422     		movs	r2, #4
 1472 009e 1A70     		strb	r2, [r3]
 119:Core/Src/supercap.c **** 		}
 1473              		.loc 1 119 4 is_stmt 1 view .LVU320
 119:Core/Src/supercap.c **** 		}
 1474              		.loc 1 119 18 is_stmt 0 view .LVU321
 1475 00a0 714B     		ldr	r3, .L125+16
 1476 00a2 0022     		movs	r2, #0
 1477 00a4 1A80     		strh	r2, [r3]	@ movhi
 1478 00a6 CDE7     		b	.L96
 1479              	.L99:
 137:Core/Src/supercap.c **** 	}
 1480              		.loc 1 137 3 is_stmt 1 view .LVU322
 137:Core/Src/supercap.c **** 	}
 1481              		.loc 1 137 16 is_stmt 0 view .LVU323
 1482 00a8 6F4A     		ldr	r2, .L125+16
 1483 00aa 1388     		ldrh	r3, [r2]
 1484 00ac 013B     		subs	r3, r3, #1
 1485 00ae 1380     		strh	r3, [r2]	@ movhi
 1486              	.L100:
 139:Core/Src/supercap.c **** 		fault_counter++;
 1487              		.loc 1 139 3 is_stmt 1 view .LVU324
 139:Core/Src/supercap.c **** 		fault_counter++;
 1488              		.loc 1 139 13 is_stmt 0 view .LVU325
 1489 00b0 6E4B     		ldr	r3, .L125+20
 1490 00b2 9B89     		ldrh	r3, [r3, #12]
 139:Core/Src/supercap.c **** 		fault_counter++;
 1491              		.loc 1 139 39 view .LVU326
 1492 00b4 A3F5F873 		sub	r3, r3, #496
 1493 00b8 9BB2     		uxth	r3, r3
 139:Core/Src/supercap.c **** 		fault_counter++;
 1494              		.loc 1 139 5 view .LVU327
 1495 00ba B3F5426F 		cmp	r3, #3104
 1496 00be 19D9     		bls	.L101
 140:Core/Src/supercap.c **** 		if(fault_counter >= 700){
 1497              		.loc 1 140 3 is_stmt 1 view .LVU328
 140:Core/Src/supercap.c **** 		if(fault_counter >= 700){
 1498              		.loc 1 140 16 is_stmt 0 view .LVU329
 1499 00c0 694A     		ldr	r2, .L125+16
 1500 00c2 1388     		ldrh	r3, [r2]
 1501 00c4 0133     		adds	r3, r3, #1
 1502 00c6 9BB2     		uxth	r3, r3
 1503 00c8 1380     		strh	r3, [r2]	@ movhi
 141:Core/Src/supercap.c **** 			Supercap_AUX_BlueLED(60);
 1504              		.loc 1 141 3 is_stmt 1 view .LVU330
 141:Core/Src/supercap.c **** 			Supercap_AUX_BlueLED(60);
 1505              		.loc 1 141 5 is_stmt 0 view .LVU331
 1506 00ca B3F52F7F 		cmp	r3, #700
 1507 00ce 15D3     		bcc	.L102
ARM GAS  C:\Users\HYDROG~1\AppData\Local\Temp\ccksZwla.s 			page 34


 142:Core/Src/supercap.c **** 			Supercap_AUX_YellowLED(60);
 1508              		.loc 1 142 4 is_stmt 1 view .LVU332
 1509 00d0 3C20     		movs	r0, #60
 1510 00d2 FFF7FEFF 		bl	Supercap_AUX_BlueLED
 1511              	.LVL82:
 143:Core/Src/supercap.c ****       Supercap_AUX_MachineSpirit(0);
 1512              		.loc 1 143 4 view .LVU333
 1513 00d6 3C20     		movs	r0, #60
 1514 00d8 FFF7FEFF 		bl	Supercap_AUX_YellowLED
 1515              	.LVL83:
 144:Core/Src/supercap.c **** 			Supercap_DCDC_Stop();
 1516              		.loc 1 144 7 view .LVU334
 1517 00dc 0020     		movs	r0, #0
 1518 00de FFF7FEFF 		bl	Supercap_AUX_MachineSpirit
 1519              	.LVL84:
 145:Core/Src/supercap.c **** 			//Supercap_AUX_Buzzer(80, 1);
 1520              		.loc 1 145 4 view .LVU335
 1521 00e2 FFF7FEFF 		bl	Supercap_DCDC_Stop
 1522              	.LVL85:
 147:Core/Src/supercap.c **** 			fault_counter = 0;
 1523              		.loc 1 147 4 view .LVU336
 147:Core/Src/supercap.c **** 			fault_counter = 0;
 1524              		.loc 1 147 14 is_stmt 0 view .LVU337
 1525 00e6 624B     		ldr	r3, .L125+24
 1526 00e8 0422     		movs	r2, #4
 1527 00ea 1A70     		strb	r2, [r3]
 148:Core/Src/supercap.c **** 		}
 1528              		.loc 1 148 4 is_stmt 1 view .LVU338
 148:Core/Src/supercap.c **** 		}
 1529              		.loc 1 148 18 is_stmt 0 view .LVU339
 1530 00ec 5E4B     		ldr	r3, .L125+16
 1531 00ee 0022     		movs	r2, #0
 1532 00f0 1A80     		strh	r2, [r3]	@ movhi
 1533 00f2 03E0     		b	.L102
 1534              	.L101:
 151:Core/Src/supercap.c **** 	}
 1535              		.loc 1 151 3 is_stmt 1 view .LVU340
 151:Core/Src/supercap.c **** 	}
 1536              		.loc 1 151 16 is_stmt 0 view .LVU341
 1537 00f4 5C4A     		ldr	r2, .L125+16
 1538 00f6 1388     		ldrh	r3, [r2]
 1539 00f8 013B     		subs	r3, r3, #1
 1540 00fa 1380     		strh	r3, [r2]	@ movhi
 1541              	.L102:
 155:Core/Src/supercap.c ****     case INIT:
 1542              		.loc 1 155 3 is_stmt 1 view .LVU342
 1543 00fc 5C4B     		ldr	r3, .L125+24
 1544 00fe 1B78     		ldrb	r3, [r3]	@ zero_extendqisi2
 1545 0100 013B     		subs	r3, r3, #1
 1546 0102 042B     		cmp	r3, #4
 1547 0104 0CD8     		bhi	.L103
 1548 0106 DFE803F0 		tbb	[pc, r3]
 1549              	.L105:
 1550 010a 07       		.byte	(.L109-.L105)/2
 1551 010b 31       		.byte	(.L108-.L105)/2
 1552 010c 4B       		.byte	(.L107-.L105)/2
 1553 010d 62       		.byte	(.L106-.L105)/2
ARM GAS  C:\Users\HYDROG~1\AppData\Local\Temp\ccksZwla.s 			page 35


 1554 010e 03       		.byte	(.L104-.L105)/2
 1555 010f 00       		.p2align 1
 1556              	.L104:
 157:Core/Src/supercap.c **** 		    //  if(1){
 1557              		.loc 1 157 7 view .LVU343
 157:Core/Src/supercap.c **** 		    //  if(1){
 1558              		.loc 1 157 15 is_stmt 0 view .LVU344
 1559 0110 514B     		ldr	r3, .L125
 1560 0112 9B89     		ldrh	r3, [r3, #12]
 157:Core/Src/supercap.c **** 		    //  if(1){
 1561              		.loc 1 157 9 view .LVU345
 1562 0114 1E2B     		cmp	r3, #30
 1563 0116 0DD8     		bhi	.L123
 1564              	.L109:
 165:Core/Src/supercap.c ****       //if(1){
 1565              		.loc 1 165 7 is_stmt 1 view .LVU346
 165:Core/Src/supercap.c ****       //if(1){
 1566              		.loc 1 165 15 is_stmt 0 view .LVU347
 1567 0118 4F4B     		ldr	r3, .L125
 1568 011a 9B89     		ldrh	r3, [r3, #12]
 165:Core/Src/supercap.c ****       //if(1){
 1569              		.loc 1 165 9 view .LVU348
 1570 011c 322B     		cmp	r3, #50
 1571 011e 16D8     		bhi	.L124
 1572              	.L103:
 203:Core/Src/supercap.c **** 		case INIT:
 1573              		.loc 1 203 3 is_stmt 1 view .LVU349
 1574 0120 534B     		ldr	r3, .L125+24
 1575 0122 1B78     		ldrb	r3, [r3]	@ zero_extendqisi2
 1576 0124 013B     		subs	r3, r3, #1
 1577 0126 042B     		cmp	r3, #4
 1578 0128 75D8     		bhi	.L95
 1579 012a DFE803F0 		tbb	[pc, r3]
 1580              	.L113:
 1581 012e 75       		.byte	(.L117-.L113)/2
 1582 012f 7B       		.byte	(.L116-.L113)/2
 1583 0130 7F       		.byte	(.L115-.L113)/2
 1584 0131 83       		.byte	(.L114-.L113)/2
 1585 0132 6F       		.byte	(.L112-.L113)/2
 1586 0133 00       		.p2align 1
 1587              	.L123:
 159:Core/Src/supercap.c **** 				Supercap_AUX_BlueLED(0);
 1588              		.loc 1 159 9 view .LVU350
 1589 0134 3C20     		movs	r0, #60
 1590 0136 FFF7FEFF 		bl	Supercap_AUX_YellowLED
 1591              	.LVL86:
 160:Core/Src/supercap.c ****         Supercap_AUX_MachineSpirit(0);
 1592              		.loc 1 160 5 view .LVU351
 1593 013a 0020     		movs	r0, #0
 1594 013c FFF7FEFF 		bl	Supercap_AUX_BlueLED
 1595              	.LVL87:
 161:Core/Src/supercap.c ****         CAP_STATE = READY;
 1596              		.loc 1 161 9 view .LVU352
 1597 0140 0020     		movs	r0, #0
 1598 0142 FFF7FEFF 		bl	Supercap_AUX_MachineSpirit
 1599              	.LVL88:
 162:Core/Src/supercap.c ****         }
ARM GAS  C:\Users\HYDROG~1\AppData\Local\Temp\ccksZwla.s 			page 36


 1600              		.loc 1 162 9 view .LVU353
 162:Core/Src/supercap.c ****         }
 1601              		.loc 1 162 19 is_stmt 0 view .LVU354
 1602 0146 4A4B     		ldr	r3, .L125+24
 1603 0148 0122     		movs	r2, #1
 1604 014a 1A70     		strb	r2, [r3]
 1605 014c E4E7     		b	.L109
 1606              	.L124:
 167:Core/Src/supercap.c **** 				Supercap_AUX_YellowLED(0);
 1607              		.loc 1 167 9 is_stmt 1 view .LVU355
 167:Core/Src/supercap.c **** 				Supercap_AUX_YellowLED(0);
 1608              		.loc 1 167 19 is_stmt 0 view .LVU356
 1609 014e 484B     		ldr	r3, .L125+24
 1610 0150 0222     		movs	r2, #2
 1611 0152 1A70     		strb	r2, [r3]
 168:Core/Src/supercap.c **** 				Supercap_AUX_BlueLED(0);
 1612              		.loc 1 168 5 is_stmt 1 view .LVU357
 1613 0154 0020     		movs	r0, #0
 1614 0156 FFF7FEFF 		bl	Supercap_AUX_YellowLED
 1615              	.LVL89:
 169:Core/Src/supercap.c ****         Supercap_AUX_MachineSpirit(60);
 1616              		.loc 1 169 5 view .LVU358
 1617 015a 0020     		movs	r0, #0
 1618 015c FFF7FEFF 		bl	Supercap_AUX_BlueLED
 1619              	.LVL90:
 170:Core/Src/supercap.c **** 				Supercap_DCDC_Start();
 1620              		.loc 1 170 9 view .LVU359
 1621 0160 3C20     		movs	r0, #60
 1622 0162 FFF7FEFF 		bl	Supercap_AUX_MachineSpirit
 1623              	.LVL91:
 171:Core/Src/supercap.c ****       }
 1624              		.loc 1 171 5 view .LVU360
 1625 0166 FFF7FEFF 		bl	Supercap_DCDC_Start
 1626              	.LVL92:
 1627 016a D9E7     		b	.L103
 1628              	.L108:
 175:Core/Src/supercap.c **** 			//if(C_sys.real_value_12bits < 2020){
 1629              		.loc 1 175 7 view .LVU361
 175:Core/Src/supercap.c **** 			//if(C_sys.real_value_12bits < 2020){
 1630              		.loc 1 175 15 is_stmt 0 view .LVU362
 1631 016c 414B     		ldr	r3, .L125+28
 1632 016e 9B89     		ldrh	r3, [r3, #12]
 175:Core/Src/supercap.c **** 			//if(C_sys.real_value_12bits < 2020){
 1633              		.loc 1 175 9 view .LVU363
 1634 0170 B3F50D6F 		cmp	r3, #2256
 1635 0174 D4D2     		bcs	.L103
 175:Core/Src/supercap.c **** 			//if(C_sys.real_value_12bits < 2020){
 1636              		.loc 1 175 49 discriminator 1 view .LVU364
 1637 0176 3A4B     		ldr	r3, .L125+8
 1638 0178 9A89     		ldrh	r2, [r3, #12]
 175:Core/Src/supercap.c **** 			//if(C_sys.real_value_12bits < 2020){
 1639              		.loc 1 175 41 discriminator 1 view .LVU365
 1640 017a 40F2FE73 		movw	r3, #2046
 1641 017e 9A42     		cmp	r2, r3
 1642 0180 CED8     		bhi	.L103
 177:Core/Src/supercap.c **** 				Supercap_DCDC_Stop();
 1643              		.loc 1 177 9 is_stmt 1 view .LVU366
ARM GAS  C:\Users\HYDROG~1\AppData\Local\Temp\ccksZwla.s 			page 37


 177:Core/Src/supercap.c **** 				Supercap_DCDC_Stop();
 1644              		.loc 1 177 19 is_stmt 0 view .LVU367
 1645 0182 3B4B     		ldr	r3, .L125+24
 1646 0184 0322     		movs	r2, #3
 1647 0186 1A70     		strb	r2, [r3]
 178:Core/Src/supercap.c ****         Supercap_AUX_MachineSpirit(0);
 1648              		.loc 1 178 5 is_stmt 1 view .LVU368
 1649 0188 FFF7FEFF 		bl	Supercap_DCDC_Stop
 1650              	.LVL93:
 179:Core/Src/supercap.c **** 				Supercap_AUX_BlueLED(0);
 1651              		.loc 1 179 9 view .LVU369
 1652 018c 0020     		movs	r0, #0
 1653 018e FFF7FEFF 		bl	Supercap_AUX_MachineSpirit
 1654              	.LVL94:
 180:Core/Src/supercap.c **** 				Supercap_AUX_YellowLED(0);
 1655              		.loc 1 180 5 view .LVU370
 1656 0192 0020     		movs	r0, #0
 1657 0194 FFF7FEFF 		bl	Supercap_AUX_BlueLED
 1658              	.LVL95:
 181:Core/Src/supercap.c ****       }
 1659              		.loc 1 181 5 view .LVU371
 1660 0198 0020     		movs	r0, #0
 1661 019a FFF7FEFF 		bl	Supercap_AUX_YellowLED
 1662              	.LVL96:
 1663 019e BFE7     		b	.L103
 1664              	.L107:
 185:Core/Src/supercap.c ****         CAP_STATE = READY;
 1665              		.loc 1 185 4 view .LVU372
 185:Core/Src/supercap.c ****         CAP_STATE = READY;
 1666              		.loc 1 185 12 is_stmt 0 view .LVU373
 1667 01a0 344B     		ldr	r3, .L125+28
 1668 01a2 9B89     		ldrh	r3, [r3, #12]
 185:Core/Src/supercap.c ****         CAP_STATE = READY;
 1669              		.loc 1 185 6 view .LVU374
 1670 01a4 B3F50D6F 		cmp	r3, #2256
 1671 01a8 BAD9     		bls	.L103
 185:Core/Src/supercap.c ****         CAP_STATE = READY;
 1672              		.loc 1 185 46 discriminator 1 view .LVU375
 1673 01aa 2D4B     		ldr	r3, .L125+8
 1674 01ac 9B89     		ldrh	r3, [r3, #12]
 185:Core/Src/supercap.c ****         CAP_STATE = READY;
 1675              		.loc 1 185 38 discriminator 1 view .LVU376
 1676 01ae B3F5006F 		cmp	r3, #2048
 1677 01b2 B5D3     		bcc	.L103
 186:Core/Src/supercap.c **** 				Supercap_AUX_BlueLED(0);
 1678              		.loc 1 186 9 is_stmt 1 view .LVU377
 186:Core/Src/supercap.c **** 				Supercap_AUX_BlueLED(0);
 1679              		.loc 1 186 19 is_stmt 0 view .LVU378
 1680 01b4 2E4B     		ldr	r3, .L125+24
 1681 01b6 0122     		movs	r2, #1
 1682 01b8 1A70     		strb	r2, [r3]
 187:Core/Src/supercap.c **** 				Supercap_AUX_YellowLED(80);
 1683              		.loc 1 187 5 is_stmt 1 view .LVU379
 1684 01ba 0020     		movs	r0, #0
 1685 01bc FFF7FEFF 		bl	Supercap_AUX_BlueLED
 1686              	.LVL97:
 188:Core/Src/supercap.c ****         Supercap_AUX_MachineSpirit(0);
ARM GAS  C:\Users\HYDROG~1\AppData\Local\Temp\ccksZwla.s 			page 38


 1687              		.loc 1 188 5 view .LVU380
 1688 01c0 5020     		movs	r0, #80
 1689 01c2 FFF7FEFF 		bl	Supercap_AUX_YellowLED
 1690              	.LVL98:
 189:Core/Src/supercap.c **** 			}
 1691              		.loc 1 189 9 view .LVU381
 1692 01c6 0020     		movs	r0, #0
 1693 01c8 FFF7FEFF 		bl	Supercap_AUX_MachineSpirit
 1694              	.LVL99:
 1695 01cc A8E7     		b	.L103
 1696              	.L106:
 193:Core/Src/supercap.c **** 				CAP_STATE = READY;
 1697              		.loc 1 193 4 view .LVU382
 193:Core/Src/supercap.c **** 				CAP_STATE = READY;
 1698              		.loc 1 193 26 is_stmt 0 view .LVU383
 1699 01ce 2A4B     		ldr	r3, .L125+32
 1700 01d0 1B88     		ldrh	r3, [r3]
 193:Core/Src/supercap.c **** 				CAP_STATE = READY;
 1701              		.loc 1 193 6 view .LVU384
 1702 01d2 B3F57A7F 		cmp	r3, #1000
 1703 01d6 A3D3     		bcc	.L103
 193:Core/Src/supercap.c **** 				CAP_STATE = READY;
 1704              		.loc 1 193 42 discriminator 1 view .LVU385
 1705 01d8 214B     		ldr	r3, .L125+8
 1706 01da 9B89     		ldrh	r3, [r3, #12]
 1707 01dc 07EE903A 		vmov	s15, r3	@ int
 193:Core/Src/supercap.c **** 				CAP_STATE = READY;
 1708              		.loc 1 193 61 discriminator 1 view .LVU386
 1709 01e0 F8EEE77A 		vcvt.f32.s32	s15, s15
 193:Core/Src/supercap.c **** 				CAP_STATE = READY;
 1710              		.loc 1 193 34 discriminator 1 view .LVU387
 1711 01e4 9FED1F7A 		vldr.32	s14, .L125+12
 1712 01e8 F4EEC77A 		vcmpe.f32	s15, s14
 1713 01ec F1EE10FA 		vmrs	APSR_nzcv, FPSCR
 1714 01f0 96D5     		bpl	.L103
 194:Core/Src/supercap.c **** 				Supercap_AUX_BlueLED(0);
 1715              		.loc 1 194 5 is_stmt 1 view .LVU388
 194:Core/Src/supercap.c **** 				Supercap_AUX_BlueLED(0);
 1716              		.loc 1 194 15 is_stmt 0 view .LVU389
 1717 01f2 1F4B     		ldr	r3, .L125+24
 1718 01f4 0122     		movs	r2, #1
 1719 01f6 1A70     		strb	r2, [r3]
 195:Core/Src/supercap.c **** 				Supercap_AUX_YellowLED(80);
 1720              		.loc 1 195 5 is_stmt 1 view .LVU390
 1721 01f8 0020     		movs	r0, #0
 1722 01fa FFF7FEFF 		bl	Supercap_AUX_BlueLED
 1723              	.LVL100:
 196:Core/Src/supercap.c ****         Supercap_AUX_MachineSpirit(0);
 1724              		.loc 1 196 5 view .LVU391
 1725 01fe 5020     		movs	r0, #80
 1726 0200 FFF7FEFF 		bl	Supercap_AUX_YellowLED
 1727              	.LVL101:
 197:Core/Src/supercap.c **** 			}
 1728              		.loc 1 197 9 view .LVU392
 1729 0204 0020     		movs	r0, #0
 1730 0206 FFF7FEFF 		bl	Supercap_AUX_MachineSpirit
 1731              	.LVL102:
ARM GAS  C:\Users\HYDROG~1\AppData\Local\Temp\ccksZwla.s 			page 39


 1732 020a 89E7     		b	.L103
 1733              	.L112:
 205:Core/Src/supercap.c ****       protection_counter = 0;
 1734              		.loc 1 205 4 view .LVU393
 205:Core/Src/supercap.c ****       protection_counter = 0;
 1735              		.loc 1 205 13 is_stmt 0 view .LVU394
 1736 020c 0023     		movs	r3, #0
 1737 020e 1B4A     		ldr	r2, .L125+36
 1738 0210 1370     		strb	r3, [r2]
 206:Core/Src/supercap.c **** 			break;
 1739              		.loc 1 206 7 is_stmt 1 view .LVU395
 206:Core/Src/supercap.c **** 			break;
 1740              		.loc 1 206 26 is_stmt 0 view .LVU396
 1741 0212 194A     		ldr	r2, .L125+32
 1742 0214 1380     		strh	r3, [r2]	@ movhi
 207:Core/Src/supercap.c ****     case READY:
 1743              		.loc 1 207 4 is_stmt 1 view .LVU397
 1744              	.L95:
 227:Core/Src/supercap.c **** 
 1745              		.loc 1 227 1 is_stmt 0 view .LVU398
 1746 0216 08BD     		pop	{r3, pc}
 1747              	.L117:
 209:Core/Src/supercap.c ****       protection_counter = 0;
 1748              		.loc 1 209 7 is_stmt 1 view .LVU399
 209:Core/Src/supercap.c ****       protection_counter = 0;
 1749              		.loc 1 209 16 is_stmt 0 view .LVU400
 1750 0218 0023     		movs	r3, #0
 1751 021a 184A     		ldr	r2, .L125+36
 1752 021c 1370     		strb	r3, [r2]
 210:Core/Src/supercap.c ****       break;
 1753              		.loc 1 210 7 is_stmt 1 view .LVU401
 210:Core/Src/supercap.c ****       break;
 1754              		.loc 1 210 26 is_stmt 0 view .LVU402
 1755 021e 164A     		ldr	r2, .L125+32
 1756 0220 1380     		strh	r3, [r2]	@ movhi
 211:Core/Src/supercap.c ****     case RUNNING:
 1757              		.loc 1 211 7 is_stmt 1 view .LVU403
 1758 0222 F8E7     		b	.L95
 1759              	.L116:
 213:Core/Src/supercap.c ****       break;
 1760              		.loc 1 213 4 view .LVU404
 213:Core/Src/supercap.c ****       break;
 1761              		.loc 1 213 13 is_stmt 0 view .LVU405
 1762 0224 154B     		ldr	r3, .L125+36
 1763 0226 0122     		movs	r2, #1
 1764 0228 1A70     		strb	r2, [r3]
 214:Core/Src/supercap.c ****     case STOP:
 1765              		.loc 1 214 7 is_stmt 1 view .LVU406
 1766 022a F4E7     		b	.L95
 1767              	.L115:
 216:Core/Src/supercap.c ****       break;
 1768              		.loc 1 216 4 view .LVU407
 216:Core/Src/supercap.c ****       break;
 1769              		.loc 1 216 13 is_stmt 0 view .LVU408
 1770 022c 134B     		ldr	r3, .L125+36
 1771 022e 0022     		movs	r2, #0
 1772 0230 1A70     		strb	r2, [r3]
ARM GAS  C:\Users\HYDROG~1\AppData\Local\Temp\ccksZwla.s 			page 40


 217:Core/Src/supercap.c ****     case FAULT:
 1773              		.loc 1 217 7 is_stmt 1 view .LVU409
 1774 0232 F0E7     		b	.L95
 1775              	.L114:
 219:Core/Src/supercap.c ****       Supercap_PID_Reset(&PID_n7A_loop);
 1776              		.loc 1 219 7 view .LVU410
 1777 0234 1248     		ldr	r0, .L125+40
 1778 0236 FFF7FEFF 		bl	Supercap_PID_Reset
 1779              	.LVL103:
 220:Core/Src/supercap.c ****       Supercap_PID_Reset(&PID_7A_loop);
 1780              		.loc 1 220 7 view .LVU411
 1781 023a 1248     		ldr	r0, .L125+44
 1782 023c FFF7FEFF 		bl	Supercap_PID_Reset
 1783              	.LVL104:
 221:Core/Src/supercap.c ****       Supercap_PID_Reset(&PID_voltage_loop);
 1784              		.loc 1 221 7 view .LVU412
 1785 0240 1148     		ldr	r0, .L125+48
 1786 0242 FFF7FEFF 		bl	Supercap_PID_Reset
 1787              	.LVL105:
 222:Core/Src/supercap.c ****       protection_counter++;
 1788              		.loc 1 222 7 view .LVU413
 1789 0246 1148     		ldr	r0, .L125+52
 1790 0248 FFF7FEFF 		bl	Supercap_PID_Reset
 1791              	.LVL106:
 223:Core/Src/supercap.c ****       break;
 1792              		.loc 1 223 7 view .LVU414
 223:Core/Src/supercap.c ****       break;
 1793              		.loc 1 223 25 is_stmt 0 view .LVU415
 1794 024c 0A4A     		ldr	r2, .L125+32
 1795 024e 1388     		ldrh	r3, [r2]
 1796 0250 0133     		adds	r3, r3, #1
 1797 0252 1380     		strh	r3, [r2]	@ movhi
 224:Core/Src/supercap.c ****   }
 1798              		.loc 1 224 7 is_stmt 1 view .LVU416
 227:Core/Src/supercap.c **** 
 1799              		.loc 1 227 1 is_stmt 0 view .LVU417
 1800 0254 DFE7     		b	.L95
 1801              	.L126:
 1802 0256 00BF     		.align	2
 1803              	.L125:
 1804 0258 00000000 		.word	V_cap
 1805 025c 0080C543 		.word	1137016832
 1806 0260 00000000 		.word	C_sys
 1807 0264 00B02645 		.word	1160163328
 1808 0268 00000000 		.word	.LANCHOR2
 1809 026c 00000000 		.word	C_right
 1810 0270 00000000 		.word	CAP_STATE
 1811 0274 00000000 		.word	V_bat
 1812 0278 00000000 		.word	.LANCHOR3
 1813 027c 00000000 		.word	.LANCHOR1
 1814 0280 00000000 		.word	PID_45W_loop
 1815 0284 00000000 		.word	PID_n7A_loop
 1816 0288 00000000 		.word	PID_7A_loop
 1817 028c 00000000 		.word	PID_voltage_loop
 1818              		.cfi_endproc
 1819              	.LFE340:
 1821              		.section	.text.HAL_TIM_PeriodElapsedCallback,"ax",%progbits
ARM GAS  C:\Users\HYDROG~1\AppData\Local\Temp\ccksZwla.s 			page 41


 1822              		.align	1
 1823              		.global	HAL_TIM_PeriodElapsedCallback
 1824              		.syntax unified
 1825              		.thumb
 1826              		.thumb_func
 1828              	HAL_TIM_PeriodElapsedCallback:
 1829              	.LVL107:
 1830              	.LFB332:
  16:Core/Src/supercap.c **** 	if(htim->Instance == TIM5){
 1831              		.loc 1 16 61 is_stmt 1 view -0
 1832              		.cfi_startproc
 1833              		@ args = 0, pretend = 0, frame = 0
 1834              		@ frame_needed = 0, uses_anonymous_args = 0
  16:Core/Src/supercap.c **** 	if(htim->Instance == TIM5){
 1835              		.loc 1 16 61 is_stmt 0 view .LVU419
 1836 0000 08B5     		push	{r3, lr}
 1837              	.LCFI11:
 1838              		.cfi_def_cfa_offset 8
 1839              		.cfi_offset 3, -8
 1840              		.cfi_offset 14, -4
  17:Core/Src/supercap.c **** 		//HAL_GPIO_WritePin(GPIOB, GPIO_PIN_15, GPIO_PIN_SET);
 1841              		.loc 1 17 2 is_stmt 1 view .LVU420
  17:Core/Src/supercap.c **** 		//HAL_GPIO_WritePin(GPIOB, GPIO_PIN_15, GPIO_PIN_SET);
 1842              		.loc 1 17 9 is_stmt 0 view .LVU421
 1843 0002 0368     		ldr	r3, [r0]
  17:Core/Src/supercap.c **** 		//HAL_GPIO_WritePin(GPIOB, GPIO_PIN_15, GPIO_PIN_SET);
 1844              		.loc 1 17 4 view .LVU422
 1845 0004 0C4A     		ldr	r2, .L135
 1846 0006 9342     		cmp	r3, r2
 1847 0008 06D0     		beq	.L132
  23:Core/Src/supercap.c ****     //HAL_GPIO_WritePin(GPIOB, GPIO_PIN_15, GPIO_PIN_SET);
 1848              		.loc 1 23 8 is_stmt 1 view .LVU423
  23:Core/Src/supercap.c ****     //HAL_GPIO_WritePin(GPIOB, GPIO_PIN_15, GPIO_PIN_SET);
 1849              		.loc 1 23 10 is_stmt 0 view .LVU424
 1850 000a B3F1804F 		cmp	r3, #1073741824
 1851 000e 08D0     		beq	.L133
  29:Core/Src/supercap.c **** 		TIM6_NVIC();
 1852              		.loc 1 29 7 is_stmt 1 view .LVU425
  29:Core/Src/supercap.c **** 		TIM6_NVIC();
 1853              		.loc 1 29 9 is_stmt 0 view .LVU426
 1854 0010 0A4A     		ldr	r2, .L135+4
 1855 0012 9342     		cmp	r3, r2
 1856 0014 08D0     		beq	.L134
 1857              	.LVL108:
 1858              	.L127:
  33:Core/Src/supercap.c **** 
 1859              		.loc 1 33 1 view .LVU427
 1860 0016 08BD     		pop	{r3, pc}
 1861              	.LVL109:
 1862              	.L132:
  19:Core/Src/supercap.c ****     TIM5_NVIC();
 1863              		.loc 1 19 5 is_stmt 1 view .LVU428
 1864 0018 FFF7FEFF 		bl	Supercap_FSM
 1865              	.LVL110:
  20:Core/Src/supercap.c **** 		//HAL_GPIO_WritePin(GPIOB, GPIO_PIN_15, GPIO_PIN_RESET);
 1866              		.loc 1 20 5 view .LVU429
 1867 001c FFF7FEFF 		bl	TIM5_NVIC
ARM GAS  C:\Users\HYDROG~1\AppData\Local\Temp\ccksZwla.s 			page 42


 1868              	.LVL111:
 1869 0020 F9E7     		b	.L127
 1870              	.LVL112:
 1871              	.L133:
  25:Core/Src/supercap.c ****     //HAL_GPIO_WritePin(GPIOB, GPIO_PIN_15, GPIO_PIN_RESET);
 1872              		.loc 1 25 5 view .LVU430
 1873 0022 FFF7FEFF 		bl	TIM2_NVIC
 1874              	.LVL113:
  25:Core/Src/supercap.c ****     //HAL_GPIO_WritePin(GPIOB, GPIO_PIN_15, GPIO_PIN_RESET);
 1875              		.loc 1 25 5 is_stmt 0 view .LVU431
 1876 0026 F6E7     		b	.L127
 1877              	.LVL114:
 1878              	.L134:
  30:Core/Src/supercap.c **** 		HAL_GPIO_TogglePin(GPIOE,GPIO_PIN_3); //heart
 1879              		.loc 1 30 3 is_stmt 1 view .LVU432
 1880 0028 FFF7FEFF 		bl	TIM6_NVIC
 1881              	.LVL115:
  31:Core/Src/supercap.c **** 	}
 1882              		.loc 1 31 3 view .LVU433
 1883 002c 0821     		movs	r1, #8
 1884 002e 0448     		ldr	r0, .L135+8
 1885 0030 FFF7FEFF 		bl	HAL_GPIO_TogglePin
 1886              	.LVL116:
  33:Core/Src/supercap.c **** 
 1887              		.loc 1 33 1 is_stmt 0 view .LVU434
 1888 0034 EFE7     		b	.L127
 1889              	.L136:
 1890 0036 00BF     		.align	2
 1891              	.L135:
 1892 0038 000C0040 		.word	1073744896
 1893 003c 00100040 		.word	1073745920
 1894 0040 00100048 		.word	1207963648
 1895              		.cfi_endproc
 1896              	.LFE332:
 1898              		.section	.text.Supercap_AUX_Buzzer,"ax",%progbits
 1899              		.align	1
 1900              		.global	Supercap_AUX_Buzzer
 1901              		.syntax unified
 1902              		.thumb
 1903              		.thumb_func
 1905              	Supercap_AUX_Buzzer:
 1906              	.LVL117:
 1907              	.LFB360:
 338:Core/Src/supercap.c **** 
 339:Core/Src/supercap.c **** void Supercap_AUX_Buzzer(uint32_t volume, int16_t note){
 1908              		.loc 1 339 56 is_stmt 1 view -0
 1909              		.cfi_startproc
 1910              		@ args = 0, pretend = 0, frame = 0
 1911              		@ frame_needed = 0, uses_anonymous_args = 0
 1912              		@ link register save eliminated.
 340:Core/Src/supercap.c **** if (note == -1) {
 1913              		.loc 1 340 1 view .LVU436
 1914              		.loc 1 340 4 is_stmt 0 view .LVU437
 1915 0000 B1F1FF3F 		cmp	r1, #-1
 1916 0004 44D0     		beq	.L160
 341:Core/Src/supercap.c ****   __HAL_TIM_SET_AUTORELOAD(&htim3, 11538);
 342:Core/Src/supercap.c ****   TIM3_AUTORELOAD_over100 = 115;
ARM GAS  C:\Users\HYDROG~1\AppData\Local\Temp\ccksZwla.s 			page 43


 343:Core/Src/supercap.c **** } else if (note == -2) {
 1917              		.loc 1 343 8 is_stmt 1 view .LVU438
 1918              		.loc 1 343 11 is_stmt 0 view .LVU439
 1919 0006 11F1020F 		cmn	r1, #2
 1920 000a 52D0     		beq	.L161
 344:Core/Src/supercap.c ****   __HAL_TIM_SET_AUTORELOAD(&htim3, 10273);
 345:Core/Src/supercap.c ****   TIM3_AUTORELOAD_over100 = 103;
 346:Core/Src/supercap.c **** } else if (note == -3) {
 1921              		.loc 1 346 8 is_stmt 1 view .LVU440
 1922              		.loc 1 346 11 is_stmt 0 view .LVU441
 1923 000c 11F1030F 		cmn	r1, #3
 1924 0010 59D0     		beq	.L162
 347:Core/Src/supercap.c ****   __HAL_TIM_SET_AUTORELOAD(&htim3, 9146);
 348:Core/Src/supercap.c ****   TIM3_AUTORELOAD_over100 = 91;
 349:Core/Src/supercap.c **** } else if (note == -4) {
 1925              		.loc 1 349 8 is_stmt 1 view .LVU442
 1926              		.loc 1 349 11 is_stmt 0 view .LVU443
 1927 0012 11F1040F 		cmn	r1, #4
 1928 0016 60D0     		beq	.L163
 350:Core/Src/supercap.c ****   __HAL_TIM_SET_AUTORELOAD(&htim3, 8620);
 351:Core/Src/supercap.c ****   TIM3_AUTORELOAD_over100 = 86;
 352:Core/Src/supercap.c **** } else if (note == -5) {
 1929              		.loc 1 352 8 is_stmt 1 view .LVU444
 1930              		.loc 1 352 11 is_stmt 0 view .LVU445
 1931 0018 11F1050F 		cmn	r1, #5
 1932 001c 67D0     		beq	.L164
 353:Core/Src/supercap.c ****   __HAL_TIM_SET_AUTORELOAD(&htim3, 7692);
 354:Core/Src/supercap.c ****   TIM3_AUTORELOAD_over100 = 77;
 355:Core/Src/supercap.c **** } else if (note == -6) {
 1933              		.loc 1 355 8 is_stmt 1 view .LVU446
 1934              		.loc 1 355 11 is_stmt 0 view .LVU447
 1935 001e 11F1060F 		cmn	r1, #6
 1936 0022 6ED0     		beq	.L165
 356:Core/Src/supercap.c ****   __HAL_TIM_SET_AUTORELOAD(&htim3, 6818);
 357:Core/Src/supercap.c ****   TIM3_AUTORELOAD_over100 = 68;
 358:Core/Src/supercap.c **** } else if (note == -7) {
 1937              		.loc 1 358 8 is_stmt 1 view .LVU448
 1938              		.loc 1 358 11 is_stmt 0 view .LVU449
 1939 0024 11F1070F 		cmn	r1, #7
 1940 0028 75D0     		beq	.L166
 359:Core/Src/supercap.c ****   __HAL_TIM_SET_AUTORELOAD(&htim3, 6097);
 360:Core/Src/supercap.c ****   TIM3_AUTORELOAD_over100 = 61;
 361:Core/Src/supercap.c **** } else if (note == 1) {
 1941              		.loc 1 361 8 is_stmt 1 view .LVU450
 1942              		.loc 1 361 11 is_stmt 0 view .LVU451
 1943 002a 0129     		cmp	r1, #1
 1944 002c 7DD0     		beq	.L167
 362:Core/Src/supercap.c ****   __HAL_TIM_SET_AUTORELOAD(&htim3, 5747);
 363:Core/Src/supercap.c ****   TIM3_AUTORELOAD_over100 = 57;
 364:Core/Src/supercap.c **** } else if (note == 2) {
 1945              		.loc 1 364 8 is_stmt 1 view .LVU452
 1946              		.loc 1 364 11 is_stmt 0 view .LVU453
 1947 002e 0229     		cmp	r1, #2
 1948 0030 00F08580 		beq	.L168
 365:Core/Src/supercap.c ****   __HAL_TIM_SET_AUTORELOAD(&htim3, 5119);
 366:Core/Src/supercap.c ****   TIM3_AUTORELOAD_over100 = 51;
 367:Core/Src/supercap.c **** } else if (note == 3) {
ARM GAS  C:\Users\HYDROG~1\AppData\Local\Temp\ccksZwla.s 			page 44


 1949              		.loc 1 367 8 is_stmt 1 view .LVU454
 1950              		.loc 1 367 11 is_stmt 0 view .LVU455
 1951 0034 0329     		cmp	r1, #3
 1952 0036 00F08C80 		beq	.L169
 368:Core/Src/supercap.c ****   __HAL_TIM_SET_AUTORELOAD(&htim3, 4559);
 369:Core/Src/supercap.c ****   TIM3_AUTORELOAD_over100 = 46;
 370:Core/Src/supercap.c **** } else if (note == 4) {
 1953              		.loc 1 370 8 is_stmt 1 view .LVU456
 1954              		.loc 1 370 11 is_stmt 0 view .LVU457
 1955 003a 0429     		cmp	r1, #4
 1956 003c 00F09380 		beq	.L170
 371:Core/Src/supercap.c ****   __HAL_TIM_SET_AUTORELOAD(&htim3, 4297);
 372:Core/Src/supercap.c ****   TIM3_AUTORELOAD_over100 = 43;
 373:Core/Src/supercap.c **** } else if (note == 5) {
 1957              		.loc 1 373 8 is_stmt 1 view .LVU458
 1958              		.loc 1 373 11 is_stmt 0 view .LVU459
 1959 0040 0529     		cmp	r1, #5
 1960 0042 00F09A80 		beq	.L171
 374:Core/Src/supercap.c ****   __HAL_TIM_SET_AUTORELOAD(&htim3, 3836);
 375:Core/Src/supercap.c ****   TIM3_AUTORELOAD_over100 = 38;
 376:Core/Src/supercap.c **** } else if (note == 6) {
 1961              		.loc 1 376 8 is_stmt 1 view .LVU460
 1962              		.loc 1 376 11 is_stmt 0 view .LVU461
 1963 0046 0629     		cmp	r1, #6
 1964 0048 00F0A180 		beq	.L172
 377:Core/Src/supercap.c ****   __HAL_TIM_SET_AUTORELOAD(&htim3, 3409);
 378:Core/Src/supercap.c ****   TIM3_AUTORELOAD_over100 = 34;
 379:Core/Src/supercap.c **** } else if (note == 7) {
 1965              		.loc 1 379 8 is_stmt 1 view .LVU462
 1966              		.loc 1 379 11 is_stmt 0 view .LVU463
 1967 004c 0729     		cmp	r1, #7
 1968 004e 00F0A880 		beq	.L173
 380:Core/Src/supercap.c ****   __HAL_TIM_SET_AUTORELOAD(&htim3, 3042);
 381:Core/Src/supercap.c ****   TIM3_AUTORELOAD_over100 = 30;
 382:Core/Src/supercap.c **** } else if (note == 11) {
 1969              		.loc 1 382 8 is_stmt 1 view .LVU464
 1970              		.loc 1 382 11 is_stmt 0 view .LVU465
 1971 0052 0B29     		cmp	r1, #11
 1972 0054 00F0AF80 		beq	.L174
 383:Core/Src/supercap.c ****   __HAL_TIM_SET_AUTORELOAD(&htim3, 2868);
 384:Core/Src/supercap.c ****   TIM3_AUTORELOAD_over100 = 29;
 385:Core/Src/supercap.c **** } else if (note == 12) {
 1973              		.loc 1 385 8 is_stmt 1 view .LVU466
 1974              		.loc 1 385 11 is_stmt 0 view .LVU467
 1975 0058 0C29     		cmp	r1, #12
 1976 005a 00F0B680 		beq	.L175
 386:Core/Src/supercap.c ****   __HAL_TIM_SET_AUTORELOAD(&htim3, 2555);
 387:Core/Src/supercap.c ****   TIM3_AUTORELOAD_over100 = 26;
 388:Core/Src/supercap.c **** } else if (note == 13) {
 1977              		.loc 1 388 8 is_stmt 1 view .LVU468
 1978              		.loc 1 388 11 is_stmt 0 view .LVU469
 1979 005e 0D29     		cmp	r1, #13
 1980 0060 00F0BD80 		beq	.L176
 389:Core/Src/supercap.c ****   __HAL_TIM_SET_AUTORELOAD(&htim3, 2276);
 390:Core/Src/supercap.c ****   TIM3_AUTORELOAD_over100 = 23;
 391:Core/Src/supercap.c **** } else if (note == 14) {
 1981              		.loc 1 391 8 is_stmt 1 view .LVU470
ARM GAS  C:\Users\HYDROG~1\AppData\Local\Temp\ccksZwla.s 			page 45


 1982              		.loc 1 391 11 is_stmt 0 view .LVU471
 1983 0064 0E29     		cmp	r1, #14
 1984 0066 00F0C480 		beq	.L177
 392:Core/Src/supercap.c ****   __HAL_TIM_SET_AUTORELOAD(&htim3, 2148);
 393:Core/Src/supercap.c ****   TIM3_AUTORELOAD_over100 = 21;
 394:Core/Src/supercap.c **** } else if (note == 15) {
 1985              		.loc 1 394 8 is_stmt 1 view .LVU472
 1986              		.loc 1 394 11 is_stmt 0 view .LVU473
 1987 006a 0F29     		cmp	r1, #15
 1988 006c 00F0CB80 		beq	.L178
 395:Core/Src/supercap.c ****   __HAL_TIM_SET_AUTORELOAD(&htim3, 1915);
 396:Core/Src/supercap.c ****   TIM3_AUTORELOAD_over100 = 19;
 397:Core/Src/supercap.c **** } else if (note == 16) {
 1989              		.loc 1 397 8 is_stmt 1 view .LVU474
 1990              		.loc 1 397 11 is_stmt 0 view .LVU475
 1991 0070 1029     		cmp	r1, #16
 1992 0072 00F0D280 		beq	.L179
 398:Core/Src/supercap.c ****   __HAL_TIM_SET_AUTORELOAD(&htim3, 1704);
 399:Core/Src/supercap.c ****   TIM3_AUTORELOAD_over100 = 17;
 400:Core/Src/supercap.c **** } else if (note == 17) {
 1993              		.loc 1 400 8 is_stmt 1 view .LVU476
 1994              		.loc 1 400 11 is_stmt 0 view .LVU477
 1995 0076 1129     		cmp	r1, #17
 1996 0078 00F0D980 		beq	.L180
 401:Core/Src/supercap.c ****   __HAL_TIM_SET_AUTORELOAD(&htim3, 1518);
 402:Core/Src/supercap.c ****   TIM3_AUTORELOAD_over100 = 15;
 403:Core/Src/supercap.c **** } else{
 404:Core/Src/supercap.c ****   __HAL_TIM_SET_AUTORELOAD(&htim3, 1000);
 1997              		.loc 1 404 3 is_stmt 1 view .LVU478
 1998              		.loc 1 404 3 view .LVU479
 1999 007c 714B     		ldr	r3, .L181
 2000 007e 1968     		ldr	r1, [r3]
 2001              	.LVL118:
 2002              		.loc 1 404 3 is_stmt 0 view .LVU480
 2003 0080 4FF47A72 		mov	r2, #1000
 2004 0084 CA62     		str	r2, [r1, #44]
 2005              		.loc 1 404 3 is_stmt 1 view .LVU481
 2006 0086 DA60     		str	r2, [r3, #12]
 2007              		.loc 1 404 3 view .LVU482
 405:Core/Src/supercap.c ****   TIM3_AUTORELOAD_over100 = 10;
 2008              		.loc 1 405 3 view .LVU483
 2009              		.loc 1 405 27 is_stmt 0 view .LVU484
 2010 0088 6F4B     		ldr	r3, .L181+4
 2011 008a 0A22     		movs	r2, #10
 2012 008c 1A60     		str	r2, [r3]
 2013 008e 08E0     		b	.L139
 2014              	.LVL119:
 2015              	.L160:
 341:Core/Src/supercap.c ****   TIM3_AUTORELOAD_over100 = 115;
 2016              		.loc 1 341 3 is_stmt 1 view .LVU485
 341:Core/Src/supercap.c ****   TIM3_AUTORELOAD_over100 = 115;
 2017              		.loc 1 341 3 view .LVU486
 2018 0090 6C4B     		ldr	r3, .L181
 2019 0092 1968     		ldr	r1, [r3]
 2020              	.LVL120:
 341:Core/Src/supercap.c ****   TIM3_AUTORELOAD_over100 = 115;
 2021              		.loc 1 341 3 is_stmt 0 view .LVU487
ARM GAS  C:\Users\HYDROG~1\AppData\Local\Temp\ccksZwla.s 			page 46


 2022 0094 42F61252 		movw	r2, #11538
 2023 0098 CA62     		str	r2, [r1, #44]
 341:Core/Src/supercap.c ****   TIM3_AUTORELOAD_over100 = 115;
 2024              		.loc 1 341 3 is_stmt 1 view .LVU488
 2025 009a DA60     		str	r2, [r3, #12]
 341:Core/Src/supercap.c ****   TIM3_AUTORELOAD_over100 = 115;
 2026              		.loc 1 341 3 view .LVU489
 342:Core/Src/supercap.c **** } else if (note == -2) {
 2027              		.loc 1 342 3 view .LVU490
 342:Core/Src/supercap.c **** } else if (note == -2) {
 2028              		.loc 1 342 27 is_stmt 0 view .LVU491
 2029 009c 6A4B     		ldr	r3, .L181+4
 2030 009e 7322     		movs	r2, #115
 2031 00a0 1A60     		str	r2, [r3]
 2032              	.L139:
 406:Core/Src/supercap.c **** }
 407:Core/Src/supercap.c ****   __HAL_TIM_SET_COMPARE(&htim3, TIM_CHANNEL_1, volume * TIM3_AUTORELOAD_over100);
 2033              		.loc 1 407 3 is_stmt 1 view .LVU492
 2034 00a2 684B     		ldr	r3, .L181
 2035 00a4 1B68     		ldr	r3, [r3]
 2036 00a6 684A     		ldr	r2, .L181+4
 2037 00a8 1268     		ldr	r2, [r2]
 2038 00aa 02FB00F0 		mul	r0, r2, r0
 2039              	.LVL121:
 2040              		.loc 1 407 3 is_stmt 0 view .LVU493
 2041 00ae 5863     		str	r0, [r3, #52]
 408:Core/Src/supercap.c **** }...
 2042              		.loc 1 408 1 view .LVU494
 2043 00b0 7047     		bx	lr
 2044              	.LVL122:
 2045              	.L161:
 344:Core/Src/supercap.c ****   __HAL_TIM_SET_AUTORELOAD(&htim3, 10273);
 2046              		.loc 1 344 3 is_stmt 1 view .LVU495
 344:Core/Src/supercap.c ****   __HAL_TIM_SET_AUTORELOAD(&htim3, 10273);
 2047              		.loc 1 344 3 view .LVU496
 2048 00b2 644B     		ldr	r3, .L181
 2049 00b4 1968     		ldr	r1, [r3]
 2050              	.LVL123:
 344:Core/Src/supercap.c ****   __HAL_TIM_SET_AUTORELOAD(&htim3, 10273);
 2051              		.loc 1 344 3 is_stmt 0 view .LVU497
 2052 00b6 42F62102 		movw	r2, #10273
 2053 00ba CA62     		str	r2, [r1, #44]
 344:Core/Src/supercap.c ****   __HAL_TIM_SET_AUTORELOAD(&htim3, 10273);
 2054              		.loc 1 344 3 is_stmt 1 view .LVU498
 2055 00bc DA60     		str	r2, [r3, #12]
 344:Core/Src/supercap.c ****   __HAL_TIM_SET_AUTORELOAD(&htim3, 10273);
 2056              		.loc 1 344 3 view .LVU499
 345:Core/Src/supercap.c ****   TIM3_AUTORELOAD_over100 = 103;
 2057              		.loc 1 345 3 view .LVU500
 345:Core/Src/supercap.c ****   TIM3_AUTORELOAD_over100 = 103;
 2058              		.loc 1 345 27 is_stmt 0 view .LVU501
 2059 00be 624B     		ldr	r3, .L181+4
 2060 00c0 6722     		movs	r2, #103
 2061 00c2 1A60     		str	r2, [r3]
 2062 00c4 EDE7     		b	.L139
 2063              	.LVL124:
 2064              	.L162:
ARM GAS  C:\Users\HYDROG~1\AppData\Local\Temp\ccksZwla.s 			page 47


 347:Core/Src/supercap.c ****   __HAL_TIM_SET_AUTORELOAD(&htim3, 9146);
 2065              		.loc 1 347 3 is_stmt 1 view .LVU502
 347:Core/Src/supercap.c ****   __HAL_TIM_SET_AUTORELOAD(&htim3, 9146);
 2066              		.loc 1 347 3 view .LVU503
 2067 00c6 5F4B     		ldr	r3, .L181
 2068 00c8 1968     		ldr	r1, [r3]
 2069              	.LVL125:
 347:Core/Src/supercap.c ****   __HAL_TIM_SET_AUTORELOAD(&htim3, 9146);
 2070              		.loc 1 347 3 is_stmt 0 view .LVU504
 2071 00ca 42F2BA32 		movw	r2, #9146
 2072 00ce CA62     		str	r2, [r1, #44]
 347:Core/Src/supercap.c ****   __HAL_TIM_SET_AUTORELOAD(&htim3, 9146);
 2073              		.loc 1 347 3 is_stmt 1 view .LVU505
 2074 00d0 DA60     		str	r2, [r3, #12]
 347:Core/Src/supercap.c ****   __HAL_TIM_SET_AUTORELOAD(&htim3, 9146);
 2075              		.loc 1 347 3 view .LVU506
 348:Core/Src/supercap.c ****   TIM3_AUTORELOAD_over100 = 91;
 2076              		.loc 1 348 3 view .LVU507
 348:Core/Src/supercap.c ****   TIM3_AUTORELOAD_over100 = 91;
 2077              		.loc 1 348 27 is_stmt 0 view .LVU508
 2078 00d2 5D4B     		ldr	r3, .L181+4
 2079 00d4 5B22     		movs	r2, #91
 2080 00d6 1A60     		str	r2, [r3]
 2081 00d8 E3E7     		b	.L139
 2082              	.LVL126:
 2083              	.L163:
 350:Core/Src/supercap.c ****   __HAL_TIM_SET_AUTORELOAD(&htim3, 8620);
 2084              		.loc 1 350 3 is_stmt 1 view .LVU509
 350:Core/Src/supercap.c ****   __HAL_TIM_SET_AUTORELOAD(&htim3, 8620);
 2085              		.loc 1 350 3 view .LVU510
 2086 00da 5A4B     		ldr	r3, .L181
 2087 00dc 1968     		ldr	r1, [r3]
 2088              	.LVL127:
 350:Core/Src/supercap.c ****   __HAL_TIM_SET_AUTORELOAD(&htim3, 8620);
 2089              		.loc 1 350 3 is_stmt 0 view .LVU511
 2090 00de 42F2AC12 		movw	r2, #8620
 2091 00e2 CA62     		str	r2, [r1, #44]
 350:Core/Src/supercap.c ****   __HAL_TIM_SET_AUTORELOAD(&htim3, 8620);
 2092              		.loc 1 350 3 is_stmt 1 view .LVU512
 2093 00e4 DA60     		str	r2, [r3, #12]
 350:Core/Src/supercap.c ****   __HAL_TIM_SET_AUTORELOAD(&htim3, 8620);
 2094              		.loc 1 350 3 view .LVU513
 351:Core/Src/supercap.c ****   TIM3_AUTORELOAD_over100 = 86;
 2095              		.loc 1 351 3 view .LVU514
 351:Core/Src/supercap.c ****   TIM3_AUTORELOAD_over100 = 86;
 2096              		.loc 1 351 27 is_stmt 0 view .LVU515
 2097 00e6 584B     		ldr	r3, .L181+4
 2098 00e8 5622     		movs	r2, #86
 2099 00ea 1A60     		str	r2, [r3]
 2100 00ec D9E7     		b	.L139
 2101              	.LVL128:
 2102              	.L164:
 353:Core/Src/supercap.c ****   __HAL_TIM_SET_AUTORELOAD(&htim3, 7692);
 2103              		.loc 1 353 3 is_stmt 1 view .LVU516
 353:Core/Src/supercap.c ****   __HAL_TIM_SET_AUTORELOAD(&htim3, 7692);
 2104              		.loc 1 353 3 view .LVU517
 2105 00ee 554B     		ldr	r3, .L181
ARM GAS  C:\Users\HYDROG~1\AppData\Local\Temp\ccksZwla.s 			page 48


 2106 00f0 1968     		ldr	r1, [r3]
 2107              	.LVL129:
 353:Core/Src/supercap.c ****   __HAL_TIM_SET_AUTORELOAD(&htim3, 7692);
 2108              		.loc 1 353 3 is_stmt 0 view .LVU518
 2109 00f2 41F60C62 		movw	r2, #7692
 2110 00f6 CA62     		str	r2, [r1, #44]
 353:Core/Src/supercap.c ****   __HAL_TIM_SET_AUTORELOAD(&htim3, 7692);
 2111              		.loc 1 353 3 is_stmt 1 view .LVU519
 2112 00f8 DA60     		str	r2, [r3, #12]
 353:Core/Src/supercap.c ****   __HAL_TIM_SET_AUTORELOAD(&htim3, 7692);
 2113              		.loc 1 353 3 view .LVU520
 354:Core/Src/supercap.c ****   TIM3_AUTORELOAD_over100 = 77;
 2114              		.loc 1 354 3 view .LVU521
 354:Core/Src/supercap.c ****   TIM3_AUTORELOAD_over100 = 77;
 2115              		.loc 1 354 27 is_stmt 0 view .LVU522
 2116 00fa 534B     		ldr	r3, .L181+4
 2117 00fc 4D22     		movs	r2, #77
 2118 00fe 1A60     		str	r2, [r3]
 2119 0100 CFE7     		b	.L139
 2120              	.LVL130:
 2121              	.L165:
 356:Core/Src/supercap.c ****   __HAL_TIM_SET_AUTORELOAD(&htim3, 6818);
 2122              		.loc 1 356 3 is_stmt 1 view .LVU523
 356:Core/Src/supercap.c ****   __HAL_TIM_SET_AUTORELOAD(&htim3, 6818);
 2123              		.loc 1 356 3 view .LVU524
 2124 0102 504B     		ldr	r3, .L181
 2125 0104 1968     		ldr	r1, [r3]
 2126              	.LVL131:
 356:Core/Src/supercap.c ****   __HAL_TIM_SET_AUTORELOAD(&htim3, 6818);
 2127              		.loc 1 356 3 is_stmt 0 view .LVU525
 2128 0106 41F6A222 		movw	r2, #6818
 2129 010a CA62     		str	r2, [r1, #44]
 356:Core/Src/supercap.c ****   __HAL_TIM_SET_AUTORELOAD(&htim3, 6818);
 2130              		.loc 1 356 3 is_stmt 1 view .LVU526
 2131 010c DA60     		str	r2, [r3, #12]
 356:Core/Src/supercap.c ****   __HAL_TIM_SET_AUTORELOAD(&htim3, 6818);
 2132              		.loc 1 356 3 view .LVU527
 357:Core/Src/supercap.c ****   TIM3_AUTORELOAD_over100 = 68;
 2133              		.loc 1 357 3 view .LVU528
 357:Core/Src/supercap.c ****   TIM3_AUTORELOAD_over100 = 68;
 2134              		.loc 1 357 27 is_stmt 0 view .LVU529
 2135 010e 4E4B     		ldr	r3, .L181+4
 2136 0110 4422     		movs	r2, #68
 2137 0112 1A60     		str	r2, [r3]
 2138 0114 C5E7     		b	.L139
 2139              	.LVL132:
 2140              	.L166:
 359:Core/Src/supercap.c ****   __HAL_TIM_SET_AUTORELOAD(&htim3, 6097);
 2141              		.loc 1 359 3 is_stmt 1 view .LVU530
 359:Core/Src/supercap.c ****   __HAL_TIM_SET_AUTORELOAD(&htim3, 6097);
 2142              		.loc 1 359 3 view .LVU531
 2143 0116 4B4B     		ldr	r3, .L181
 2144 0118 1968     		ldr	r1, [r3]
 2145              	.LVL133:
 359:Core/Src/supercap.c ****   __HAL_TIM_SET_AUTORELOAD(&htim3, 6097);
 2146              		.loc 1 359 3 is_stmt 0 view .LVU532
 2147 011a 41F2D172 		movw	r2, #6097
ARM GAS  C:\Users\HYDROG~1\AppData\Local\Temp\ccksZwla.s 			page 49


 2148 011e CA62     		str	r2, [r1, #44]
 359:Core/Src/supercap.c ****   __HAL_TIM_SET_AUTORELOAD(&htim3, 6097);
 2149              		.loc 1 359 3 is_stmt 1 view .LVU533
 2150 0120 DA60     		str	r2, [r3, #12]
 359:Core/Src/supercap.c ****   __HAL_TIM_SET_AUTORELOAD(&htim3, 6097);
 2151              		.loc 1 359 3 view .LVU534
 360:Core/Src/supercap.c ****   TIM3_AUTORELOAD_over100 = 61;
 2152              		.loc 1 360 3 view .LVU535
 360:Core/Src/supercap.c ****   TIM3_AUTORELOAD_over100 = 61;
 2153              		.loc 1 360 27 is_stmt 0 view .LVU536
 2154 0122 494B     		ldr	r3, .L181+4
 2155 0124 3D22     		movs	r2, #61
 2156 0126 1A60     		str	r2, [r3]
 2157 0128 BBE7     		b	.L139
 2158              	.LVL134:
 2159              	.L167:
 362:Core/Src/supercap.c ****   __HAL_TIM_SET_AUTORELOAD(&htim3, 5747);
 2160              		.loc 1 362 3 is_stmt 1 view .LVU537
 362:Core/Src/supercap.c ****   __HAL_TIM_SET_AUTORELOAD(&htim3, 5747);
 2161              		.loc 1 362 3 view .LVU538
 2162 012a 464B     		ldr	r3, .L181
 2163 012c 1968     		ldr	r1, [r3]
 2164              	.LVL135:
 362:Core/Src/supercap.c ****   __HAL_TIM_SET_AUTORELOAD(&htim3, 5747);
 2165              		.loc 1 362 3 is_stmt 0 view .LVU539
 2166 012e 41F27362 		movw	r2, #5747
 2167 0132 CA62     		str	r2, [r1, #44]
 362:Core/Src/supercap.c ****   __HAL_TIM_SET_AUTORELOAD(&htim3, 5747);
 2168              		.loc 1 362 3 is_stmt 1 view .LVU540
 2169 0134 DA60     		str	r2, [r3, #12]
 362:Core/Src/supercap.c ****   __HAL_TIM_SET_AUTORELOAD(&htim3, 5747);
 2170              		.loc 1 362 3 view .LVU541
 363:Core/Src/supercap.c ****   TIM3_AUTORELOAD_over100 = 57;
 2171              		.loc 1 363 3 view .LVU542
 363:Core/Src/supercap.c ****   TIM3_AUTORELOAD_over100 = 57;
 2172              		.loc 1 363 27 is_stmt 0 view .LVU543
 2173 0136 444B     		ldr	r3, .L181+4
 2174 0138 3922     		movs	r2, #57
 2175 013a 1A60     		str	r2, [r3]
 2176 013c B1E7     		b	.L139
 2177              	.LVL136:
 2178              	.L168:
 365:Core/Src/supercap.c ****   __HAL_TIM_SET_AUTORELOAD(&htim3, 5119);
 2179              		.loc 1 365 3 is_stmt 1 view .LVU544
 365:Core/Src/supercap.c ****   __HAL_TIM_SET_AUTORELOAD(&htim3, 5119);
 2180              		.loc 1 365 3 view .LVU545
 2181 013e 414B     		ldr	r3, .L181
 2182 0140 1968     		ldr	r1, [r3]
 2183              	.LVL137:
 365:Core/Src/supercap.c ****   __HAL_TIM_SET_AUTORELOAD(&htim3, 5119);
 2184              		.loc 1 365 3 is_stmt 0 view .LVU546
 2185 0142 41F2FF32 		movw	r2, #5119
 2186 0146 CA62     		str	r2, [r1, #44]
 365:Core/Src/supercap.c ****   __HAL_TIM_SET_AUTORELOAD(&htim3, 5119);
 2187              		.loc 1 365 3 is_stmt 1 view .LVU547
 2188 0148 DA60     		str	r2, [r3, #12]
 365:Core/Src/supercap.c ****   __HAL_TIM_SET_AUTORELOAD(&htim3, 5119);
ARM GAS  C:\Users\HYDROG~1\AppData\Local\Temp\ccksZwla.s 			page 50


 2189              		.loc 1 365 3 view .LVU548
 366:Core/Src/supercap.c ****   TIM3_AUTORELOAD_over100 = 51;
 2190              		.loc 1 366 3 view .LVU549
 366:Core/Src/supercap.c ****   TIM3_AUTORELOAD_over100 = 51;
 2191              		.loc 1 366 27 is_stmt 0 view .LVU550
 2192 014a 3F4B     		ldr	r3, .L181+4
 2193 014c 3322     		movs	r2, #51
 2194 014e 1A60     		str	r2, [r3]
 2195 0150 A7E7     		b	.L139
 2196              	.LVL138:
 2197              	.L169:
 368:Core/Src/supercap.c ****   __HAL_TIM_SET_AUTORELOAD(&htim3, 4559);
 2198              		.loc 1 368 3 is_stmt 1 view .LVU551
 368:Core/Src/supercap.c ****   __HAL_TIM_SET_AUTORELOAD(&htim3, 4559);
 2199              		.loc 1 368 3 view .LVU552
 2200 0152 3C4B     		ldr	r3, .L181
 2201 0154 1968     		ldr	r1, [r3]
 2202              	.LVL139:
 368:Core/Src/supercap.c ****   __HAL_TIM_SET_AUTORELOAD(&htim3, 4559);
 2203              		.loc 1 368 3 is_stmt 0 view .LVU553
 2204 0156 41F2CF12 		movw	r2, #4559
 2205 015a CA62     		str	r2, [r1, #44]
 368:Core/Src/supercap.c ****   __HAL_TIM_SET_AUTORELOAD(&htim3, 4559);
 2206              		.loc 1 368 3 is_stmt 1 view .LVU554
 2207 015c DA60     		str	r2, [r3, #12]
 368:Core/Src/supercap.c ****   __HAL_TIM_SET_AUTORELOAD(&htim3, 4559);
 2208              		.loc 1 368 3 view .LVU555
 369:Core/Src/supercap.c ****   TIM3_AUTORELOAD_over100 = 46;
 2209              		.loc 1 369 3 view .LVU556
 369:Core/Src/supercap.c ****   TIM3_AUTORELOAD_over100 = 46;
 2210              		.loc 1 369 27 is_stmt 0 view .LVU557
 2211 015e 3A4B     		ldr	r3, .L181+4
 2212 0160 2E22     		movs	r2, #46
 2213 0162 1A60     		str	r2, [r3]
 2214 0164 9DE7     		b	.L139
 2215              	.LVL140:
 2216              	.L170:
 371:Core/Src/supercap.c ****   __HAL_TIM_SET_AUTORELOAD(&htim3, 4297);
 2217              		.loc 1 371 3 is_stmt 1 view .LVU558
 371:Core/Src/supercap.c ****   __HAL_TIM_SET_AUTORELOAD(&htim3, 4297);
 2218              		.loc 1 371 3 view .LVU559
 2219 0166 374B     		ldr	r3, .L181
 2220 0168 1968     		ldr	r1, [r3]
 2221              	.LVL141:
 371:Core/Src/supercap.c ****   __HAL_TIM_SET_AUTORELOAD(&htim3, 4297);
 2222              		.loc 1 371 3 is_stmt 0 view .LVU560
 2223 016a 41F2C902 		movw	r2, #4297
 2224 016e CA62     		str	r2, [r1, #44]
 371:Core/Src/supercap.c ****   __HAL_TIM_SET_AUTORELOAD(&htim3, 4297);
 2225              		.loc 1 371 3 is_stmt 1 view .LVU561
 2226 0170 DA60     		str	r2, [r3, #12]
 371:Core/Src/supercap.c ****   __HAL_TIM_SET_AUTORELOAD(&htim3, 4297);
 2227              		.loc 1 371 3 view .LVU562
 372:Core/Src/supercap.c ****   TIM3_AUTORELOAD_over100 = 43;
 2228              		.loc 1 372 3 view .LVU563
 372:Core/Src/supercap.c ****   TIM3_AUTORELOAD_over100 = 43;
 2229              		.loc 1 372 27 is_stmt 0 view .LVU564
ARM GAS  C:\Users\HYDROG~1\AppData\Local\Temp\ccksZwla.s 			page 51


 2230 0172 354B     		ldr	r3, .L181+4
 2231 0174 2B22     		movs	r2, #43
 2232 0176 1A60     		str	r2, [r3]
 2233 0178 93E7     		b	.L139
 2234              	.LVL142:
 2235              	.L171:
 374:Core/Src/supercap.c ****   __HAL_TIM_SET_AUTORELOAD(&htim3, 3836);
 2236              		.loc 1 374 3 is_stmt 1 view .LVU565
 374:Core/Src/supercap.c ****   __HAL_TIM_SET_AUTORELOAD(&htim3, 3836);
 2237              		.loc 1 374 3 view .LVU566
 2238 017a 324B     		ldr	r3, .L181
 2239 017c 1968     		ldr	r1, [r3]
 2240              	.LVL143:
 374:Core/Src/supercap.c ****   __HAL_TIM_SET_AUTORELOAD(&htim3, 3836);
 2241              		.loc 1 374 3 is_stmt 0 view .LVU567
 2242 017e 40F6FC62 		movw	r2, #3836
 2243 0182 CA62     		str	r2, [r1, #44]
 374:Core/Src/supercap.c ****   __HAL_TIM_SET_AUTORELOAD(&htim3, 3836);
 2244              		.loc 1 374 3 is_stmt 1 view .LVU568
 2245 0184 DA60     		str	r2, [r3, #12]
 374:Core/Src/supercap.c ****   __HAL_TIM_SET_AUTORELOAD(&htim3, 3836);
 2246              		.loc 1 374 3 view .LVU569
 375:Core/Src/supercap.c ****   TIM3_AUTORELOAD_over100 = 38;
 2247              		.loc 1 375 3 view .LVU570
 375:Core/Src/supercap.c ****   TIM3_AUTORELOAD_over100 = 38;
 2248              		.loc 1 375 27 is_stmt 0 view .LVU571
 2249 0186 304B     		ldr	r3, .L181+4
 2250 0188 2622     		movs	r2, #38
 2251 018a 1A60     		str	r2, [r3]
 2252 018c 89E7     		b	.L139
 2253              	.LVL144:
 2254              	.L172:
 377:Core/Src/supercap.c ****   __HAL_TIM_SET_AUTORELOAD(&htim3, 3409);
 2255              		.loc 1 377 3 is_stmt 1 view .LVU572
 377:Core/Src/supercap.c ****   __HAL_TIM_SET_AUTORELOAD(&htim3, 3409);
 2256              		.loc 1 377 3 view .LVU573
 2257 018e 2D4B     		ldr	r3, .L181
 2258 0190 1968     		ldr	r1, [r3]
 2259              	.LVL145:
 377:Core/Src/supercap.c ****   __HAL_TIM_SET_AUTORELOAD(&htim3, 3409);
 2260              		.loc 1 377 3 is_stmt 0 view .LVU574
 2261 0192 40F65152 		movw	r2, #3409
 2262 0196 CA62     		str	r2, [r1, #44]
 377:Core/Src/supercap.c ****   __HAL_TIM_SET_AUTORELOAD(&htim3, 3409);
 2263              		.loc 1 377 3 is_stmt 1 view .LVU575
 2264 0198 DA60     		str	r2, [r3, #12]
 377:Core/Src/supercap.c ****   __HAL_TIM_SET_AUTORELOAD(&htim3, 3409);
 2265              		.loc 1 377 3 view .LVU576
 378:Core/Src/supercap.c ****   TIM3_AUTORELOAD_over100 = 34;
 2266              		.loc 1 378 3 view .LVU577
 378:Core/Src/supercap.c ****   TIM3_AUTORELOAD_over100 = 34;
 2267              		.loc 1 378 27 is_stmt 0 view .LVU578
 2268 019a 2B4B     		ldr	r3, .L181+4
 2269 019c 2222     		movs	r2, #34
 2270 019e 1A60     		str	r2, [r3]
 2271 01a0 7FE7     		b	.L139
 2272              	.LVL146:
ARM GAS  C:\Users\HYDROG~1\AppData\Local\Temp\ccksZwla.s 			page 52


 2273              	.L173:
 380:Core/Src/supercap.c ****   __HAL_TIM_SET_AUTORELOAD(&htim3, 3042);
 2274              		.loc 1 380 3 is_stmt 1 view .LVU579
 380:Core/Src/supercap.c ****   __HAL_TIM_SET_AUTORELOAD(&htim3, 3042);
 2275              		.loc 1 380 3 view .LVU580
 2276 01a2 284B     		ldr	r3, .L181
 2277 01a4 1968     		ldr	r1, [r3]
 2278              	.LVL147:
 380:Core/Src/supercap.c ****   __HAL_TIM_SET_AUTORELOAD(&htim3, 3042);
 2279              		.loc 1 380 3 is_stmt 0 view .LVU581
 2280 01a6 40F6E232 		movw	r2, #3042
 2281 01aa CA62     		str	r2, [r1, #44]
 380:Core/Src/supercap.c ****   __HAL_TIM_SET_AUTORELOAD(&htim3, 3042);
 2282              		.loc 1 380 3 is_stmt 1 view .LVU582
 2283 01ac DA60     		str	r2, [r3, #12]
 380:Core/Src/supercap.c ****   __HAL_TIM_SET_AUTORELOAD(&htim3, 3042);
 2284              		.loc 1 380 3 view .LVU583
 381:Core/Src/supercap.c ****   TIM3_AUTORELOAD_over100 = 30;
 2285              		.loc 1 381 3 view .LVU584
 381:Core/Src/supercap.c ****   TIM3_AUTORELOAD_over100 = 30;
 2286              		.loc 1 381 27 is_stmt 0 view .LVU585
 2287 01ae 264B     		ldr	r3, .L181+4
 2288 01b0 1E22     		movs	r2, #30
 2289 01b2 1A60     		str	r2, [r3]
 2290 01b4 75E7     		b	.L139
 2291              	.LVL148:
 2292              	.L174:
 383:Core/Src/supercap.c ****   __HAL_TIM_SET_AUTORELOAD(&htim3, 2868);
 2293              		.loc 1 383 3 is_stmt 1 view .LVU586
 383:Core/Src/supercap.c ****   __HAL_TIM_SET_AUTORELOAD(&htim3, 2868);
 2294              		.loc 1 383 3 view .LVU587
 2295 01b6 234B     		ldr	r3, .L181
 2296 01b8 1968     		ldr	r1, [r3]
 2297              	.LVL149:
 383:Core/Src/supercap.c ****   __HAL_TIM_SET_AUTORELOAD(&htim3, 2868);
 2298              		.loc 1 383 3 is_stmt 0 view .LVU588
 2299 01ba 40F63432 		movw	r2, #2868
 2300 01be CA62     		str	r2, [r1, #44]
 383:Core/Src/supercap.c ****   __HAL_TIM_SET_AUTORELOAD(&htim3, 2868);
 2301              		.loc 1 383 3 is_stmt 1 view .LVU589
 2302 01c0 DA60     		str	r2, [r3, #12]
 383:Core/Src/supercap.c ****   __HAL_TIM_SET_AUTORELOAD(&htim3, 2868);
 2303              		.loc 1 383 3 view .LVU590
 384:Core/Src/supercap.c ****   TIM3_AUTORELOAD_over100 = 29;
 2304              		.loc 1 384 3 view .LVU591
 384:Core/Src/supercap.c ****   TIM3_AUTORELOAD_over100 = 29;
 2305              		.loc 1 384 27 is_stmt 0 view .LVU592
 2306 01c2 214B     		ldr	r3, .L181+4
 2307 01c4 1D22     		movs	r2, #29
 2308 01c6 1A60     		str	r2, [r3]
 2309 01c8 6BE7     		b	.L139
 2310              	.LVL150:
 2311              	.L175:
 386:Core/Src/supercap.c ****   __HAL_TIM_SET_AUTORELOAD(&htim3, 2555);
 2312              		.loc 1 386 3 is_stmt 1 view .LVU593
 386:Core/Src/supercap.c ****   __HAL_TIM_SET_AUTORELOAD(&htim3, 2555);
 2313              		.loc 1 386 3 view .LVU594
ARM GAS  C:\Users\HYDROG~1\AppData\Local\Temp\ccksZwla.s 			page 53


 2314 01ca 1E4B     		ldr	r3, .L181
 2315 01cc 1968     		ldr	r1, [r3]
 2316              	.LVL151:
 386:Core/Src/supercap.c ****   __HAL_TIM_SET_AUTORELOAD(&htim3, 2555);
 2317              		.loc 1 386 3 is_stmt 0 view .LVU595
 2318 01ce 40F6FB12 		movw	r2, #2555
 2319 01d2 CA62     		str	r2, [r1, #44]
 386:Core/Src/supercap.c ****   __HAL_TIM_SET_AUTORELOAD(&htim3, 2555);
 2320              		.loc 1 386 3 is_stmt 1 view .LVU596
 2321 01d4 DA60     		str	r2, [r3, #12]
 386:Core/Src/supercap.c ****   __HAL_TIM_SET_AUTORELOAD(&htim3, 2555);
 2322              		.loc 1 386 3 view .LVU597
 387:Core/Src/supercap.c ****   TIM3_AUTORELOAD_over100 = 26;
 2323              		.loc 1 387 3 view .LVU598
 387:Core/Src/supercap.c ****   TIM3_AUTORELOAD_over100 = 26;
 2324              		.loc 1 387 27 is_stmt 0 view .LVU599
 2325 01d6 1C4B     		ldr	r3, .L181+4
 2326 01d8 1A22     		movs	r2, #26
 2327 01da 1A60     		str	r2, [r3]
 2328 01dc 61E7     		b	.L139
 2329              	.LVL152:
 2330              	.L176:
 389:Core/Src/supercap.c ****   __HAL_TIM_SET_AUTORELOAD(&htim3, 2276);
 2331              		.loc 1 389 3 is_stmt 1 view .LVU600
 389:Core/Src/supercap.c ****   __HAL_TIM_SET_AUTORELOAD(&htim3, 2276);
 2332              		.loc 1 389 3 view .LVU601
 2333 01de 194B     		ldr	r3, .L181
 2334 01e0 1968     		ldr	r1, [r3]
 2335              	.LVL153:
 389:Core/Src/supercap.c ****   __HAL_TIM_SET_AUTORELOAD(&htim3, 2276);
 2336              		.loc 1 389 3 is_stmt 0 view .LVU602
 2337 01e2 40F6E402 		movw	r2, #2276
 2338 01e6 CA62     		str	r2, [r1, #44]
 389:Core/Src/supercap.c ****   __HAL_TIM_SET_AUTORELOAD(&htim3, 2276);
 2339              		.loc 1 389 3 is_stmt 1 view .LVU603
 2340 01e8 DA60     		str	r2, [r3, #12]
 389:Core/Src/supercap.c ****   __HAL_TIM_SET_AUTORELOAD(&htim3, 2276);
 2341              		.loc 1 389 3 view .LVU604
 390:Core/Src/supercap.c ****   TIM3_AUTORELOAD_over100 = 23;
 2342              		.loc 1 390 3 view .LVU605
 390:Core/Src/supercap.c ****   TIM3_AUTORELOAD_over100 = 23;
 2343              		.loc 1 390 27 is_stmt 0 view .LVU606
 2344 01ea 174B     		ldr	r3, .L181+4
 2345 01ec 1722     		movs	r2, #23
 2346 01ee 1A60     		str	r2, [r3]
 2347 01f0 57E7     		b	.L139
 2348              	.LVL154:
 2349              	.L177:
 392:Core/Src/supercap.c ****   __HAL_TIM_SET_AUTORELOAD(&htim3, 2148);
 2350              		.loc 1 392 3 is_stmt 1 view .LVU607
 392:Core/Src/supercap.c ****   __HAL_TIM_SET_AUTORELOAD(&htim3, 2148);
 2351              		.loc 1 392 3 view .LVU608
 2352 01f2 144B     		ldr	r3, .L181
 2353 01f4 1968     		ldr	r1, [r3]
 2354              	.LVL155:
 392:Core/Src/supercap.c ****   __HAL_TIM_SET_AUTORELOAD(&htim3, 2148);
 2355              		.loc 1 392 3 is_stmt 0 view .LVU609
ARM GAS  C:\Users\HYDROG~1\AppData\Local\Temp\ccksZwla.s 			page 54


 2356 01f6 40F66402 		movw	r2, #2148
 2357 01fa CA62     		str	r2, [r1, #44]
 392:Core/Src/supercap.c ****   __HAL_TIM_SET_AUTORELOAD(&htim3, 2148);
 2358              		.loc 1 392 3 is_stmt 1 view .LVU610
 2359 01fc DA60     		str	r2, [r3, #12]
 392:Core/Src/supercap.c ****   __HAL_TIM_SET_AUTORELOAD(&htim3, 2148);
 2360              		.loc 1 392 3 view .LVU611
 393:Core/Src/supercap.c ****   TIM3_AUTORELOAD_over100 = 21;
 2361              		.loc 1 393 3 view .LVU612
 393:Core/Src/supercap.c ****   TIM3_AUTORELOAD_over100 = 21;
 2362              		.loc 1 393 27 is_stmt 0 view .LVU613
 2363 01fe 124B     		ldr	r3, .L181+4
 2364 0200 1522     		movs	r2, #21
 2365 0202 1A60     		str	r2, [r3]
 2366 0204 4DE7     		b	.L139
 2367              	.LVL156:
 2368              	.L178:
 395:Core/Src/supercap.c ****   __HAL_TIM_SET_AUTORELOAD(&htim3, 1915);
 2369              		.loc 1 395 3 is_stmt 1 view .LVU614
 395:Core/Src/supercap.c ****   __HAL_TIM_SET_AUTORELOAD(&htim3, 1915);
 2370              		.loc 1 395 3 view .LVU615
 2371 0206 0F4B     		ldr	r3, .L181
 2372 0208 1968     		ldr	r1, [r3]
 2373              	.LVL157:
 395:Core/Src/supercap.c ****   __HAL_TIM_SET_AUTORELOAD(&htim3, 1915);
 2374              		.loc 1 395 3 is_stmt 0 view .LVU616
 2375 020a 40F27B72 		movw	r2, #1915
 2376 020e CA62     		str	r2, [r1, #44]
 395:Core/Src/supercap.c ****   __HAL_TIM_SET_AUTORELOAD(&htim3, 1915);
 2377              		.loc 1 395 3 is_stmt 1 view .LVU617
 2378 0210 DA60     		str	r2, [r3, #12]
 395:Core/Src/supercap.c ****   __HAL_TIM_SET_AUTORELOAD(&htim3, 1915);
 2379              		.loc 1 395 3 view .LVU618
 396:Core/Src/supercap.c ****   TIM3_AUTORELOAD_over100 = 19;
 2380              		.loc 1 396 3 view .LVU619
 396:Core/Src/supercap.c ****   TIM3_AUTORELOAD_over100 = 19;
 2381              		.loc 1 396 27 is_stmt 0 view .LVU620
 2382 0212 0D4B     		ldr	r3, .L181+4
 2383 0214 1322     		movs	r2, #19
 2384 0216 1A60     		str	r2, [r3]
 2385 0218 43E7     		b	.L139
 2386              	.LVL158:
 2387              	.L179:
 398:Core/Src/supercap.c ****   __HAL_TIM_SET_AUTORELOAD(&htim3, 1704);
 2388              		.loc 1 398 3 is_stmt 1 view .LVU621
 398:Core/Src/supercap.c ****   __HAL_TIM_SET_AUTORELOAD(&htim3, 1704);
 2389              		.loc 1 398 3 view .LVU622
 2390 021a 0A4B     		ldr	r3, .L181
 2391 021c 1968     		ldr	r1, [r3]
 2392              	.LVL159:
 398:Core/Src/supercap.c ****   __HAL_TIM_SET_AUTORELOAD(&htim3, 1704);
 2393              		.loc 1 398 3 is_stmt 0 view .LVU623
 2394 021e 4FF4D562 		mov	r2, #1704
 2395 0222 CA62     		str	r2, [r1, #44]
 398:Core/Src/supercap.c ****   __HAL_TIM_SET_AUTORELOAD(&htim3, 1704);
 2396              		.loc 1 398 3 is_stmt 1 view .LVU624
 2397 0224 DA60     		str	r2, [r3, #12]
ARM GAS  C:\Users\HYDROG~1\AppData\Local\Temp\ccksZwla.s 			page 55


 398:Core/Src/supercap.c ****   __HAL_TIM_SET_AUTORELOAD(&htim3, 1704);
 2398              		.loc 1 398 3 view .LVU625
 399:Core/Src/supercap.c ****   TIM3_AUTORELOAD_over100 = 17;
 2399              		.loc 1 399 3 view .LVU626
 399:Core/Src/supercap.c ****   TIM3_AUTORELOAD_over100 = 17;
 2400              		.loc 1 399 27 is_stmt 0 view .LVU627
 2401 0226 084B     		ldr	r3, .L181+4
 2402 0228 1122     		movs	r2, #17
 2403 022a 1A60     		str	r2, [r3]
 2404 022c 39E7     		b	.L139
 2405              	.LVL160:
 2406              	.L180:
 401:Core/Src/supercap.c ****   __HAL_TIM_SET_AUTORELOAD(&htim3, 1518);
 2407              		.loc 1 401 3 is_stmt 1 view .LVU628
 401:Core/Src/supercap.c ****   __HAL_TIM_SET_AUTORELOAD(&htim3, 1518);
 2408              		.loc 1 401 3 view .LVU629
 2409 022e 054B     		ldr	r3, .L181
 2410 0230 1968     		ldr	r1, [r3]
 2411              	.LVL161:
 401:Core/Src/supercap.c ****   __HAL_TIM_SET_AUTORELOAD(&htim3, 1518);
 2412              		.loc 1 401 3 is_stmt 0 view .LVU630
 2413 0232 40F2EE52 		movw	r2, #1518
 2414 0236 CA62     		str	r2, [r1, #44]
 401:Core/Src/supercap.c ****   __HAL_TIM_SET_AUTORELOAD(&htim3, 1518);
 2415              		.loc 1 401 3 is_stmt 1 view .LVU631
 2416 0238 DA60     		str	r2, [r3, #12]
 401:Core/Src/supercap.c ****   __HAL_TIM_SET_AUTORELOAD(&htim3, 1518);
 2417              		.loc 1 401 3 view .LVU632
 402:Core/Src/supercap.c ****   TIM3_AUTORELOAD_over100 = 15;
 2418              		.loc 1 402 3 view .LVU633
 402:Core/Src/supercap.c ****   TIM3_AUTORELOAD_over100 = 15;
 2419              		.loc 1 402 27 is_stmt 0 view .LVU634
 2420 023a 034B     		ldr	r3, .L181+4
 2421 023c 0F22     		movs	r2, #15
 2422 023e 1A60     		str	r2, [r3]
 2423 0240 2FE7     		b	.L139
 2424              	.L182:
 2425 0242 00BF     		.align	2
 2426              	.L181:
 2427 0244 00000000 		.word	htim3
 2428 0248 00000000 		.word	TIM3_AUTORELOAD_over100
 2429              		.cfi_endproc
 2430              	.LFE360:
 2432              		.global	temp_current
 2433              		.global	fault_counter
 2434              		.global	protection_counter
 2435              		.global	PID_flag
 2436              		.section	.bss.PID_flag,"aw",%nobits
 2437              		.set	.LANCHOR1,. + 0
 2440              	PID_flag:
 2441 0000 00       		.space	1
 2442              		.section	.bss.fault_counter,"aw",%nobits
 2443              		.align	1
 2444              		.set	.LANCHOR2,. + 0
 2447              	fault_counter:
 2448 0000 0000     		.space	2
 2449              		.section	.bss.protection_counter,"aw",%nobits
ARM GAS  C:\Users\HYDROG~1\AppData\Local\Temp\ccksZwla.s 			page 56


 2450              		.align	1
 2451              		.set	.LANCHOR3,. + 0
 2454              	protection_counter:
 2455 0000 0000     		.space	2
 2456              		.section	.bss.temp_current,"aw",%nobits
 2457              		.align	1
 2458              		.set	.LANCHOR0,. + 0
 2461              	temp_current:
 2462 0000 0000     		.space	2
 2463              		.text
 2464              	.Letext0:
 2465              		.file 2 "c:\\program files (x86)\\gnu arm embedded toolchain\\10 2021.10\\arm-none-eabi\\include\\
 2466              		.file 3 "c:\\program files (x86)\\gnu arm embedded toolchain\\10 2021.10\\arm-none-eabi\\include\\
 2467              		.file 4 "Drivers/CMSIS/Device/ST/STM32G4xx/Include/stm32g473xx.h"
 2468              		.file 5 "Drivers/CMSIS/Device/ST/STM32G4xx/Include/stm32g4xx.h"
 2469              		.file 6 "Drivers/STM32G4xx_HAL_Driver/Inc/stm32g4xx_hal_def.h"
 2470              		.file 7 "Drivers/STM32G4xx_HAL_Driver/Inc/stm32g4xx_hal_dma.h"
 2471              		.file 8 "Drivers/STM32G4xx_HAL_Driver/Inc/stm32g4xx_hal_fdcan.h"
 2472              		.file 9 "Drivers/STM32G4xx_HAL_Driver/Inc/stm32g4xx_hal_tim.h"
 2473              		.file 10 "Core/Inc/fdcan.h"
 2474              		.file 11 "Core/Inc/tim.h"
 2475              		.file 12 "Core/Inc/supercap.h"
 2476              		.file 13 "Drivers/STM32G4xx_HAL_Driver/Inc/stm32g4xx_hal_tim_ex.h"
 2477              		.file 14 "Drivers/STM32G4xx_HAL_Driver/Inc/stm32g4xx_hal_gpio.h"
ARM GAS  C:\Users\HYDROG~1\AppData\Local\Temp\ccksZwla.s 			page 57

