ARM GAS  C:\Users\HYDROG~1\AppData\Local\Temp\cco8vh5F.s 			page 1


   1              		.cpu cortex-m4
   2              		.arch armv7e-m
   3              		.fpu fpv4-sp-d16
   4              		.eabi_attribute 27, 1
   5              		.eabi_attribute 28, 1
   6              		.eabi_attribute 20, 1
   7              		.eabi_attribute 21, 1
   8              		.eabi_attribute 23, 3
   9              		.eabi_attribute 24, 1
  10              		.eabi_attribute 25, 1
  11              		.eabi_attribute 26, 1
  12              		.eabi_attribute 30, 1
  13              		.eabi_attribute 34, 1
  14              		.eabi_attribute 18, 4
  15              		.file	"supercap.c"
  16              		.text
  17              	.Ltext0:
  18              		.cfi_sections	.debug_frame
  19              		.section	.text.TIM6_NVIC,"ax",%progbits
  20              		.align	1
  21              		.global	TIM6_NVIC
  22              		.syntax unified
  23              		.thumb
  24              		.thumb_func
  26              	TIM6_NVIC:
  27              	.LFB333:
  28              		.file 1 "Core/Src/supercap.c"
   1:Core/Src/supercap.c **** /**
   2:Core/Src/supercap.c ****   ******************************************************************************
   3:Core/Src/supercap.c ****   * @file    supercap.c
   4:Core/Src/supercap.c ****   * @brief   This file provides code for the configuration
   5:Core/Src/supercap.c ****   *          of all used supercap pins.
   6:Core/Src/supercap.c ****   */
   7:Core/Src/supercap.c **** /* USER CODE END Header */
   8:Core/Src/supercap.c **** #include "supercap.h"
   9:Core/Src/supercap.c **** 
  10:Core/Src/supercap.c **** uint8_t PID_flag = 0;
  11:Core/Src/supercap.c **** uint16_t protection_counter = 0;
  12:Core/Src/supercap.c **** uint16_t fault_counter = 0;
  13:Core/Src/supercap.c **** uint16_t temp_current;
  14:Core/Src/supercap.c **** 
  15:Core/Src/supercap.c **** //Timmer
  16:Core/Src/supercap.c **** void HAL_TIM_PeriodElapsedCallback(TIM_HandleTypeDef *htim) {
  17:Core/Src/supercap.c **** 	if(htim->Instance == TIM5){
  18:Core/Src/supercap.c **** 		HAL_GPIO_WritePin(GPIOB, GPIO_PIN_15, GPIO_PIN_SET);
  19:Core/Src/supercap.c ****     Supercap_FSM();
  20:Core/Src/supercap.c ****     TIM5_NVIC();
  21:Core/Src/supercap.c **** 		HAL_GPIO_WritePin(GPIOB, GPIO_PIN_15, GPIO_PIN_RESET);
  22:Core/Src/supercap.c **** 	}
  23:Core/Src/supercap.c ****   else if(htim->Instance == TIM2) {
  24:Core/Src/supercap.c ****     HAL_GPIO_WritePin(GPIOB, GPIO_PIN_15, GPIO_PIN_SET);
  25:Core/Src/supercap.c ****     TIM2_NVIC();
  26:Core/Src/supercap.c ****     HAL_GPIO_WritePin(GPIOB, GPIO_PIN_15, GPIO_PIN_RESET);
  27:Core/Src/supercap.c **** 		//debug_counter ++;
  28:Core/Src/supercap.c ****   }
  29:Core/Src/supercap.c **** 	else if(htim->Instance == TIM6){
  30:Core/Src/supercap.c **** 		TIM6_NVIC();
ARM GAS  C:\Users\HYDROG~1\AppData\Local\Temp\cco8vh5F.s 			page 2


  31:Core/Src/supercap.c **** 		HAL_GPIO_TogglePin(GPIOE,GPIO_PIN_3); //heart
  32:Core/Src/supercap.c **** 	}
  33:Core/Src/supercap.c **** }
  34:Core/Src/supercap.c **** 
  35:Core/Src/supercap.c **** void TIM6_NVIC(){ //10 Hz for can and update the parameters
  29              		.loc 1 35 17 view -0
  30              		.cfi_startproc
  31              		@ args = 0, pretend = 0, frame = 8
  32              		@ frame_needed = 0, uses_anonymous_args = 0
  33 0000 00B5     		push	{lr}
  34              	.LCFI0:
  35              		.cfi_def_cfa_offset 4
  36              		.cfi_offset 14, -4
  37 0002 83B0     		sub	sp, sp, #12
  38              	.LCFI1:
  39              		.cfi_def_cfa_offset 16
  36:Core/Src/supercap.c ****     TxData[0] = (((100.0f *(V_cap.real_value_12bits-700))/2707.0f));
  40              		.loc 1 36 5 view .LVU1
  41              		.loc 1 36 34 is_stmt 0 view .LVU2
  42 0004 124B     		ldr	r3, .L3
  43 0006 9B89     		ldrh	r3, [r3, #12]
  44              		.loc 1 36 52 view .LVU3
  45 0008 A3F52F73 		sub	r3, r3, #700
  46 000c 07EE903A 		vmov	s15, r3	@ int
  47              		.loc 1 36 27 view .LVU4
  48 0010 F8EEE77A 		vcvt.f32.s32	s15, s15
  49 0014 9FED0F7A 		vldr.32	s14, .L3+4
  50 0018 67EE877A 		vmul.f32	s15, s15, s14
  51              		.loc 1 36 58 view .LVU5
  52 001c DFED0E6A 		vldr.32	s13, .L3+8
  53 0020 87EEA67A 		vdiv.f32	s14, s15, s13
  54              		.loc 1 36 15 view .LVU6
  55 0024 FCEEC77A 		vcvt.u32.f32	s15, s14
  56 0028 CDED017A 		vstr.32	s15, [sp, #4]	@ int
  57 002c 9DF80430 		ldrb	r3, [sp, #4]	@ zero_extendqisi2
  58 0030 0A4A     		ldr	r2, .L3+12
  59 0032 1370     		strb	r3, [r2]
  37:Core/Src/supercap.c **** 		temp2 = TxData[0];
  60              		.loc 1 37 3 is_stmt 1 view .LVU7
  61              		.loc 1 37 9 is_stmt 0 view .LVU8
  62 0034 07EE903A 		vmov	s15, r3	@ int
  63 0038 F8EE677A 		vcvt.f32.u32	s15, s15
  64 003c 084B     		ldr	r3, .L3+16
  65 003e C3ED007A 		vstr.32	s15, [r3]
  38:Core/Src/supercap.c **** 		// Send data using FDCAN1
  39:Core/Src/supercap.c ****     if (HAL_FDCAN_AddMessageToTxFifoQ(&hfdcan1, &TxHeader, TxData) != HAL_OK) {
  66              		.loc 1 39 5 is_stmt 1 view .LVU9
  67              		.loc 1 39 9 is_stmt 0 view .LVU10
  68 0042 0849     		ldr	r1, .L3+20
  69 0044 0848     		ldr	r0, .L3+24
  70 0046 FFF7FEFF 		bl	HAL_FDCAN_AddMessageToTxFifoQ
  71              	.LVL0:
  40:Core/Src/supercap.c ****     }
  72              		.loc 1 40 5 is_stmt 1 view .LVU11
  41:Core/Src/supercap.c **** }
  73              		.loc 1 41 1 is_stmt 0 view .LVU12
  74 004a 03B0     		add	sp, sp, #12
ARM GAS  C:\Users\HYDROG~1\AppData\Local\Temp\cco8vh5F.s 			page 3


  75              	.LCFI2:
  76              		.cfi_def_cfa_offset 4
  77              		@ sp needed
  78 004c 5DF804FB 		ldr	pc, [sp], #4
  79              	.L4:
  80              		.align	2
  81              	.L3:
  82 0050 00000000 		.word	V_cap
  83 0054 0000C842 		.word	1120403456
  84 0058 00302945 		.word	1160327168
  85 005c 00000000 		.word	TxData
  86 0060 00000000 		.word	temp2
  87 0064 00000000 		.word	TxHeader
  88 0068 00000000 		.word	hfdcan1
  89              		.cfi_endproc
  90              	.LFE333:
  92              		.section	.text.Update_Current,"ax",%progbits
  93              		.align	1
  94              		.global	Update_Current
  95              		.syntax unified
  96              		.thumb
  97              		.thumb_func
  99              	Update_Current:
 100              	.LVL1:
 101              	.LFB336:
  42:Core/Src/supercap.c **** 
  43:Core/Src/supercap.c **** void TIM2_NVIC(){
  44:Core/Src/supercap.c ****   Supercap_First_Order_Filter_ADC_Function_Alpha(&C_sys, 6);
  45:Core/Src/supercap.c ****   Supercap_First_Order_Filter_ADC_Function_Alpha(&C_right, 4);
  46:Core/Src/supercap.c ****   Supercap_First_Order_Filter_ADC_Function_Alpha(&ADC4_12,2);
  47:Core/Src/supercap.c ****   Supercap_First_Order_Filter_ADC_Function_Alpha(&V_bat, 2);
  48:Core/Src/supercap.c ****   Supercap_First_Order_Filter_ADC_Function_Alpha(&V_cap, 4);
  49:Core/Src/supercap.c **** }
  50:Core/Src/supercap.c **** 
  51:Core/Src/supercap.c **** void TIM5_NVIC(){
  52:Core/Src/supercap.c **** 	if(PID_flag == 1){
  53:Core/Src/supercap.c **** 		Supercap_PID_Controller_Function(&PID_45W_loop, &C_sys, supercap_max_power_current, ((supercap_ma
  54:Core/Src/supercap.c **** 		Supercap_PID_Controller_Function(&PID_n7A_loop, &C_right, 500, V_cap.real_value_12bits);
  55:Core/Src/supercap.c **** 		Supercap_PID_Controller_Function(&PID_7A_loop, &C_right, 2202, V_cap.real_value_12bits);
  56:Core/Src/supercap.c **** 		supercap_target_voltage = Supercap_Compare(PID_45W_loop.output, PID_n7A_loop.output, PID_7A_loop.
  57:Core/Src/supercap.c **** 		supercap_target_voltage = Supercap_Limit(supercap_target_voltage, 2800, 0);
  58:Core/Src/supercap.c **** 		Supercap_PWM_left(supercap_target_voltage * 0.1f);
  59:Core/Src/supercap.c **** 	}
  60:Core/Src/supercap.c **** }
  61:Core/Src/supercap.c **** 
  62:Core/Src/supercap.c **** uint16_t Update_Current(uint16_t old_power, uint16_t new_power){
 102              		.loc 1 62 64 is_stmt 1 view -0
 103              		.cfi_startproc
 104              		@ args = 0, pretend = 0, frame = 0
 105              		@ frame_needed = 0, uses_anonymous_args = 0
 106              		@ link register save eliminated.
 107              		.loc 1 62 64 is_stmt 0 view .LVU14
 108 0000 07EE901A 		vmov	s15, r1	@ int
  63:Core/Src/supercap.c **** 	temp_current = (1.65f*4095.0f/3.3f)+(((new_power * 0.95f) / 24.0f)*0.005f)*25.0f*4095.0f/3.3f;
 109              		.loc 1 63 2 is_stmt 1 view .LVU15
 110              		.loc 1 63 51 is_stmt 0 view .LVU16
 111 0004 F8EEE77A 		vcvt.f32.s32	s15, s15
ARM GAS  C:\Users\HYDROG~1\AppData\Local\Temp\cco8vh5F.s 			page 4


 112 0008 9FED167A 		vldr.32	s14, .L7
 113 000c 67EE877A 		vmul.f32	s15, s15, s14
 114              		.loc 1 63 60 view .LVU17
 115 0010 F3EE086A 		vmov.f32	s13, #2.4e+1
 116 0014 87EEA67A 		vdiv.f32	s14, s15, s13
 117              		.loc 1 63 68 view .LVU18
 118 0018 DFED137A 		vldr.32	s15, .L7+4
 119 001c 27EE277A 		vmul.f32	s14, s14, s15
 120              		.loc 1 63 76 view .LVU19
 121 0020 F3EE097A 		vmov.f32	s15, #2.5e+1
 122 0024 27EE277A 		vmul.f32	s14, s14, s15
 123              		.loc 1 63 82 view .LVU20
 124 0028 DFED107A 		vldr.32	s15, .L7+8
 125 002c 27EE277A 		vmul.f32	s14, s14, s15
 126              		.loc 1 63 90 view .LVU21
 127 0030 DFED0F6A 		vldr.32	s13, .L7+12
 128 0034 C7EE267A 		vdiv.f32	s15, s14, s13
 129              		.loc 1 63 37 view .LVU22
 130 0038 9FED0E7A 		vldr.32	s14, .L7+16
 131 003c 77EE877A 		vadd.f32	s15, s15, s14
 132              		.loc 1 63 15 view .LVU23
 133 0040 FCEEE77A 		vcvt.u32.f32	s15, s15
 134 0044 17EE903A 		vmov	r3, s15	@ int
 135 0048 9BB2     		uxth	r3, r3
 136 004a 0B4A     		ldr	r2, .L7+20
 137 004c 1380     		strh	r3, [r2]	@ movhi
  64:Core/Src/supercap.c **** 	if(temp_current >= 2040 && temp_current <= 3000){
 138              		.loc 1 64 2 is_stmt 1 view .LVU24
 139              		.loc 1 64 26 is_stmt 0 view .LVU25
 140 004e A3F5FF62 		sub	r2, r3, #2040
 141 0052 92B2     		uxth	r2, r2
 142              		.loc 1 64 4 view .LVU26
 143 0054 B2F5707F 		cmp	r2, #960
 144 0058 01D8     		bhi	.L6
  65:Core/Src/supercap.c **** 	supercap_max_power_current = temp_current;
 145              		.loc 1 65 2 is_stmt 1 view .LVU27
 146              		.loc 1 65 29 is_stmt 0 view .LVU28
 147 005a 084A     		ldr	r2, .L7+24
 148 005c 1380     		strh	r3, [r2]	@ movhi
 149              	.L6:
  66:Core/Src/supercap.c **** 	}
  67:Core/Src/supercap.c ****   return(1);
 150              		.loc 1 67 3 is_stmt 1 view .LVU29
  68:Core/Src/supercap.c **** }
 151              		.loc 1 68 1 is_stmt 0 view .LVU30
 152 005e 0120     		movs	r0, #1
 153              	.LVL2:
 154              		.loc 1 68 1 view .LVU31
 155 0060 7047     		bx	lr
 156              	.L8:
 157 0062 00BF     		.align	2
 158              	.L7:
 159 0064 3333733F 		.word	1064514355
 160 0068 0AD7A33B 		.word	1000593162
 161 006c 00F07F45 		.word	1166012416
 162 0070 33335340 		.word	1079194419
 163 0074 00F0FF44 		.word	1157623808
ARM GAS  C:\Users\HYDROG~1\AppData\Local\Temp\cco8vh5F.s 			page 5


 164 0078 00000000 		.word	.LANCHOR0
 165 007c 00000000 		.word	supercap_max_power_current
 166              		.cfi_endproc
 167              	.LFE336:
 169              		.section	.text.Supercap_PID_Controller_Function,"ax",%progbits
 170              		.align	1
 171              		.global	Supercap_PID_Controller_Function
 172              		.syntax unified
 173              		.thumb
 174              		.thumb_func
 176              	Supercap_PID_Controller_Function:
 177              	.LVL3:
 178              	.LFB337:
  69:Core/Src/supercap.c **** 
  70:Core/Src/supercap.c **** void Supercap_PID_Controller_Function(_Supercap_PID_Controller_t *pid_controller, _ADC_Sample_t *ad
 179              		.loc 1 70 140 is_stmt 1 view -0
 180              		.cfi_startproc
 181              		@ args = 0, pretend = 0, frame = 0
 182              		@ frame_needed = 0, uses_anonymous_args = 0
 183              		@ link register save eliminated.
  71:Core/Src/supercap.c **** 	pid_controller->error = target - adc_sample->real_value_12bits;
 184              		.loc 1 71 2 view .LVU33
 185              		.loc 1 71 45 is_stmt 0 view .LVU34
 186 0000 8B89     		ldrh	r3, [r1, #12]
 187              		.loc 1 71 33 view .LVU35
 188 0002 D21A     		subs	r2, r2, r3
 189              	.LVL4:
 190              		.loc 1 71 33 view .LVU36
 191 0004 12B2     		sxth	r2, r2
 192              		.loc 1 71 24 view .LVU37
 193 0006 8281     		strh	r2, [r0, #12]	@ movhi
  72:Core/Src/supercap.c ****   pid_controller->error_sum += pid_controller->error * pid_controller->Ki;
 194              		.loc 1 72 3 is_stmt 1 view .LVU38
 195              		.loc 1 72 54 is_stmt 0 view .LVU39
 196 0008 07EE902A 		vmov	s15, r2	@ int
 197 000c F8EEE77A 		vcvt.f32.s32	s15, s15
 198              		.loc 1 72 70 view .LVU40
 199 0010 90ED017A 		vldr.32	s14, [r0, #4]
 200              		.loc 1 72 54 view .LVU41
 201 0014 27EE877A 		vmul.f32	s14, s15, s14
 202              		.loc 1 72 29 view .LVU42
 203 0018 D0ED046A 		vldr.32	s13, [r0, #16]
 204 001c 37EE267A 		vadd.f32	s14, s14, s13
 205 0020 80ED047A 		vstr.32	s14, [r0, #16]
  73:Core/Src/supercap.c ****   if(pid_controller->error_sum > pid_controller->I_max)
 206              		.loc 1 73 3 is_stmt 1 view .LVU43
 207              		.loc 1 73 48 is_stmt 0 view .LVU44
 208 0024 B0F91A30 		ldrsh	r3, [r0, #26]
 209              		.loc 1 73 32 view .LVU45
 210 0028 06EE903A 		vmov	s13, r3	@ int
 211 002c F8EEE66A 		vcvt.f32.s32	s13, s13
 212              		.loc 1 73 5 view .LVU46
 213 0030 B4EEE67A 		vcmpe.f32	s14, s13
 214 0034 F1EE10FA 		vmrs	APSR_nzcv, FPSCR
 215 0038 25DD     		ble	.L18
  74:Core/Src/supercap.c ****   {pid_controller->error_sum = pid_controller->I_max;}
 216              		.loc 1 74 4 is_stmt 1 view .LVU47
ARM GAS  C:\Users\HYDROG~1\AppData\Local\Temp\cco8vh5F.s 			page 6


 217              		.loc 1 74 30 is_stmt 0 view .LVU48
 218 003a C0ED046A 		vstr.32	s13, [r0, #16]
 219              	.L12:
  75:Core/Src/supercap.c ****   else if(pid_controller->error_sum < -pid_controller->I_max)
  76:Core/Src/supercap.c ****   {pid_controller->error_sum = -pid_controller->I_max;}
  77:Core/Src/supercap.c ****   pid_controller->output = pid_controller->Kp*pid_controller->error + pid_controller->error_sum + p
 220              		.loc 1 77 3 is_stmt 1 view .LVU49
 221              		.loc 1 77 42 is_stmt 0 view .LVU50
 222 003e 90ED007A 		vldr.32	s14, [r0]
 223              		.loc 1 77 46 view .LVU51
 224 0042 67EE877A 		vmul.f32	s15, s15, s14
 225              		.loc 1 77 85 view .LVU52
 226 0046 90ED047A 		vldr.32	s14, [r0, #16]
 227              		.loc 1 77 69 view .LVU53
 228 004a 77EE877A 		vadd.f32	s15, s15, s14
 229              		.loc 1 77 113 view .LVU54
 230 004e D0ED026A 		vldr.32	s13, [r0, #8]
 231              		.loc 1 77 157 view .LVU55
 232 0052 B0F90E30 		ldrsh	r3, [r0, #14]
 233              		.loc 1 77 141 view .LVU56
 234 0056 D31A     		subs	r3, r2, r3
 235 0058 07EE103A 		vmov	s14, r3	@ int
 236              		.loc 1 77 117 view .LVU57
 237 005c B8EEC77A 		vcvt.f32.s32	s14, s14
 238 0060 27EE267A 		vmul.f32	s14, s14, s13
 239              		.loc 1 77 97 view .LVU58
 240 0064 77EE877A 		vadd.f32	s15, s15, s14
 241              		.loc 1 77 171 view .LVU59
 242 0068 37EE800A 		vadd.f32	s0, s15, s0
 243              	.LVL5:
 244              		.loc 1 77 26 view .LVU60
 245 006c BDEEC00A 		vcvt.s32.f32	s0, s0
 246 0070 10EE103A 		vmov	r3, s0	@ int
 247 0074 1BB2     		sxth	r3, r3
 248 0076 8382     		strh	r3, [r0, #20]	@ movhi
  78:Core/Src/supercap.c ****   pid_controller->error_last = pid_controller->error;
 249              		.loc 1 78 3 is_stmt 1 view .LVU61
 250              		.loc 1 78 30 is_stmt 0 view .LVU62
 251 0078 C281     		strh	r2, [r0, #14]	@ movhi
  79:Core/Src/supercap.c ****   if(pid_controller->output > pid_controller->output_max)
 252              		.loc 1 79 3 is_stmt 1 view .LVU63
 253              		.loc 1 79 45 is_stmt 0 view .LVU64
 254 007a B0F91620 		ldrsh	r2, [r0, #22]
 255              		.loc 1 79 5 view .LVU65
 256 007e 9342     		cmp	r3, r2
 257 0080 0EDD     		ble	.L14
  80:Core/Src/supercap.c ****   {pid_controller->output = pid_controller->output_max;}
 258              		.loc 1 80 4 is_stmt 1 view .LVU66
 259              		.loc 1 80 27 is_stmt 0 view .LVU67
 260 0082 8282     		strh	r2, [r0, #20]	@ movhi
 261 0084 7047     		bx	lr
 262              	.LVL6:
 263              	.L18:
  75:Core/Src/supercap.c ****   {pid_controller->error_sum = -pid_controller->I_max;}
 264              		.loc 1 75 8 is_stmt 1 view .LVU68
  75:Core/Src/supercap.c ****   {pid_controller->error_sum = -pid_controller->I_max;}
 265              		.loc 1 75 39 is_stmt 0 view .LVU69
ARM GAS  C:\Users\HYDROG~1\AppData\Local\Temp\cco8vh5F.s 			page 7


 266 0086 5B42     		rsbs	r3, r3, #0
  75:Core/Src/supercap.c ****   {pid_controller->error_sum = -pid_controller->I_max;}
 267              		.loc 1 75 37 view .LVU70
 268 0088 06EE903A 		vmov	s13, r3	@ int
 269 008c F8EEE66A 		vcvt.f32.s32	s13, s13
  75:Core/Src/supercap.c ****   {pid_controller->error_sum = -pid_controller->I_max;}
 270              		.loc 1 75 10 view .LVU71
 271 0090 B4EEE67A 		vcmpe.f32	s14, s13
 272 0094 F1EE10FA 		vmrs	APSR_nzcv, FPSCR
 273 0098 D1D5     		bpl	.L12
  76:Core/Src/supercap.c ****   pid_controller->output = pid_controller->Kp*pid_controller->error + pid_controller->error_sum + p
 274              		.loc 1 76 4 is_stmt 1 view .LVU72
  76:Core/Src/supercap.c ****   pid_controller->output = pid_controller->Kp*pid_controller->error + pid_controller->error_sum + p
 275              		.loc 1 76 30 is_stmt 0 view .LVU73
 276 009a C0ED046A 		vstr.32	s13, [r0, #16]
 277 009e CEE7     		b	.L12
 278              	.LVL7:
 279              	.L14:
  81:Core/Src/supercap.c ****   else if(pid_controller->output < pid_controller->output_min)
 280              		.loc 1 81 8 is_stmt 1 view .LVU74
 281              		.loc 1 81 50 is_stmt 0 view .LVU75
 282 00a0 B0F91820 		ldrsh	r2, [r0, #24]
 283              		.loc 1 81 10 view .LVU76
 284 00a4 9342     		cmp	r3, r2
 285 00a6 00DA     		bge	.L9
  82:Core/Src/supercap.c ****   {pid_controller->output = pid_controller->output_min;}
 286              		.loc 1 82 4 is_stmt 1 view .LVU77
 287              		.loc 1 82 27 is_stmt 0 view .LVU78
 288 00a8 8282     		strh	r2, [r0, #20]	@ movhi
 289              	.L9:
  83:Core/Src/supercap.c **** }
 290              		.loc 1 83 1 view .LVU79
 291 00aa 7047     		bx	lr
 292              		.cfi_endproc
 293              	.LFE337:
 295              		.section	.text.Supercap_Compare,"ax",%progbits
 296              		.align	1
 297              		.global	Supercap_Compare
 298              		.syntax unified
 299              		.thumb
 300              		.thumb_func
 302              	Supercap_Compare:
 303              	.LVL8:
 304              	.LFB338:
  84:Core/Src/supercap.c **** 
  85:Core/Src/supercap.c **** int16_t Supercap_Compare(int16_t Output1, int16_t Output2, int16_t Output3){
 305              		.loc 1 85 76 is_stmt 1 view -0
 306              		.cfi_startproc
 307              		@ args = 0, pretend = 0, frame = 0
 308              		@ frame_needed = 0, uses_anonymous_args = 0
 309              		@ link register save eliminated.
  86:Core/Src/supercap.c ****   if ((Output1 >= Output2 && Output1 <= Output3) || (Output1 <= Output2 && Output1 >= Output3)) {
 310              		.loc 1 86 3 view .LVU81
 311              		.loc 1 86 6 is_stmt 0 view .LVU82
 312 0000 8842     		cmp	r0, r1
 313 0002 01DB     		blt	.L20
 314              		.loc 1 86 27 discriminator 1 view .LVU83
ARM GAS  C:\Users\HYDROG~1\AppData\Local\Temp\cco8vh5F.s 			page 8


 315 0004 9042     		cmp	r0, r2
 316 0006 12DD     		ble	.L21
 317              	.L20:
 318              		.loc 1 86 50 discriminator 3 view .LVU84
 319 0008 8842     		cmp	r0, r1
 320 000a 01DC     		bgt	.L22
 321              		.loc 1 86 73 discriminator 4 view .LVU85
 322 000c 9042     		cmp	r0, r2
 323 000e 0EDA     		bge	.L21
 324              	.L22:
  87:Core/Src/supercap.c ****     return Output1;
  88:Core/Src/supercap.c ****   } else if ((Output2 >= Output1 && Output2 <= Output3) || (Output2 <= Output1 && Output2 >= Output
 325              		.loc 1 88 10 is_stmt 1 view .LVU86
 326              		.loc 1 88 13 is_stmt 0 view .LVU87
 327 0010 8842     		cmp	r0, r1
 328 0012 01DC     		bgt	.L23
 329              		.loc 1 88 34 discriminator 1 view .LVU88
 330 0014 9142     		cmp	r1, r2
 331 0016 05DD     		ble	.L26
 332              	.L23:
 333              		.loc 1 88 57 discriminator 3 view .LVU89
 334 0018 8842     		cmp	r0, r1
 335 001a 05DB     		blt	.L27
 336              		.loc 1 88 80 discriminator 4 view .LVU90
 337 001c 9142     		cmp	r1, r2
 338 001e 05DA     		bge	.L28
  89:Core/Src/supercap.c ****     return Output2;
  90:Core/Src/supercap.c ****   } else {
  91:Core/Src/supercap.c ****     return Output3;
 339              		.loc 1 91 12 view .LVU91
 340 0020 1046     		mov	r0, r2
 341              	.LVL9:
 342              		.loc 1 91 12 view .LVU92
 343 0022 7047     		bx	lr
 344              	.LVL10:
 345              	.L26:
  89:Core/Src/supercap.c ****     return Output2;
 346              		.loc 1 89 12 view .LVU93
 347 0024 0846     		mov	r0, r1
 348              	.LVL11:
  89:Core/Src/supercap.c ****     return Output2;
 349              		.loc 1 89 12 view .LVU94
 350 0026 7047     		bx	lr
 351              	.LVL12:
 352              	.L27:
 353              		.loc 1 91 12 view .LVU95
 354 0028 1046     		mov	r0, r2
 355              	.LVL13:
 356              		.loc 1 91 12 view .LVU96
 357 002a 7047     		bx	lr
 358              	.LVL14:
 359              	.L28:
  89:Core/Src/supercap.c ****     return Output2;
 360              		.loc 1 89 12 view .LVU97
 361 002c 0846     		mov	r0, r1
 362              	.LVL15:
 363              	.L21:
ARM GAS  C:\Users\HYDROG~1\AppData\Local\Temp\cco8vh5F.s 			page 9


  92:Core/Src/supercap.c ****   }
  93:Core/Src/supercap.c **** }
 364              		.loc 1 93 1 view .LVU98
 365 002e 7047     		bx	lr
 366              		.cfi_endproc
 367              	.LFE338:
 369              		.section	.text.Supercap_Limit,"ax",%progbits
 370              		.align	1
 371              		.global	Supercap_Limit
 372              		.syntax unified
 373              		.thumb
 374              		.thumb_func
 376              	Supercap_Limit:
 377              	.LVL16:
 378              	.LFB339:
  94:Core/Src/supercap.c **** 
  95:Core/Src/supercap.c **** int16_t Supercap_Limit(int16_t input, int16_t max, int16_t min){
 379              		.loc 1 95 64 is_stmt 1 view -0
 380              		.cfi_startproc
 381              		@ args = 0, pretend = 0, frame = 0
 382              		@ frame_needed = 0, uses_anonymous_args = 0
 383              		@ link register save eliminated.
  96:Core/Src/supercap.c ****   if (input > max) {
 384              		.loc 1 96 3 view .LVU100
 385              		.loc 1 96 6 is_stmt 0 view .LVU101
 386 0000 8842     		cmp	r0, r1
 387 0002 03DC     		bgt	.L31
  97:Core/Src/supercap.c ****     return max;
  98:Core/Src/supercap.c ****   } else if (input < min) {
 388              		.loc 1 98 10 is_stmt 1 view .LVU102
 389              		.loc 1 98 13 is_stmt 0 view .LVU103
 390 0004 9042     		cmp	r0, r2
 391 0006 02DA     		bge	.L30
  99:Core/Src/supercap.c ****     return min;
 392              		.loc 1 99 12 view .LVU104
 393 0008 1046     		mov	r0, r2
 394              	.LVL17:
 395              		.loc 1 99 12 view .LVU105
 396 000a 7047     		bx	lr
 397              	.LVL18:
 398              	.L31:
  97:Core/Src/supercap.c ****     return max;
 399              		.loc 1 97 12 view .LVU106
 400 000c 0846     		mov	r0, r1
 401              	.LVL19:
 402              	.L30:
 100:Core/Src/supercap.c ****   } else {
 101:Core/Src/supercap.c ****     return input;
 102:Core/Src/supercap.c ****   }
 103:Core/Src/supercap.c **** }
 403              		.loc 1 103 1 view .LVU107
 404 000e 7047     		bx	lr
 405              		.cfi_endproc
 406              	.LFE339:
 408              		.section	.text.Supercap_Average_ADC_Function,"ax",%progbits
 409              		.align	1
 410              		.global	Supercap_Average_ADC_Function
ARM GAS  C:\Users\HYDROG~1\AppData\Local\Temp\cco8vh5F.s 			page 10


 411              		.syntax unified
 412              		.thumb
 413              		.thumb_func
 415              	Supercap_Average_ADC_Function:
 416              	.LVL20:
 417              	.LFB341:
 104:Core/Src/supercap.c **** 
 105:Core/Src/supercap.c **** void Supercap_FSM(){
 106:Core/Src/supercap.c ****   //Protection
 107:Core/Src/supercap.c ****   if(V_cap.real_value_12bits < VOLTAGE_LIMIT && C_sys.real_value_12bits > CURRENT_LIMIT){
 108:Core/Src/supercap.c **** 		fault_counter++;
 109:Core/Src/supercap.c **** 		if(fault_counter >= 100){
 110:Core/Src/supercap.c **** 			Supercap_DCDC_Stop();
 111:Core/Src/supercap.c **** 			Supercap_AUX_BlueLED(60);
 112:Core/Src/supercap.c **** 			Supercap_AUX_YellowLED(60);
 113:Core/Src/supercap.c ****       Supercap_AUX_MachineSpirit(0);
 114:Core/Src/supercap.c **** 			//Supercap_AUX_Buzzer(80, 11);
 115:Core/Src/supercap.c **** 			CAP_STATE = FAULT;
 116:Core/Src/supercap.c **** 			fault_counter = 0;
 117:Core/Src/supercap.c **** 		}
 118:Core/Src/supercap.c ****   } else{
 119:Core/Src/supercap.c **** 		//fault_counter--;
 120:Core/Src/supercap.c **** 	}
 121:Core/Src/supercap.c ****   
 122:Core/Src/supercap.c ****   if(C_right.real_value_12bits > 4063 || C_right.real_value_12bits < 31){
 123:Core/Src/supercap.c **** 		fault_counter++;
 124:Core/Src/supercap.c **** 		if(fault_counter >= 2){
 125:Core/Src/supercap.c **** 			Supercap_DCDC_Stop();
 126:Core/Src/supercap.c **** 			Supercap_AUX_BlueLED(60);
 127:Core/Src/supercap.c **** 			Supercap_AUX_YellowLED(60);
 128:Core/Src/supercap.c ****       Supercap_AUX_MachineSpirit(0);
 129:Core/Src/supercap.c **** 			//Supercap_AUX_Buzzer(80, -1);
 130:Core/Src/supercap.c **** 			CAP_STATE = FAULT;
 131:Core/Src/supercap.c **** 			fault_counter = 0;
 132:Core/Src/supercap.c **** 		}
 133:Core/Src/supercap.c ****   } else{
 134:Core/Src/supercap.c **** 		fault_counter--;
 135:Core/Src/supercap.c **** 	}
 136:Core/Src/supercap.c ****   if(C_right.real_value_12bits > 3600 || C_right.real_value_12bits < 496){
 137:Core/Src/supercap.c **** 		fault_counter++;
 138:Core/Src/supercap.c **** 		if(fault_counter >= 700){
 139:Core/Src/supercap.c **** 			Supercap_AUX_BlueLED(60);
 140:Core/Src/supercap.c **** 			Supercap_AUX_YellowLED(60);
 141:Core/Src/supercap.c ****       Supercap_AUX_MachineSpirit(0);
 142:Core/Src/supercap.c **** 			Supercap_DCDC_Stop();
 143:Core/Src/supercap.c **** 			//Supercap_AUX_Buzzer(80, 1);
 144:Core/Src/supercap.c **** 			CAP_STATE = FAULT;
 145:Core/Src/supercap.c **** 			fault_counter = 0;
 146:Core/Src/supercap.c **** 		}
 147:Core/Src/supercap.c ****   }	else{
 148:Core/Src/supercap.c **** 		fault_counter--;
 149:Core/Src/supercap.c **** 	}
 150:Core/Src/supercap.c **** 
 151:Core/Src/supercap.c ****   //State switch
 152:Core/Src/supercap.c ****   switch(CAP_STATE){
 153:Core/Src/supercap.c ****     case INIT:
 154:Core/Src/supercap.c ****       if(V_cap.real_value_12bits > 30){
ARM GAS  C:\Users\HYDROG~1\AppData\Local\Temp\cco8vh5F.s 			page 11


 155:Core/Src/supercap.c **** 		      //if(1){
 156:Core/Src/supercap.c ****         Supercap_AUX_YellowLED(60);
 157:Core/Src/supercap.c **** 				Supercap_AUX_BlueLED(0);
 158:Core/Src/supercap.c ****         Supercap_AUX_MachineSpirit(0);
 159:Core/Src/supercap.c ****         CAP_STATE = READY;
 160:Core/Src/supercap.c ****         }
 161:Core/Src/supercap.c ****     case READY:
 162:Core/Src/supercap.c ****       if(V_cap.real_value_12bits > 50){
 163:Core/Src/supercap.c ****       //if(1){
 164:Core/Src/supercap.c ****         CAP_STATE = RUNNING;
 165:Core/Src/supercap.c **** 				Supercap_AUX_YellowLED(0);
 166:Core/Src/supercap.c **** 				Supercap_AUX_BlueLED(0);
 167:Core/Src/supercap.c ****         Supercap_AUX_MachineSpirit(60);
 168:Core/Src/supercap.c **** 				Supercap_DCDC_Start();
 169:Core/Src/supercap.c ****       }
 170:Core/Src/supercap.c ****       break;
 171:Core/Src/supercap.c ****     case RUNNING:
 172:Core/Src/supercap.c ****       if(V_bat.real_value_12bits < 2256 && C_sys.real_value_12bits < 2047){
 173:Core/Src/supercap.c **** 			//if(C_sys.real_value_12bits < 2020){
 174:Core/Src/supercap.c ****         CAP_STATE = STOP;
 175:Core/Src/supercap.c **** 				Supercap_DCDC_Stop();
 176:Core/Src/supercap.c ****         Supercap_AUX_MachineSpirit(0);
 177:Core/Src/supercap.c **** 				Supercap_AUX_BlueLED(0);
 178:Core/Src/supercap.c **** 				Supercap_AUX_YellowLED(0);
 179:Core/Src/supercap.c ****       }
 180:Core/Src/supercap.c ****       break;
 181:Core/Src/supercap.c ****     case STOP:
 182:Core/Src/supercap.c **** 			if(V_bat.real_value_12bits > 2256 && C_sys.real_value_12bits > 2047){
 183:Core/Src/supercap.c ****         CAP_STATE = READY;
 184:Core/Src/supercap.c **** 				Supercap_AUX_BlueLED(0);
 185:Core/Src/supercap.c **** 				Supercap_AUX_YellowLED(80);
 186:Core/Src/supercap.c ****         Supercap_AUX_MachineSpirit(0);
 187:Core/Src/supercap.c **** 			}
 188:Core/Src/supercap.c ****       break;
 189:Core/Src/supercap.c ****     case FAULT:
 190:Core/Src/supercap.c **** 			if(protection_counter >= 1000 && C_sys.real_value_12bits < CURRENT_LIMIT){
 191:Core/Src/supercap.c **** 				CAP_STATE = READY;
 192:Core/Src/supercap.c **** 				Supercap_AUX_BlueLED(0);
 193:Core/Src/supercap.c **** 				Supercap_AUX_YellowLED(80);
 194:Core/Src/supercap.c ****         Supercap_AUX_MachineSpirit(0);
 195:Core/Src/supercap.c **** 			}
 196:Core/Src/supercap.c ****       break;
 197:Core/Src/supercap.c ****   }
 198:Core/Src/supercap.c **** 
 199:Core/Src/supercap.c ****   //State output
 200:Core/Src/supercap.c ****   switch(CAP_STATE){
 201:Core/Src/supercap.c **** 		case INIT:
 202:Core/Src/supercap.c **** 			PID_flag = 0;
 203:Core/Src/supercap.c ****       protection_counter = 0;
 204:Core/Src/supercap.c **** 			break;
 205:Core/Src/supercap.c ****     case READY:
 206:Core/Src/supercap.c ****       PID_flag = 0;
 207:Core/Src/supercap.c ****       protection_counter = 0;
 208:Core/Src/supercap.c ****       break;
 209:Core/Src/supercap.c ****     case RUNNING:
 210:Core/Src/supercap.c **** 			PID_flag = 1;
 211:Core/Src/supercap.c ****       break;
ARM GAS  C:\Users\HYDROG~1\AppData\Local\Temp\cco8vh5F.s 			page 12


 212:Core/Src/supercap.c ****     case STOP:
 213:Core/Src/supercap.c **** 			PID_flag = 0;
 214:Core/Src/supercap.c ****       break;
 215:Core/Src/supercap.c ****     case FAULT:
 216:Core/Src/supercap.c ****       Supercap_PID_Reset(&PID_45W_loop);
 217:Core/Src/supercap.c ****       Supercap_PID_Reset(&PID_n7A_loop);
 218:Core/Src/supercap.c ****       Supercap_PID_Reset(&PID_7A_loop);
 219:Core/Src/supercap.c ****       Supercap_PID_Reset(&PID_voltage_loop);
 220:Core/Src/supercap.c ****       protection_counter++;
 221:Core/Src/supercap.c ****       break;
 222:Core/Src/supercap.c ****   }
 223:Core/Src/supercap.c **** 
 224:Core/Src/supercap.c **** }
 225:Core/Src/supercap.c **** 
 226:Core/Src/supercap.c **** void Supercap_Average_ADC_Function(_ADC_Sample_t *adc_sample) {
 418              		.loc 1 226 63 is_stmt 1 view -0
 419              		.cfi_startproc
 420              		@ args = 0, pretend = 0, frame = 0
 421              		@ frame_needed = 0, uses_anonymous_args = 0
 422              		@ link register save eliminated.
 227:Core/Src/supercap.c ****     if(adc_sample->count == 0){
 423              		.loc 1 227 5 view .LVU109
 424              		.loc 1 227 18 is_stmt 0 view .LVU110
 425 0000 0379     		ldrb	r3, [r0, #4]	@ zero_extendqisi2
 426              		.loc 1 227 7 view .LVU111
 427 0002 33B9     		cbnz	r3, .L34
 228:Core/Src/supercap.c ****       adc_sample->average = *(adc_sample->sample);
 428              		.loc 1 228 7 is_stmt 1 view .LVU112
 429              		.loc 1 228 41 is_stmt 0 view .LVU113
 430 0004 0368     		ldr	r3, [r0]
 431              		.loc 1 228 29 view .LVU114
 432 0006 1B88     		ldrh	r3, [r3]
 433              		.loc 1 228 27 view .LVU115
 434 0008 C380     		strh	r3, [r0, #6]	@ movhi
 229:Core/Src/supercap.c ****       adc_sample->history_sum = adc_sample->average << 2;
 435              		.loc 1 229 7 is_stmt 1 view .LVU116
 436              		.loc 1 229 53 is_stmt 0 view .LVU117
 437 000a 9B00     		lsls	r3, r3, #2
 438              		.loc 1 229 31 view .LVU118
 439 000c 8360     		str	r3, [r0, #8]
 230:Core/Src/supercap.c ****       adc_sample->count = 1;
 440              		.loc 1 230 7 is_stmt 1 view .LVU119
 441              		.loc 1 230 25 is_stmt 0 view .LVU120
 442 000e 0123     		movs	r3, #1
 443 0010 0371     		strb	r3, [r0, #4]
 444              	.L34:
 231:Core/Src/supercap.c ****     }
 232:Core/Src/supercap.c ****     adc_sample->history_sum = adc_sample->history_sum - adc_sample->average + *(adc_sample->sample)
 445              		.loc 1 232 5 is_stmt 1 view .LVU121
 446              		.loc 1 232 41 is_stmt 0 view .LVU122
 447 0012 8368     		ldr	r3, [r0, #8]
 448              		.loc 1 232 67 view .LVU123
 449 0014 C288     		ldrh	r2, [r0, #6]
 450              		.loc 1 232 55 view .LVU124
 451 0016 9B1A     		subs	r3, r3, r2
 452              		.loc 1 232 91 view .LVU125
 453 0018 0268     		ldr	r2, [r0]
ARM GAS  C:\Users\HYDROG~1\AppData\Local\Temp\cco8vh5F.s 			page 13


 454              		.loc 1 232 79 view .LVU126
 455 001a 1288     		ldrh	r2, [r2]
 456              		.loc 1 232 77 view .LVU127
 457 001c 1344     		add	r3, r3, r2
 458              		.loc 1 232 29 view .LVU128
 459 001e 8360     		str	r3, [r0, #8]
 233:Core/Src/supercap.c ****     adc_sample->average = adc_sample->history_sum >> 2;
 460              		.loc 1 233 5 is_stmt 1 view .LVU129
 461              		.loc 1 233 25 is_stmt 0 view .LVU130
 462 0020 C3F38F03 		ubfx	r3, r3, #2, #16
 463 0024 C380     		strh	r3, [r0, #6]	@ movhi
 234:Core/Src/supercap.c ****     adc_sample->real_value_12bits = (adc_sample->average);
 464              		.loc 1 234 5 is_stmt 1 view .LVU131
 465              		.loc 1 234 35 is_stmt 0 view .LVU132
 466 0026 8381     		strh	r3, [r0, #12]	@ movhi
 235:Core/Src/supercap.c **** }
 467              		.loc 1 235 1 view .LVU133
 468 0028 7047     		bx	lr
 469              		.cfi_endproc
 470              	.LFE341:
 472              		.section	.text.Supercap_First_Order_Filter_ADC_Function,"ax",%progbits
 473              		.align	1
 474              		.global	Supercap_First_Order_Filter_ADC_Function
 475              		.syntax unified
 476              		.thumb
 477              		.thumb_func
 479              	Supercap_First_Order_Filter_ADC_Function:
 480              	.LVL21:
 481              	.LFB342:
 236:Core/Src/supercap.c **** 
 237:Core/Src/supercap.c **** void Supercap_First_Order_Filter_ADC_Function(_ADC_Sample_t *adc_sample) {
 482              		.loc 1 237 74 is_stmt 1 view -0
 483              		.cfi_startproc
 484              		@ args = 0, pretend = 0, frame = 0
 485              		@ frame_needed = 0, uses_anonymous_args = 0
 486              		@ link register save eliminated.
 238:Core/Src/supercap.c **** 			adc_sample->real_value_12bits = (*(adc_sample->sample)>>3) + (adc_sample->real_value_12bits - (a
 487              		.loc 1 238 4 view .LVU135
 488              		.loc 1 238 49 is_stmt 0 view .LVU136
 489 0000 0368     		ldr	r3, [r0]
 490              		.loc 1 238 37 view .LVU137
 491 0002 1A88     		ldrh	r2, [r3]
 492              		.loc 1 238 76 view .LVU138
 493 0004 8389     		ldrh	r3, [r0, #12]
 494              		.loc 1 238 96 view .LVU139
 495 0006 A3EBD303 		sub	r3, r3, r3, lsr #3
 496              		.loc 1 238 63 view .LVU140
 497 000a D208     		lsrs	r2, r2, #3
 498 000c 12FA83F3 		uxtah	r3, r2, r3
 499              		.loc 1 238 34 view .LVU141
 500 0010 8381     		strh	r3, [r0, #12]	@ movhi
 239:Core/Src/supercap.c **** }
 501              		.loc 1 239 1 view .LVU142
 502 0012 7047     		bx	lr
 503              		.cfi_endproc
 504              	.LFE342:
 506              		.section	.text.Supercap_First_Order_Filter_ADC_Function_Alpha,"ax",%progbits
ARM GAS  C:\Users\HYDROG~1\AppData\Local\Temp\cco8vh5F.s 			page 14


 507              		.align	1
 508              		.global	Supercap_First_Order_Filter_ADC_Function_Alpha
 509              		.syntax unified
 510              		.thumb
 511              		.thumb_func
 513              	Supercap_First_Order_Filter_ADC_Function_Alpha:
 514              	.LVL22:
 515              	.LFB343:
 240:Core/Src/supercap.c **** 
 241:Core/Src/supercap.c **** void Supercap_First_Order_Filter_ADC_Function_Alpha(_ADC_Sample_t *adc_sample, uint16_t alpha) {
 516              		.loc 1 241 96 is_stmt 1 view -0
 517              		.cfi_startproc
 518              		@ args = 0, pretend = 0, frame = 0
 519              		@ frame_needed = 0, uses_anonymous_args = 0
 520              		@ link register save eliminated.
 242:Core/Src/supercap.c **** 			adc_sample->real_value_12bits = (*(adc_sample->sample)>>alpha) + (adc_sample->real_value_12bits 
 521              		.loc 1 242 4 view .LVU144
 522              		.loc 1 242 49 is_stmt 0 view .LVU145
 523 0000 0368     		ldr	r3, [r0]
 524              		.loc 1 242 37 view .LVU146
 525 0002 1B88     		ldrh	r3, [r3]
 526              		.loc 1 242 58 view .LVU147
 527 0004 43FA01F2 		asr	r2, r3, r1
 528              		.loc 1 242 80 view .LVU148
 529 0008 8389     		ldrh	r3, [r0, #12]
 530              		.loc 1 242 132 view .LVU149
 531 000a 43FA01F1 		asr	r1, r3, r1
 532              	.LVL23:
 533              		.loc 1 242 100 view .LVU150
 534 000e 5B1A     		subs	r3, r3, r1
 535              		.loc 1 242 67 view .LVU151
 536 0010 12FA83F3 		uxtah	r3, r2, r3
 537              		.loc 1 242 34 view .LVU152
 538 0014 8381     		strh	r3, [r0, #12]	@ movhi
 243:Core/Src/supercap.c **** }
 539              		.loc 1 243 1 view .LVU153
 540 0016 7047     		bx	lr
 541              		.cfi_endproc
 542              	.LFE343:
 544              		.section	.text.TIM2_NVIC,"ax",%progbits
 545              		.align	1
 546              		.global	TIM2_NVIC
 547              		.syntax unified
 548              		.thumb
 549              		.thumb_func
 551              	TIM2_NVIC:
 552              	.LFB334:
  43:Core/Src/supercap.c ****   Supercap_First_Order_Filter_ADC_Function_Alpha(&C_sys, 6);
 553              		.loc 1 43 17 is_stmt 1 view -0
 554              		.cfi_startproc
 555              		@ args = 0, pretend = 0, frame = 0
 556              		@ frame_needed = 0, uses_anonymous_args = 0
 557 0000 08B5     		push	{r3, lr}
 558              	.LCFI3:
 559              		.cfi_def_cfa_offset 8
 560              		.cfi_offset 3, -8
 561              		.cfi_offset 14, -4
ARM GAS  C:\Users\HYDROG~1\AppData\Local\Temp\cco8vh5F.s 			page 15


  44:Core/Src/supercap.c ****   Supercap_First_Order_Filter_ADC_Function_Alpha(&C_right, 4);
 562              		.loc 1 44 3 view .LVU155
 563 0002 0621     		movs	r1, #6
 564 0004 0948     		ldr	r0, .L39
 565 0006 FFF7FEFF 		bl	Supercap_First_Order_Filter_ADC_Function_Alpha
 566              	.LVL24:
  45:Core/Src/supercap.c ****   Supercap_First_Order_Filter_ADC_Function_Alpha(&ADC4_12,2);
 567              		.loc 1 45 3 view .LVU156
 568 000a 0421     		movs	r1, #4
 569 000c 0848     		ldr	r0, .L39+4
 570 000e FFF7FEFF 		bl	Supercap_First_Order_Filter_ADC_Function_Alpha
 571              	.LVL25:
  46:Core/Src/supercap.c ****   Supercap_First_Order_Filter_ADC_Function_Alpha(&V_bat, 2);
 572              		.loc 1 46 3 view .LVU157
 573 0012 0221     		movs	r1, #2
 574 0014 0748     		ldr	r0, .L39+8
 575 0016 FFF7FEFF 		bl	Supercap_First_Order_Filter_ADC_Function_Alpha
 576              	.LVL26:
  47:Core/Src/supercap.c ****   Supercap_First_Order_Filter_ADC_Function_Alpha(&V_cap, 4);
 577              		.loc 1 47 3 view .LVU158
 578 001a 0221     		movs	r1, #2
 579 001c 0648     		ldr	r0, .L39+12
 580 001e FFF7FEFF 		bl	Supercap_First_Order_Filter_ADC_Function_Alpha
 581              	.LVL27:
  48:Core/Src/supercap.c **** }
 582              		.loc 1 48 3 view .LVU159
 583 0022 0421     		movs	r1, #4
 584 0024 0548     		ldr	r0, .L39+16
 585 0026 FFF7FEFF 		bl	Supercap_First_Order_Filter_ADC_Function_Alpha
 586              	.LVL28:
  49:Core/Src/supercap.c **** 
 587              		.loc 1 49 1 is_stmt 0 view .LVU160
 588 002a 08BD     		pop	{r3, pc}
 589              	.L40:
 590              		.align	2
 591              	.L39:
 592 002c 00000000 		.word	C_sys
 593 0030 00000000 		.word	C_right
 594 0034 00000000 		.word	ADC4_12
 595 0038 00000000 		.word	V_bat
 596 003c 00000000 		.word	V_cap
 597              		.cfi_endproc
 598              	.LFE334:
 600              		.section	.text.Supercap_Function_Init,"ax",%progbits
 601              		.align	1
 602              		.global	Supercap_Function_Init
 603              		.syntax unified
 604              		.thumb
 605              		.thumb_func
 607              	Supercap_Function_Init:
 608              	.LVL29:
 609              	.LFB344:
 244:Core/Src/supercap.c **** 
 245:Core/Src/supercap.c **** void Supercap_Function_Init(_ADC_Sample_t *adc_sample) {
 610              		.loc 1 245 56 is_stmt 1 view -0
 611              		.cfi_startproc
 612              		@ args = 0, pretend = 0, frame = 0
ARM GAS  C:\Users\HYDROG~1\AppData\Local\Temp\cco8vh5F.s 			page 16


 613              		@ frame_needed = 0, uses_anonymous_args = 0
 614              		@ link register save eliminated.
 246:Core/Src/supercap.c **** 			adc_sample->real_value_12bits = *(adc_sample->sample);
 615              		.loc 1 246 4 view .LVU162
 616              		.loc 1 246 48 is_stmt 0 view .LVU163
 617 0000 0368     		ldr	r3, [r0]
 618              		.loc 1 246 36 view .LVU164
 619 0002 1B88     		ldrh	r3, [r3]
 620              		.loc 1 246 34 view .LVU165
 621 0004 8381     		strh	r3, [r0, #12]	@ movhi
 247:Core/Src/supercap.c **** }
 622              		.loc 1 247 1 view .LVU166
 623 0006 7047     		bx	lr
 624              		.cfi_endproc
 625              	.LFE344:
 627              		.section	.text.Supercap_ADC_to_Voltage_Funtion,"ax",%progbits
 628              		.align	1
 629              		.global	Supercap_ADC_to_Voltage_Funtion
 630              		.syntax unified
 631              		.thumb
 632              		.thumb_func
 634              	Supercap_ADC_to_Voltage_Funtion:
 635              	.LVL30:
 636              	.LFB345:
 248:Core/Src/supercap.c **** 
 249:Core/Src/supercap.c **** float Supercap_ADC_to_Voltage_Funtion(uint16_t adc_value) {
 637              		.loc 1 249 59 is_stmt 1 view -0
 638              		.cfi_startproc
 639              		@ args = 0, pretend = 0, frame = 0
 640              		@ frame_needed = 0, uses_anonymous_args = 0
 641              		@ link register save eliminated.
 642              		.loc 1 249 59 is_stmt 0 view .LVU168
 643 0000 07EE900A 		vmov	s15, r0	@ int
 250:Core/Src/supercap.c ****   float voltage = ((float)adc_value * 3.3f / 4095.0f) * 11;
 644              		.loc 1 250 3 is_stmt 1 view .LVU169
 645              		.loc 1 250 20 is_stmt 0 view .LVU170
 646 0004 F8EE677A 		vcvt.f32.u32	s15, s15
 647              		.loc 1 250 37 view .LVU171
 648 0008 9FED067A 		vldr.32	s14, .L43
 649 000c 67EE877A 		vmul.f32	s15, s15, s14
 650              		.loc 1 250 44 view .LVU172
 651 0010 9FED057A 		vldr.32	s14, .L43+4
 652 0014 87EE870A 		vdiv.f32	s0, s15, s14
 653              	.LVL31:
 251:Core/Src/supercap.c ****   return voltage;
 654              		.loc 1 251 3 is_stmt 1 view .LVU173
 252:Core/Src/supercap.c **** }
 655              		.loc 1 252 1 is_stmt 0 view .LVU174
 656 0018 F2EE067A 		vmov.f32	s15, #1.1e+1
 657 001c 20EE270A 		vmul.f32	s0, s0, s15
 658              	.LVL32:
 659              		.loc 1 252 1 view .LVU175
 660 0020 7047     		bx	lr
 661              	.L44:
 662 0022 00BF     		.align	2
 663              	.L43:
 664 0024 33335340 		.word	1079194419
ARM GAS  C:\Users\HYDROG~1\AppData\Local\Temp\cco8vh5F.s 			page 17


 665 0028 00F07F45 		.word	1166012416
 666              		.cfi_endproc
 667              	.LFE345:
 669              		.section	.text.Supercap_ADC_to_Voltage_Funtion_Ref,"ax",%progbits
 670              		.align	1
 671              		.global	Supercap_ADC_to_Voltage_Funtion_Ref
 672              		.syntax unified
 673              		.thumb
 674              		.thumb_func
 676              	Supercap_ADC_to_Voltage_Funtion_Ref:
 677              	.LVL33:
 678              	.LFB346:
 253:Core/Src/supercap.c **** 
 254:Core/Src/supercap.c **** float Supercap_ADC_to_Voltage_Funtion_Ref(uint16_t adc_value) {
 679              		.loc 1 254 63 is_stmt 1 view -0
 680              		.cfi_startproc
 681              		@ args = 0, pretend = 0, frame = 0
 682              		@ frame_needed = 0, uses_anonymous_args = 0
 683              		@ link register save eliminated.
 684              		.loc 1 254 63 is_stmt 0 view .LVU177
 685 0000 07EE900A 		vmov	s15, r0	@ int
 255:Core/Src/supercap.c ****   float voltage = ((float)adc_value * 3.3f / 4095.0f);
 686              		.loc 1 255 3 is_stmt 1 view .LVU178
 687              		.loc 1 255 20 is_stmt 0 view .LVU179
 688 0004 F8EE677A 		vcvt.f32.u32	s15, s15
 689              		.loc 1 255 37 view .LVU180
 690 0008 9FED040A 		vldr.32	s0, .L46
 691 000c 67EE807A 		vmul.f32	s15, s15, s0
 692              	.LVL34:
 256:Core/Src/supercap.c ****   return voltage;
 693              		.loc 1 256 3 is_stmt 1 view .LVU181
 257:Core/Src/supercap.c **** }
 694              		.loc 1 257 1 is_stmt 0 view .LVU182
 695 0010 9FED030A 		vldr.32	s0, .L46+4
 696 0014 87EE800A 		vdiv.f32	s0, s15, s0
 697              	.LVL35:
 698              		.loc 1 257 1 view .LVU183
 699 0018 7047     		bx	lr
 700              	.L47:
 701 001a 00BF     		.align	2
 702              	.L46:
 703 001c 33335340 		.word	1079194419
 704 0020 00F07F45 		.word	1166012416
 705              		.cfi_endproc
 706              	.LFE346:
 708              		.section	.text.Supercap_ADC_to_Current_Funtion,"ax",%progbits
 709              		.align	1
 710              		.global	Supercap_ADC_to_Current_Funtion
 711              		.syntax unified
 712              		.thumb
 713              		.thumb_func
 715              	Supercap_ADC_to_Current_Funtion:
 716              	.LVL36:
 717              	.LFB347:
 258:Core/Src/supercap.c **** 
 259:Core/Src/supercap.c **** float Supercap_ADC_to_Current_Funtion(uint16_t adc_value, uint16_t ref_voltage) {
 718              		.loc 1 259 81 is_stmt 1 view -0
ARM GAS  C:\Users\HYDROG~1\AppData\Local\Temp\cco8vh5F.s 			page 18


 719              		.cfi_startproc
 720              		@ args = 0, pretend = 0, frame = 0
 721              		@ frame_needed = 0, uses_anonymous_args = 0
 722              		@ link register save eliminated.
 260:Core/Src/supercap.c ****   // ((ref_12bits*3.3/4095)+(current_flot*0.005)*25)*4095/3.3=current_12bits
 261:Core/Src/supercap.c ****   float current = 0.00644689f * (float)(adc_value - ref_voltage);
 723              		.loc 1 261 3 view .LVU185
 724              		.loc 1 261 51 is_stmt 0 view .LVU186
 725 0000 401A     		subs	r0, r0, r1
 726              	.LVL37:
 727              		.loc 1 261 33 view .LVU187
 728 0002 07EE900A 		vmov	s15, r0	@ int
 729 0006 F8EEE77A 		vcvt.f32.s32	s15, s15
 730              	.LVL38:
 262:Core/Src/supercap.c ****   return current;
 731              		.loc 1 262 3 is_stmt 1 view .LVU188
 263:Core/Src/supercap.c **** }
 732              		.loc 1 263 1 is_stmt 0 view .LVU189
 733 000a 9FED020A 		vldr.32	s0, .L49
 734 000e 27EE800A 		vmul.f32	s0, s15, s0
 735              	.LVL39:
 736              		.loc 1 263 1 view .LVU190
 737 0012 7047     		bx	lr
 738              	.L50:
 739              		.align	2
 740              	.L49:
 741 0014 6F40D33B 		.word	1003700335
 742              		.cfi_endproc
 743              	.LFE347:
 745              		.section	.text.Supercap_PID_Init,"ax",%progbits
 746              		.align	1
 747              		.global	Supercap_PID_Init
 748              		.syntax unified
 749              		.thumb
 750              		.thumb_func
 752              	Supercap_PID_Init:
 753              	.LVL40:
 754              	.LFB348:
 264:Core/Src/supercap.c **** 
 265:Core/Src/supercap.c **** //Init
 266:Core/Src/supercap.c **** void Supercap_PID_Init(_Supercap_PID_Controller_t *pid_controller, float Kp, float Ki, float Kd, in
 755              		.loc 1 266 153 is_stmt 1 view -0
 756              		.cfi_startproc
 757              		@ args = 0, pretend = 0, frame = 0
 758              		@ frame_needed = 0, uses_anonymous_args = 0
 759              		@ link register save eliminated.
 267:Core/Src/supercap.c ****   pid_controller->Kp = Kp;
 760              		.loc 1 267 3 view .LVU192
 761              		.loc 1 267 22 is_stmt 0 view .LVU193
 762 0000 80ED000A 		vstr.32	s0, [r0]
 268:Core/Src/supercap.c ****   pid_controller->Ki = Ki;
 763              		.loc 1 268 3 is_stmt 1 view .LVU194
 764              		.loc 1 268 22 is_stmt 0 view .LVU195
 765 0004 C0ED010A 		vstr.32	s1, [r0, #4]
 269:Core/Src/supercap.c ****   pid_controller->Kd = Kd;
 766              		.loc 1 269 3 is_stmt 1 view .LVU196
 767              		.loc 1 269 22 is_stmt 0 view .LVU197
ARM GAS  C:\Users\HYDROG~1\AppData\Local\Temp\cco8vh5F.s 			page 19


 768 0008 80ED021A 		vstr.32	s2, [r0, #8]
 270:Core/Src/supercap.c ****   pid_controller->output_max = output_max;
 769              		.loc 1 270 3 is_stmt 1 view .LVU198
 770              		.loc 1 270 30 is_stmt 0 view .LVU199
 771 000c C182     		strh	r1, [r0, #22]	@ movhi
 271:Core/Src/supercap.c ****   pid_controller->output_min = output_min;
 772              		.loc 1 271 3 is_stmt 1 view .LVU200
 773              		.loc 1 271 30 is_stmt 0 view .LVU201
 774 000e 0283     		strh	r2, [r0, #24]	@ movhi
 272:Core/Src/supercap.c ****   pid_controller->I_max = I_max;
 775              		.loc 1 272 3 is_stmt 1 view .LVU202
 776              		.loc 1 272 25 is_stmt 0 view .LVU203
 777 0010 4383     		strh	r3, [r0, #26]	@ movhi
 273:Core/Src/supercap.c **** }
 778              		.loc 1 273 1 view .LVU204
 779 0012 7047     		bx	lr
 780              		.cfi_endproc
 781              	.LFE348:
 783              		.section	.text.Supercap_PID_Reset,"ax",%progbits
 784              		.align	1
 785              		.global	Supercap_PID_Reset
 786              		.syntax unified
 787              		.thumb
 788              		.thumb_func
 790              	Supercap_PID_Reset:
 791              	.LVL41:
 792              	.LFB349:
 274:Core/Src/supercap.c **** 
 275:Core/Src/supercap.c **** void Supercap_PID_Reset(_Supercap_PID_Controller_t *pid_controller){
 793              		.loc 1 275 68 is_stmt 1 view -0
 794              		.cfi_startproc
 795              		@ args = 0, pretend = 0, frame = 0
 796              		@ frame_needed = 0, uses_anonymous_args = 0
 797              		@ link register save eliminated.
 276:Core/Src/supercap.c ****   pid_controller->error_sum = 0;
 798              		.loc 1 276 3 view .LVU206
 799              		.loc 1 276 29 is_stmt 0 view .LVU207
 800 0000 0023     		movs	r3, #0
 801 0002 0361     		str	r3, [r0, #16]	@ float
 277:Core/Src/supercap.c **** }
 802              		.loc 1 277 1 view .LVU208
 803 0004 7047     		bx	lr
 804              		.cfi_endproc
 805              	.LFE349:
 807              		.section	.text.Supercap_PWM_left,"ax",%progbits
 808              		.align	1
 809              		.global	Supercap_PWM_left
 810              		.syntax unified
 811              		.thumb
 812              		.thumb_func
 814              	Supercap_PWM_left:
 815              	.LVL42:
 816              	.LFB350:
 278:Core/Src/supercap.c **** 
 279:Core/Src/supercap.c **** //Driver
 280:Core/Src/supercap.c **** void Supercap_PWM_left(int16_t pwm_duty_cycle) {
 817              		.loc 1 280 48 is_stmt 1 view -0
ARM GAS  C:\Users\HYDROG~1\AppData\Local\Temp\cco8vh5F.s 			page 20


 818              		.cfi_startproc
 819              		@ args = 0, pretend = 0, frame = 0
 820              		@ frame_needed = 0, uses_anonymous_args = 0
 821              		@ link register save eliminated.
 281:Core/Src/supercap.c ****   __HAL_TIM_SET_COMPARE(&htim1, TIM_CHANNEL_1, pwm_duty_cycle);
 822              		.loc 1 281 3 view .LVU210
 823 0000 024B     		ldr	r3, .L54
 824 0002 1B68     		ldr	r3, [r3]
 825 0004 5863     		str	r0, [r3, #52]
 282:Core/Src/supercap.c ****   __HAL_TIM_SET_COMPARE(&htim1, TIM_CHANNEL_4, 25);
 826              		.loc 1 282 3 view .LVU211
 827 0006 1922     		movs	r2, #25
 828 0008 1A64     		str	r2, [r3, #64]
 283:Core/Src/supercap.c **** }
 829              		.loc 1 283 1 is_stmt 0 view .LVU212
 830 000a 7047     		bx	lr
 831              	.L55:
 832              		.align	2
 833              	.L54:
 834 000c 00000000 		.word	htim1
 835              		.cfi_endproc
 836              	.LFE350:
 838              		.section	.text.TIM5_NVIC,"ax",%progbits
 839              		.align	1
 840              		.global	TIM5_NVIC
 841              		.syntax unified
 842              		.thumb
 843              		.thumb_func
 845              	TIM5_NVIC:
 846              	.LFB335:
  51:Core/Src/supercap.c **** 	if(PID_flag == 1){
 847              		.loc 1 51 17 is_stmt 1 view -0
 848              		.cfi_startproc
 849              		@ args = 0, pretend = 0, frame = 0
 850              		@ frame_needed = 0, uses_anonymous_args = 0
 851 0000 F8B5     		push	{r3, r4, r5, r6, r7, lr}
 852              	.LCFI4:
 853              		.cfi_def_cfa_offset 24
 854              		.cfi_offset 3, -24
 855              		.cfi_offset 4, -20
 856              		.cfi_offset 5, -16
 857              		.cfi_offset 6, -12
 858              		.cfi_offset 7, -8
 859              		.cfi_offset 14, -4
  52:Core/Src/supercap.c **** 		Supercap_PID_Controller_Function(&PID_45W_loop, &C_sys, supercap_max_power_current, ((supercap_ma
 860              		.loc 1 52 2 view .LVU214
  52:Core/Src/supercap.c **** 		Supercap_PID_Controller_Function(&PID_45W_loop, &C_sys, supercap_max_power_current, ((supercap_ma
 861              		.loc 1 52 14 is_stmt 0 view .LVU215
 862 0002 2F4B     		ldr	r3, .L60
 863 0004 1B78     		ldrb	r3, [r3]	@ zero_extendqisi2
  52:Core/Src/supercap.c **** 		Supercap_PID_Controller_Function(&PID_45W_loop, &C_sys, supercap_max_power_current, ((supercap_ma
 864              		.loc 1 52 4 view .LVU216
 865 0006 012B     		cmp	r3, #1
 866 0008 00D0     		beq	.L59
 867              	.L56:
  60:Core/Src/supercap.c **** 
 868              		.loc 1 60 1 view .LVU217
ARM GAS  C:\Users\HYDROG~1\AppData\Local\Temp\cco8vh5F.s 			page 21


 869 000a F8BD     		pop	{r3, r4, r5, r6, r7, pc}
 870              	.L59:
  53:Core/Src/supercap.c **** 		Supercap_PID_Controller_Function(&PID_n7A_loop, &C_right, 500, V_cap.real_value_12bits);
 871              		.loc 1 53 3 is_stmt 1 view .LVU218
 872 000c 2D4B     		ldr	r3, .L60+4
 873 000e 1A88     		ldrh	r2, [r3]
  53:Core/Src/supercap.c **** 		Supercap_PID_Controller_Function(&PID_n7A_loop, &C_right, 500, V_cap.real_value_12bits);
 874              		.loc 1 53 121 is_stmt 0 view .LVU219
 875 0010 2D49     		ldr	r1, .L60+8
 876 0012 8B89     		ldrh	r3, [r1, #12]
  53:Core/Src/supercap.c **** 		Supercap_PID_Controller_Function(&PID_n7A_loop, &C_right, 500, V_cap.real_value_12bits);
 877              		.loc 1 53 115 view .LVU220
 878 0014 D31A     		subs	r3, r2, r3
 879 0016 07EE903A 		vmov	s15, r3	@ int
  53:Core/Src/supercap.c **** 		Supercap_PID_Controller_Function(&PID_n7A_loop, &C_right, 500, V_cap.real_value_12bits);
 880              		.loc 1 53 140 view .LVU221
 881 001a F8EEE77A 		vcvt.f32.s32	s15, s15
 882 001e B1EE080A 		vmov.f32	s0, #6.0e+0
 883 0022 67EE807A 		vmul.f32	s15, s15, s0
  53:Core/Src/supercap.c **** 		Supercap_PID_Controller_Function(&PID_n7A_loop, &C_right, 500, V_cap.real_value_12bits);
 884              		.loc 1 53 151 view .LVU222
 885 0026 294C     		ldr	r4, .L60+12
 886 0028 A389     		ldrh	r3, [r4, #12]
 887 002a 00EE103A 		vmov	s0, r3	@ int
  53:Core/Src/supercap.c **** 		Supercap_PID_Controller_Function(&PID_n7A_loop, &C_right, 500, V_cap.real_value_12bits);
 888              		.loc 1 53 3 view .LVU223
 889 002e B8EEC00A 		vcvt.f32.s32	s0, s0
 890 0032 274D     		ldr	r5, .L60+16
 891 0034 30EE270A 		vadd.f32	s0, s0, s15
 892 0038 12B2     		sxth	r2, r2
 893 003a 2846     		mov	r0, r5
 894 003c FFF7FEFF 		bl	Supercap_PID_Controller_Function
 895              	.LVL43:
  54:Core/Src/supercap.c **** 		Supercap_PID_Controller_Function(&PID_7A_loop, &C_right, 2202, V_cap.real_value_12bits);
 896              		.loc 1 54 3 is_stmt 1 view .LVU224
  54:Core/Src/supercap.c **** 		Supercap_PID_Controller_Function(&PID_7A_loop, &C_right, 2202, V_cap.real_value_12bits);
 897              		.loc 1 54 71 is_stmt 0 view .LVU225
 898 0040 A389     		ldrh	r3, [r4, #12]
 899 0042 00EE103A 		vmov	s0, r3	@ int
  54:Core/Src/supercap.c **** 		Supercap_PID_Controller_Function(&PID_7A_loop, &C_right, 2202, V_cap.real_value_12bits);
 900              		.loc 1 54 3 view .LVU226
 901 0046 234F     		ldr	r7, .L60+20
 902 0048 234E     		ldr	r6, .L60+24
 903 004a B8EE400A 		vcvt.f32.u32	s0, s0
 904 004e 4FF4FA72 		mov	r2, #500
 905 0052 3946     		mov	r1, r7
 906 0054 3046     		mov	r0, r6
 907 0056 FFF7FEFF 		bl	Supercap_PID_Controller_Function
 908              	.LVL44:
  55:Core/Src/supercap.c **** 		supercap_target_voltage = Supercap_Compare(PID_45W_loop.output, PID_n7A_loop.output, PID_7A_loop.
 909              		.loc 1 55 3 is_stmt 1 view .LVU227
  55:Core/Src/supercap.c **** 		supercap_target_voltage = Supercap_Compare(PID_45W_loop.output, PID_n7A_loop.output, PID_7A_loop.
 910              		.loc 1 55 71 is_stmt 0 view .LVU228
 911 005a A389     		ldrh	r3, [r4, #12]
 912 005c 00EE103A 		vmov	s0, r3	@ int
  55:Core/Src/supercap.c **** 		supercap_target_voltage = Supercap_Compare(PID_45W_loop.output, PID_n7A_loop.output, PID_7A_loop.
 913              		.loc 1 55 3 view .LVU229
ARM GAS  C:\Users\HYDROG~1\AppData\Local\Temp\cco8vh5F.s 			page 22


 914 0060 1E4C     		ldr	r4, .L60+28
 915 0062 B8EE400A 		vcvt.f32.u32	s0, s0
 916 0066 40F69A02 		movw	r2, #2202
 917 006a 3946     		mov	r1, r7
 918 006c 2046     		mov	r0, r4
 919 006e FFF7FEFF 		bl	Supercap_PID_Controller_Function
 920              	.LVL45:
  56:Core/Src/supercap.c **** 		supercap_target_voltage = Supercap_Limit(supercap_target_voltage, 2800, 0);
 921              		.loc 1 56 3 is_stmt 1 view .LVU230
  56:Core/Src/supercap.c **** 		supercap_target_voltage = Supercap_Limit(supercap_target_voltage, 2800, 0);
 922              		.loc 1 56 29 is_stmt 0 view .LVU231
 923 0072 B4F91420 		ldrsh	r2, [r4, #20]
 924 0076 B6F91410 		ldrsh	r1, [r6, #20]
 925 007a B5F91400 		ldrsh	r0, [r5, #20]
 926 007e FFF7FEFF 		bl	Supercap_Compare
 927              	.LVL46:
 928 0082 07EE900A 		vmov	s15, r0	@ int
  56:Core/Src/supercap.c **** 		supercap_target_voltage = Supercap_Limit(supercap_target_voltage, 2800, 0);
 929              		.loc 1 56 27 view .LVU232
 930 0086 164C     		ldr	r4, .L60+32
 931 0088 F8EEE77A 		vcvt.f32.s32	s15, s15
 932 008c C4ED007A 		vstr.32	s15, [r4]
  57:Core/Src/supercap.c **** 		Supercap_PWM_left(supercap_target_voltage * 0.1f);
 933              		.loc 1 57 3 is_stmt 1 view .LVU233
  57:Core/Src/supercap.c **** 		Supercap_PWM_left(supercap_target_voltage * 0.1f);
 934              		.loc 1 57 29 is_stmt 0 view .LVU234
 935 0090 0022     		movs	r2, #0
 936 0092 4FF42F61 		mov	r1, #2800
 937 0096 FFF7FEFF 		bl	Supercap_Limit
 938              	.LVL47:
 939 009a 07EE900A 		vmov	s15, r0	@ int
  57:Core/Src/supercap.c **** 		Supercap_PWM_left(supercap_target_voltage * 0.1f);
 940              		.loc 1 57 27 view .LVU235
 941 009e F8EEE77A 		vcvt.f32.s32	s15, s15
 942 00a2 C4ED007A 		vstr.32	s15, [r4]
  58:Core/Src/supercap.c **** 	}
 943              		.loc 1 58 3 is_stmt 1 view .LVU236
  58:Core/Src/supercap.c **** 	}
 944              		.loc 1 58 45 is_stmt 0 view .LVU237
 945 00a6 9FED0F7A 		vldr.32	s14, .L60+36
 946 00aa 67EE877A 		vmul.f32	s15, s15, s14
  58:Core/Src/supercap.c **** 	}
 947              		.loc 1 58 3 view .LVU238
 948 00ae FDEEE77A 		vcvt.s32.f32	s15, s15
 949 00b2 17EE903A 		vmov	r3, s15	@ int
 950 00b6 18B2     		sxth	r0, r3
 951 00b8 FFF7FEFF 		bl	Supercap_PWM_left
 952              	.LVL48:
  60:Core/Src/supercap.c **** 
 953              		.loc 1 60 1 view .LVU239
 954 00bc A5E7     		b	.L56
 955              	.L61:
 956 00be 00BF     		.align	2
 957              	.L60:
 958 00c0 00000000 		.word	.LANCHOR1
 959 00c4 00000000 		.word	supercap_max_power_current
 960 00c8 00000000 		.word	C_sys
ARM GAS  C:\Users\HYDROG~1\AppData\Local\Temp\cco8vh5F.s 			page 23


 961 00cc 00000000 		.word	V_cap
 962 00d0 00000000 		.word	PID_45W_loop
 963 00d4 00000000 		.word	C_right
 964 00d8 00000000 		.word	PID_n7A_loop
 965 00dc 00000000 		.word	PID_7A_loop
 966 00e0 00000000 		.word	supercap_target_voltage
 967 00e4 CDCCCC3D 		.word	1036831949
 968              		.cfi_endproc
 969              	.LFE335:
 971              		.section	.text.Supercap_PWM_right,"ax",%progbits
 972              		.align	1
 973              		.global	Supercap_PWM_right
 974              		.syntax unified
 975              		.thumb
 976              		.thumb_func
 978              	Supercap_PWM_right:
 979              	.LVL49:
 980              	.LFB351:
 284:Core/Src/supercap.c **** 
 285:Core/Src/supercap.c **** void Supercap_PWM_right(int16_t pwm_duty_cycle) {
 981              		.loc 1 285 49 is_stmt 1 view -0
 982              		.cfi_startproc
 983              		@ args = 0, pretend = 0, frame = 0
 984              		@ frame_needed = 0, uses_anonymous_args = 0
 985              		@ link register save eliminated.
 286:Core/Src/supercap.c ****   __HAL_TIM_SET_COMPARE(&htim1, TIM_CHANNEL_1, 275);
 986              		.loc 1 286 3 view .LVU241
 987 0000 034B     		ldr	r3, .L63
 988 0002 1B68     		ldr	r3, [r3]
 989 0004 40F21312 		movw	r2, #275
 990 0008 5A63     		str	r2, [r3, #52]
 287:Core/Src/supercap.c ****   __HAL_TIM_SET_COMPARE(&htim1, TIM_CHANNEL_4, pwm_duty_cycle);
 991              		.loc 1 287 3 view .LVU242
 992 000a 1864     		str	r0, [r3, #64]
 288:Core/Src/supercap.c **** }
 993              		.loc 1 288 1 is_stmt 0 view .LVU243
 994 000c 7047     		bx	lr
 995              	.L64:
 996 000e 00BF     		.align	2
 997              	.L63:
 998 0010 00000000 		.word	htim1
 999              		.cfi_endproc
 1000              	.LFE351:
 1002              		.section	.text.Supercap_PWM_GND,"ax",%progbits
 1003              		.align	1
 1004              		.global	Supercap_PWM_GND
 1005              		.syntax unified
 1006              		.thumb
 1007              		.thumb_func
 1009              	Supercap_PWM_GND:
 1010              	.LFB352:
 289:Core/Src/supercap.c **** 
 290:Core/Src/supercap.c **** void Supercap_PWM_GND() {
 1011              		.loc 1 290 25 is_stmt 1 view -0
 1012              		.cfi_startproc
 1013              		@ args = 0, pretend = 0, frame = 0
 1014              		@ frame_needed = 0, uses_anonymous_args = 0
ARM GAS  C:\Users\HYDROG~1\AppData\Local\Temp\cco8vh5F.s 			page 24


 1015              		@ link register save eliminated.
 291:Core/Src/supercap.c ****   __HAL_TIM_SET_COMPARE(&htim1, TIM_CHANNEL_1, 0);
 1016              		.loc 1 291 3 view .LVU245
 1017 0000 034B     		ldr	r3, .L66
 1018 0002 1B68     		ldr	r3, [r3]
 1019 0004 0022     		movs	r2, #0
 1020 0006 5A63     		str	r2, [r3, #52]
 292:Core/Src/supercap.c ****   __HAL_TIM_SET_COMPARE(&htim1, TIM_CHANNEL_4, 300);
 1021              		.loc 1 292 3 view .LVU246
 1022 0008 4FF49672 		mov	r2, #300
 1023 000c 1A64     		str	r2, [r3, #64]
 293:Core/Src/supercap.c **** }
 1024              		.loc 1 293 1 is_stmt 0 view .LVU247
 1025 000e 7047     		bx	lr
 1026              	.L67:
 1027              		.align	2
 1028              	.L66:
 1029 0010 00000000 		.word	htim1
 1030              		.cfi_endproc
 1031              	.LFE352:
 1033              		.section	.text.Supercap_DCDC_Start,"ax",%progbits
 1034              		.align	1
 1035              		.global	Supercap_DCDC_Start
 1036              		.syntax unified
 1037              		.thumb
 1038              		.thumb_func
 1040              	Supercap_DCDC_Start:
 1041              	.LFB353:
 294:Core/Src/supercap.c **** 
 295:Core/Src/supercap.c **** void Supercap_DCDC_Start(){
 1042              		.loc 1 295 27 is_stmt 1 view -0
 1043              		.cfi_startproc
 1044              		@ args = 0, pretend = 0, frame = 0
 1045              		@ frame_needed = 0, uses_anonymous_args = 0
 1046 0000 10B5     		push	{r4, lr}
 1047              	.LCFI5:
 1048              		.cfi_def_cfa_offset 8
 1049              		.cfi_offset 4, -8
 1050              		.cfi_offset 14, -4
 296:Core/Src/supercap.c ****   HAL_TIM_PWM_Start(&htim1, TIM_CHANNEL_1);
 1051              		.loc 1 296 3 view .LVU249
 1052 0002 094C     		ldr	r4, .L70
 1053 0004 0021     		movs	r1, #0
 1054 0006 2046     		mov	r0, r4
 1055 0008 FFF7FEFF 		bl	HAL_TIM_PWM_Start
 1056              	.LVL50:
 297:Core/Src/supercap.c ****   HAL_TIMEx_PWMN_Start(&htim1, TIM_CHANNEL_1);
 1057              		.loc 1 297 3 view .LVU250
 1058 000c 0021     		movs	r1, #0
 1059 000e 2046     		mov	r0, r4
 1060 0010 FFF7FEFF 		bl	HAL_TIMEx_PWMN_Start
 1061              	.LVL51:
 298:Core/Src/supercap.c ****   HAL_TIM_PWM_Start(&htim1, TIM_CHANNEL_4);
 1062              		.loc 1 298 3 view .LVU251
 1063 0014 0C21     		movs	r1, #12
 1064 0016 2046     		mov	r0, r4
 1065 0018 FFF7FEFF 		bl	HAL_TIM_PWM_Start
ARM GAS  C:\Users\HYDROG~1\AppData\Local\Temp\cco8vh5F.s 			page 25


 1066              	.LVL52:
 299:Core/Src/supercap.c ****   HAL_TIMEx_PWMN_Start(&htim1, TIM_CHANNEL_4);
 1067              		.loc 1 299 3 view .LVU252
 1068 001c 0C21     		movs	r1, #12
 1069 001e 2046     		mov	r0, r4
 1070 0020 FFF7FEFF 		bl	HAL_TIMEx_PWMN_Start
 1071              	.LVL53:
 300:Core/Src/supercap.c **** }
 1072              		.loc 1 300 1 is_stmt 0 view .LVU253
 1073 0024 10BD     		pop	{r4, pc}
 1074              	.L71:
 1075 0026 00BF     		.align	2
 1076              	.L70:
 1077 0028 00000000 		.word	htim1
 1078              		.cfi_endproc
 1079              	.LFE353:
 1081              		.section	.text.Supercap_DCDC_Stop,"ax",%progbits
 1082              		.align	1
 1083              		.global	Supercap_DCDC_Stop
 1084              		.syntax unified
 1085              		.thumb
 1086              		.thumb_func
 1088              	Supercap_DCDC_Stop:
 1089              	.LFB354:
 301:Core/Src/supercap.c **** 
 302:Core/Src/supercap.c **** void Supercap_DCDC_Stop(){
 1090              		.loc 1 302 26 is_stmt 1 view -0
 1091              		.cfi_startproc
 1092              		@ args = 0, pretend = 0, frame = 0
 1093              		@ frame_needed = 0, uses_anonymous_args = 0
 1094 0000 10B5     		push	{r4, lr}
 1095              	.LCFI6:
 1096              		.cfi_def_cfa_offset 8
 1097              		.cfi_offset 4, -8
 1098              		.cfi_offset 14, -4
 303:Core/Src/supercap.c ****   HAL_TIM_PWM_Stop(&htim1, TIM_CHANNEL_1);
 1099              		.loc 1 303 3 view .LVU255
 1100 0002 094C     		ldr	r4, .L74
 1101 0004 0021     		movs	r1, #0
 1102 0006 2046     		mov	r0, r4
 1103 0008 FFF7FEFF 		bl	HAL_TIM_PWM_Stop
 1104              	.LVL54:
 304:Core/Src/supercap.c ****   HAL_TIMEx_PWMN_Stop(&htim1, TIM_CHANNEL_1);
 1105              		.loc 1 304 3 view .LVU256
 1106 000c 0021     		movs	r1, #0
 1107 000e 2046     		mov	r0, r4
 1108 0010 FFF7FEFF 		bl	HAL_TIMEx_PWMN_Stop
 1109              	.LVL55:
 305:Core/Src/supercap.c ****   HAL_TIM_PWM_Stop(&htim1, TIM_CHANNEL_4);
 1110              		.loc 1 305 3 view .LVU257
 1111 0014 0C21     		movs	r1, #12
 1112 0016 2046     		mov	r0, r4
 1113 0018 FFF7FEFF 		bl	HAL_TIM_PWM_Stop
 1114              	.LVL56:
 306:Core/Src/supercap.c ****   HAL_TIMEx_PWMN_Stop(&htim1, TIM_CHANNEL_4);
 1115              		.loc 1 306 3 view .LVU258
 1116 001c 0C21     		movs	r1, #12
ARM GAS  C:\Users\HYDROG~1\AppData\Local\Temp\cco8vh5F.s 			page 26


 1117 001e 2046     		mov	r0, r4
 1118 0020 FFF7FEFF 		bl	HAL_TIMEx_PWMN_Stop
 1119              	.LVL57:
 307:Core/Src/supercap.c **** }
 1120              		.loc 1 307 1 is_stmt 0 view .LVU259
 1121 0024 10BD     		pop	{r4, pc}
 1122              	.L75:
 1123 0026 00BF     		.align	2
 1124              	.L74:
 1125 0028 00000000 		.word	htim1
 1126              		.cfi_endproc
 1127              	.LFE354:
 1129              		.section	.text.Supercap_AUX_Init,"ax",%progbits
 1130              		.align	1
 1131              		.global	Supercap_AUX_Init
 1132              		.syntax unified
 1133              		.thumb
 1134              		.thumb_func
 1136              	Supercap_AUX_Init:
 1137              	.LFB355:
 308:Core/Src/supercap.c **** 
 309:Core/Src/supercap.c **** void Supercap_AUX_Init(){
 1138              		.loc 1 309 25 is_stmt 1 view -0
 1139              		.cfi_startproc
 1140              		@ args = 0, pretend = 0, frame = 0
 1141              		@ frame_needed = 0, uses_anonymous_args = 0
 1142 0000 38B5     		push	{r3, r4, r5, lr}
 1143              	.LCFI7:
 1144              		.cfi_def_cfa_offset 16
 1145              		.cfi_offset 3, -16
 1146              		.cfi_offset 4, -12
 1147              		.cfi_offset 5, -8
 1148              		.cfi_offset 14, -4
 310:Core/Src/supercap.c ****   __HAL_TIM_SET_COMPARE(&htim3, TIM_CHANNEL_1, 0);
 1149              		.loc 1 310 3 view .LVU261
 1150 0002 0F4C     		ldr	r4, .L78
 1151 0004 2368     		ldr	r3, [r4]
 1152 0006 0025     		movs	r5, #0
 1153 0008 5D63     		str	r5, [r3, #52]
 311:Core/Src/supercap.c ****   TIM3_AUTORELOAD_over100 = 480;
 1154              		.loc 1 311 3 view .LVU262
 1155              		.loc 1 311 27 is_stmt 0 view .LVU263
 1156 000a 0E4B     		ldr	r3, .L78+4
 1157 000c 4FF4F072 		mov	r2, #480
 1158 0010 1A60     		str	r2, [r3]
 312:Core/Src/supercap.c ****   HAL_TIM_PWM_Start(&htim3, TIM_CHANNEL_1); //Buzzer
 1159              		.loc 1 312 3 is_stmt 1 view .LVU264
 1160 0012 2946     		mov	r1, r5
 1161 0014 2046     		mov	r0, r4
 1162 0016 FFF7FEFF 		bl	HAL_TIM_PWM_Start
 1163              	.LVL58:
 313:Core/Src/supercap.c ****   HAL_TIM_PWM_Start(&htim3, TIM_CHANNEL_2); //LED_0 red
 1164              		.loc 1 313 3 view .LVU265
 1165 001a 0421     		movs	r1, #4
 1166 001c 2046     		mov	r0, r4
 1167 001e FFF7FEFF 		bl	HAL_TIM_PWM_Start
 1168              	.LVL59:
ARM GAS  C:\Users\HYDROG~1\AppData\Local\Temp\cco8vh5F.s 			page 27


 314:Core/Src/supercap.c **** 	HAL_TIM_PWM_Start(&htim3, TIM_CHANNEL_3); //LED_1 yellow
 1169              		.loc 1 314 2 view .LVU266
 1170 0022 0821     		movs	r1, #8
 1171 0024 2046     		mov	r0, r4
 1172 0026 FFF7FEFF 		bl	HAL_TIM_PWM_Start
 1173              	.LVL60:
 315:Core/Src/supercap.c **** 	
 316:Core/Src/supercap.c **** 	HAL_TIM_PWM_Start(&htim4, TIM_CHANNEL_1); //Machine Spirit
 1174              		.loc 1 316 2 view .LVU267
 1175 002a 074C     		ldr	r4, .L78+8
 1176 002c 2946     		mov	r1, r5
 1177 002e 2046     		mov	r0, r4
 1178 0030 FFF7FEFF 		bl	HAL_TIM_PWM_Start
 1179              	.LVL61:
 317:Core/Src/supercap.c **** 	HAL_TIM_PWM_Start(&htim4, TIM_CHANNEL_2); //LED blue
 1180              		.loc 1 317 2 view .LVU268
 1181 0034 0421     		movs	r1, #4
 1182 0036 2046     		mov	r0, r4
 1183 0038 FFF7FEFF 		bl	HAL_TIM_PWM_Start
 1184              	.LVL62:
 318:Core/Src/supercap.c **** }
 1185              		.loc 1 318 1 is_stmt 0 view .LVU269
 1186 003c 38BD     		pop	{r3, r4, r5, pc}
 1187              	.L79:
 1188 003e 00BF     		.align	2
 1189              	.L78:
 1190 0040 00000000 		.word	htim3
 1191 0044 00000000 		.word	TIM3_AUTORELOAD_over100
 1192 0048 00000000 		.word	htim4
 1193              		.cfi_endproc
 1194              	.LFE355:
 1196              		.section	.text.Supercap_AUX_RedLED,"ax",%progbits
 1197              		.align	1
 1198              		.global	Supercap_AUX_RedLED
 1199              		.syntax unified
 1200              		.thumb
 1201              		.thumb_func
 1203              	Supercap_AUX_RedLED:
 1204              	.LVL63:
 1205              	.LFB356:
 319:Core/Src/supercap.c **** 
 320:Core/Src/supercap.c **** void Supercap_AUX_RedLED(uint32_t brightness){
 1206              		.loc 1 320 46 is_stmt 1 view -0
 1207              		.cfi_startproc
 1208              		@ args = 0, pretend = 0, frame = 0
 1209              		@ frame_needed = 0, uses_anonymous_args = 0
 1210              		@ link register save eliminated.
 321:Core/Src/supercap.c ****   __HAL_TIM_SET_COMPARE(&htim3, TIM_CHANNEL_2, brightness * TIM3_AUTORELOAD_over100);
 1211              		.loc 1 321 3 view .LVU271
 1212 0000 034B     		ldr	r3, .L81
 1213 0002 1B68     		ldr	r3, [r3]
 1214 0004 034A     		ldr	r2, .L81+4
 1215 0006 1268     		ldr	r2, [r2]
 1216 0008 02FB00F0 		mul	r0, r2, r0
 1217              	.LVL64:
 1218              		.loc 1 321 3 is_stmt 0 view .LVU272
 1219 000c 9863     		str	r0, [r3, #56]
ARM GAS  C:\Users\HYDROG~1\AppData\Local\Temp\cco8vh5F.s 			page 28


 322:Core/Src/supercap.c **** }
 1220              		.loc 1 322 1 view .LVU273
 1221 000e 7047     		bx	lr
 1222              	.L82:
 1223              		.align	2
 1224              	.L81:
 1225 0010 00000000 		.word	htim3
 1226 0014 00000000 		.word	TIM3_AUTORELOAD_over100
 1227              		.cfi_endproc
 1228              	.LFE356:
 1230              		.section	.text.Supercap_AUX_YellowLED,"ax",%progbits
 1231              		.align	1
 1232              		.global	Supercap_AUX_YellowLED
 1233              		.syntax unified
 1234              		.thumb
 1235              		.thumb_func
 1237              	Supercap_AUX_YellowLED:
 1238              	.LVL65:
 1239              	.LFB357:
 323:Core/Src/supercap.c **** 
 324:Core/Src/supercap.c **** void Supercap_AUX_YellowLED(uint32_t brightness){
 1240              		.loc 1 324 49 is_stmt 1 view -0
 1241              		.cfi_startproc
 1242              		@ args = 0, pretend = 0, frame = 0
 1243              		@ frame_needed = 0, uses_anonymous_args = 0
 1244              		@ link register save eliminated.
 325:Core/Src/supercap.c ****   __HAL_TIM_SET_COMPARE(&htim3, TIM_CHANNEL_3, brightness * TIM3_AUTORELOAD_over100);
 1245              		.loc 1 325 3 view .LVU275
 1246 0000 034B     		ldr	r3, .L84
 1247 0002 1B68     		ldr	r3, [r3]
 1248 0004 034A     		ldr	r2, .L84+4
 1249 0006 1268     		ldr	r2, [r2]
 1250 0008 02FB00F0 		mul	r0, r2, r0
 1251              	.LVL66:
 1252              		.loc 1 325 3 is_stmt 0 view .LVU276
 1253 000c D863     		str	r0, [r3, #60]
 326:Core/Src/supercap.c **** }
 1254              		.loc 1 326 1 view .LVU277
 1255 000e 7047     		bx	lr
 1256              	.L85:
 1257              		.align	2
 1258              	.L84:
 1259 0010 00000000 		.word	htim3
 1260 0014 00000000 		.word	TIM3_AUTORELOAD_over100
 1261              		.cfi_endproc
 1262              	.LFE357:
 1264              		.section	.text.Supercap_AUX_BlueLED,"ax",%progbits
 1265              		.align	1
 1266              		.global	Supercap_AUX_BlueLED
 1267              		.syntax unified
 1268              		.thumb
 1269              		.thumb_func
 1271              	Supercap_AUX_BlueLED:
 1272              	.LVL67:
 1273              	.LFB358:
 327:Core/Src/supercap.c **** 
 328:Core/Src/supercap.c **** void Supercap_AUX_BlueLED(uint32_t brightness){
ARM GAS  C:\Users\HYDROG~1\AppData\Local\Temp\cco8vh5F.s 			page 29


 1274              		.loc 1 328 47 is_stmt 1 view -0
 1275              		.cfi_startproc
 1276              		@ args = 0, pretend = 0, frame = 0
 1277              		@ frame_needed = 0, uses_anonymous_args = 0
 1278              		@ link register save eliminated.
 329:Core/Src/supercap.c ****   __HAL_TIM_SET_COMPARE(&htim4, TIM_CHANNEL_2, brightness * 480);
 1279              		.loc 1 329 3 view .LVU279
 1280 0000 034B     		ldr	r3, .L87
 1281 0002 1B68     		ldr	r3, [r3]
 1282 0004 C0EB0010 		rsb	r0, r0, r0, lsl #4
 1283              	.LVL68:
 1284              		.loc 1 329 3 is_stmt 0 view .LVU280
 1285 0008 4001     		lsls	r0, r0, #5
 1286 000a 9863     		str	r0, [r3, #56]
 330:Core/Src/supercap.c **** }
 1287              		.loc 1 330 1 view .LVU281
 1288 000c 7047     		bx	lr
 1289              	.L88:
 1290 000e 00BF     		.align	2
 1291              	.L87:
 1292 0010 00000000 		.word	htim4
 1293              		.cfi_endproc
 1294              	.LFE358:
 1296              		.section	.text.Supercap_AUX_MachineSpirit,"ax",%progbits
 1297              		.align	1
 1298              		.global	Supercap_AUX_MachineSpirit
 1299              		.syntax unified
 1300              		.thumb
 1301              		.thumb_func
 1303              	Supercap_AUX_MachineSpirit:
 1304              	.LVL69:
 1305              	.LFB359:
 331:Core/Src/supercap.c **** 
 332:Core/Src/supercap.c **** void Supercap_AUX_MachineSpirit(uint32_t brightness){
 1306              		.loc 1 332 53 is_stmt 1 view -0
 1307              		.cfi_startproc
 1308              		@ args = 0, pretend = 0, frame = 0
 1309              		@ frame_needed = 0, uses_anonymous_args = 0
 1310              		@ link register save eliminated.
 333:Core/Src/supercap.c ****   __HAL_TIM_SET_COMPARE(&htim4, TIM_CHANNEL_1, brightness * 480);
 1311              		.loc 1 333 3 view .LVU283
 1312 0000 034B     		ldr	r3, .L90
 1313 0002 1B68     		ldr	r3, [r3]
 1314 0004 C0EB0010 		rsb	r0, r0, r0, lsl #4
 1315              	.LVL70:
 1316              		.loc 1 333 3 is_stmt 0 view .LVU284
 1317 0008 4001     		lsls	r0, r0, #5
 1318 000a 5863     		str	r0, [r3, #52]
 334:Core/Src/supercap.c **** }
 1319              		.loc 1 334 1 view .LVU285
 1320 000c 7047     		bx	lr
 1321              	.L91:
 1322 000e 00BF     		.align	2
 1323              	.L90:
 1324 0010 00000000 		.word	htim4
 1325              		.cfi_endproc
 1326              	.LFE359:
ARM GAS  C:\Users\HYDROG~1\AppData\Local\Temp\cco8vh5F.s 			page 30


 1328              		.section	.text.Supercap_FSM,"ax",%progbits
 1329              		.align	1
 1330              		.global	Supercap_FSM
 1331              		.syntax unified
 1332              		.thumb
 1333              		.thumb_func
 1335              	Supercap_FSM:
 1336              	.LFB340:
 105:Core/Src/supercap.c ****   //Protection
 1337              		.loc 1 105 20 is_stmt 1 view -0
 1338              		.cfi_startproc
 1339              		@ args = 0, pretend = 0, frame = 0
 1340              		@ frame_needed = 0, uses_anonymous_args = 0
 1341 0000 08B5     		push	{r3, lr}
 1342              	.LCFI8:
 1343              		.cfi_def_cfa_offset 8
 1344              		.cfi_offset 3, -8
 1345              		.cfi_offset 14, -4
 107:Core/Src/supercap.c **** 		fault_counter++;
 1346              		.loc 1 107 3 view .LVU287
 107:Core/Src/supercap.c **** 		fault_counter++;
 1347              		.loc 1 107 11 is_stmt 0 view .LVU288
 1348 0002 954B     		ldr	r3, .L122
 1349 0004 9B89     		ldrh	r3, [r3, #12]
 1350 0006 07EE903A 		vmov	s15, r3	@ int
 107:Core/Src/supercap.c **** 		fault_counter++;
 1351              		.loc 1 107 30 view .LVU289
 1352 000a F8EEE77A 		vcvt.f32.s32	s15, s15
 107:Core/Src/supercap.c **** 		fault_counter++;
 1353              		.loc 1 107 5 view .LVU290
 1354 000e 9FED937A 		vldr.32	s14, .L122+4
 1355 0012 F4EEC77A 		vcmpe.f32	s15, s14
 1356 0016 F1EE10FA 		vmrs	APSR_nzcv, FPSCR
 1357 001a 13D5     		bpl	.L93
 107:Core/Src/supercap.c **** 		fault_counter++;
 1358              		.loc 1 107 54 discriminator 1 view .LVU291
 1359 001c 904B     		ldr	r3, .L122+8
 1360 001e 9B89     		ldrh	r3, [r3, #12]
 1361 0020 07EE903A 		vmov	s15, r3	@ int
 107:Core/Src/supercap.c **** 		fault_counter++;
 1362              		.loc 1 107 73 discriminator 1 view .LVU292
 1363 0024 F8EEE77A 		vcvt.f32.s32	s15, s15
 107:Core/Src/supercap.c **** 		fault_counter++;
 1364              		.loc 1 107 46 discriminator 1 view .LVU293
 1365 0028 9FED8E7A 		vldr.32	s14, .L122+12
 1366 002c F4EEC77A 		vcmpe.f32	s15, s14
 1367 0030 F1EE10FA 		vmrs	APSR_nzcv, FPSCR
 1368 0034 06DD     		ble	.L93
 108:Core/Src/supercap.c **** 		if(fault_counter >= 100){
 1369              		.loc 1 108 3 is_stmt 1 view .LVU294
 108:Core/Src/supercap.c **** 		if(fault_counter >= 100){
 1370              		.loc 1 108 16 is_stmt 0 view .LVU295
 1371 0036 8C4A     		ldr	r2, .L122+16
 1372 0038 1388     		ldrh	r3, [r2]
 1373 003a 0133     		adds	r3, r3, #1
 1374 003c 9BB2     		uxth	r3, r3
 1375 003e 1380     		strh	r3, [r2]	@ movhi
ARM GAS  C:\Users\HYDROG~1\AppData\Local\Temp\cco8vh5F.s 			page 31


 109:Core/Src/supercap.c **** 			Supercap_DCDC_Stop();
 1376              		.loc 1 109 3 is_stmt 1 view .LVU296
 109:Core/Src/supercap.c **** 			Supercap_DCDC_Stop();
 1377              		.loc 1 109 5 is_stmt 0 view .LVU297
 1378 0040 632B     		cmp	r3, #99
 1379 0042 1FD8     		bhi	.L119
 1380              	.L93:
 120:Core/Src/supercap.c ****   
 1381              		.loc 1 120 2 is_stmt 1 view .LVU298
 122:Core/Src/supercap.c **** 		fault_counter++;
 1382              		.loc 1 122 3 view .LVU299
 122:Core/Src/supercap.c **** 		fault_counter++;
 1383              		.loc 1 122 13 is_stmt 0 view .LVU300
 1384 0044 894B     		ldr	r3, .L122+20
 1385 0046 9B89     		ldrh	r3, [r3, #12]
 122:Core/Src/supercap.c **** 		fault_counter++;
 1386              		.loc 1 122 39 view .LVU301
 1387 0048 1F3B     		subs	r3, r3, #31
 1388 004a 9BB2     		uxth	r3, r3
 122:Core/Src/supercap.c **** 		fault_counter++;
 1389              		.loc 1 122 5 view .LVU302
 1390 004c B3F57C6F 		cmp	r3, #4032
 1391 0050 2AD9     		bls	.L96
 123:Core/Src/supercap.c **** 		if(fault_counter >= 2){
 1392              		.loc 1 123 3 is_stmt 1 view .LVU303
 123:Core/Src/supercap.c **** 		if(fault_counter >= 2){
 1393              		.loc 1 123 16 is_stmt 0 view .LVU304
 1394 0052 854A     		ldr	r2, .L122+16
 1395 0054 1388     		ldrh	r3, [r2]
 1396 0056 0133     		adds	r3, r3, #1
 1397 0058 9BB2     		uxth	r3, r3
 1398 005a 1380     		strh	r3, [r2]	@ movhi
 124:Core/Src/supercap.c **** 			Supercap_DCDC_Stop();
 1399              		.loc 1 124 3 is_stmt 1 view .LVU305
 124:Core/Src/supercap.c **** 			Supercap_DCDC_Stop();
 1400              		.loc 1 124 5 is_stmt 0 view .LVU306
 1401 005c 012B     		cmp	r3, #1
 1402 005e 27D9     		bls	.L97
 125:Core/Src/supercap.c **** 			Supercap_AUX_BlueLED(60);
 1403              		.loc 1 125 4 is_stmt 1 view .LVU307
 1404 0060 FFF7FEFF 		bl	Supercap_DCDC_Stop
 1405              	.LVL71:
 126:Core/Src/supercap.c **** 			Supercap_AUX_YellowLED(60);
 1406              		.loc 1 126 4 view .LVU308
 1407 0064 3C20     		movs	r0, #60
 1408 0066 FFF7FEFF 		bl	Supercap_AUX_BlueLED
 1409              	.LVL72:
 127:Core/Src/supercap.c ****       Supercap_AUX_MachineSpirit(0);
 1410              		.loc 1 127 4 view .LVU309
 1411 006a 3C20     		movs	r0, #60
 1412 006c FFF7FEFF 		bl	Supercap_AUX_YellowLED
 1413              	.LVL73:
 128:Core/Src/supercap.c **** 			//Supercap_AUX_Buzzer(80, -1);
 1414              		.loc 1 128 7 view .LVU310
 1415 0070 0020     		movs	r0, #0
 1416 0072 FFF7FEFF 		bl	Supercap_AUX_MachineSpirit
 1417              	.LVL74:
ARM GAS  C:\Users\HYDROG~1\AppData\Local\Temp\cco8vh5F.s 			page 32


 130:Core/Src/supercap.c **** 			fault_counter = 0;
 1418              		.loc 1 130 4 view .LVU311
 130:Core/Src/supercap.c **** 			fault_counter = 0;
 1419              		.loc 1 130 14 is_stmt 0 view .LVU312
 1420 0076 7E4B     		ldr	r3, .L122+24
 1421 0078 0422     		movs	r2, #4
 1422 007a 1A70     		strb	r2, [r3]
 131:Core/Src/supercap.c **** 		}
 1423              		.loc 1 131 4 is_stmt 1 view .LVU313
 131:Core/Src/supercap.c **** 		}
 1424              		.loc 1 131 18 is_stmt 0 view .LVU314
 1425 007c 7A4B     		ldr	r3, .L122+16
 1426 007e 0022     		movs	r2, #0
 1427 0080 1A80     		strh	r2, [r3]	@ movhi
 1428 0082 15E0     		b	.L97
 1429              	.L119:
 110:Core/Src/supercap.c **** 			Supercap_AUX_BlueLED(60);
 1430              		.loc 1 110 4 is_stmt 1 view .LVU315
 1431 0084 FFF7FEFF 		bl	Supercap_DCDC_Stop
 1432              	.LVL75:
 111:Core/Src/supercap.c **** 			Supercap_AUX_YellowLED(60);
 1433              		.loc 1 111 4 view .LVU316
 1434 0088 3C20     		movs	r0, #60
 1435 008a FFF7FEFF 		bl	Supercap_AUX_BlueLED
 1436              	.LVL76:
 112:Core/Src/supercap.c ****       Supercap_AUX_MachineSpirit(0);
 1437              		.loc 1 112 4 view .LVU317
 1438 008e 3C20     		movs	r0, #60
 1439 0090 FFF7FEFF 		bl	Supercap_AUX_YellowLED
 1440              	.LVL77:
 113:Core/Src/supercap.c **** 			//Supercap_AUX_Buzzer(80, 11);
 1441              		.loc 1 113 7 view .LVU318
 1442 0094 0020     		movs	r0, #0
 1443 0096 FFF7FEFF 		bl	Supercap_AUX_MachineSpirit
 1444              	.LVL78:
 115:Core/Src/supercap.c **** 			fault_counter = 0;
 1445              		.loc 1 115 4 view .LVU319
 115:Core/Src/supercap.c **** 			fault_counter = 0;
 1446              		.loc 1 115 14 is_stmt 0 view .LVU320
 1447 009a 754B     		ldr	r3, .L122+24
 1448 009c 0422     		movs	r2, #4
 1449 009e 1A70     		strb	r2, [r3]
 116:Core/Src/supercap.c **** 		}
 1450              		.loc 1 116 4 is_stmt 1 view .LVU321
 116:Core/Src/supercap.c **** 		}
 1451              		.loc 1 116 18 is_stmt 0 view .LVU322
 1452 00a0 714B     		ldr	r3, .L122+16
 1453 00a2 0022     		movs	r2, #0
 1454 00a4 1A80     		strh	r2, [r3]	@ movhi
 1455 00a6 CDE7     		b	.L93
 1456              	.L96:
 134:Core/Src/supercap.c **** 	}
 1457              		.loc 1 134 3 is_stmt 1 view .LVU323
 134:Core/Src/supercap.c **** 	}
 1458              		.loc 1 134 16 is_stmt 0 view .LVU324
 1459 00a8 6F4A     		ldr	r2, .L122+16
 1460 00aa 1388     		ldrh	r3, [r2]
ARM GAS  C:\Users\HYDROG~1\AppData\Local\Temp\cco8vh5F.s 			page 33


 1461 00ac 013B     		subs	r3, r3, #1
 1462 00ae 1380     		strh	r3, [r2]	@ movhi
 1463              	.L97:
 136:Core/Src/supercap.c **** 		fault_counter++;
 1464              		.loc 1 136 3 is_stmt 1 view .LVU325
 136:Core/Src/supercap.c **** 		fault_counter++;
 1465              		.loc 1 136 13 is_stmt 0 view .LVU326
 1466 00b0 6E4B     		ldr	r3, .L122+20
 1467 00b2 9B89     		ldrh	r3, [r3, #12]
 136:Core/Src/supercap.c **** 		fault_counter++;
 1468              		.loc 1 136 39 view .LVU327
 1469 00b4 A3F5F873 		sub	r3, r3, #496
 1470 00b8 9BB2     		uxth	r3, r3
 136:Core/Src/supercap.c **** 		fault_counter++;
 1471              		.loc 1 136 5 view .LVU328
 1472 00ba B3F5426F 		cmp	r3, #3104
 1473 00be 19D9     		bls	.L98
 137:Core/Src/supercap.c **** 		if(fault_counter >= 700){
 1474              		.loc 1 137 3 is_stmt 1 view .LVU329
 137:Core/Src/supercap.c **** 		if(fault_counter >= 700){
 1475              		.loc 1 137 16 is_stmt 0 view .LVU330
 1476 00c0 694A     		ldr	r2, .L122+16
 1477 00c2 1388     		ldrh	r3, [r2]
 1478 00c4 0133     		adds	r3, r3, #1
 1479 00c6 9BB2     		uxth	r3, r3
 1480 00c8 1380     		strh	r3, [r2]	@ movhi
 138:Core/Src/supercap.c **** 			Supercap_AUX_BlueLED(60);
 1481              		.loc 1 138 3 is_stmt 1 view .LVU331
 138:Core/Src/supercap.c **** 			Supercap_AUX_BlueLED(60);
 1482              		.loc 1 138 5 is_stmt 0 view .LVU332
 1483 00ca B3F52F7F 		cmp	r3, #700
 1484 00ce 15D3     		bcc	.L99
 139:Core/Src/supercap.c **** 			Supercap_AUX_YellowLED(60);
 1485              		.loc 1 139 4 is_stmt 1 view .LVU333
 1486 00d0 3C20     		movs	r0, #60
 1487 00d2 FFF7FEFF 		bl	Supercap_AUX_BlueLED
 1488              	.LVL79:
 140:Core/Src/supercap.c ****       Supercap_AUX_MachineSpirit(0);
 1489              		.loc 1 140 4 view .LVU334
 1490 00d6 3C20     		movs	r0, #60
 1491 00d8 FFF7FEFF 		bl	Supercap_AUX_YellowLED
 1492              	.LVL80:
 141:Core/Src/supercap.c **** 			Supercap_DCDC_Stop();
 1493              		.loc 1 141 7 view .LVU335
 1494 00dc 0020     		movs	r0, #0
 1495 00de FFF7FEFF 		bl	Supercap_AUX_MachineSpirit
 1496              	.LVL81:
 142:Core/Src/supercap.c **** 			//Supercap_AUX_Buzzer(80, 1);
 1497              		.loc 1 142 4 view .LVU336
 1498 00e2 FFF7FEFF 		bl	Supercap_DCDC_Stop
 1499              	.LVL82:
 144:Core/Src/supercap.c **** 			fault_counter = 0;
 1500              		.loc 1 144 4 view .LVU337
 144:Core/Src/supercap.c **** 			fault_counter = 0;
 1501              		.loc 1 144 14 is_stmt 0 view .LVU338
 1502 00e6 624B     		ldr	r3, .L122+24
 1503 00e8 0422     		movs	r2, #4
ARM GAS  C:\Users\HYDROG~1\AppData\Local\Temp\cco8vh5F.s 			page 34


 1504 00ea 1A70     		strb	r2, [r3]
 145:Core/Src/supercap.c **** 		}
 1505              		.loc 1 145 4 is_stmt 1 view .LVU339
 145:Core/Src/supercap.c **** 		}
 1506              		.loc 1 145 18 is_stmt 0 view .LVU340
 1507 00ec 5E4B     		ldr	r3, .L122+16
 1508 00ee 0022     		movs	r2, #0
 1509 00f0 1A80     		strh	r2, [r3]	@ movhi
 1510 00f2 03E0     		b	.L99
 1511              	.L98:
 148:Core/Src/supercap.c **** 	}
 1512              		.loc 1 148 3 is_stmt 1 view .LVU341
 148:Core/Src/supercap.c **** 	}
 1513              		.loc 1 148 16 is_stmt 0 view .LVU342
 1514 00f4 5C4A     		ldr	r2, .L122+16
 1515 00f6 1388     		ldrh	r3, [r2]
 1516 00f8 013B     		subs	r3, r3, #1
 1517 00fa 1380     		strh	r3, [r2]	@ movhi
 1518              	.L99:
 152:Core/Src/supercap.c ****     case INIT:
 1519              		.loc 1 152 3 is_stmt 1 view .LVU343
 1520 00fc 5C4B     		ldr	r3, .L122+24
 1521 00fe 1B78     		ldrb	r3, [r3]	@ zero_extendqisi2
 1522 0100 013B     		subs	r3, r3, #1
 1523 0102 042B     		cmp	r3, #4
 1524 0104 0CD8     		bhi	.L100
 1525 0106 DFE803F0 		tbb	[pc, r3]
 1526              	.L102:
 1527 010a 07       		.byte	(.L106-.L102)/2
 1528 010b 31       		.byte	(.L105-.L102)/2
 1529 010c 4B       		.byte	(.L104-.L102)/2
 1530 010d 62       		.byte	(.L103-.L102)/2
 1531 010e 03       		.byte	(.L101-.L102)/2
 1532 010f 00       		.p2align 1
 1533              	.L101:
 154:Core/Src/supercap.c **** 		      //if(1){
 1534              		.loc 1 154 7 view .LVU344
 154:Core/Src/supercap.c **** 		      //if(1){
 1535              		.loc 1 154 15 is_stmt 0 view .LVU345
 1536 0110 514B     		ldr	r3, .L122
 1537 0112 9B89     		ldrh	r3, [r3, #12]
 154:Core/Src/supercap.c **** 		      //if(1){
 1538              		.loc 1 154 9 view .LVU346
 1539 0114 1E2B     		cmp	r3, #30
 1540 0116 0DD8     		bhi	.L120
 1541              	.L106:
 162:Core/Src/supercap.c ****       //if(1){
 1542              		.loc 1 162 7 is_stmt 1 view .LVU347
 162:Core/Src/supercap.c ****       //if(1){
 1543              		.loc 1 162 15 is_stmt 0 view .LVU348
 1544 0118 4F4B     		ldr	r3, .L122
 1545 011a 9B89     		ldrh	r3, [r3, #12]
 162:Core/Src/supercap.c ****       //if(1){
 1546              		.loc 1 162 9 view .LVU349
 1547 011c 322B     		cmp	r3, #50
 1548 011e 16D8     		bhi	.L121
 1549              	.L100:
ARM GAS  C:\Users\HYDROG~1\AppData\Local\Temp\cco8vh5F.s 			page 35


 200:Core/Src/supercap.c **** 		case INIT:
 1550              		.loc 1 200 3 is_stmt 1 view .LVU350
 1551 0120 534B     		ldr	r3, .L122+24
 1552 0122 1B78     		ldrb	r3, [r3]	@ zero_extendqisi2
 1553 0124 013B     		subs	r3, r3, #1
 1554 0126 042B     		cmp	r3, #4
 1555 0128 75D8     		bhi	.L92
 1556 012a DFE803F0 		tbb	[pc, r3]
 1557              	.L110:
 1558 012e 75       		.byte	(.L114-.L110)/2
 1559 012f 7B       		.byte	(.L113-.L110)/2
 1560 0130 7F       		.byte	(.L112-.L110)/2
 1561 0131 83       		.byte	(.L111-.L110)/2
 1562 0132 6F       		.byte	(.L109-.L110)/2
 1563 0133 00       		.p2align 1
 1564              	.L120:
 156:Core/Src/supercap.c **** 				Supercap_AUX_BlueLED(0);
 1565              		.loc 1 156 9 view .LVU351
 1566 0134 3C20     		movs	r0, #60
 1567 0136 FFF7FEFF 		bl	Supercap_AUX_YellowLED
 1568              	.LVL83:
 157:Core/Src/supercap.c ****         Supercap_AUX_MachineSpirit(0);
 1569              		.loc 1 157 5 view .LVU352
 1570 013a 0020     		movs	r0, #0
 1571 013c FFF7FEFF 		bl	Supercap_AUX_BlueLED
 1572              	.LVL84:
 158:Core/Src/supercap.c ****         CAP_STATE = READY;
 1573              		.loc 1 158 9 view .LVU353
 1574 0140 0020     		movs	r0, #0
 1575 0142 FFF7FEFF 		bl	Supercap_AUX_MachineSpirit
 1576              	.LVL85:
 159:Core/Src/supercap.c ****         }
 1577              		.loc 1 159 9 view .LVU354
 159:Core/Src/supercap.c ****         }
 1578              		.loc 1 159 19 is_stmt 0 view .LVU355
 1579 0146 4A4B     		ldr	r3, .L122+24
 1580 0148 0122     		movs	r2, #1
 1581 014a 1A70     		strb	r2, [r3]
 1582 014c E4E7     		b	.L106
 1583              	.L121:
 164:Core/Src/supercap.c **** 				Supercap_AUX_YellowLED(0);
 1584              		.loc 1 164 9 is_stmt 1 view .LVU356
 164:Core/Src/supercap.c **** 				Supercap_AUX_YellowLED(0);
 1585              		.loc 1 164 19 is_stmt 0 view .LVU357
 1586 014e 484B     		ldr	r3, .L122+24
 1587 0150 0222     		movs	r2, #2
 1588 0152 1A70     		strb	r2, [r3]
 165:Core/Src/supercap.c **** 				Supercap_AUX_BlueLED(0);
 1589              		.loc 1 165 5 is_stmt 1 view .LVU358
 1590 0154 0020     		movs	r0, #0
 1591 0156 FFF7FEFF 		bl	Supercap_AUX_YellowLED
 1592              	.LVL86:
 166:Core/Src/supercap.c ****         Supercap_AUX_MachineSpirit(60);
 1593              		.loc 1 166 5 view .LVU359
 1594 015a 0020     		movs	r0, #0
 1595 015c FFF7FEFF 		bl	Supercap_AUX_BlueLED
 1596              	.LVL87:
ARM GAS  C:\Users\HYDROG~1\AppData\Local\Temp\cco8vh5F.s 			page 36


 167:Core/Src/supercap.c **** 				Supercap_DCDC_Start();
 1597              		.loc 1 167 9 view .LVU360
 1598 0160 3C20     		movs	r0, #60
 1599 0162 FFF7FEFF 		bl	Supercap_AUX_MachineSpirit
 1600              	.LVL88:
 168:Core/Src/supercap.c ****       }
 1601              		.loc 1 168 5 view .LVU361
 1602 0166 FFF7FEFF 		bl	Supercap_DCDC_Start
 1603              	.LVL89:
 1604 016a D9E7     		b	.L100
 1605              	.L105:
 172:Core/Src/supercap.c **** 			//if(C_sys.real_value_12bits < 2020){
 1606              		.loc 1 172 7 view .LVU362
 172:Core/Src/supercap.c **** 			//if(C_sys.real_value_12bits < 2020){
 1607              		.loc 1 172 15 is_stmt 0 view .LVU363
 1608 016c 414B     		ldr	r3, .L122+28
 1609 016e 9B89     		ldrh	r3, [r3, #12]
 172:Core/Src/supercap.c **** 			//if(C_sys.real_value_12bits < 2020){
 1610              		.loc 1 172 9 view .LVU364
 1611 0170 B3F50D6F 		cmp	r3, #2256
 1612 0174 D4D2     		bcs	.L100
 172:Core/Src/supercap.c **** 			//if(C_sys.real_value_12bits < 2020){
 1613              		.loc 1 172 49 discriminator 1 view .LVU365
 1614 0176 3A4B     		ldr	r3, .L122+8
 1615 0178 9A89     		ldrh	r2, [r3, #12]
 172:Core/Src/supercap.c **** 			//if(C_sys.real_value_12bits < 2020){
 1616              		.loc 1 172 41 discriminator 1 view .LVU366
 1617 017a 40F2FE73 		movw	r3, #2046
 1618 017e 9A42     		cmp	r2, r3
 1619 0180 CED8     		bhi	.L100
 174:Core/Src/supercap.c **** 				Supercap_DCDC_Stop();
 1620              		.loc 1 174 9 is_stmt 1 view .LVU367
 174:Core/Src/supercap.c **** 				Supercap_DCDC_Stop();
 1621              		.loc 1 174 19 is_stmt 0 view .LVU368
 1622 0182 3B4B     		ldr	r3, .L122+24
 1623 0184 0322     		movs	r2, #3
 1624 0186 1A70     		strb	r2, [r3]
 175:Core/Src/supercap.c ****         Supercap_AUX_MachineSpirit(0);
 1625              		.loc 1 175 5 is_stmt 1 view .LVU369
 1626 0188 FFF7FEFF 		bl	Supercap_DCDC_Stop
 1627              	.LVL90:
 176:Core/Src/supercap.c **** 				Supercap_AUX_BlueLED(0);
 1628              		.loc 1 176 9 view .LVU370
 1629 018c 0020     		movs	r0, #0
 1630 018e FFF7FEFF 		bl	Supercap_AUX_MachineSpirit
 1631              	.LVL91:
 177:Core/Src/supercap.c **** 				Supercap_AUX_YellowLED(0);
 1632              		.loc 1 177 5 view .LVU371
 1633 0192 0020     		movs	r0, #0
 1634 0194 FFF7FEFF 		bl	Supercap_AUX_BlueLED
 1635              	.LVL92:
 178:Core/Src/supercap.c ****       }
 1636              		.loc 1 178 5 view .LVU372
 1637 0198 0020     		movs	r0, #0
 1638 019a FFF7FEFF 		bl	Supercap_AUX_YellowLED
 1639              	.LVL93:
 1640 019e BFE7     		b	.L100
ARM GAS  C:\Users\HYDROG~1\AppData\Local\Temp\cco8vh5F.s 			page 37


 1641              	.L104:
 182:Core/Src/supercap.c ****         CAP_STATE = READY;
 1642              		.loc 1 182 4 view .LVU373
 182:Core/Src/supercap.c ****         CAP_STATE = READY;
 1643              		.loc 1 182 12 is_stmt 0 view .LVU374
 1644 01a0 344B     		ldr	r3, .L122+28
 1645 01a2 9B89     		ldrh	r3, [r3, #12]
 182:Core/Src/supercap.c ****         CAP_STATE = READY;
 1646              		.loc 1 182 6 view .LVU375
 1647 01a4 B3F50D6F 		cmp	r3, #2256
 1648 01a8 BAD9     		bls	.L100
 182:Core/Src/supercap.c ****         CAP_STATE = READY;
 1649              		.loc 1 182 46 discriminator 1 view .LVU376
 1650 01aa 2D4B     		ldr	r3, .L122+8
 1651 01ac 9B89     		ldrh	r3, [r3, #12]
 182:Core/Src/supercap.c ****         CAP_STATE = READY;
 1652              		.loc 1 182 38 discriminator 1 view .LVU377
 1653 01ae B3F5006F 		cmp	r3, #2048
 1654 01b2 B5D3     		bcc	.L100
 183:Core/Src/supercap.c **** 				Supercap_AUX_BlueLED(0);
 1655              		.loc 1 183 9 is_stmt 1 view .LVU378
 183:Core/Src/supercap.c **** 				Supercap_AUX_BlueLED(0);
 1656              		.loc 1 183 19 is_stmt 0 view .LVU379
 1657 01b4 2E4B     		ldr	r3, .L122+24
 1658 01b6 0122     		movs	r2, #1
 1659 01b8 1A70     		strb	r2, [r3]
 184:Core/Src/supercap.c **** 				Supercap_AUX_YellowLED(80);
 1660              		.loc 1 184 5 is_stmt 1 view .LVU380
 1661 01ba 0020     		movs	r0, #0
 1662 01bc FFF7FEFF 		bl	Supercap_AUX_BlueLED
 1663              	.LVL94:
 185:Core/Src/supercap.c ****         Supercap_AUX_MachineSpirit(0);
 1664              		.loc 1 185 5 view .LVU381
 1665 01c0 5020     		movs	r0, #80
 1666 01c2 FFF7FEFF 		bl	Supercap_AUX_YellowLED
 1667              	.LVL95:
 186:Core/Src/supercap.c **** 			}
 1668              		.loc 1 186 9 view .LVU382
 1669 01c6 0020     		movs	r0, #0
 1670 01c8 FFF7FEFF 		bl	Supercap_AUX_MachineSpirit
 1671              	.LVL96:
 1672 01cc A8E7     		b	.L100
 1673              	.L103:
 190:Core/Src/supercap.c **** 				CAP_STATE = READY;
 1674              		.loc 1 190 4 view .LVU383
 190:Core/Src/supercap.c **** 				CAP_STATE = READY;
 1675              		.loc 1 190 26 is_stmt 0 view .LVU384
 1676 01ce 2A4B     		ldr	r3, .L122+32
 1677 01d0 1B88     		ldrh	r3, [r3]
 190:Core/Src/supercap.c **** 				CAP_STATE = READY;
 1678              		.loc 1 190 6 view .LVU385
 1679 01d2 B3F57A7F 		cmp	r3, #1000
 1680 01d6 A3D3     		bcc	.L100
 190:Core/Src/supercap.c **** 				CAP_STATE = READY;
 1681              		.loc 1 190 42 discriminator 1 view .LVU386
 1682 01d8 214B     		ldr	r3, .L122+8
 1683 01da 9B89     		ldrh	r3, [r3, #12]
ARM GAS  C:\Users\HYDROG~1\AppData\Local\Temp\cco8vh5F.s 			page 38


 1684 01dc 07EE903A 		vmov	s15, r3	@ int
 190:Core/Src/supercap.c **** 				CAP_STATE = READY;
 1685              		.loc 1 190 61 discriminator 1 view .LVU387
 1686 01e0 F8EEE77A 		vcvt.f32.s32	s15, s15
 190:Core/Src/supercap.c **** 				CAP_STATE = READY;
 1687              		.loc 1 190 34 discriminator 1 view .LVU388
 1688 01e4 9FED1F7A 		vldr.32	s14, .L122+12
 1689 01e8 F4EEC77A 		vcmpe.f32	s15, s14
 1690 01ec F1EE10FA 		vmrs	APSR_nzcv, FPSCR
 1691 01f0 96D5     		bpl	.L100
 191:Core/Src/supercap.c **** 				Supercap_AUX_BlueLED(0);
 1692              		.loc 1 191 5 is_stmt 1 view .LVU389
 191:Core/Src/supercap.c **** 				Supercap_AUX_BlueLED(0);
 1693              		.loc 1 191 15 is_stmt 0 view .LVU390
 1694 01f2 1F4B     		ldr	r3, .L122+24
 1695 01f4 0122     		movs	r2, #1
 1696 01f6 1A70     		strb	r2, [r3]
 192:Core/Src/supercap.c **** 				Supercap_AUX_YellowLED(80);
 1697              		.loc 1 192 5 is_stmt 1 view .LVU391
 1698 01f8 0020     		movs	r0, #0
 1699 01fa FFF7FEFF 		bl	Supercap_AUX_BlueLED
 1700              	.LVL97:
 193:Core/Src/supercap.c ****         Supercap_AUX_MachineSpirit(0);
 1701              		.loc 1 193 5 view .LVU392
 1702 01fe 5020     		movs	r0, #80
 1703 0200 FFF7FEFF 		bl	Supercap_AUX_YellowLED
 1704              	.LVL98:
 194:Core/Src/supercap.c **** 			}
 1705              		.loc 1 194 9 view .LVU393
 1706 0204 0020     		movs	r0, #0
 1707 0206 FFF7FEFF 		bl	Supercap_AUX_MachineSpirit
 1708              	.LVL99:
 1709 020a 89E7     		b	.L100
 1710              	.L109:
 202:Core/Src/supercap.c ****       protection_counter = 0;
 1711              		.loc 1 202 4 view .LVU394
 202:Core/Src/supercap.c ****       protection_counter = 0;
 1712              		.loc 1 202 13 is_stmt 0 view .LVU395
 1713 020c 0023     		movs	r3, #0
 1714 020e 1B4A     		ldr	r2, .L122+36
 1715 0210 1370     		strb	r3, [r2]
 203:Core/Src/supercap.c **** 			break;
 1716              		.loc 1 203 7 is_stmt 1 view .LVU396
 203:Core/Src/supercap.c **** 			break;
 1717              		.loc 1 203 26 is_stmt 0 view .LVU397
 1718 0212 194A     		ldr	r2, .L122+32
 1719 0214 1380     		strh	r3, [r2]	@ movhi
 204:Core/Src/supercap.c ****     case READY:
 1720              		.loc 1 204 4 is_stmt 1 view .LVU398
 1721              	.L92:
 224:Core/Src/supercap.c **** 
 1722              		.loc 1 224 1 is_stmt 0 view .LVU399
 1723 0216 08BD     		pop	{r3, pc}
 1724              	.L114:
 206:Core/Src/supercap.c ****       protection_counter = 0;
 1725              		.loc 1 206 7 is_stmt 1 view .LVU400
 206:Core/Src/supercap.c ****       protection_counter = 0;
ARM GAS  C:\Users\HYDROG~1\AppData\Local\Temp\cco8vh5F.s 			page 39


 1726              		.loc 1 206 16 is_stmt 0 view .LVU401
 1727 0218 0023     		movs	r3, #0
 1728 021a 184A     		ldr	r2, .L122+36
 1729 021c 1370     		strb	r3, [r2]
 207:Core/Src/supercap.c ****       break;
 1730              		.loc 1 207 7 is_stmt 1 view .LVU402
 207:Core/Src/supercap.c ****       break;
 1731              		.loc 1 207 26 is_stmt 0 view .LVU403
 1732 021e 164A     		ldr	r2, .L122+32
 1733 0220 1380     		strh	r3, [r2]	@ movhi
 208:Core/Src/supercap.c ****     case RUNNING:
 1734              		.loc 1 208 7 is_stmt 1 view .LVU404
 1735 0222 F8E7     		b	.L92
 1736              	.L113:
 210:Core/Src/supercap.c ****       break;
 1737              		.loc 1 210 4 view .LVU405
 210:Core/Src/supercap.c ****       break;
 1738              		.loc 1 210 13 is_stmt 0 view .LVU406
 1739 0224 154B     		ldr	r3, .L122+36
 1740 0226 0122     		movs	r2, #1
 1741 0228 1A70     		strb	r2, [r3]
 211:Core/Src/supercap.c ****     case STOP:
 1742              		.loc 1 211 7 is_stmt 1 view .LVU407
 1743 022a F4E7     		b	.L92
 1744              	.L112:
 213:Core/Src/supercap.c ****       break;
 1745              		.loc 1 213 4 view .LVU408
 213:Core/Src/supercap.c ****       break;
 1746              		.loc 1 213 13 is_stmt 0 view .LVU409
 1747 022c 134B     		ldr	r3, .L122+36
 1748 022e 0022     		movs	r2, #0
 1749 0230 1A70     		strb	r2, [r3]
 214:Core/Src/supercap.c ****     case FAULT:
 1750              		.loc 1 214 7 is_stmt 1 view .LVU410
 1751 0232 F0E7     		b	.L92
 1752              	.L111:
 216:Core/Src/supercap.c ****       Supercap_PID_Reset(&PID_n7A_loop);
 1753              		.loc 1 216 7 view .LVU411
 1754 0234 1248     		ldr	r0, .L122+40
 1755 0236 FFF7FEFF 		bl	Supercap_PID_Reset
 1756              	.LVL100:
 217:Core/Src/supercap.c ****       Supercap_PID_Reset(&PID_7A_loop);
 1757              		.loc 1 217 7 view .LVU412
 1758 023a 1248     		ldr	r0, .L122+44
 1759 023c FFF7FEFF 		bl	Supercap_PID_Reset
 1760              	.LVL101:
 218:Core/Src/supercap.c ****       Supercap_PID_Reset(&PID_voltage_loop);
 1761              		.loc 1 218 7 view .LVU413
 1762 0240 1148     		ldr	r0, .L122+48
 1763 0242 FFF7FEFF 		bl	Supercap_PID_Reset
 1764              	.LVL102:
 219:Core/Src/supercap.c ****       protection_counter++;
 1765              		.loc 1 219 7 view .LVU414
 1766 0246 1148     		ldr	r0, .L122+52
 1767 0248 FFF7FEFF 		bl	Supercap_PID_Reset
 1768              	.LVL103:
 220:Core/Src/supercap.c ****       break;
ARM GAS  C:\Users\HYDROG~1\AppData\Local\Temp\cco8vh5F.s 			page 40


 1769              		.loc 1 220 7 view .LVU415
 220:Core/Src/supercap.c ****       break;
 1770              		.loc 1 220 25 is_stmt 0 view .LVU416
 1771 024c 0A4A     		ldr	r2, .L122+32
 1772 024e 1388     		ldrh	r3, [r2]
 1773 0250 0133     		adds	r3, r3, #1
 1774 0252 1380     		strh	r3, [r2]	@ movhi
 221:Core/Src/supercap.c ****   }
 1775              		.loc 1 221 7 is_stmt 1 view .LVU417
 224:Core/Src/supercap.c **** 
 1776              		.loc 1 224 1 is_stmt 0 view .LVU418
 1777 0254 DFE7     		b	.L92
 1778              	.L123:
 1779 0256 00BF     		.align	2
 1780              	.L122:
 1781 0258 00000000 		.word	V_cap
 1782 025c 0080C543 		.word	1137016832
 1783 0260 00000000 		.word	C_sys
 1784 0264 00B02645 		.word	1160163328
 1785 0268 00000000 		.word	.LANCHOR2
 1786 026c 00000000 		.word	C_right
 1787 0270 00000000 		.word	CAP_STATE
 1788 0274 00000000 		.word	V_bat
 1789 0278 00000000 		.word	.LANCHOR3
 1790 027c 00000000 		.word	.LANCHOR1
 1791 0280 00000000 		.word	PID_45W_loop
 1792 0284 00000000 		.word	PID_n7A_loop
 1793 0288 00000000 		.word	PID_7A_loop
 1794 028c 00000000 		.word	PID_voltage_loop
 1795              		.cfi_endproc
 1796              	.LFE340:
 1798              		.section	.text.HAL_TIM_PeriodElapsedCallback,"ax",%progbits
 1799              		.align	1
 1800              		.global	HAL_TIM_PeriodElapsedCallback
 1801              		.syntax unified
 1802              		.thumb
 1803              		.thumb_func
 1805              	HAL_TIM_PeriodElapsedCallback:
 1806              	.LVL104:
 1807              	.LFB332:
  16:Core/Src/supercap.c **** 	if(htim->Instance == TIM5){
 1808              		.loc 1 16 61 is_stmt 1 view -0
 1809              		.cfi_startproc
 1810              		@ args = 0, pretend = 0, frame = 0
 1811              		@ frame_needed = 0, uses_anonymous_args = 0
  16:Core/Src/supercap.c **** 	if(htim->Instance == TIM5){
 1812              		.loc 1 16 61 is_stmt 0 view .LVU420
 1813 0000 10B5     		push	{r4, lr}
 1814              	.LCFI9:
 1815              		.cfi_def_cfa_offset 8
 1816              		.cfi_offset 4, -8
 1817              		.cfi_offset 14, -4
  17:Core/Src/supercap.c **** 		HAL_GPIO_WritePin(GPIOB, GPIO_PIN_15, GPIO_PIN_SET);
 1818              		.loc 1 17 2 is_stmt 1 view .LVU421
  17:Core/Src/supercap.c **** 		HAL_GPIO_WritePin(GPIOB, GPIO_PIN_15, GPIO_PIN_SET);
 1819              		.loc 1 17 9 is_stmt 0 view .LVU422
 1820 0002 0368     		ldr	r3, [r0]
ARM GAS  C:\Users\HYDROG~1\AppData\Local\Temp\cco8vh5F.s 			page 41


  17:Core/Src/supercap.c **** 		HAL_GPIO_WritePin(GPIOB, GPIO_PIN_15, GPIO_PIN_SET);
 1821              		.loc 1 17 4 view .LVU423
 1822 0004 194A     		ldr	r2, .L132
 1823 0006 9342     		cmp	r3, r2
 1824 0008 06D0     		beq	.L129
  23:Core/Src/supercap.c ****     HAL_GPIO_WritePin(GPIOB, GPIO_PIN_15, GPIO_PIN_SET);
 1825              		.loc 1 23 8 is_stmt 1 view .LVU424
  23:Core/Src/supercap.c ****     HAL_GPIO_WritePin(GPIOB, GPIO_PIN_15, GPIO_PIN_SET);
 1826              		.loc 1 23 10 is_stmt 0 view .LVU425
 1827 000a B3F1804F 		cmp	r3, #1073741824
 1828 000e 15D0     		beq	.L130
  29:Core/Src/supercap.c **** 		TIM6_NVIC();
 1829              		.loc 1 29 7 is_stmt 1 view .LVU426
  29:Core/Src/supercap.c **** 		TIM6_NVIC();
 1830              		.loc 1 29 9 is_stmt 0 view .LVU427
 1831 0010 174A     		ldr	r2, .L132+4
 1832 0012 9342     		cmp	r3, r2
 1833 0014 22D0     		beq	.L131
 1834              	.LVL105:
 1835              	.L124:
  33:Core/Src/supercap.c **** 
 1836              		.loc 1 33 1 view .LVU428
 1837 0016 10BD     		pop	{r4, pc}
 1838              	.LVL106:
 1839              	.L129:
  18:Core/Src/supercap.c ****     Supercap_FSM();
 1840              		.loc 1 18 3 is_stmt 1 view .LVU429
 1841 0018 164C     		ldr	r4, .L132+8
 1842 001a 0122     		movs	r2, #1
 1843 001c 4FF40041 		mov	r1, #32768
 1844 0020 2046     		mov	r0, r4
 1845              	.LVL107:
  18:Core/Src/supercap.c ****     Supercap_FSM();
 1846              		.loc 1 18 3 is_stmt 0 view .LVU430
 1847 0022 FFF7FEFF 		bl	HAL_GPIO_WritePin
 1848              	.LVL108:
  19:Core/Src/supercap.c ****     TIM5_NVIC();
 1849              		.loc 1 19 5 is_stmt 1 view .LVU431
 1850 0026 FFF7FEFF 		bl	Supercap_FSM
 1851              	.LVL109:
  20:Core/Src/supercap.c **** 		HAL_GPIO_WritePin(GPIOB, GPIO_PIN_15, GPIO_PIN_RESET);
 1852              		.loc 1 20 5 view .LVU432
 1853 002a FFF7FEFF 		bl	TIM5_NVIC
 1854              	.LVL110:
  21:Core/Src/supercap.c **** 	}
 1855              		.loc 1 21 3 view .LVU433
 1856 002e 0022     		movs	r2, #0
 1857 0030 4FF40041 		mov	r1, #32768
 1858 0034 2046     		mov	r0, r4
 1859 0036 FFF7FEFF 		bl	HAL_GPIO_WritePin
 1860              	.LVL111:
 1861 003a ECE7     		b	.L124
 1862              	.LVL112:
 1863              	.L130:
  24:Core/Src/supercap.c ****     TIM2_NVIC();
 1864              		.loc 1 24 5 view .LVU434
 1865 003c 0D4C     		ldr	r4, .L132+8
ARM GAS  C:\Users\HYDROG~1\AppData\Local\Temp\cco8vh5F.s 			page 42


 1866 003e 0122     		movs	r2, #1
 1867 0040 4FF40041 		mov	r1, #32768
 1868 0044 2046     		mov	r0, r4
 1869              	.LVL113:
  24:Core/Src/supercap.c ****     TIM2_NVIC();
 1870              		.loc 1 24 5 is_stmt 0 view .LVU435
 1871 0046 FFF7FEFF 		bl	HAL_GPIO_WritePin
 1872              	.LVL114:
  25:Core/Src/supercap.c ****     HAL_GPIO_WritePin(GPIOB, GPIO_PIN_15, GPIO_PIN_RESET);
 1873              		.loc 1 25 5 is_stmt 1 view .LVU436
 1874 004a FFF7FEFF 		bl	TIM2_NVIC
 1875              	.LVL115:
  26:Core/Src/supercap.c **** 		//debug_counter ++;
 1876              		.loc 1 26 5 view .LVU437
 1877 004e 0022     		movs	r2, #0
 1878 0050 4FF40041 		mov	r1, #32768
 1879 0054 2046     		mov	r0, r4
 1880 0056 FFF7FEFF 		bl	HAL_GPIO_WritePin
 1881              	.LVL116:
 1882 005a DCE7     		b	.L124
 1883              	.LVL117:
 1884              	.L131:
  30:Core/Src/supercap.c **** 		HAL_GPIO_TogglePin(GPIOE,GPIO_PIN_3); //heart
 1885              		.loc 1 30 3 view .LVU438
 1886 005c FFF7FEFF 		bl	TIM6_NVIC
 1887              	.LVL118:
  31:Core/Src/supercap.c **** 	}
 1888              		.loc 1 31 3 view .LVU439
 1889 0060 0821     		movs	r1, #8
 1890 0062 0548     		ldr	r0, .L132+12
 1891 0064 FFF7FEFF 		bl	HAL_GPIO_TogglePin
 1892              	.LVL119:
  33:Core/Src/supercap.c **** 
 1893              		.loc 1 33 1 is_stmt 0 view .LVU440
 1894 0068 D5E7     		b	.L124
 1895              	.L133:
 1896 006a 00BF     		.align	2
 1897              	.L132:
 1898 006c 000C0040 		.word	1073744896
 1899 0070 00100040 		.word	1073745920
 1900 0074 00040048 		.word	1207960576
 1901 0078 00100048 		.word	1207963648
 1902              		.cfi_endproc
 1903              	.LFE332:
 1905              		.section	.text.Supercap_AUX_Buzzer,"ax",%progbits
 1906              		.align	1
 1907              		.global	Supercap_AUX_Buzzer
 1908              		.syntax unified
 1909              		.thumb
 1910              		.thumb_func
 1912              	Supercap_AUX_Buzzer:
 1913              	.LVL120:
 1914              	.LFB360:
 335:Core/Src/supercap.c **** 
 336:Core/Src/supercap.c **** void Supercap_AUX_Buzzer(uint32_t volume, int16_t note){
 1915              		.loc 1 336 56 is_stmt 1 view -0
 1916              		.cfi_startproc
ARM GAS  C:\Users\HYDROG~1\AppData\Local\Temp\cco8vh5F.s 			page 43


 1917              		@ args = 0, pretend = 0, frame = 0
 1918              		@ frame_needed = 0, uses_anonymous_args = 0
 1919              		@ link register save eliminated.
 337:Core/Src/supercap.c **** if (note == -1) {
 1920              		.loc 1 337 1 view .LVU442
 1921              		.loc 1 337 4 is_stmt 0 view .LVU443
 1922 0000 B1F1FF3F 		cmp	r1, #-1
 1923 0004 44D0     		beq	.L157
 338:Core/Src/supercap.c ****   __HAL_TIM_SET_AUTORELOAD(&htim3, 11538);
 339:Core/Src/supercap.c ****   TIM3_AUTORELOAD_over100 = 115;
 340:Core/Src/supercap.c **** } else if (note == -2) {
 1924              		.loc 1 340 8 is_stmt 1 view .LVU444
 1925              		.loc 1 340 11 is_stmt 0 view .LVU445
 1926 0006 11F1020F 		cmn	r1, #2
 1927 000a 52D0     		beq	.L158
 341:Core/Src/supercap.c ****   __HAL_TIM_SET_AUTORELOAD(&htim3, 10273);
 342:Core/Src/supercap.c ****   TIM3_AUTORELOAD_over100 = 103;
 343:Core/Src/supercap.c **** } else if (note == -3) {
 1928              		.loc 1 343 8 is_stmt 1 view .LVU446
 1929              		.loc 1 343 11 is_stmt 0 view .LVU447
 1930 000c 11F1030F 		cmn	r1, #3
 1931 0010 59D0     		beq	.L159
 344:Core/Src/supercap.c ****   __HAL_TIM_SET_AUTORELOAD(&htim3, 9146);
 345:Core/Src/supercap.c ****   TIM3_AUTORELOAD_over100 = 91;
 346:Core/Src/supercap.c **** } else if (note == -4) {
 1932              		.loc 1 346 8 is_stmt 1 view .LVU448
 1933              		.loc 1 346 11 is_stmt 0 view .LVU449
 1934 0012 11F1040F 		cmn	r1, #4
 1935 0016 60D0     		beq	.L160
 347:Core/Src/supercap.c ****   __HAL_TIM_SET_AUTORELOAD(&htim3, 8620);
 348:Core/Src/supercap.c ****   TIM3_AUTORELOAD_over100 = 86;
 349:Core/Src/supercap.c **** } else if (note == -5) {
 1936              		.loc 1 349 8 is_stmt 1 view .LVU450
 1937              		.loc 1 349 11 is_stmt 0 view .LVU451
 1938 0018 11F1050F 		cmn	r1, #5
 1939 001c 67D0     		beq	.L161
 350:Core/Src/supercap.c ****   __HAL_TIM_SET_AUTORELOAD(&htim3, 7692);
 351:Core/Src/supercap.c ****   TIM3_AUTORELOAD_over100 = 77;
 352:Core/Src/supercap.c **** } else if (note == -6) {
 1940              		.loc 1 352 8 is_stmt 1 view .LVU452
 1941              		.loc 1 352 11 is_stmt 0 view .LVU453
 1942 001e 11F1060F 		cmn	r1, #6
 1943 0022 6ED0     		beq	.L162
 353:Core/Src/supercap.c ****   __HAL_TIM_SET_AUTORELOAD(&htim3, 6818);
 354:Core/Src/supercap.c ****   TIM3_AUTORELOAD_over100 = 68;
 355:Core/Src/supercap.c **** } else if (note == -7) {
 1944              		.loc 1 355 8 is_stmt 1 view .LVU454
 1945              		.loc 1 355 11 is_stmt 0 view .LVU455
 1946 0024 11F1070F 		cmn	r1, #7
 1947 0028 75D0     		beq	.L163
 356:Core/Src/supercap.c ****   __HAL_TIM_SET_AUTORELOAD(&htim3, 6097);
 357:Core/Src/supercap.c ****   TIM3_AUTORELOAD_over100 = 61;
 358:Core/Src/supercap.c **** } else if (note == 1) {
 1948              		.loc 1 358 8 is_stmt 1 view .LVU456
 1949              		.loc 1 358 11 is_stmt 0 view .LVU457
 1950 002a 0129     		cmp	r1, #1
 1951 002c 7DD0     		beq	.L164
ARM GAS  C:\Users\HYDROG~1\AppData\Local\Temp\cco8vh5F.s 			page 44


 359:Core/Src/supercap.c ****   __HAL_TIM_SET_AUTORELOAD(&htim3, 5747);
 360:Core/Src/supercap.c ****   TIM3_AUTORELOAD_over100 = 57;
 361:Core/Src/supercap.c **** } else if (note == 2) {
 1952              		.loc 1 361 8 is_stmt 1 view .LVU458
 1953              		.loc 1 361 11 is_stmt 0 view .LVU459
 1954 002e 0229     		cmp	r1, #2
 1955 0030 00F08580 		beq	.L165
 362:Core/Src/supercap.c ****   __HAL_TIM_SET_AUTORELOAD(&htim3, 5119);
 363:Core/Src/supercap.c ****   TIM3_AUTORELOAD_over100 = 51;
 364:Core/Src/supercap.c **** } else if (note == 3) {
 1956              		.loc 1 364 8 is_stmt 1 view .LVU460
 1957              		.loc 1 364 11 is_stmt 0 view .LVU461
 1958 0034 0329     		cmp	r1, #3
 1959 0036 00F08C80 		beq	.L166
 365:Core/Src/supercap.c ****   __HAL_TIM_SET_AUTORELOAD(&htim3, 4559);
 366:Core/Src/supercap.c ****   TIM3_AUTORELOAD_over100 = 46;
 367:Core/Src/supercap.c **** } else if (note == 4) {
 1960              		.loc 1 367 8 is_stmt 1 view .LVU462
 1961              		.loc 1 367 11 is_stmt 0 view .LVU463
 1962 003a 0429     		cmp	r1, #4
 1963 003c 00F09380 		beq	.L167
 368:Core/Src/supercap.c ****   __HAL_TIM_SET_AUTORELOAD(&htim3, 4297);
 369:Core/Src/supercap.c ****   TIM3_AUTORELOAD_over100 = 43;
 370:Core/Src/supercap.c **** } else if (note == 5) {
 1964              		.loc 1 370 8 is_stmt 1 view .LVU464
 1965              		.loc 1 370 11 is_stmt 0 view .LVU465
 1966 0040 0529     		cmp	r1, #5
 1967 0042 00F09A80 		beq	.L168
 371:Core/Src/supercap.c ****   __HAL_TIM_SET_AUTORELOAD(&htim3, 3836);
 372:Core/Src/supercap.c ****   TIM3_AUTORELOAD_over100 = 38;
 373:Core/Src/supercap.c **** } else if (note == 6) {
 1968              		.loc 1 373 8 is_stmt 1 view .LVU466
 1969              		.loc 1 373 11 is_stmt 0 view .LVU467
 1970 0046 0629     		cmp	r1, #6
 1971 0048 00F0A180 		beq	.L169
 374:Core/Src/supercap.c ****   __HAL_TIM_SET_AUTORELOAD(&htim3, 3409);
 375:Core/Src/supercap.c ****   TIM3_AUTORELOAD_over100 = 34;
 376:Core/Src/supercap.c **** } else if (note == 7) {
 1972              		.loc 1 376 8 is_stmt 1 view .LVU468
 1973              		.loc 1 376 11 is_stmt 0 view .LVU469
 1974 004c 0729     		cmp	r1, #7
 1975 004e 00F0A880 		beq	.L170
 377:Core/Src/supercap.c ****   __HAL_TIM_SET_AUTORELOAD(&htim3, 3042);
 378:Core/Src/supercap.c ****   TIM3_AUTORELOAD_over100 = 30;
 379:Core/Src/supercap.c **** } else if (note == 11) {
 1976              		.loc 1 379 8 is_stmt 1 view .LVU470
 1977              		.loc 1 379 11 is_stmt 0 view .LVU471
 1978 0052 0B29     		cmp	r1, #11
 1979 0054 00F0AF80 		beq	.L171
 380:Core/Src/supercap.c ****   __HAL_TIM_SET_AUTORELOAD(&htim3, 2868);
 381:Core/Src/supercap.c ****   TIM3_AUTORELOAD_over100 = 29;
 382:Core/Src/supercap.c **** } else if (note == 12) {
 1980              		.loc 1 382 8 is_stmt 1 view .LVU472
 1981              		.loc 1 382 11 is_stmt 0 view .LVU473
 1982 0058 0C29     		cmp	r1, #12
 1983 005a 00F0B680 		beq	.L172
 383:Core/Src/supercap.c ****   __HAL_TIM_SET_AUTORELOAD(&htim3, 2555);
ARM GAS  C:\Users\HYDROG~1\AppData\Local\Temp\cco8vh5F.s 			page 45


 384:Core/Src/supercap.c ****   TIM3_AUTORELOAD_over100 = 26;
 385:Core/Src/supercap.c **** } else if (note == 13) {
 1984              		.loc 1 385 8 is_stmt 1 view .LVU474
 1985              		.loc 1 385 11 is_stmt 0 view .LVU475
 1986 005e 0D29     		cmp	r1, #13
 1987 0060 00F0BD80 		beq	.L173
 386:Core/Src/supercap.c ****   __HAL_TIM_SET_AUTORELOAD(&htim3, 2276);
 387:Core/Src/supercap.c ****   TIM3_AUTORELOAD_over100 = 23;
 388:Core/Src/supercap.c **** } else if (note == 14) {
 1988              		.loc 1 388 8 is_stmt 1 view .LVU476
 1989              		.loc 1 388 11 is_stmt 0 view .LVU477
 1990 0064 0E29     		cmp	r1, #14
 1991 0066 00F0C480 		beq	.L174
 389:Core/Src/supercap.c ****   __HAL_TIM_SET_AUTORELOAD(&htim3, 2148);
 390:Core/Src/supercap.c ****   TIM3_AUTORELOAD_over100 = 21;
 391:Core/Src/supercap.c **** } else if (note == 15) {
 1992              		.loc 1 391 8 is_stmt 1 view .LVU478
 1993              		.loc 1 391 11 is_stmt 0 view .LVU479
 1994 006a 0F29     		cmp	r1, #15
 1995 006c 00F0CB80 		beq	.L175
 392:Core/Src/supercap.c ****   __HAL_TIM_SET_AUTORELOAD(&htim3, 1915);
 393:Core/Src/supercap.c ****   TIM3_AUTORELOAD_over100 = 19;
 394:Core/Src/supercap.c **** } else if (note == 16) {
 1996              		.loc 1 394 8 is_stmt 1 view .LVU480
 1997              		.loc 1 394 11 is_stmt 0 view .LVU481
 1998 0070 1029     		cmp	r1, #16
 1999 0072 00F0D280 		beq	.L176
 395:Core/Src/supercap.c ****   __HAL_TIM_SET_AUTORELOAD(&htim3, 1704);
 396:Core/Src/supercap.c ****   TIM3_AUTORELOAD_over100 = 17;
 397:Core/Src/supercap.c **** } else if (note == 17) {
 2000              		.loc 1 397 8 is_stmt 1 view .LVU482
 2001              		.loc 1 397 11 is_stmt 0 view .LVU483
 2002 0076 1129     		cmp	r1, #17
 2003 0078 00F0D980 		beq	.L177
 398:Core/Src/supercap.c ****   __HAL_TIM_SET_AUTORELOAD(&htim3, 1518);
 399:Core/Src/supercap.c ****   TIM3_AUTORELOAD_over100 = 15;
 400:Core/Src/supercap.c **** } else{
 401:Core/Src/supercap.c ****   __HAL_TIM_SET_AUTORELOAD(&htim3, 1000);
 2004              		.loc 1 401 3 is_stmt 1 view .LVU484
 2005              		.loc 1 401 3 view .LVU485
 2006 007c 714B     		ldr	r3, .L178
 2007 007e 1968     		ldr	r1, [r3]
 2008              	.LVL121:
 2009              		.loc 1 401 3 is_stmt 0 view .LVU486
 2010 0080 4FF47A72 		mov	r2, #1000
 2011 0084 CA62     		str	r2, [r1, #44]
 2012              		.loc 1 401 3 is_stmt 1 view .LVU487
 2013 0086 DA60     		str	r2, [r3, #12]
 2014              		.loc 1 401 3 view .LVU488
 402:Core/Src/supercap.c ****   TIM3_AUTORELOAD_over100 = 10;
 2015              		.loc 1 402 3 view .LVU489
 2016              		.loc 1 402 27 is_stmt 0 view .LVU490
 2017 0088 6F4B     		ldr	r3, .L178+4
 2018 008a 0A22     		movs	r2, #10
 2019 008c 1A60     		str	r2, [r3]
 2020 008e 08E0     		b	.L136
 2021              	.LVL122:
ARM GAS  C:\Users\HYDROG~1\AppData\Local\Temp\cco8vh5F.s 			page 46


 2022              	.L157:
 338:Core/Src/supercap.c ****   TIM3_AUTORELOAD_over100 = 115;
 2023              		.loc 1 338 3 is_stmt 1 view .LVU491
 338:Core/Src/supercap.c ****   TIM3_AUTORELOAD_over100 = 115;
 2024              		.loc 1 338 3 view .LVU492
 2025 0090 6C4B     		ldr	r3, .L178
 2026 0092 1968     		ldr	r1, [r3]
 2027              	.LVL123:
 338:Core/Src/supercap.c ****   TIM3_AUTORELOAD_over100 = 115;
 2028              		.loc 1 338 3 is_stmt 0 view .LVU493
 2029 0094 42F61252 		movw	r2, #11538
 2030 0098 CA62     		str	r2, [r1, #44]
 338:Core/Src/supercap.c ****   TIM3_AUTORELOAD_over100 = 115;
 2031              		.loc 1 338 3 is_stmt 1 view .LVU494
 2032 009a DA60     		str	r2, [r3, #12]
 338:Core/Src/supercap.c ****   TIM3_AUTORELOAD_over100 = 115;
 2033              		.loc 1 338 3 view .LVU495
 339:Core/Src/supercap.c **** } else if (note == -2) {
 2034              		.loc 1 339 3 view .LVU496
 339:Core/Src/supercap.c **** } else if (note == -2) {
 2035              		.loc 1 339 27 is_stmt 0 view .LVU497
 2036 009c 6A4B     		ldr	r3, .L178+4
 2037 009e 7322     		movs	r2, #115
 2038 00a0 1A60     		str	r2, [r3]
 2039              	.L136:
 403:Core/Src/supercap.c **** }
 404:Core/Src/supercap.c ****   __HAL_TIM_SET_COMPARE(&htim3, TIM_CHANNEL_1, volume * TIM3_AUTORELOAD_over100);
 2040              		.loc 1 404 3 is_stmt 1 view .LVU498
 2041 00a2 684B     		ldr	r3, .L178
 2042 00a4 1B68     		ldr	r3, [r3]
 2043 00a6 684A     		ldr	r2, .L178+4
 2044 00a8 1268     		ldr	r2, [r2]
 2045 00aa 02FB00F0 		mul	r0, r2, r0
 2046              	.LVL124:
 2047              		.loc 1 404 3 is_stmt 0 view .LVU499
 2048 00ae 5863     		str	r0, [r3, #52]
 405:Core/Src/supercap.c **** }...
 2049              		.loc 1 405 1 view .LVU500
 2050 00b0 7047     		bx	lr
 2051              	.LVL125:
 2052              	.L158:
 341:Core/Src/supercap.c ****   __HAL_TIM_SET_AUTORELOAD(&htim3, 10273);
 2053              		.loc 1 341 3 is_stmt 1 view .LVU501
 341:Core/Src/supercap.c ****   __HAL_TIM_SET_AUTORELOAD(&htim3, 10273);
 2054              		.loc 1 341 3 view .LVU502
 2055 00b2 644B     		ldr	r3, .L178
 2056 00b4 1968     		ldr	r1, [r3]
 2057              	.LVL126:
 341:Core/Src/supercap.c ****   __HAL_TIM_SET_AUTORELOAD(&htim3, 10273);
 2058              		.loc 1 341 3 is_stmt 0 view .LVU503
 2059 00b6 42F62102 		movw	r2, #10273
 2060 00ba CA62     		str	r2, [r1, #44]
 341:Core/Src/supercap.c ****   __HAL_TIM_SET_AUTORELOAD(&htim3, 10273);
 2061              		.loc 1 341 3 is_stmt 1 view .LVU504
 2062 00bc DA60     		str	r2, [r3, #12]
 341:Core/Src/supercap.c ****   __HAL_TIM_SET_AUTORELOAD(&htim3, 10273);
 2063              		.loc 1 341 3 view .LVU505
ARM GAS  C:\Users\HYDROG~1\AppData\Local\Temp\cco8vh5F.s 			page 47


 342:Core/Src/supercap.c ****   TIM3_AUTORELOAD_over100 = 103;
 2064              		.loc 1 342 3 view .LVU506
 342:Core/Src/supercap.c ****   TIM3_AUTORELOAD_over100 = 103;
 2065              		.loc 1 342 27 is_stmt 0 view .LVU507
 2066 00be 624B     		ldr	r3, .L178+4
 2067 00c0 6722     		movs	r2, #103
 2068 00c2 1A60     		str	r2, [r3]
 2069 00c4 EDE7     		b	.L136
 2070              	.LVL127:
 2071              	.L159:
 344:Core/Src/supercap.c ****   __HAL_TIM_SET_AUTORELOAD(&htim3, 9146);
 2072              		.loc 1 344 3 is_stmt 1 view .LVU508
 344:Core/Src/supercap.c ****   __HAL_TIM_SET_AUTORELOAD(&htim3, 9146);
 2073              		.loc 1 344 3 view .LVU509
 2074 00c6 5F4B     		ldr	r3, .L178
 2075 00c8 1968     		ldr	r1, [r3]
 2076              	.LVL128:
 344:Core/Src/supercap.c ****   __HAL_TIM_SET_AUTORELOAD(&htim3, 9146);
 2077              		.loc 1 344 3 is_stmt 0 view .LVU510
 2078 00ca 42F2BA32 		movw	r2, #9146
 2079 00ce CA62     		str	r2, [r1, #44]
 344:Core/Src/supercap.c ****   __HAL_TIM_SET_AUTORELOAD(&htim3, 9146);
 2080              		.loc 1 344 3 is_stmt 1 view .LVU511
 2081 00d0 DA60     		str	r2, [r3, #12]
 344:Core/Src/supercap.c ****   __HAL_TIM_SET_AUTORELOAD(&htim3, 9146);
 2082              		.loc 1 344 3 view .LVU512
 345:Core/Src/supercap.c ****   TIM3_AUTORELOAD_over100 = 91;
 2083              		.loc 1 345 3 view .LVU513
 345:Core/Src/supercap.c ****   TIM3_AUTORELOAD_over100 = 91;
 2084              		.loc 1 345 27 is_stmt 0 view .LVU514
 2085 00d2 5D4B     		ldr	r3, .L178+4
 2086 00d4 5B22     		movs	r2, #91
 2087 00d6 1A60     		str	r2, [r3]
 2088 00d8 E3E7     		b	.L136
 2089              	.LVL129:
 2090              	.L160:
 347:Core/Src/supercap.c ****   __HAL_TIM_SET_AUTORELOAD(&htim3, 8620);
 2091              		.loc 1 347 3 is_stmt 1 view .LVU515
 347:Core/Src/supercap.c ****   __HAL_TIM_SET_AUTORELOAD(&htim3, 8620);
 2092              		.loc 1 347 3 view .LVU516
 2093 00da 5A4B     		ldr	r3, .L178
 2094 00dc 1968     		ldr	r1, [r3]
 2095              	.LVL130:
 347:Core/Src/supercap.c ****   __HAL_TIM_SET_AUTORELOAD(&htim3, 8620);
 2096              		.loc 1 347 3 is_stmt 0 view .LVU517
 2097 00de 42F2AC12 		movw	r2, #8620
 2098 00e2 CA62     		str	r2, [r1, #44]
 347:Core/Src/supercap.c ****   __HAL_TIM_SET_AUTORELOAD(&htim3, 8620);
 2099              		.loc 1 347 3 is_stmt 1 view .LVU518
 2100 00e4 DA60     		str	r2, [r3, #12]
 347:Core/Src/supercap.c ****   __HAL_TIM_SET_AUTORELOAD(&htim3, 8620);
 2101              		.loc 1 347 3 view .LVU519
 348:Core/Src/supercap.c ****   TIM3_AUTORELOAD_over100 = 86;
 2102              		.loc 1 348 3 view .LVU520
 348:Core/Src/supercap.c ****   TIM3_AUTORELOAD_over100 = 86;
 2103              		.loc 1 348 27 is_stmt 0 view .LVU521
 2104 00e6 584B     		ldr	r3, .L178+4
ARM GAS  C:\Users\HYDROG~1\AppData\Local\Temp\cco8vh5F.s 			page 48


 2105 00e8 5622     		movs	r2, #86
 2106 00ea 1A60     		str	r2, [r3]
 2107 00ec D9E7     		b	.L136
 2108              	.LVL131:
 2109              	.L161:
 350:Core/Src/supercap.c ****   __HAL_TIM_SET_AUTORELOAD(&htim3, 7692);
 2110              		.loc 1 350 3 is_stmt 1 view .LVU522
 350:Core/Src/supercap.c ****   __HAL_TIM_SET_AUTORELOAD(&htim3, 7692);
 2111              		.loc 1 350 3 view .LVU523
 2112 00ee 554B     		ldr	r3, .L178
 2113 00f0 1968     		ldr	r1, [r3]
 2114              	.LVL132:
 350:Core/Src/supercap.c ****   __HAL_TIM_SET_AUTORELOAD(&htim3, 7692);
 2115              		.loc 1 350 3 is_stmt 0 view .LVU524
 2116 00f2 41F60C62 		movw	r2, #7692
 2117 00f6 CA62     		str	r2, [r1, #44]
 350:Core/Src/supercap.c ****   __HAL_TIM_SET_AUTORELOAD(&htim3, 7692);
 2118              		.loc 1 350 3 is_stmt 1 view .LVU525
 2119 00f8 DA60     		str	r2, [r3, #12]
 350:Core/Src/supercap.c ****   __HAL_TIM_SET_AUTORELOAD(&htim3, 7692);
 2120              		.loc 1 350 3 view .LVU526
 351:Core/Src/supercap.c ****   TIM3_AUTORELOAD_over100 = 77;
 2121              		.loc 1 351 3 view .LVU527
 351:Core/Src/supercap.c ****   TIM3_AUTORELOAD_over100 = 77;
 2122              		.loc 1 351 27 is_stmt 0 view .LVU528
 2123 00fa 534B     		ldr	r3, .L178+4
 2124 00fc 4D22     		movs	r2, #77
 2125 00fe 1A60     		str	r2, [r3]
 2126 0100 CFE7     		b	.L136
 2127              	.LVL133:
 2128              	.L162:
 353:Core/Src/supercap.c ****   __HAL_TIM_SET_AUTORELOAD(&htim3, 6818);
 2129              		.loc 1 353 3 is_stmt 1 view .LVU529
 353:Core/Src/supercap.c ****   __HAL_TIM_SET_AUTORELOAD(&htim3, 6818);
 2130              		.loc 1 353 3 view .LVU530
 2131 0102 504B     		ldr	r3, .L178
 2132 0104 1968     		ldr	r1, [r3]
 2133              	.LVL134:
 353:Core/Src/supercap.c ****   __HAL_TIM_SET_AUTORELOAD(&htim3, 6818);
 2134              		.loc 1 353 3 is_stmt 0 view .LVU531
 2135 0106 41F6A222 		movw	r2, #6818
 2136 010a CA62     		str	r2, [r1, #44]
 353:Core/Src/supercap.c ****   __HAL_TIM_SET_AUTORELOAD(&htim3, 6818);
 2137              		.loc 1 353 3 is_stmt 1 view .LVU532
 2138 010c DA60     		str	r2, [r3, #12]
 353:Core/Src/supercap.c ****   __HAL_TIM_SET_AUTORELOAD(&htim3, 6818);
 2139              		.loc 1 353 3 view .LVU533
 354:Core/Src/supercap.c ****   TIM3_AUTORELOAD_over100 = 68;
 2140              		.loc 1 354 3 view .LVU534
 354:Core/Src/supercap.c ****   TIM3_AUTORELOAD_over100 = 68;
 2141              		.loc 1 354 27 is_stmt 0 view .LVU535
 2142 010e 4E4B     		ldr	r3, .L178+4
 2143 0110 4422     		movs	r2, #68
 2144 0112 1A60     		str	r2, [r3]
 2145 0114 C5E7     		b	.L136
 2146              	.LVL135:
 2147              	.L163:
ARM GAS  C:\Users\HYDROG~1\AppData\Local\Temp\cco8vh5F.s 			page 49


 356:Core/Src/supercap.c ****   __HAL_TIM_SET_AUTORELOAD(&htim3, 6097);
 2148              		.loc 1 356 3 is_stmt 1 view .LVU536
 356:Core/Src/supercap.c ****   __HAL_TIM_SET_AUTORELOAD(&htim3, 6097);
 2149              		.loc 1 356 3 view .LVU537
 2150 0116 4B4B     		ldr	r3, .L178
 2151 0118 1968     		ldr	r1, [r3]
 2152              	.LVL136:
 356:Core/Src/supercap.c ****   __HAL_TIM_SET_AUTORELOAD(&htim3, 6097);
 2153              		.loc 1 356 3 is_stmt 0 view .LVU538
 2154 011a 41F2D172 		movw	r2, #6097
 2155 011e CA62     		str	r2, [r1, #44]
 356:Core/Src/supercap.c ****   __HAL_TIM_SET_AUTORELOAD(&htim3, 6097);
 2156              		.loc 1 356 3 is_stmt 1 view .LVU539
 2157 0120 DA60     		str	r2, [r3, #12]
 356:Core/Src/supercap.c ****   __HAL_TIM_SET_AUTORELOAD(&htim3, 6097);
 2158              		.loc 1 356 3 view .LVU540
 357:Core/Src/supercap.c ****   TIM3_AUTORELOAD_over100 = 61;
 2159              		.loc 1 357 3 view .LVU541
 357:Core/Src/supercap.c ****   TIM3_AUTORELOAD_over100 = 61;
 2160              		.loc 1 357 27 is_stmt 0 view .LVU542
 2161 0122 494B     		ldr	r3, .L178+4
 2162 0124 3D22     		movs	r2, #61
 2163 0126 1A60     		str	r2, [r3]
 2164 0128 BBE7     		b	.L136
 2165              	.LVL137:
 2166              	.L164:
 359:Core/Src/supercap.c ****   __HAL_TIM_SET_AUTORELOAD(&htim3, 5747);
 2167              		.loc 1 359 3 is_stmt 1 view .LVU543
 359:Core/Src/supercap.c ****   __HAL_TIM_SET_AUTORELOAD(&htim3, 5747);
 2168              		.loc 1 359 3 view .LVU544
 2169 012a 464B     		ldr	r3, .L178
 2170 012c 1968     		ldr	r1, [r3]
 2171              	.LVL138:
 359:Core/Src/supercap.c ****   __HAL_TIM_SET_AUTORELOAD(&htim3, 5747);
 2172              		.loc 1 359 3 is_stmt 0 view .LVU545
 2173 012e 41F27362 		movw	r2, #5747
 2174 0132 CA62     		str	r2, [r1, #44]
 359:Core/Src/supercap.c ****   __HAL_TIM_SET_AUTORELOAD(&htim3, 5747);
 2175              		.loc 1 359 3 is_stmt 1 view .LVU546
 2176 0134 DA60     		str	r2, [r3, #12]
 359:Core/Src/supercap.c ****   __HAL_TIM_SET_AUTORELOAD(&htim3, 5747);
 2177              		.loc 1 359 3 view .LVU547
 360:Core/Src/supercap.c ****   TIM3_AUTORELOAD_over100 = 57;
 2178              		.loc 1 360 3 view .LVU548
 360:Core/Src/supercap.c ****   TIM3_AUTORELOAD_over100 = 57;
 2179              		.loc 1 360 27 is_stmt 0 view .LVU549
 2180 0136 444B     		ldr	r3, .L178+4
 2181 0138 3922     		movs	r2, #57
 2182 013a 1A60     		str	r2, [r3]
 2183 013c B1E7     		b	.L136
 2184              	.LVL139:
 2185              	.L165:
 362:Core/Src/supercap.c ****   __HAL_TIM_SET_AUTORELOAD(&htim3, 5119);
 2186              		.loc 1 362 3 is_stmt 1 view .LVU550
 362:Core/Src/supercap.c ****   __HAL_TIM_SET_AUTORELOAD(&htim3, 5119);
 2187              		.loc 1 362 3 view .LVU551
 2188 013e 414B     		ldr	r3, .L178
ARM GAS  C:\Users\HYDROG~1\AppData\Local\Temp\cco8vh5F.s 			page 50


 2189 0140 1968     		ldr	r1, [r3]
 2190              	.LVL140:
 362:Core/Src/supercap.c ****   __HAL_TIM_SET_AUTORELOAD(&htim3, 5119);
 2191              		.loc 1 362 3 is_stmt 0 view .LVU552
 2192 0142 41F2FF32 		movw	r2, #5119
 2193 0146 CA62     		str	r2, [r1, #44]
 362:Core/Src/supercap.c ****   __HAL_TIM_SET_AUTORELOAD(&htim3, 5119);
 2194              		.loc 1 362 3 is_stmt 1 view .LVU553
 2195 0148 DA60     		str	r2, [r3, #12]
 362:Core/Src/supercap.c ****   __HAL_TIM_SET_AUTORELOAD(&htim3, 5119);
 2196              		.loc 1 362 3 view .LVU554
 363:Core/Src/supercap.c ****   TIM3_AUTORELOAD_over100 = 51;
 2197              		.loc 1 363 3 view .LVU555
 363:Core/Src/supercap.c ****   TIM3_AUTORELOAD_over100 = 51;
 2198              		.loc 1 363 27 is_stmt 0 view .LVU556
 2199 014a 3F4B     		ldr	r3, .L178+4
 2200 014c 3322     		movs	r2, #51
 2201 014e 1A60     		str	r2, [r3]
 2202 0150 A7E7     		b	.L136
 2203              	.LVL141:
 2204              	.L166:
 365:Core/Src/supercap.c ****   __HAL_TIM_SET_AUTORELOAD(&htim3, 4559);
 2205              		.loc 1 365 3 is_stmt 1 view .LVU557
 365:Core/Src/supercap.c ****   __HAL_TIM_SET_AUTORELOAD(&htim3, 4559);
 2206              		.loc 1 365 3 view .LVU558
 2207 0152 3C4B     		ldr	r3, .L178
 2208 0154 1968     		ldr	r1, [r3]
 2209              	.LVL142:
 365:Core/Src/supercap.c ****   __HAL_TIM_SET_AUTORELOAD(&htim3, 4559);
 2210              		.loc 1 365 3 is_stmt 0 view .LVU559
 2211 0156 41F2CF12 		movw	r2, #4559
 2212 015a CA62     		str	r2, [r1, #44]
 365:Core/Src/supercap.c ****   __HAL_TIM_SET_AUTORELOAD(&htim3, 4559);
 2213              		.loc 1 365 3 is_stmt 1 view .LVU560
 2214 015c DA60     		str	r2, [r3, #12]
 365:Core/Src/supercap.c ****   __HAL_TIM_SET_AUTORELOAD(&htim3, 4559);
 2215              		.loc 1 365 3 view .LVU561
 366:Core/Src/supercap.c ****   TIM3_AUTORELOAD_over100 = 46;
 2216              		.loc 1 366 3 view .LVU562
 366:Core/Src/supercap.c ****   TIM3_AUTORELOAD_over100 = 46;
 2217              		.loc 1 366 27 is_stmt 0 view .LVU563
 2218 015e 3A4B     		ldr	r3, .L178+4
 2219 0160 2E22     		movs	r2, #46
 2220 0162 1A60     		str	r2, [r3]
 2221 0164 9DE7     		b	.L136
 2222              	.LVL143:
 2223              	.L167:
 368:Core/Src/supercap.c ****   __HAL_TIM_SET_AUTORELOAD(&htim3, 4297);
 2224              		.loc 1 368 3 is_stmt 1 view .LVU564
 368:Core/Src/supercap.c ****   __HAL_TIM_SET_AUTORELOAD(&htim3, 4297);
 2225              		.loc 1 368 3 view .LVU565
 2226 0166 374B     		ldr	r3, .L178
 2227 0168 1968     		ldr	r1, [r3]
 2228              	.LVL144:
 368:Core/Src/supercap.c ****   __HAL_TIM_SET_AUTORELOAD(&htim3, 4297);
 2229              		.loc 1 368 3 is_stmt 0 view .LVU566
 2230 016a 41F2C902 		movw	r2, #4297
ARM GAS  C:\Users\HYDROG~1\AppData\Local\Temp\cco8vh5F.s 			page 51


 2231 016e CA62     		str	r2, [r1, #44]
 368:Core/Src/supercap.c ****   __HAL_TIM_SET_AUTORELOAD(&htim3, 4297);
 2232              		.loc 1 368 3 is_stmt 1 view .LVU567
 2233 0170 DA60     		str	r2, [r3, #12]
 368:Core/Src/supercap.c ****   __HAL_TIM_SET_AUTORELOAD(&htim3, 4297);
 2234              		.loc 1 368 3 view .LVU568
 369:Core/Src/supercap.c ****   TIM3_AUTORELOAD_over100 = 43;
 2235              		.loc 1 369 3 view .LVU569
 369:Core/Src/supercap.c ****   TIM3_AUTORELOAD_over100 = 43;
 2236              		.loc 1 369 27 is_stmt 0 view .LVU570
 2237 0172 354B     		ldr	r3, .L178+4
 2238 0174 2B22     		movs	r2, #43
 2239 0176 1A60     		str	r2, [r3]
 2240 0178 93E7     		b	.L136
 2241              	.LVL145:
 2242              	.L168:
 371:Core/Src/supercap.c ****   __HAL_TIM_SET_AUTORELOAD(&htim3, 3836);
 2243              		.loc 1 371 3 is_stmt 1 view .LVU571
 371:Core/Src/supercap.c ****   __HAL_TIM_SET_AUTORELOAD(&htim3, 3836);
 2244              		.loc 1 371 3 view .LVU572
 2245 017a 324B     		ldr	r3, .L178
 2246 017c 1968     		ldr	r1, [r3]
 2247              	.LVL146:
 371:Core/Src/supercap.c ****   __HAL_TIM_SET_AUTORELOAD(&htim3, 3836);
 2248              		.loc 1 371 3 is_stmt 0 view .LVU573
 2249 017e 40F6FC62 		movw	r2, #3836
 2250 0182 CA62     		str	r2, [r1, #44]
 371:Core/Src/supercap.c ****   __HAL_TIM_SET_AUTORELOAD(&htim3, 3836);
 2251              		.loc 1 371 3 is_stmt 1 view .LVU574
 2252 0184 DA60     		str	r2, [r3, #12]
 371:Core/Src/supercap.c ****   __HAL_TIM_SET_AUTORELOAD(&htim3, 3836);
 2253              		.loc 1 371 3 view .LVU575
 372:Core/Src/supercap.c ****   TIM3_AUTORELOAD_over100 = 38;
 2254              		.loc 1 372 3 view .LVU576
 372:Core/Src/supercap.c ****   TIM3_AUTORELOAD_over100 = 38;
 2255              		.loc 1 372 27 is_stmt 0 view .LVU577
 2256 0186 304B     		ldr	r3, .L178+4
 2257 0188 2622     		movs	r2, #38
 2258 018a 1A60     		str	r2, [r3]
 2259 018c 89E7     		b	.L136
 2260              	.LVL147:
 2261              	.L169:
 374:Core/Src/supercap.c ****   __HAL_TIM_SET_AUTORELOAD(&htim3, 3409);
 2262              		.loc 1 374 3 is_stmt 1 view .LVU578
 374:Core/Src/supercap.c ****   __HAL_TIM_SET_AUTORELOAD(&htim3, 3409);
 2263              		.loc 1 374 3 view .LVU579
 2264 018e 2D4B     		ldr	r3, .L178
 2265 0190 1968     		ldr	r1, [r3]
 2266              	.LVL148:
 374:Core/Src/supercap.c ****   __HAL_TIM_SET_AUTORELOAD(&htim3, 3409);
 2267              		.loc 1 374 3 is_stmt 0 view .LVU580
 2268 0192 40F65152 		movw	r2, #3409
 2269 0196 CA62     		str	r2, [r1, #44]
 374:Core/Src/supercap.c ****   __HAL_TIM_SET_AUTORELOAD(&htim3, 3409);
 2270              		.loc 1 374 3 is_stmt 1 view .LVU581
 2271 0198 DA60     		str	r2, [r3, #12]
 374:Core/Src/supercap.c ****   __HAL_TIM_SET_AUTORELOAD(&htim3, 3409);
ARM GAS  C:\Users\HYDROG~1\AppData\Local\Temp\cco8vh5F.s 			page 52


 2272              		.loc 1 374 3 view .LVU582
 375:Core/Src/supercap.c ****   TIM3_AUTORELOAD_over100 = 34;
 2273              		.loc 1 375 3 view .LVU583
 375:Core/Src/supercap.c ****   TIM3_AUTORELOAD_over100 = 34;
 2274              		.loc 1 375 27 is_stmt 0 view .LVU584
 2275 019a 2B4B     		ldr	r3, .L178+4
 2276 019c 2222     		movs	r2, #34
 2277 019e 1A60     		str	r2, [r3]
 2278 01a0 7FE7     		b	.L136
 2279              	.LVL149:
 2280              	.L170:
 377:Core/Src/supercap.c ****   __HAL_TIM_SET_AUTORELOAD(&htim3, 3042);
 2281              		.loc 1 377 3 is_stmt 1 view .LVU585
 377:Core/Src/supercap.c ****   __HAL_TIM_SET_AUTORELOAD(&htim3, 3042);
 2282              		.loc 1 377 3 view .LVU586
 2283 01a2 284B     		ldr	r3, .L178
 2284 01a4 1968     		ldr	r1, [r3]
 2285              	.LVL150:
 377:Core/Src/supercap.c ****   __HAL_TIM_SET_AUTORELOAD(&htim3, 3042);
 2286              		.loc 1 377 3 is_stmt 0 view .LVU587
 2287 01a6 40F6E232 		movw	r2, #3042
 2288 01aa CA62     		str	r2, [r1, #44]
 377:Core/Src/supercap.c ****   __HAL_TIM_SET_AUTORELOAD(&htim3, 3042);
 2289              		.loc 1 377 3 is_stmt 1 view .LVU588
 2290 01ac DA60     		str	r2, [r3, #12]
 377:Core/Src/supercap.c ****   __HAL_TIM_SET_AUTORELOAD(&htim3, 3042);
 2291              		.loc 1 377 3 view .LVU589
 378:Core/Src/supercap.c ****   TIM3_AUTORELOAD_over100 = 30;
 2292              		.loc 1 378 3 view .LVU590
 378:Core/Src/supercap.c ****   TIM3_AUTORELOAD_over100 = 30;
 2293              		.loc 1 378 27 is_stmt 0 view .LVU591
 2294 01ae 264B     		ldr	r3, .L178+4
 2295 01b0 1E22     		movs	r2, #30
 2296 01b2 1A60     		str	r2, [r3]
 2297 01b4 75E7     		b	.L136
 2298              	.LVL151:
 2299              	.L171:
 380:Core/Src/supercap.c ****   __HAL_TIM_SET_AUTORELOAD(&htim3, 2868);
 2300              		.loc 1 380 3 is_stmt 1 view .LVU592
 380:Core/Src/supercap.c ****   __HAL_TIM_SET_AUTORELOAD(&htim3, 2868);
 2301              		.loc 1 380 3 view .LVU593
 2302 01b6 234B     		ldr	r3, .L178
 2303 01b8 1968     		ldr	r1, [r3]
 2304              	.LVL152:
 380:Core/Src/supercap.c ****   __HAL_TIM_SET_AUTORELOAD(&htim3, 2868);
 2305              		.loc 1 380 3 is_stmt 0 view .LVU594
 2306 01ba 40F63432 		movw	r2, #2868
 2307 01be CA62     		str	r2, [r1, #44]
 380:Core/Src/supercap.c ****   __HAL_TIM_SET_AUTORELOAD(&htim3, 2868);
 2308              		.loc 1 380 3 is_stmt 1 view .LVU595
 2309 01c0 DA60     		str	r2, [r3, #12]
 380:Core/Src/supercap.c ****   __HAL_TIM_SET_AUTORELOAD(&htim3, 2868);
 2310              		.loc 1 380 3 view .LVU596
 381:Core/Src/supercap.c ****   TIM3_AUTORELOAD_over100 = 29;
 2311              		.loc 1 381 3 view .LVU597
 381:Core/Src/supercap.c ****   TIM3_AUTORELOAD_over100 = 29;
 2312              		.loc 1 381 27 is_stmt 0 view .LVU598
ARM GAS  C:\Users\HYDROG~1\AppData\Local\Temp\cco8vh5F.s 			page 53


 2313 01c2 214B     		ldr	r3, .L178+4
 2314 01c4 1D22     		movs	r2, #29
 2315 01c6 1A60     		str	r2, [r3]
 2316 01c8 6BE7     		b	.L136
 2317              	.LVL153:
 2318              	.L172:
 383:Core/Src/supercap.c ****   __HAL_TIM_SET_AUTORELOAD(&htim3, 2555);
 2319              		.loc 1 383 3 is_stmt 1 view .LVU599
 383:Core/Src/supercap.c ****   __HAL_TIM_SET_AUTORELOAD(&htim3, 2555);
 2320              		.loc 1 383 3 view .LVU600
 2321 01ca 1E4B     		ldr	r3, .L178
 2322 01cc 1968     		ldr	r1, [r3]
 2323              	.LVL154:
 383:Core/Src/supercap.c ****   __HAL_TIM_SET_AUTORELOAD(&htim3, 2555);
 2324              		.loc 1 383 3 is_stmt 0 view .LVU601
 2325 01ce 40F6FB12 		movw	r2, #2555
 2326 01d2 CA62     		str	r2, [r1, #44]
 383:Core/Src/supercap.c ****   __HAL_TIM_SET_AUTORELOAD(&htim3, 2555);
 2327              		.loc 1 383 3 is_stmt 1 view .LVU602
 2328 01d4 DA60     		str	r2, [r3, #12]
 383:Core/Src/supercap.c ****   __HAL_TIM_SET_AUTORELOAD(&htim3, 2555);
 2329              		.loc 1 383 3 view .LVU603
 384:Core/Src/supercap.c ****   TIM3_AUTORELOAD_over100 = 26;
 2330              		.loc 1 384 3 view .LVU604
 384:Core/Src/supercap.c ****   TIM3_AUTORELOAD_over100 = 26;
 2331              		.loc 1 384 27 is_stmt 0 view .LVU605
 2332 01d6 1C4B     		ldr	r3, .L178+4
 2333 01d8 1A22     		movs	r2, #26
 2334 01da 1A60     		str	r2, [r3]
 2335 01dc 61E7     		b	.L136
 2336              	.LVL155:
 2337              	.L173:
 386:Core/Src/supercap.c ****   __HAL_TIM_SET_AUTORELOAD(&htim3, 2276);
 2338              		.loc 1 386 3 is_stmt 1 view .LVU606
 386:Core/Src/supercap.c ****   __HAL_TIM_SET_AUTORELOAD(&htim3, 2276);
 2339              		.loc 1 386 3 view .LVU607
 2340 01de 194B     		ldr	r3, .L178
 2341 01e0 1968     		ldr	r1, [r3]
 2342              	.LVL156:
 386:Core/Src/supercap.c ****   __HAL_TIM_SET_AUTORELOAD(&htim3, 2276);
 2343              		.loc 1 386 3 is_stmt 0 view .LVU608
 2344 01e2 40F6E402 		movw	r2, #2276
 2345 01e6 CA62     		str	r2, [r1, #44]
 386:Core/Src/supercap.c ****   __HAL_TIM_SET_AUTORELOAD(&htim3, 2276);
 2346              		.loc 1 386 3 is_stmt 1 view .LVU609
 2347 01e8 DA60     		str	r2, [r3, #12]
 386:Core/Src/supercap.c ****   __HAL_TIM_SET_AUTORELOAD(&htim3, 2276);
 2348              		.loc 1 386 3 view .LVU610
 387:Core/Src/supercap.c ****   TIM3_AUTORELOAD_over100 = 23;
 2349              		.loc 1 387 3 view .LVU611
 387:Core/Src/supercap.c ****   TIM3_AUTORELOAD_over100 = 23;
 2350              		.loc 1 387 27 is_stmt 0 view .LVU612
 2351 01ea 174B     		ldr	r3, .L178+4
 2352 01ec 1722     		movs	r2, #23
 2353 01ee 1A60     		str	r2, [r3]
 2354 01f0 57E7     		b	.L136
 2355              	.LVL157:
ARM GAS  C:\Users\HYDROG~1\AppData\Local\Temp\cco8vh5F.s 			page 54


 2356              	.L174:
 389:Core/Src/supercap.c ****   __HAL_TIM_SET_AUTORELOAD(&htim3, 2148);
 2357              		.loc 1 389 3 is_stmt 1 view .LVU613
 389:Core/Src/supercap.c ****   __HAL_TIM_SET_AUTORELOAD(&htim3, 2148);
 2358              		.loc 1 389 3 view .LVU614
 2359 01f2 144B     		ldr	r3, .L178
 2360 01f4 1968     		ldr	r1, [r3]
 2361              	.LVL158:
 389:Core/Src/supercap.c ****   __HAL_TIM_SET_AUTORELOAD(&htim3, 2148);
 2362              		.loc 1 389 3 is_stmt 0 view .LVU615
 2363 01f6 40F66402 		movw	r2, #2148
 2364 01fa CA62     		str	r2, [r1, #44]
 389:Core/Src/supercap.c ****   __HAL_TIM_SET_AUTORELOAD(&htim3, 2148);
 2365              		.loc 1 389 3 is_stmt 1 view .LVU616
 2366 01fc DA60     		str	r2, [r3, #12]
 389:Core/Src/supercap.c ****   __HAL_TIM_SET_AUTORELOAD(&htim3, 2148);
 2367              		.loc 1 389 3 view .LVU617
 390:Core/Src/supercap.c ****   TIM3_AUTORELOAD_over100 = 21;
 2368              		.loc 1 390 3 view .LVU618
 390:Core/Src/supercap.c ****   TIM3_AUTORELOAD_over100 = 21;
 2369              		.loc 1 390 27 is_stmt 0 view .LVU619
 2370 01fe 124B     		ldr	r3, .L178+4
 2371 0200 1522     		movs	r2, #21
 2372 0202 1A60     		str	r2, [r3]
 2373 0204 4DE7     		b	.L136
 2374              	.LVL159:
 2375              	.L175:
 392:Core/Src/supercap.c ****   __HAL_TIM_SET_AUTORELOAD(&htim3, 1915);
 2376              		.loc 1 392 3 is_stmt 1 view .LVU620
 392:Core/Src/supercap.c ****   __HAL_TIM_SET_AUTORELOAD(&htim3, 1915);
 2377              		.loc 1 392 3 view .LVU621
 2378 0206 0F4B     		ldr	r3, .L178
 2379 0208 1968     		ldr	r1, [r3]
 2380              	.LVL160:
 392:Core/Src/supercap.c ****   __HAL_TIM_SET_AUTORELOAD(&htim3, 1915);
 2381              		.loc 1 392 3 is_stmt 0 view .LVU622
 2382 020a 40F27B72 		movw	r2, #1915
 2383 020e CA62     		str	r2, [r1, #44]
 392:Core/Src/supercap.c ****   __HAL_TIM_SET_AUTORELOAD(&htim3, 1915);
 2384              		.loc 1 392 3 is_stmt 1 view .LVU623
 2385 0210 DA60     		str	r2, [r3, #12]
 392:Core/Src/supercap.c ****   __HAL_TIM_SET_AUTORELOAD(&htim3, 1915);
 2386              		.loc 1 392 3 view .LVU624
 393:Core/Src/supercap.c ****   TIM3_AUTORELOAD_over100 = 19;
 2387              		.loc 1 393 3 view .LVU625
 393:Core/Src/supercap.c ****   TIM3_AUTORELOAD_over100 = 19;
 2388              		.loc 1 393 27 is_stmt 0 view .LVU626
 2389 0212 0D4B     		ldr	r3, .L178+4
 2390 0214 1322     		movs	r2, #19
 2391 0216 1A60     		str	r2, [r3]
 2392 0218 43E7     		b	.L136
 2393              	.LVL161:
 2394              	.L176:
 395:Core/Src/supercap.c ****   __HAL_TIM_SET_AUTORELOAD(&htim3, 1704);
 2395              		.loc 1 395 3 is_stmt 1 view .LVU627
 395:Core/Src/supercap.c ****   __HAL_TIM_SET_AUTORELOAD(&htim3, 1704);
 2396              		.loc 1 395 3 view .LVU628
ARM GAS  C:\Users\HYDROG~1\AppData\Local\Temp\cco8vh5F.s 			page 55


 2397 021a 0A4B     		ldr	r3, .L178
 2398 021c 1968     		ldr	r1, [r3]
 2399              	.LVL162:
 395:Core/Src/supercap.c ****   __HAL_TIM_SET_AUTORELOAD(&htim3, 1704);
 2400              		.loc 1 395 3 is_stmt 0 view .LVU629
 2401 021e 4FF4D562 		mov	r2, #1704
 2402 0222 CA62     		str	r2, [r1, #44]
 395:Core/Src/supercap.c ****   __HAL_TIM_SET_AUTORELOAD(&htim3, 1704);
 2403              		.loc 1 395 3 is_stmt 1 view .LVU630
 2404 0224 DA60     		str	r2, [r3, #12]
 395:Core/Src/supercap.c ****   __HAL_TIM_SET_AUTORELOAD(&htim3, 1704);
 2405              		.loc 1 395 3 view .LVU631
 396:Core/Src/supercap.c ****   TIM3_AUTORELOAD_over100 = 17;
 2406              		.loc 1 396 3 view .LVU632
 396:Core/Src/supercap.c ****   TIM3_AUTORELOAD_over100 = 17;
 2407              		.loc 1 396 27 is_stmt 0 view .LVU633
 2408 0226 084B     		ldr	r3, .L178+4
 2409 0228 1122     		movs	r2, #17
 2410 022a 1A60     		str	r2, [r3]
 2411 022c 39E7     		b	.L136
 2412              	.LVL163:
 2413              	.L177:
 398:Core/Src/supercap.c ****   __HAL_TIM_SET_AUTORELOAD(&htim3, 1518);
 2414              		.loc 1 398 3 is_stmt 1 view .LVU634
 398:Core/Src/supercap.c ****   __HAL_TIM_SET_AUTORELOAD(&htim3, 1518);
 2415              		.loc 1 398 3 view .LVU635
 2416 022e 054B     		ldr	r3, .L178
 2417 0230 1968     		ldr	r1, [r3]
 2418              	.LVL164:
 398:Core/Src/supercap.c ****   __HAL_TIM_SET_AUTORELOAD(&htim3, 1518);
 2419              		.loc 1 398 3 is_stmt 0 view .LVU636
 2420 0232 40F2EE52 		movw	r2, #1518
 2421 0236 CA62     		str	r2, [r1, #44]
 398:Core/Src/supercap.c ****   __HAL_TIM_SET_AUTORELOAD(&htim3, 1518);
 2422              		.loc 1 398 3 is_stmt 1 view .LVU637
 2423 0238 DA60     		str	r2, [r3, #12]
 398:Core/Src/supercap.c ****   __HAL_TIM_SET_AUTORELOAD(&htim3, 1518);
 2424              		.loc 1 398 3 view .LVU638
 399:Core/Src/supercap.c ****   TIM3_AUTORELOAD_over100 = 15;
 2425              		.loc 1 399 3 view .LVU639
 399:Core/Src/supercap.c ****   TIM3_AUTORELOAD_over100 = 15;
 2426              		.loc 1 399 27 is_stmt 0 view .LVU640
 2427 023a 034B     		ldr	r3, .L178+4
 2428 023c 0F22     		movs	r2, #15
 2429 023e 1A60     		str	r2, [r3]
 2430 0240 2FE7     		b	.L136
 2431              	.L179:
 2432 0242 00BF     		.align	2
 2433              	.L178:
 2434 0244 00000000 		.word	htim3
 2435 0248 00000000 		.word	TIM3_AUTORELOAD_over100
 2436              		.cfi_endproc
 2437              	.LFE360:
 2439              		.global	temp_current
 2440              		.global	fault_counter
 2441              		.global	protection_counter
 2442              		.global	PID_flag
ARM GAS  C:\Users\HYDROG~1\AppData\Local\Temp\cco8vh5F.s 			page 56


 2443              		.section	.bss.PID_flag,"aw",%nobits
 2444              		.set	.LANCHOR1,. + 0
 2447              	PID_flag:
 2448 0000 00       		.space	1
 2449              		.section	.bss.fault_counter,"aw",%nobits
 2450              		.align	1
 2451              		.set	.LANCHOR2,. + 0
 2454              	fault_counter:
 2455 0000 0000     		.space	2
 2456              		.section	.bss.protection_counter,"aw",%nobits
 2457              		.align	1
 2458              		.set	.LANCHOR3,. + 0
 2461              	protection_counter:
 2462 0000 0000     		.space	2
 2463              		.section	.bss.temp_current,"aw",%nobits
 2464              		.align	1
 2465              		.set	.LANCHOR0,. + 0
 2468              	temp_current:
 2469 0000 0000     		.space	2
 2470              		.text
 2471              	.Letext0:
 2472              		.file 2 "c:\\program files (x86)\\gnu arm embedded toolchain\\10 2021.10\\arm-none-eabi\\include\\
 2473              		.file 3 "c:\\program files (x86)\\gnu arm embedded toolchain\\10 2021.10\\arm-none-eabi\\include\\
 2474              		.file 4 "Drivers/CMSIS/Device/ST/STM32G4xx/Include/stm32g473xx.h"
 2475              		.file 5 "Drivers/CMSIS/Device/ST/STM32G4xx/Include/stm32g4xx.h"
 2476              		.file 6 "Drivers/STM32G4xx_HAL_Driver/Inc/stm32g4xx_hal_def.h"
 2477              		.file 7 "Drivers/STM32G4xx_HAL_Driver/Inc/stm32g4xx_hal_gpio.h"
 2478              		.file 8 "Drivers/STM32G4xx_HAL_Driver/Inc/stm32g4xx_hal_dma.h"
 2479              		.file 9 "Drivers/STM32G4xx_HAL_Driver/Inc/stm32g4xx_hal_fdcan.h"
 2480              		.file 10 "Drivers/STM32G4xx_HAL_Driver/Inc/stm32g4xx_hal_tim.h"
 2481              		.file 11 "Core/Inc/fdcan.h"
 2482              		.file 12 "Core/Inc/tim.h"
 2483              		.file 13 "Core/Inc/supercap.h"
 2484              		.file 14 "Drivers/STM32G4xx_HAL_Driver/Inc/stm32g4xx_hal_tim_ex.h"
ARM GAS  C:\Users\HYDROG~1\AppData\Local\Temp\cco8vh5F.s 			page 57


DEFINED SYMBOLS
                            *ABS*:00000000 supercap.c
C:\Users\HYDROG~1\AppData\Local\Temp\cco8vh5F.s:20     .text.TIM6_NVIC:00000000 $t
C:\Users\HYDROG~1\AppData\Local\Temp\cco8vh5F.s:26     .text.TIM6_NVIC:00000000 TIM6_NVIC
C:\Users\HYDROG~1\AppData\Local\Temp\cco8vh5F.s:82     .text.TIM6_NVIC:00000050 $d
C:\Users\HYDROG~1\AppData\Local\Temp\cco8vh5F.s:93     .text.Update_Current:00000000 $t
C:\Users\HYDROG~1\AppData\Local\Temp\cco8vh5F.s:99     .text.Update_Current:00000000 Update_Current
C:\Users\HYDROG~1\AppData\Local\Temp\cco8vh5F.s:159    .text.Update_Current:00000064 $d
C:\Users\HYDROG~1\AppData\Local\Temp\cco8vh5F.s:170    .text.Supercap_PID_Controller_Function:00000000 $t
C:\Users\HYDROG~1\AppData\Local\Temp\cco8vh5F.s:176    .text.Supercap_PID_Controller_Function:00000000 Supercap_PID_Controller_Function
C:\Users\HYDROG~1\AppData\Local\Temp\cco8vh5F.s:296    .text.Supercap_Compare:00000000 $t
C:\Users\HYDROG~1\AppData\Local\Temp\cco8vh5F.s:302    .text.Supercap_Compare:00000000 Supercap_Compare
C:\Users\HYDROG~1\AppData\Local\Temp\cco8vh5F.s:370    .text.Supercap_Limit:00000000 $t
C:\Users\HYDROG~1\AppData\Local\Temp\cco8vh5F.s:376    .text.Supercap_Limit:00000000 Supercap_Limit
C:\Users\HYDROG~1\AppData\Local\Temp\cco8vh5F.s:409    .text.Supercap_Average_ADC_Function:00000000 $t
C:\Users\HYDROG~1\AppData\Local\Temp\cco8vh5F.s:415    .text.Supercap_Average_ADC_Function:00000000 Supercap_Average_ADC_Function
C:\Users\HYDROG~1\AppData\Local\Temp\cco8vh5F.s:473    .text.Supercap_First_Order_Filter_ADC_Function:00000000 $t
C:\Users\HYDROG~1\AppData\Local\Temp\cco8vh5F.s:479    .text.Supercap_First_Order_Filter_ADC_Function:00000000 Supercap_First_Order_Filter_ADC_Function
C:\Users\HYDROG~1\AppData\Local\Temp\cco8vh5F.s:507    .text.Supercap_First_Order_Filter_ADC_Function_Alpha:00000000 $t
C:\Users\HYDROG~1\AppData\Local\Temp\cco8vh5F.s:513    .text.Supercap_First_Order_Filter_ADC_Function_Alpha:00000000 Supercap_First_Order_Filter_ADC_Function_Alpha
C:\Users\HYDROG~1\AppData\Local\Temp\cco8vh5F.s:545    .text.TIM2_NVIC:00000000 $t
C:\Users\HYDROG~1\AppData\Local\Temp\cco8vh5F.s:551    .text.TIM2_NVIC:00000000 TIM2_NVIC
C:\Users\HYDROG~1\AppData\Local\Temp\cco8vh5F.s:592    .text.TIM2_NVIC:0000002c $d
C:\Users\HYDROG~1\AppData\Local\Temp\cco8vh5F.s:601    .text.Supercap_Function_Init:00000000 $t
C:\Users\HYDROG~1\AppData\Local\Temp\cco8vh5F.s:607    .text.Supercap_Function_Init:00000000 Supercap_Function_Init
C:\Users\HYDROG~1\AppData\Local\Temp\cco8vh5F.s:628    .text.Supercap_ADC_to_Voltage_Funtion:00000000 $t
C:\Users\HYDROG~1\AppData\Local\Temp\cco8vh5F.s:634    .text.Supercap_ADC_to_Voltage_Funtion:00000000 Supercap_ADC_to_Voltage_Funtion
C:\Users\HYDROG~1\AppData\Local\Temp\cco8vh5F.s:664    .text.Supercap_ADC_to_Voltage_Funtion:00000024 $d
C:\Users\HYDROG~1\AppData\Local\Temp\cco8vh5F.s:670    .text.Supercap_ADC_to_Voltage_Funtion_Ref:00000000 $t
C:\Users\HYDROG~1\AppData\Local\Temp\cco8vh5F.s:676    .text.Supercap_ADC_to_Voltage_Funtion_Ref:00000000 Supercap_ADC_to_Voltage_Funtion_Ref
C:\Users\HYDROG~1\AppData\Local\Temp\cco8vh5F.s:703    .text.Supercap_ADC_to_Voltage_Funtion_Ref:0000001c $d
C:\Users\HYDROG~1\AppData\Local\Temp\cco8vh5F.s:709    .text.Supercap_ADC_to_Current_Funtion:00000000 $t
C:\Users\HYDROG~1\AppData\Local\Temp\cco8vh5F.s:715    .text.Supercap_ADC_to_Current_Funtion:00000000 Supercap_ADC_to_Current_Funtion
C:\Users\HYDROG~1\AppData\Local\Temp\cco8vh5F.s:741    .text.Supercap_ADC_to_Current_Funtion:00000014 $d
C:\Users\HYDROG~1\AppData\Local\Temp\cco8vh5F.s:746    .text.Supercap_PID_Init:00000000 $t
C:\Users\HYDROG~1\AppData\Local\Temp\cco8vh5F.s:752    .text.Supercap_PID_Init:00000000 Supercap_PID_Init
C:\Users\HYDROG~1\AppData\Local\Temp\cco8vh5F.s:784    .text.Supercap_PID_Reset:00000000 $t
C:\Users\HYDROG~1\AppData\Local\Temp\cco8vh5F.s:790    .text.Supercap_PID_Reset:00000000 Supercap_PID_Reset
C:\Users\HYDROG~1\AppData\Local\Temp\cco8vh5F.s:808    .text.Supercap_PWM_left:00000000 $t
C:\Users\HYDROG~1\AppData\Local\Temp\cco8vh5F.s:814    .text.Supercap_PWM_left:00000000 Supercap_PWM_left
C:\Users\HYDROG~1\AppData\Local\Temp\cco8vh5F.s:834    .text.Supercap_PWM_left:0000000c $d
C:\Users\HYDROG~1\AppData\Local\Temp\cco8vh5F.s:839    .text.TIM5_NVIC:00000000 $t
C:\Users\HYDROG~1\AppData\Local\Temp\cco8vh5F.s:845    .text.TIM5_NVIC:00000000 TIM5_NVIC
C:\Users\HYDROG~1\AppData\Local\Temp\cco8vh5F.s:958    .text.TIM5_NVIC:000000c0 $d
C:\Users\HYDROG~1\AppData\Local\Temp\cco8vh5F.s:972    .text.Supercap_PWM_right:00000000 $t
C:\Users\HYDROG~1\AppData\Local\Temp\cco8vh5F.s:978    .text.Supercap_PWM_right:00000000 Supercap_PWM_right
C:\Users\HYDROG~1\AppData\Local\Temp\cco8vh5F.s:998    .text.Supercap_PWM_right:00000010 $d
C:\Users\HYDROG~1\AppData\Local\Temp\cco8vh5F.s:1003   .text.Supercap_PWM_GND:00000000 $t
C:\Users\HYDROG~1\AppData\Local\Temp\cco8vh5F.s:1009   .text.Supercap_PWM_GND:00000000 Supercap_PWM_GND
C:\Users\HYDROG~1\AppData\Local\Temp\cco8vh5F.s:1029   .text.Supercap_PWM_GND:00000010 $d
C:\Users\HYDROG~1\AppData\Local\Temp\cco8vh5F.s:1034   .text.Supercap_DCDC_Start:00000000 $t
C:\Users\HYDROG~1\AppData\Local\Temp\cco8vh5F.s:1040   .text.Supercap_DCDC_Start:00000000 Supercap_DCDC_Start
C:\Users\HYDROG~1\AppData\Local\Temp\cco8vh5F.s:1077   .text.Supercap_DCDC_Start:00000028 $d
C:\Users\HYDROG~1\AppData\Local\Temp\cco8vh5F.s:1082   .text.Supercap_DCDC_Stop:00000000 $t
C:\Users\HYDROG~1\AppData\Local\Temp\cco8vh5F.s:1088   .text.Supercap_DCDC_Stop:00000000 Supercap_DCDC_Stop
C:\Users\HYDROG~1\AppData\Local\Temp\cco8vh5F.s:1125   .text.Supercap_DCDC_Stop:00000028 $d
C:\Users\HYDROG~1\AppData\Local\Temp\cco8vh5F.s:1130   .text.Supercap_AUX_Init:00000000 $t
ARM GAS  C:\Users\HYDROG~1\AppData\Local\Temp\cco8vh5F.s 			page 58


C:\Users\HYDROG~1\AppData\Local\Temp\cco8vh5F.s:1136   .text.Supercap_AUX_Init:00000000 Supercap_AUX_Init
C:\Users\HYDROG~1\AppData\Local\Temp\cco8vh5F.s:1190   .text.Supercap_AUX_Init:00000040 $d
C:\Users\HYDROG~1\AppData\Local\Temp\cco8vh5F.s:1197   .text.Supercap_AUX_RedLED:00000000 $t
C:\Users\HYDROG~1\AppData\Local\Temp\cco8vh5F.s:1203   .text.Supercap_AUX_RedLED:00000000 Supercap_AUX_RedLED
C:\Users\HYDROG~1\AppData\Local\Temp\cco8vh5F.s:1225   .text.Supercap_AUX_RedLED:00000010 $d
C:\Users\HYDROG~1\AppData\Local\Temp\cco8vh5F.s:1231   .text.Supercap_AUX_YellowLED:00000000 $t
C:\Users\HYDROG~1\AppData\Local\Temp\cco8vh5F.s:1237   .text.Supercap_AUX_YellowLED:00000000 Supercap_AUX_YellowLED
C:\Users\HYDROG~1\AppData\Local\Temp\cco8vh5F.s:1259   .text.Supercap_AUX_YellowLED:00000010 $d
C:\Users\HYDROG~1\AppData\Local\Temp\cco8vh5F.s:1265   .text.Supercap_AUX_BlueLED:00000000 $t
C:\Users\HYDROG~1\AppData\Local\Temp\cco8vh5F.s:1271   .text.Supercap_AUX_BlueLED:00000000 Supercap_AUX_BlueLED
C:\Users\HYDROG~1\AppData\Local\Temp\cco8vh5F.s:1292   .text.Supercap_AUX_BlueLED:00000010 $d
C:\Users\HYDROG~1\AppData\Local\Temp\cco8vh5F.s:1297   .text.Supercap_AUX_MachineSpirit:00000000 $t
C:\Users\HYDROG~1\AppData\Local\Temp\cco8vh5F.s:1303   .text.Supercap_AUX_MachineSpirit:00000000 Supercap_AUX_MachineSpirit
C:\Users\HYDROG~1\AppData\Local\Temp\cco8vh5F.s:1324   .text.Supercap_AUX_MachineSpirit:00000010 $d
C:\Users\HYDROG~1\AppData\Local\Temp\cco8vh5F.s:1329   .text.Supercap_FSM:00000000 $t
C:\Users\HYDROG~1\AppData\Local\Temp\cco8vh5F.s:1335   .text.Supercap_FSM:00000000 Supercap_FSM
C:\Users\HYDROG~1\AppData\Local\Temp\cco8vh5F.s:1527   .text.Supercap_FSM:0000010a $d
C:\Users\HYDROG~1\AppData\Local\Temp\cco8vh5F.s:1558   .text.Supercap_FSM:0000012e $d
C:\Users\HYDROG~1\AppData\Local\Temp\cco8vh5F.s:1781   .text.Supercap_FSM:00000258 $d
C:\Users\HYDROG~1\AppData\Local\Temp\cco8vh5F.s:1799   .text.HAL_TIM_PeriodElapsedCallback:00000000 $t
C:\Users\HYDROG~1\AppData\Local\Temp\cco8vh5F.s:1805   .text.HAL_TIM_PeriodElapsedCallback:00000000 HAL_TIM_PeriodElapsedCallback
C:\Users\HYDROG~1\AppData\Local\Temp\cco8vh5F.s:1898   .text.HAL_TIM_PeriodElapsedCallback:0000006c $d
C:\Users\HYDROG~1\AppData\Local\Temp\cco8vh5F.s:1906   .text.Supercap_AUX_Buzzer:00000000 $t
C:\Users\HYDROG~1\AppData\Local\Temp\cco8vh5F.s:1912   .text.Supercap_AUX_Buzzer:00000000 Supercap_AUX_Buzzer
C:\Users\HYDROG~1\AppData\Local\Temp\cco8vh5F.s:2434   .text.Supercap_AUX_Buzzer:00000244 $d
C:\Users\HYDROG~1\AppData\Local\Temp\cco8vh5F.s:2468   .bss.temp_current:00000000 temp_current
C:\Users\HYDROG~1\AppData\Local\Temp\cco8vh5F.s:2454   .bss.fault_counter:00000000 fault_counter
C:\Users\HYDROG~1\AppData\Local\Temp\cco8vh5F.s:2461   .bss.protection_counter:00000000 protection_counter
C:\Users\HYDROG~1\AppData\Local\Temp\cco8vh5F.s:2447   .bss.PID_flag:00000000 PID_flag
C:\Users\HYDROG~1\AppData\Local\Temp\cco8vh5F.s:2448   .bss.PID_flag:00000000 $d
C:\Users\HYDROG~1\AppData\Local\Temp\cco8vh5F.s:2450   .bss.fault_counter:00000000 $d
C:\Users\HYDROG~1\AppData\Local\Temp\cco8vh5F.s:2457   .bss.protection_counter:00000000 $d
C:\Users\HYDROG~1\AppData\Local\Temp\cco8vh5F.s:2464   .bss.temp_current:00000000 $d
C:\Users\HYDROG~1\AppData\Local\Temp\cco8vh5F.s:1532   .text.Supercap_FSM:0000010f $d
C:\Users\HYDROG~1\AppData\Local\Temp\cco8vh5F.s:1532   .text.Supercap_FSM:00000110 $t
C:\Users\HYDROG~1\AppData\Local\Temp\cco8vh5F.s:1563   .text.Supercap_FSM:00000133 $d
C:\Users\HYDROG~1\AppData\Local\Temp\cco8vh5F.s:1563   .text.Supercap_FSM:00000134 $t

UNDEFINED SYMBOLS
HAL_FDCAN_AddMessageToTxFifoQ
V_cap
TxData
temp2
TxHeader
hfdcan1
supercap_max_power_current
C_sys
C_right
ADC4_12
V_bat
htim1
PID_45W_loop
PID_n7A_loop
PID_7A_loop
supercap_target_voltage
HAL_TIM_PWM_Start
HAL_TIMEx_PWMN_Start
ARM GAS  C:\Users\HYDROG~1\AppData\Local\Temp\cco8vh5F.s 			page 59


HAL_TIM_PWM_Stop
HAL_TIMEx_PWMN_Stop
htim3
TIM3_AUTORELOAD_over100
htim4
CAP_STATE
PID_voltage_loop
HAL_GPIO_WritePin
HAL_GPIO_TogglePin
