ARM GAS  C:\Users\purdu\AppData\Local\Temp\cc3JAzG9.s 			page 1


   1              		.cpu cortex-m4
   2              		.arch armv7e-m
   3              		.fpu fpv4-sp-d16
   4              		.eabi_attribute 27, 1
   5              		.eabi_attribute 28, 1
   6              		.eabi_attribute 20, 1
   7              		.eabi_attribute 21, 1
   8              		.eabi_attribute 23, 3
   9              		.eabi_attribute 24, 1
  10              		.eabi_attribute 25, 1
  11              		.eabi_attribute 26, 1
  12              		.eabi_attribute 30, 1
  13              		.eabi_attribute 34, 1
  14              		.eabi_attribute 18, 4
  15              		.file	"adc.c"
  16              		.text
  17              	.Ltext0:
  18              		.cfi_sections	.debug_frame
  19              		.file 1 "Core/Src/adc.c"
  20              		.section	.text.MX_ADC1_Init,"ax",%progbits
  21              		.align	1
  22              		.global	MX_ADC1_Init
  23              		.syntax unified
  24              		.thumb
  25              		.thumb_func
  27              	MX_ADC1_Init:
  28              	.LFB329:
   1:Core/Src/adc.c **** /* USER CODE BEGIN Header */
   2:Core/Src/adc.c **** /**
   3:Core/Src/adc.c ****   ******************************************************************************
   4:Core/Src/adc.c ****   * @file    adc.c
   5:Core/Src/adc.c ****   * @brief   This file provides code for the configuration
   6:Core/Src/adc.c ****   *          of the ADC instances.
   7:Core/Src/adc.c ****   ******************************************************************************
   8:Core/Src/adc.c ****   * @attention
   9:Core/Src/adc.c ****   *
  10:Core/Src/adc.c ****   * Copyright (c) 2024 STMicroelectronics.
  11:Core/Src/adc.c ****   * All rights reserved.
  12:Core/Src/adc.c ****   *
  13:Core/Src/adc.c ****   * This software is licensed under terms that can be found in the LICENSE file
  14:Core/Src/adc.c ****   * in the root directory of this software component.
  15:Core/Src/adc.c ****   * If no LICENSE file comes with this software, it is provided AS-IS.
  16:Core/Src/adc.c ****   *
  17:Core/Src/adc.c ****   ******************************************************************************
  18:Core/Src/adc.c ****   */
  19:Core/Src/adc.c **** /* USER CODE END Header */
  20:Core/Src/adc.c **** /* Includes ------------------------------------------------------------------*/
  21:Core/Src/adc.c **** #include "adc.h"
  22:Core/Src/adc.c **** 
  23:Core/Src/adc.c **** /* USER CODE BEGIN 0 */
  24:Core/Src/adc.c **** 
  25:Core/Src/adc.c **** /* USER CODE END 0 */
  26:Core/Src/adc.c **** 
  27:Core/Src/adc.c **** ADC_HandleTypeDef hadc1;
  28:Core/Src/adc.c **** ADC_HandleTypeDef hadc2;
  29:Core/Src/adc.c **** ADC_HandleTypeDef hadc3;
  30:Core/Src/adc.c **** ADC_HandleTypeDef hadc4;
ARM GAS  C:\Users\purdu\AppData\Local\Temp\cc3JAzG9.s 			page 2


  31:Core/Src/adc.c **** ADC_HandleTypeDef hadc5;
  32:Core/Src/adc.c **** DMA_HandleTypeDef hdma_adc1;
  33:Core/Src/adc.c **** DMA_HandleTypeDef hdma_adc2;
  34:Core/Src/adc.c **** DMA_HandleTypeDef hdma_adc3;
  35:Core/Src/adc.c **** DMA_HandleTypeDef hdma_adc4;
  36:Core/Src/adc.c **** 
  37:Core/Src/adc.c **** /* ADC1 init function */
  38:Core/Src/adc.c **** void MX_ADC1_Init(void)
  39:Core/Src/adc.c **** {
  29              		.loc 1 39 1 view -0
  30              		.cfi_startproc
  31              		@ args = 0, pretend = 0, frame = 48
  32              		@ frame_needed = 0, uses_anonymous_args = 0
  33 0000 10B5     		push	{r4, lr}
  34              	.LCFI0:
  35              		.cfi_def_cfa_offset 8
  36              		.cfi_offset 4, -8
  37              		.cfi_offset 14, -4
  38 0002 8CB0     		sub	sp, sp, #48
  39              	.LCFI1:
  40              		.cfi_def_cfa_offset 56
  40:Core/Src/adc.c **** 
  41:Core/Src/adc.c ****   /* USER CODE BEGIN ADC1_Init 0 */
  42:Core/Src/adc.c **** 
  43:Core/Src/adc.c ****   /* USER CODE END ADC1_Init 0 */
  44:Core/Src/adc.c **** 
  45:Core/Src/adc.c ****   ADC_MultiModeTypeDef multimode = {0};
  41              		.loc 1 45 3 view .LVU1
  42              		.loc 1 45 24 is_stmt 0 view .LVU2
  43 0004 0024     		movs	r4, #0
  44 0006 0994     		str	r4, [sp, #36]
  45 0008 0A94     		str	r4, [sp, #40]
  46 000a 0B94     		str	r4, [sp, #44]
  46:Core/Src/adc.c ****   ADC_ChannelConfTypeDef sConfig = {0};
  47              		.loc 1 46 3 is_stmt 1 view .LVU3
  48              		.loc 1 46 26 is_stmt 0 view .LVU4
  49 000c 2022     		movs	r2, #32
  50 000e 2146     		mov	r1, r4
  51 0010 01A8     		add	r0, sp, #4
  52 0012 FFF7FEFF 		bl	memset
  53              	.LVL0:
  47:Core/Src/adc.c **** 
  48:Core/Src/adc.c ****   /* USER CODE BEGIN ADC1_Init 1 */
  49:Core/Src/adc.c **** 
  50:Core/Src/adc.c ****   /* USER CODE END ADC1_Init 1 */
  51:Core/Src/adc.c **** 
  52:Core/Src/adc.c ****   /** Common config
  53:Core/Src/adc.c ****   */
  54:Core/Src/adc.c ****   hadc1.Instance = ADC1;
  54              		.loc 1 54 3 is_stmt 1 view .LVU5
  55              		.loc 1 54 18 is_stmt 0 view .LVU6
  56 0016 2648     		ldr	r0, .L11
  57 0018 4FF0A043 		mov	r3, #1342177280
  58 001c 0360     		str	r3, [r0]
  55:Core/Src/adc.c ****   hadc1.Init.ClockPrescaler = ADC_CLOCK_ASYNC_DIV4;
  59              		.loc 1 55 3 is_stmt 1 view .LVU7
  60              		.loc 1 55 29 is_stmt 0 view .LVU8
ARM GAS  C:\Users\purdu\AppData\Local\Temp\cc3JAzG9.s 			page 3


  61 001e 4FF40023 		mov	r3, #524288
  62 0022 4360     		str	r3, [r0, #4]
  56:Core/Src/adc.c ****   hadc1.Init.Resolution = ADC_RESOLUTION_12B;
  63              		.loc 1 56 3 is_stmt 1 view .LVU9
  64              		.loc 1 56 25 is_stmt 0 view .LVU10
  65 0024 8460     		str	r4, [r0, #8]
  57:Core/Src/adc.c ****   hadc1.Init.DataAlign = ADC_DATAALIGN_RIGHT;
  66              		.loc 1 57 3 is_stmt 1 view .LVU11
  67              		.loc 1 57 24 is_stmt 0 view .LVU12
  68 0026 C460     		str	r4, [r0, #12]
  58:Core/Src/adc.c ****   hadc1.Init.GainCompensation = 0;
  69              		.loc 1 58 3 is_stmt 1 view .LVU13
  70              		.loc 1 58 31 is_stmt 0 view .LVU14
  71 0028 0461     		str	r4, [r0, #16]
  59:Core/Src/adc.c ****   hadc1.Init.ScanConvMode = ADC_SCAN_ENABLE;
  72              		.loc 1 59 3 is_stmt 1 view .LVU15
  73              		.loc 1 59 27 is_stmt 0 view .LVU16
  74 002a 0123     		movs	r3, #1
  75 002c 4361     		str	r3, [r0, #20]
  60:Core/Src/adc.c ****   hadc1.Init.EOCSelection = ADC_EOC_SINGLE_CONV;
  76              		.loc 1 60 3 is_stmt 1 view .LVU17
  77              		.loc 1 60 27 is_stmt 0 view .LVU18
  78 002e 0422     		movs	r2, #4
  79 0030 8261     		str	r2, [r0, #24]
  61:Core/Src/adc.c ****   hadc1.Init.LowPowerAutoWait = DISABLE;
  80              		.loc 1 61 3 is_stmt 1 view .LVU19
  81              		.loc 1 61 31 is_stmt 0 view .LVU20
  82 0032 0477     		strb	r4, [r0, #28]
  62:Core/Src/adc.c ****   hadc1.Init.ContinuousConvMode = ENABLE;
  83              		.loc 1 62 3 is_stmt 1 view .LVU21
  84              		.loc 1 62 33 is_stmt 0 view .LVU22
  85 0034 4377     		strb	r3, [r0, #29]
  63:Core/Src/adc.c ****   hadc1.Init.NbrOfConversion = 2;
  86              		.loc 1 63 3 is_stmt 1 view .LVU23
  87              		.loc 1 63 30 is_stmt 0 view .LVU24
  88 0036 0222     		movs	r2, #2
  89 0038 0262     		str	r2, [r0, #32]
  64:Core/Src/adc.c ****   hadc1.Init.DiscontinuousConvMode = DISABLE;
  90              		.loc 1 64 3 is_stmt 1 view .LVU25
  91              		.loc 1 64 36 is_stmt 0 view .LVU26
  92 003a 80F82440 		strb	r4, [r0, #36]
  65:Core/Src/adc.c ****   hadc1.Init.ExternalTrigConv = ADC_SOFTWARE_START;
  93              		.loc 1 65 3 is_stmt 1 view .LVU27
  94              		.loc 1 65 31 is_stmt 0 view .LVU28
  95 003e C462     		str	r4, [r0, #44]
  66:Core/Src/adc.c ****   hadc1.Init.ExternalTrigConvEdge = ADC_EXTERNALTRIGCONVEDGE_NONE;
  96              		.loc 1 66 3 is_stmt 1 view .LVU29
  97              		.loc 1 66 35 is_stmt 0 view .LVU30
  98 0040 0463     		str	r4, [r0, #48]
  67:Core/Src/adc.c ****   hadc1.Init.DMAContinuousRequests = ENABLE;
  99              		.loc 1 67 3 is_stmt 1 view .LVU31
 100              		.loc 1 67 36 is_stmt 0 view .LVU32
 101 0042 80F83830 		strb	r3, [r0, #56]
  68:Core/Src/adc.c ****   hadc1.Init.Overrun = ADC_OVR_DATA_PRESERVED;
 102              		.loc 1 68 3 is_stmt 1 view .LVU33
 103              		.loc 1 68 22 is_stmt 0 view .LVU34
 104 0046 C463     		str	r4, [r0, #60]
ARM GAS  C:\Users\purdu\AppData\Local\Temp\cc3JAzG9.s 			page 4


  69:Core/Src/adc.c ****   hadc1.Init.OversamplingMode = DISABLE;
 105              		.loc 1 69 3 is_stmt 1 view .LVU35
 106              		.loc 1 69 31 is_stmt 0 view .LVU36
 107 0048 80F84040 		strb	r4, [r0, #64]
  70:Core/Src/adc.c ****   if (HAL_ADC_Init(&hadc1) != HAL_OK)
 108              		.loc 1 70 3 is_stmt 1 view .LVU37
 109              		.loc 1 70 7 is_stmt 0 view .LVU38
 110 004c FFF7FEFF 		bl	HAL_ADC_Init
 111              	.LVL1:
 112              		.loc 1 70 6 discriminator 1 view .LVU39
 113 0050 10BB     		cbnz	r0, .L7
 114              	.L2:
  71:Core/Src/adc.c ****   {
  72:Core/Src/adc.c ****     Error_Handler();
  73:Core/Src/adc.c ****   }
  74:Core/Src/adc.c **** 
  75:Core/Src/adc.c ****   /** Configure the ADC multi-mode
  76:Core/Src/adc.c ****   */
  77:Core/Src/adc.c ****   multimode.Mode = ADC_MODE_INDEPENDENT;
 115              		.loc 1 77 3 is_stmt 1 view .LVU40
 116              		.loc 1 77 18 is_stmt 0 view .LVU41
 117 0052 0023     		movs	r3, #0
 118 0054 0993     		str	r3, [sp, #36]
  78:Core/Src/adc.c ****   if (HAL_ADCEx_MultiModeConfigChannel(&hadc1, &multimode) != HAL_OK)
 119              		.loc 1 78 3 is_stmt 1 view .LVU42
 120              		.loc 1 78 7 is_stmt 0 view .LVU43
 121 0056 09A9     		add	r1, sp, #36
 122 0058 1548     		ldr	r0, .L11
 123 005a FFF7FEFF 		bl	HAL_ADCEx_MultiModeConfigChannel
 124              	.LVL2:
 125              		.loc 1 78 6 discriminator 1 view .LVU44
 126 005e F0B9     		cbnz	r0, .L8
 127              	.L3:
  79:Core/Src/adc.c ****   {
  80:Core/Src/adc.c ****     Error_Handler();
  81:Core/Src/adc.c ****   }
  82:Core/Src/adc.c **** 
  83:Core/Src/adc.c ****   /** Configure Regular Channel
  84:Core/Src/adc.c ****   */
  85:Core/Src/adc.c ****   sConfig.Channel = ADC_CHANNEL_1;
 128              		.loc 1 85 3 is_stmt 1 view .LVU45
 129              		.loc 1 85 19 is_stmt 0 view .LVU46
 130 0060 144B     		ldr	r3, .L11+4
 131 0062 0193     		str	r3, [sp, #4]
  86:Core/Src/adc.c ****   sConfig.Rank = ADC_REGULAR_RANK_1;
 132              		.loc 1 86 3 is_stmt 1 view .LVU47
 133              		.loc 1 86 16 is_stmt 0 view .LVU48
 134 0064 0623     		movs	r3, #6
 135 0066 0293     		str	r3, [sp, #8]
  87:Core/Src/adc.c ****   sConfig.SamplingTime = ADC_SAMPLETIME_12CYCLES_5;
 136              		.loc 1 87 3 is_stmt 1 view .LVU49
 137              		.loc 1 87 24 is_stmt 0 view .LVU50
 138 0068 0223     		movs	r3, #2
 139 006a 0393     		str	r3, [sp, #12]
  88:Core/Src/adc.c ****   sConfig.SingleDiff = ADC_SINGLE_ENDED;
 140              		.loc 1 88 3 is_stmt 1 view .LVU51
 141              		.loc 1 88 22 is_stmt 0 view .LVU52
ARM GAS  C:\Users\purdu\AppData\Local\Temp\cc3JAzG9.s 			page 5


 142 006c 7F23     		movs	r3, #127
 143 006e 0493     		str	r3, [sp, #16]
  89:Core/Src/adc.c ****   sConfig.OffsetNumber = ADC_OFFSET_NONE;
 144              		.loc 1 89 3 is_stmt 1 view .LVU53
 145              		.loc 1 89 24 is_stmt 0 view .LVU54
 146 0070 0423     		movs	r3, #4
 147 0072 0593     		str	r3, [sp, #20]
  90:Core/Src/adc.c ****   sConfig.Offset = 0;
 148              		.loc 1 90 3 is_stmt 1 view .LVU55
 149              		.loc 1 90 18 is_stmt 0 view .LVU56
 150 0074 0023     		movs	r3, #0
 151 0076 0693     		str	r3, [sp, #24]
  91:Core/Src/adc.c ****   if (HAL_ADC_ConfigChannel(&hadc1, &sConfig) != HAL_OK)
 152              		.loc 1 91 3 is_stmt 1 view .LVU57
 153              		.loc 1 91 7 is_stmt 0 view .LVU58
 154 0078 01A9     		add	r1, sp, #4
 155 007a 0D48     		ldr	r0, .L11
 156 007c FFF7FEFF 		bl	HAL_ADC_ConfigChannel
 157              	.LVL3:
 158              		.loc 1 91 6 discriminator 1 view .LVU59
 159 0080 80B9     		cbnz	r0, .L9
 160              	.L4:
  92:Core/Src/adc.c ****   {
  93:Core/Src/adc.c ****     Error_Handler();
  94:Core/Src/adc.c ****   }
  95:Core/Src/adc.c **** 
  96:Core/Src/adc.c ****   /** Configure Regular Channel
  97:Core/Src/adc.c ****   */
  98:Core/Src/adc.c ****   sConfig.Channel = ADC_CHANNEL_2;
 161              		.loc 1 98 3 is_stmt 1 view .LVU60
 162              		.loc 1 98 19 is_stmt 0 view .LVU61
 163 0082 0D4B     		ldr	r3, .L11+8
 164 0084 0193     		str	r3, [sp, #4]
  99:Core/Src/adc.c ****   sConfig.Rank = ADC_REGULAR_RANK_2;
 165              		.loc 1 99 3 is_stmt 1 view .LVU62
 166              		.loc 1 99 16 is_stmt 0 view .LVU63
 167 0086 0C23     		movs	r3, #12
 168 0088 0293     		str	r3, [sp, #8]
 100:Core/Src/adc.c ****   if (HAL_ADC_ConfigChannel(&hadc1, &sConfig) != HAL_OK)
 169              		.loc 1 100 3 is_stmt 1 view .LVU64
 170              		.loc 1 100 7 is_stmt 0 view .LVU65
 171 008a 01A9     		add	r1, sp, #4
 172 008c 0848     		ldr	r0, .L11
 173 008e FFF7FEFF 		bl	HAL_ADC_ConfigChannel
 174              	.LVL4:
 175              		.loc 1 100 6 discriminator 1 view .LVU66
 176 0092 50B9     		cbnz	r0, .L10
 177              	.L1:
 101:Core/Src/adc.c ****   {
 102:Core/Src/adc.c ****     Error_Handler();
 103:Core/Src/adc.c ****   }
 104:Core/Src/adc.c ****   /* USER CODE BEGIN ADC1_Init 2 */
 105:Core/Src/adc.c **** 
 106:Core/Src/adc.c ****   /* USER CODE END ADC1_Init 2 */
 107:Core/Src/adc.c **** 
 108:Core/Src/adc.c **** }
 178              		.loc 1 108 1 view .LVU67
ARM GAS  C:\Users\purdu\AppData\Local\Temp\cc3JAzG9.s 			page 6


 179 0094 0CB0     		add	sp, sp, #48
 180              	.LCFI2:
 181              		.cfi_remember_state
 182              		.cfi_def_cfa_offset 8
 183              		@ sp needed
 184 0096 10BD     		pop	{r4, pc}
 185              	.L7:
 186              	.LCFI3:
 187              		.cfi_restore_state
  72:Core/Src/adc.c ****   }
 188              		.loc 1 72 5 is_stmt 1 view .LVU68
 189 0098 FFF7FEFF 		bl	Error_Handler
 190              	.LVL5:
 191 009c D9E7     		b	.L2
 192              	.L8:
  80:Core/Src/adc.c ****   }
 193              		.loc 1 80 5 view .LVU69
 194 009e FFF7FEFF 		bl	Error_Handler
 195              	.LVL6:
 196 00a2 DDE7     		b	.L3
 197              	.L9:
  93:Core/Src/adc.c ****   }
 198              		.loc 1 93 5 view .LVU70
 199 00a4 FFF7FEFF 		bl	Error_Handler
 200              	.LVL7:
 201 00a8 EBE7     		b	.L4
 202              	.L10:
 102:Core/Src/adc.c ****   }
 203              		.loc 1 102 5 view .LVU71
 204 00aa FFF7FEFF 		bl	Error_Handler
 205              	.LVL8:
 206              		.loc 1 108 1 is_stmt 0 view .LVU72
 207 00ae F1E7     		b	.L1
 208              	.L12:
 209              		.align	2
 210              	.L11:
 211 00b0 00000000 		.word	hadc1
 212 00b4 02003004 		.word	70254594
 213 00b8 04006008 		.word	140509188
 214              		.cfi_endproc
 215              	.LFE329:
 217              		.section	.text.MX_ADC2_Init,"ax",%progbits
 218              		.align	1
 219              		.global	MX_ADC2_Init
 220              		.syntax unified
 221              		.thumb
 222              		.thumb_func
 224              	MX_ADC2_Init:
 225              	.LFB330:
 109:Core/Src/adc.c **** /* ADC2 init function */
 110:Core/Src/adc.c **** void MX_ADC2_Init(void)
 111:Core/Src/adc.c **** {
 226              		.loc 1 111 1 is_stmt 1 view -0
 227              		.cfi_startproc
 228              		@ args = 0, pretend = 0, frame = 32
 229              		@ frame_needed = 0, uses_anonymous_args = 0
 230 0000 00B5     		push	{lr}
ARM GAS  C:\Users\purdu\AppData\Local\Temp\cc3JAzG9.s 			page 7


 231              	.LCFI4:
 232              		.cfi_def_cfa_offset 4
 233              		.cfi_offset 14, -4
 234 0002 89B0     		sub	sp, sp, #36
 235              	.LCFI5:
 236              		.cfi_def_cfa_offset 40
 112:Core/Src/adc.c **** 
 113:Core/Src/adc.c ****   /* USER CODE BEGIN ADC2_Init 0 */
 114:Core/Src/adc.c **** 
 115:Core/Src/adc.c ****   /* USER CODE END ADC2_Init 0 */
 116:Core/Src/adc.c **** 
 117:Core/Src/adc.c ****   ADC_ChannelConfTypeDef sConfig = {0};
 237              		.loc 1 117 3 view .LVU74
 238              		.loc 1 117 26 is_stmt 0 view .LVU75
 239 0004 2022     		movs	r2, #32
 240 0006 0021     		movs	r1, #0
 241 0008 6846     		mov	r0, sp
 242 000a FFF7FEFF 		bl	memset
 243              	.LVL9:
 118:Core/Src/adc.c **** 
 119:Core/Src/adc.c ****   /* USER CODE BEGIN ADC2_Init 1 */
 120:Core/Src/adc.c **** 
 121:Core/Src/adc.c ****   /* USER CODE END ADC2_Init 1 */
 122:Core/Src/adc.c **** 
 123:Core/Src/adc.c ****   /** Common config
 124:Core/Src/adc.c ****   */
 125:Core/Src/adc.c ****   hadc2.Instance = ADC2;
 244              		.loc 1 125 3 is_stmt 1 view .LVU76
 245              		.loc 1 125 18 is_stmt 0 view .LVU77
 246 000e 2848     		ldr	r0, .L23
 247 0010 284B     		ldr	r3, .L23+4
 248 0012 0360     		str	r3, [r0]
 126:Core/Src/adc.c ****   hadc2.Init.ClockPrescaler = ADC_CLOCK_ASYNC_DIV4;
 249              		.loc 1 126 3 is_stmt 1 view .LVU78
 250              		.loc 1 126 29 is_stmt 0 view .LVU79
 251 0014 4FF40023 		mov	r3, #524288
 252 0018 4360     		str	r3, [r0, #4]
 127:Core/Src/adc.c ****   hadc2.Init.Resolution = ADC_RESOLUTION_12B;
 253              		.loc 1 127 3 is_stmt 1 view .LVU80
 254              		.loc 1 127 25 is_stmt 0 view .LVU81
 255 001a 0023     		movs	r3, #0
 256 001c 8360     		str	r3, [r0, #8]
 128:Core/Src/adc.c ****   hadc2.Init.DataAlign = ADC_DATAALIGN_RIGHT;
 257              		.loc 1 128 3 is_stmt 1 view .LVU82
 258              		.loc 1 128 24 is_stmt 0 view .LVU83
 259 001e C360     		str	r3, [r0, #12]
 129:Core/Src/adc.c ****   hadc2.Init.GainCompensation = 0;
 260              		.loc 1 129 3 is_stmt 1 view .LVU84
 261              		.loc 1 129 31 is_stmt 0 view .LVU85
 262 0020 0361     		str	r3, [r0, #16]
 130:Core/Src/adc.c ****   hadc2.Init.ScanConvMode = ADC_SCAN_ENABLE;
 263              		.loc 1 130 3 is_stmt 1 view .LVU86
 264              		.loc 1 130 27 is_stmt 0 view .LVU87
 265 0022 0122     		movs	r2, #1
 266 0024 4261     		str	r2, [r0, #20]
 131:Core/Src/adc.c ****   hadc2.Init.EOCSelection = ADC_EOC_SINGLE_CONV;
 267              		.loc 1 131 3 is_stmt 1 view .LVU88
ARM GAS  C:\Users\purdu\AppData\Local\Temp\cc3JAzG9.s 			page 8


 268              		.loc 1 131 27 is_stmt 0 view .LVU89
 269 0026 0421     		movs	r1, #4
 270 0028 8161     		str	r1, [r0, #24]
 132:Core/Src/adc.c ****   hadc2.Init.LowPowerAutoWait = DISABLE;
 271              		.loc 1 132 3 is_stmt 1 view .LVU90
 272              		.loc 1 132 31 is_stmt 0 view .LVU91
 273 002a 0377     		strb	r3, [r0, #28]
 133:Core/Src/adc.c ****   hadc2.Init.ContinuousConvMode = ENABLE;
 274              		.loc 1 133 3 is_stmt 1 view .LVU92
 275              		.loc 1 133 33 is_stmt 0 view .LVU93
 276 002c 4277     		strb	r2, [r0, #29]
 134:Core/Src/adc.c ****   hadc2.Init.NbrOfConversion = 3;
 277              		.loc 1 134 3 is_stmt 1 view .LVU94
 278              		.loc 1 134 30 is_stmt 0 view .LVU95
 279 002e 0321     		movs	r1, #3
 280 0030 0162     		str	r1, [r0, #32]
 135:Core/Src/adc.c ****   hadc2.Init.DiscontinuousConvMode = DISABLE;
 281              		.loc 1 135 3 is_stmt 1 view .LVU96
 282              		.loc 1 135 36 is_stmt 0 view .LVU97
 283 0032 80F82430 		strb	r3, [r0, #36]
 136:Core/Src/adc.c ****   hadc2.Init.ExternalTrigConv = ADC_SOFTWARE_START;
 284              		.loc 1 136 3 is_stmt 1 view .LVU98
 285              		.loc 1 136 31 is_stmt 0 view .LVU99
 286 0036 C362     		str	r3, [r0, #44]
 137:Core/Src/adc.c ****   hadc2.Init.ExternalTrigConvEdge = ADC_EXTERNALTRIGCONVEDGE_NONE;
 287              		.loc 1 137 3 is_stmt 1 view .LVU100
 288              		.loc 1 137 35 is_stmt 0 view .LVU101
 289 0038 0363     		str	r3, [r0, #48]
 138:Core/Src/adc.c ****   hadc2.Init.DMAContinuousRequests = ENABLE;
 290              		.loc 1 138 3 is_stmt 1 view .LVU102
 291              		.loc 1 138 36 is_stmt 0 view .LVU103
 292 003a 80F83820 		strb	r2, [r0, #56]
 139:Core/Src/adc.c ****   hadc2.Init.Overrun = ADC_OVR_DATA_PRESERVED;
 293              		.loc 1 139 3 is_stmt 1 view .LVU104
 294              		.loc 1 139 22 is_stmt 0 view .LVU105
 295 003e C363     		str	r3, [r0, #60]
 140:Core/Src/adc.c ****   hadc2.Init.OversamplingMode = DISABLE;
 296              		.loc 1 140 3 is_stmt 1 view .LVU106
 297              		.loc 1 140 31 is_stmt 0 view .LVU107
 298 0040 80F84030 		strb	r3, [r0, #64]
 141:Core/Src/adc.c ****   if (HAL_ADC_Init(&hadc2) != HAL_OK)
 299              		.loc 1 141 3 is_stmt 1 view .LVU108
 300              		.loc 1 141 7 is_stmt 0 view .LVU109
 301 0044 FFF7FEFF 		bl	HAL_ADC_Init
 302              	.LVL10:
 303              		.loc 1 141 6 discriminator 1 view .LVU110
 304 0048 28BB     		cbnz	r0, .L19
 305              	.L14:
 142:Core/Src/adc.c ****   {
 143:Core/Src/adc.c ****     Error_Handler();
 144:Core/Src/adc.c ****   }
 145:Core/Src/adc.c **** 
 146:Core/Src/adc.c ****   /** Configure Regular Channel
 147:Core/Src/adc.c ****   */
 148:Core/Src/adc.c ****   sConfig.Channel = ADC_CHANNEL_11;
 306              		.loc 1 148 3 is_stmt 1 view .LVU111
 307              		.loc 1 148 19 is_stmt 0 view .LVU112
ARM GAS  C:\Users\purdu\AppData\Local\Temp\cc3JAzG9.s 			page 9


 308 004a 1B4B     		ldr	r3, .L23+8
 309 004c 0093     		str	r3, [sp]
 149:Core/Src/adc.c ****   sConfig.Rank = ADC_REGULAR_RANK_1;
 310              		.loc 1 149 3 is_stmt 1 view .LVU113
 311              		.loc 1 149 16 is_stmt 0 view .LVU114
 312 004e 0623     		movs	r3, #6
 313 0050 0193     		str	r3, [sp, #4]
 150:Core/Src/adc.c ****   sConfig.SamplingTime = ADC_SAMPLETIME_12CYCLES_5;
 314              		.loc 1 150 3 is_stmt 1 view .LVU115
 315              		.loc 1 150 24 is_stmt 0 view .LVU116
 316 0052 0223     		movs	r3, #2
 317 0054 0293     		str	r3, [sp, #8]
 151:Core/Src/adc.c ****   sConfig.SingleDiff = ADC_SINGLE_ENDED;
 318              		.loc 1 151 3 is_stmt 1 view .LVU117
 319              		.loc 1 151 22 is_stmt 0 view .LVU118
 320 0056 7F23     		movs	r3, #127
 321 0058 0393     		str	r3, [sp, #12]
 152:Core/Src/adc.c ****   sConfig.OffsetNumber = ADC_OFFSET_NONE;
 322              		.loc 1 152 3 is_stmt 1 view .LVU119
 323              		.loc 1 152 24 is_stmt 0 view .LVU120
 324 005a 0423     		movs	r3, #4
 325 005c 0493     		str	r3, [sp, #16]
 153:Core/Src/adc.c ****   sConfig.Offset = 0;
 326              		.loc 1 153 3 is_stmt 1 view .LVU121
 327              		.loc 1 153 18 is_stmt 0 view .LVU122
 328 005e 0023     		movs	r3, #0
 329 0060 0593     		str	r3, [sp, #20]
 154:Core/Src/adc.c ****   if (HAL_ADC_ConfigChannel(&hadc2, &sConfig) != HAL_OK)
 330              		.loc 1 154 3 is_stmt 1 view .LVU123
 331              		.loc 1 154 7 is_stmt 0 view .LVU124
 332 0062 6946     		mov	r1, sp
 333 0064 1248     		ldr	r0, .L23
 334 0066 FFF7FEFF 		bl	HAL_ADC_ConfigChannel
 335              	.LVL11:
 336              		.loc 1 154 6 discriminator 1 view .LVU125
 337 006a B8B9     		cbnz	r0, .L20
 338              	.L15:
 155:Core/Src/adc.c ****   {
 156:Core/Src/adc.c ****     Error_Handler();
 157:Core/Src/adc.c ****   }
 158:Core/Src/adc.c **** 
 159:Core/Src/adc.c ****   /** Configure Regular Channel
 160:Core/Src/adc.c ****   */
 161:Core/Src/adc.c ****   sConfig.Channel = ADC_CHANNEL_13;
 339              		.loc 1 161 3 is_stmt 1 view .LVU126
 340              		.loc 1 161 19 is_stmt 0 view .LVU127
 341 006c 134B     		ldr	r3, .L23+12
 342 006e 0093     		str	r3, [sp]
 162:Core/Src/adc.c ****   sConfig.Rank = ADC_REGULAR_RANK_2;
 343              		.loc 1 162 3 is_stmt 1 view .LVU128
 344              		.loc 1 162 16 is_stmt 0 view .LVU129
 345 0070 0C23     		movs	r3, #12
 346 0072 0193     		str	r3, [sp, #4]
 163:Core/Src/adc.c ****   if (HAL_ADC_ConfigChannel(&hadc2, &sConfig) != HAL_OK)
 347              		.loc 1 163 3 is_stmt 1 view .LVU130
 348              		.loc 1 163 7 is_stmt 0 view .LVU131
 349 0074 6946     		mov	r1, sp
ARM GAS  C:\Users\purdu\AppData\Local\Temp\cc3JAzG9.s 			page 10


 350 0076 0E48     		ldr	r0, .L23
 351 0078 FFF7FEFF 		bl	HAL_ADC_ConfigChannel
 352              	.LVL12:
 353              		.loc 1 163 6 discriminator 1 view .LVU132
 354 007c 88B9     		cbnz	r0, .L21
 355              	.L16:
 164:Core/Src/adc.c ****   {
 165:Core/Src/adc.c ****     Error_Handler();
 166:Core/Src/adc.c ****   }
 167:Core/Src/adc.c **** 
 168:Core/Src/adc.c ****   /** Configure Regular Channel
 169:Core/Src/adc.c ****   */
 170:Core/Src/adc.c ****   sConfig.Channel = ADC_CHANNEL_12;
 356              		.loc 1 170 3 is_stmt 1 view .LVU133
 357              		.loc 1 170 19 is_stmt 0 view .LVU134
 358 007e 104B     		ldr	r3, .L23+16
 359 0080 0093     		str	r3, [sp]
 171:Core/Src/adc.c ****   sConfig.Rank = ADC_REGULAR_RANK_3;
 360              		.loc 1 171 3 is_stmt 1 view .LVU135
 361              		.loc 1 171 16 is_stmt 0 view .LVU136
 362 0082 1223     		movs	r3, #18
 363 0084 0193     		str	r3, [sp, #4]
 172:Core/Src/adc.c ****   if (HAL_ADC_ConfigChannel(&hadc2, &sConfig) != HAL_OK)
 364              		.loc 1 172 3 is_stmt 1 view .LVU137
 365              		.loc 1 172 7 is_stmt 0 view .LVU138
 366 0086 6946     		mov	r1, sp
 367 0088 0948     		ldr	r0, .L23
 368 008a FFF7FEFF 		bl	HAL_ADC_ConfigChannel
 369              	.LVL13:
 370              		.loc 1 172 6 discriminator 1 view .LVU139
 371 008e 58B9     		cbnz	r0, .L22
 372              	.L13:
 173:Core/Src/adc.c ****   {
 174:Core/Src/adc.c ****     Error_Handler();
 175:Core/Src/adc.c ****   }
 176:Core/Src/adc.c ****   /* USER CODE BEGIN ADC2_Init 2 */
 177:Core/Src/adc.c **** 
 178:Core/Src/adc.c ****   /* USER CODE END ADC2_Init 2 */
 179:Core/Src/adc.c **** 
 180:Core/Src/adc.c **** }
 373              		.loc 1 180 1 view .LVU140
 374 0090 09B0     		add	sp, sp, #36
 375              	.LCFI6:
 376              		.cfi_remember_state
 377              		.cfi_def_cfa_offset 4
 378              		@ sp needed
 379 0092 5DF804FB 		ldr	pc, [sp], #4
 380              	.L19:
 381              	.LCFI7:
 382              		.cfi_restore_state
 143:Core/Src/adc.c ****   }
 383              		.loc 1 143 5 is_stmt 1 view .LVU141
 384 0096 FFF7FEFF 		bl	Error_Handler
 385              	.LVL14:
 386 009a D6E7     		b	.L14
 387              	.L20:
 156:Core/Src/adc.c ****   }
ARM GAS  C:\Users\purdu\AppData\Local\Temp\cc3JAzG9.s 			page 11


 388              		.loc 1 156 5 view .LVU142
 389 009c FFF7FEFF 		bl	Error_Handler
 390              	.LVL15:
 391 00a0 E4E7     		b	.L15
 392              	.L21:
 165:Core/Src/adc.c ****   }
 393              		.loc 1 165 5 view .LVU143
 394 00a2 FFF7FEFF 		bl	Error_Handler
 395              	.LVL16:
 396 00a6 EAE7     		b	.L16
 397              	.L22:
 174:Core/Src/adc.c ****   }
 398              		.loc 1 174 5 view .LVU144
 399 00a8 FFF7FEFF 		bl	Error_Handler
 400              	.LVL17:
 401              		.loc 1 180 1 is_stmt 0 view .LVU145
 402 00ac F0E7     		b	.L13
 403              	.L24:
 404 00ae 00BF     		.align	2
 405              	.L23:
 406 00b0 00000000 		.word	hadc2
 407 00b4 00010050 		.word	1342177536
 408 00b8 0008302E 		.word	774899712
 409 00bc 00209036 		.word	915415040
 410 00c0 00106032 		.word	845156352
 411              		.cfi_endproc
 412              	.LFE330:
 414              		.section	.text.MX_ADC3_Init,"ax",%progbits
 415              		.align	1
 416              		.global	MX_ADC3_Init
 417              		.syntax unified
 418              		.thumb
 419              		.thumb_func
 421              	MX_ADC3_Init:
 422              	.LFB331:
 181:Core/Src/adc.c **** /* ADC3 init function */
 182:Core/Src/adc.c **** void MX_ADC3_Init(void)
 183:Core/Src/adc.c **** {
 423              		.loc 1 183 1 is_stmt 1 view -0
 424              		.cfi_startproc
 425              		@ args = 0, pretend = 0, frame = 48
 426              		@ frame_needed = 0, uses_anonymous_args = 0
 427 0000 10B5     		push	{r4, lr}
 428              	.LCFI8:
 429              		.cfi_def_cfa_offset 8
 430              		.cfi_offset 4, -8
 431              		.cfi_offset 14, -4
 432 0002 8CB0     		sub	sp, sp, #48
 433              	.LCFI9:
 434              		.cfi_def_cfa_offset 56
 184:Core/Src/adc.c **** 
 185:Core/Src/adc.c ****   /* USER CODE BEGIN ADC3_Init 0 */
 186:Core/Src/adc.c **** 
 187:Core/Src/adc.c ****   /* USER CODE END ADC3_Init 0 */
 188:Core/Src/adc.c **** 
 189:Core/Src/adc.c ****   ADC_MultiModeTypeDef multimode = {0};
 435              		.loc 1 189 3 view .LVU147
ARM GAS  C:\Users\purdu\AppData\Local\Temp\cc3JAzG9.s 			page 12


 436              		.loc 1 189 24 is_stmt 0 view .LVU148
 437 0004 0024     		movs	r4, #0
 438 0006 0994     		str	r4, [sp, #36]
 439 0008 0A94     		str	r4, [sp, #40]
 440 000a 0B94     		str	r4, [sp, #44]
 190:Core/Src/adc.c ****   ADC_ChannelConfTypeDef sConfig = {0};
 441              		.loc 1 190 3 is_stmt 1 view .LVU149
 442              		.loc 1 190 26 is_stmt 0 view .LVU150
 443 000c 2022     		movs	r2, #32
 444 000e 2146     		mov	r1, r4
 445 0010 01A8     		add	r0, sp, #4
 446 0012 FFF7FEFF 		bl	memset
 447              	.LVL18:
 191:Core/Src/adc.c **** 
 192:Core/Src/adc.c ****   /* USER CODE BEGIN ADC3_Init 1 */
 193:Core/Src/adc.c **** 
 194:Core/Src/adc.c ****   /* USER CODE END ADC3_Init 1 */
 195:Core/Src/adc.c **** 
 196:Core/Src/adc.c ****   /** Common config
 197:Core/Src/adc.c ****   */
 198:Core/Src/adc.c ****   hadc3.Instance = ADC3;
 448              		.loc 1 198 3 is_stmt 1 view .LVU151
 449              		.loc 1 198 18 is_stmt 0 view .LVU152
 450 0016 2C48     		ldr	r0, .L37
 451 0018 2C4B     		ldr	r3, .L37+4
 452 001a 0360     		str	r3, [r0]
 199:Core/Src/adc.c ****   hadc3.Init.ClockPrescaler = ADC_CLOCK_ASYNC_DIV4;
 453              		.loc 1 199 3 is_stmt 1 view .LVU153
 454              		.loc 1 199 29 is_stmt 0 view .LVU154
 455 001c 4FF40023 		mov	r3, #524288
 456 0020 4360     		str	r3, [r0, #4]
 200:Core/Src/adc.c ****   hadc3.Init.Resolution = ADC_RESOLUTION_12B;
 457              		.loc 1 200 3 is_stmt 1 view .LVU155
 458              		.loc 1 200 25 is_stmt 0 view .LVU156
 459 0022 8460     		str	r4, [r0, #8]
 201:Core/Src/adc.c ****   hadc3.Init.DataAlign = ADC_DATAALIGN_RIGHT;
 460              		.loc 1 201 3 is_stmt 1 view .LVU157
 461              		.loc 1 201 24 is_stmt 0 view .LVU158
 462 0024 C460     		str	r4, [r0, #12]
 202:Core/Src/adc.c ****   hadc3.Init.GainCompensation = 0;
 463              		.loc 1 202 3 is_stmt 1 view .LVU159
 464              		.loc 1 202 31 is_stmt 0 view .LVU160
 465 0026 0461     		str	r4, [r0, #16]
 203:Core/Src/adc.c ****   hadc3.Init.ScanConvMode = ADC_SCAN_ENABLE;
 466              		.loc 1 203 3 is_stmt 1 view .LVU161
 467              		.loc 1 203 27 is_stmt 0 view .LVU162
 468 0028 0123     		movs	r3, #1
 469 002a 4361     		str	r3, [r0, #20]
 204:Core/Src/adc.c ****   hadc3.Init.EOCSelection = ADC_EOC_SINGLE_CONV;
 470              		.loc 1 204 3 is_stmt 1 view .LVU163
 471              		.loc 1 204 27 is_stmt 0 view .LVU164
 472 002c 0422     		movs	r2, #4
 473 002e 8261     		str	r2, [r0, #24]
 205:Core/Src/adc.c ****   hadc3.Init.LowPowerAutoWait = DISABLE;
 474              		.loc 1 205 3 is_stmt 1 view .LVU165
 475              		.loc 1 205 31 is_stmt 0 view .LVU166
 476 0030 0477     		strb	r4, [r0, #28]
ARM GAS  C:\Users\purdu\AppData\Local\Temp\cc3JAzG9.s 			page 13


 206:Core/Src/adc.c ****   hadc3.Init.ContinuousConvMode = ENABLE;
 477              		.loc 1 206 3 is_stmt 1 view .LVU167
 478              		.loc 1 206 33 is_stmt 0 view .LVU168
 479 0032 4377     		strb	r3, [r0, #29]
 207:Core/Src/adc.c ****   hadc3.Init.NbrOfConversion = 3;
 480              		.loc 1 207 3 is_stmt 1 view .LVU169
 481              		.loc 1 207 30 is_stmt 0 view .LVU170
 482 0034 0322     		movs	r2, #3
 483 0036 0262     		str	r2, [r0, #32]
 208:Core/Src/adc.c ****   hadc3.Init.DiscontinuousConvMode = DISABLE;
 484              		.loc 1 208 3 is_stmt 1 view .LVU171
 485              		.loc 1 208 36 is_stmt 0 view .LVU172
 486 0038 80F82440 		strb	r4, [r0, #36]
 209:Core/Src/adc.c ****   hadc3.Init.ExternalTrigConv = ADC_SOFTWARE_START;
 487              		.loc 1 209 3 is_stmt 1 view .LVU173
 488              		.loc 1 209 31 is_stmt 0 view .LVU174
 489 003c C462     		str	r4, [r0, #44]
 210:Core/Src/adc.c ****   hadc3.Init.ExternalTrigConvEdge = ADC_EXTERNALTRIGCONVEDGE_NONE;
 490              		.loc 1 210 3 is_stmt 1 view .LVU175
 491              		.loc 1 210 35 is_stmt 0 view .LVU176
 492 003e 0463     		str	r4, [r0, #48]
 211:Core/Src/adc.c ****   hadc3.Init.DMAContinuousRequests = ENABLE;
 493              		.loc 1 211 3 is_stmt 1 view .LVU177
 494              		.loc 1 211 36 is_stmt 0 view .LVU178
 495 0040 80F83830 		strb	r3, [r0, #56]
 212:Core/Src/adc.c ****   hadc3.Init.Overrun = ADC_OVR_DATA_PRESERVED;
 496              		.loc 1 212 3 is_stmt 1 view .LVU179
 497              		.loc 1 212 22 is_stmt 0 view .LVU180
 498 0044 C463     		str	r4, [r0, #60]
 213:Core/Src/adc.c ****   hadc3.Init.OversamplingMode = DISABLE;
 499              		.loc 1 213 3 is_stmt 1 view .LVU181
 500              		.loc 1 213 31 is_stmt 0 view .LVU182
 501 0046 80F84040 		strb	r4, [r0, #64]
 214:Core/Src/adc.c ****   if (HAL_ADC_Init(&hadc3) != HAL_OK)
 502              		.loc 1 214 3 is_stmt 1 view .LVU183
 503              		.loc 1 214 7 is_stmt 0 view .LVU184
 504 004a FFF7FEFF 		bl	HAL_ADC_Init
 505              	.LVL19:
 506              		.loc 1 214 6 discriminator 1 view .LVU185
 507 004e 0028     		cmp	r0, #0
 508 0050 2BD1     		bne	.L32
 509              	.L26:
 215:Core/Src/adc.c ****   {
 216:Core/Src/adc.c ****     Error_Handler();
 217:Core/Src/adc.c ****   }
 218:Core/Src/adc.c **** 
 219:Core/Src/adc.c ****   /** Configure the ADC multi-mode
 220:Core/Src/adc.c ****   */
 221:Core/Src/adc.c ****   multimode.Mode = ADC_MODE_INDEPENDENT;
 510              		.loc 1 221 3 is_stmt 1 view .LVU186
 511              		.loc 1 221 18 is_stmt 0 view .LVU187
 512 0052 0023     		movs	r3, #0
 513 0054 0993     		str	r3, [sp, #36]
 222:Core/Src/adc.c ****   if (HAL_ADCEx_MultiModeConfigChannel(&hadc3, &multimode) != HAL_OK)
 514              		.loc 1 222 3 is_stmt 1 view .LVU188
 515              		.loc 1 222 7 is_stmt 0 view .LVU189
 516 0056 09A9     		add	r1, sp, #36
ARM GAS  C:\Users\purdu\AppData\Local\Temp\cc3JAzG9.s 			page 14


 517 0058 1B48     		ldr	r0, .L37
 518 005a FFF7FEFF 		bl	HAL_ADCEx_MultiModeConfigChannel
 519              	.LVL20:
 520              		.loc 1 222 6 discriminator 1 view .LVU190
 521 005e 38BB     		cbnz	r0, .L33
 522              	.L27:
 223:Core/Src/adc.c ****   {
 224:Core/Src/adc.c ****     Error_Handler();
 225:Core/Src/adc.c ****   }
 226:Core/Src/adc.c **** 
 227:Core/Src/adc.c ****   /** Configure Regular Channel
 228:Core/Src/adc.c ****   */
 229:Core/Src/adc.c ****   sConfig.Channel = ADC_CHANNEL_4;
 523              		.loc 1 229 3 is_stmt 1 view .LVU191
 524              		.loc 1 229 19 is_stmt 0 view .LVU192
 525 0060 1B4B     		ldr	r3, .L37+8
 526 0062 0193     		str	r3, [sp, #4]
 230:Core/Src/adc.c ****   sConfig.Rank = ADC_REGULAR_RANK_1;
 527              		.loc 1 230 3 is_stmt 1 view .LVU193
 528              		.loc 1 230 16 is_stmt 0 view .LVU194
 529 0064 0623     		movs	r3, #6
 530 0066 0293     		str	r3, [sp, #8]
 231:Core/Src/adc.c ****   sConfig.SamplingTime = ADC_SAMPLETIME_6CYCLES_5;
 531              		.loc 1 231 3 is_stmt 1 view .LVU195
 532              		.loc 1 231 24 is_stmt 0 view .LVU196
 533 0068 0123     		movs	r3, #1
 534 006a 0393     		str	r3, [sp, #12]
 232:Core/Src/adc.c ****   sConfig.SingleDiff = ADC_SINGLE_ENDED;
 535              		.loc 1 232 3 is_stmt 1 view .LVU197
 536              		.loc 1 232 22 is_stmt 0 view .LVU198
 537 006c 7F23     		movs	r3, #127
 538 006e 0493     		str	r3, [sp, #16]
 233:Core/Src/adc.c ****   sConfig.OffsetNumber = ADC_OFFSET_NONE;
 539              		.loc 1 233 3 is_stmt 1 view .LVU199
 540              		.loc 1 233 24 is_stmt 0 view .LVU200
 541 0070 0423     		movs	r3, #4
 542 0072 0593     		str	r3, [sp, #20]
 234:Core/Src/adc.c ****   sConfig.Offset = 0;
 543              		.loc 1 234 3 is_stmt 1 view .LVU201
 544              		.loc 1 234 18 is_stmt 0 view .LVU202
 545 0074 0023     		movs	r3, #0
 546 0076 0693     		str	r3, [sp, #24]
 235:Core/Src/adc.c ****   if (HAL_ADC_ConfigChannel(&hadc3, &sConfig) != HAL_OK)
 547              		.loc 1 235 3 is_stmt 1 view .LVU203
 548              		.loc 1 235 7 is_stmt 0 view .LVU204
 549 0078 01A9     		add	r1, sp, #4
 550 007a 1348     		ldr	r0, .L37
 551 007c FFF7FEFF 		bl	HAL_ADC_ConfigChannel
 552              	.LVL21:
 553              		.loc 1 235 6 discriminator 1 view .LVU205
 554 0080 C8B9     		cbnz	r0, .L34
 555              	.L28:
 236:Core/Src/adc.c ****   {
 237:Core/Src/adc.c ****     Error_Handler();
 238:Core/Src/adc.c ****   }
 239:Core/Src/adc.c **** 
 240:Core/Src/adc.c ****   /** Configure Regular Channel
ARM GAS  C:\Users\purdu\AppData\Local\Temp\cc3JAzG9.s 			page 15


 241:Core/Src/adc.c ****   */
 242:Core/Src/adc.c ****   sConfig.Channel = ADC_CHANNEL_6;
 556              		.loc 1 242 3 is_stmt 1 view .LVU206
 557              		.loc 1 242 19 is_stmt 0 view .LVU207
 558 0082 144B     		ldr	r3, .L37+12
 559 0084 0193     		str	r3, [sp, #4]
 243:Core/Src/adc.c ****   sConfig.Rank = ADC_REGULAR_RANK_2;
 560              		.loc 1 243 3 is_stmt 1 view .LVU208
 561              		.loc 1 243 16 is_stmt 0 view .LVU209
 562 0086 0C23     		movs	r3, #12
 563 0088 0293     		str	r3, [sp, #8]
 244:Core/Src/adc.c ****   if (HAL_ADC_ConfigChannel(&hadc3, &sConfig) != HAL_OK)
 564              		.loc 1 244 3 is_stmt 1 view .LVU210
 565              		.loc 1 244 7 is_stmt 0 view .LVU211
 566 008a 01A9     		add	r1, sp, #4
 567 008c 0E48     		ldr	r0, .L37
 568 008e FFF7FEFF 		bl	HAL_ADC_ConfigChannel
 569              	.LVL22:
 570              		.loc 1 244 6 discriminator 1 view .LVU212
 571 0092 98B9     		cbnz	r0, .L35
 572              	.L29:
 245:Core/Src/adc.c ****   {
 246:Core/Src/adc.c ****     Error_Handler();
 247:Core/Src/adc.c ****   }
 248:Core/Src/adc.c **** 
 249:Core/Src/adc.c ****   /** Configure Regular Channel
 250:Core/Src/adc.c ****   */
 251:Core/Src/adc.c ****   sConfig.Channel = ADC_CHANNEL_2;
 573              		.loc 1 251 3 is_stmt 1 view .LVU213
 574              		.loc 1 251 19 is_stmt 0 view .LVU214
 575 0094 104B     		ldr	r3, .L37+16
 576 0096 0193     		str	r3, [sp, #4]
 252:Core/Src/adc.c ****   sConfig.Rank = ADC_REGULAR_RANK_3;
 577              		.loc 1 252 3 is_stmt 1 view .LVU215
 578              		.loc 1 252 16 is_stmt 0 view .LVU216
 579 0098 1223     		movs	r3, #18
 580 009a 0293     		str	r3, [sp, #8]
 253:Core/Src/adc.c ****   if (HAL_ADC_ConfigChannel(&hadc3, &sConfig) != HAL_OK)
 581              		.loc 1 253 3 is_stmt 1 view .LVU217
 582              		.loc 1 253 7 is_stmt 0 view .LVU218
 583 009c 01A9     		add	r1, sp, #4
 584 009e 0A48     		ldr	r0, .L37
 585 00a0 FFF7FEFF 		bl	HAL_ADC_ConfigChannel
 586              	.LVL23:
 587              		.loc 1 253 6 discriminator 1 view .LVU219
 588 00a4 68B9     		cbnz	r0, .L36
 589              	.L25:
 254:Core/Src/adc.c ****   {
 255:Core/Src/adc.c ****     Error_Handler();
 256:Core/Src/adc.c ****   }
 257:Core/Src/adc.c ****   /* USER CODE BEGIN ADC3_Init 2 */
 258:Core/Src/adc.c **** 
 259:Core/Src/adc.c ****   /* USER CODE END ADC3_Init 2 */
 260:Core/Src/adc.c **** 
 261:Core/Src/adc.c **** }
 590              		.loc 1 261 1 view .LVU220
 591 00a6 0CB0     		add	sp, sp, #48
ARM GAS  C:\Users\purdu\AppData\Local\Temp\cc3JAzG9.s 			page 16


 592              	.LCFI10:
 593              		.cfi_remember_state
 594              		.cfi_def_cfa_offset 8
 595              		@ sp needed
 596 00a8 10BD     		pop	{r4, pc}
 597              	.L32:
 598              	.LCFI11:
 599              		.cfi_restore_state
 216:Core/Src/adc.c ****   }
 600              		.loc 1 216 5 is_stmt 1 view .LVU221
 601 00aa FFF7FEFF 		bl	Error_Handler
 602              	.LVL24:
 603 00ae D0E7     		b	.L26
 604              	.L33:
 224:Core/Src/adc.c ****   }
 605              		.loc 1 224 5 view .LVU222
 606 00b0 FFF7FEFF 		bl	Error_Handler
 607              	.LVL25:
 608 00b4 D4E7     		b	.L27
 609              	.L34:
 237:Core/Src/adc.c ****   }
 610              		.loc 1 237 5 view .LVU223
 611 00b6 FFF7FEFF 		bl	Error_Handler
 612              	.LVL26:
 613 00ba E2E7     		b	.L28
 614              	.L35:
 246:Core/Src/adc.c ****   }
 615              		.loc 1 246 5 view .LVU224
 616 00bc FFF7FEFF 		bl	Error_Handler
 617              	.LVL27:
 618 00c0 E8E7     		b	.L29
 619              	.L36:
 255:Core/Src/adc.c ****   }
 620              		.loc 1 255 5 view .LVU225
 621 00c2 FFF7FEFF 		bl	Error_Handler
 622              	.LVL28:
 623              		.loc 1 261 1 is_stmt 0 view .LVU226
 624 00c6 EEE7     		b	.L25
 625              	.L38:
 626              		.align	2
 627              	.L37:
 628 00c8 00000000 		.word	hadc3
 629 00cc 00040050 		.word	1342178304
 630 00d0 1000C010 		.word	281018384
 631 00d4 40002019 		.word	421527616
 632 00d8 04006008 		.word	140509188
 633              		.cfi_endproc
 634              	.LFE331:
 636              		.section	.text.MX_ADC4_Init,"ax",%progbits
 637              		.align	1
 638              		.global	MX_ADC4_Init
 639              		.syntax unified
 640              		.thumb
 641              		.thumb_func
 643              	MX_ADC4_Init:
 644              	.LFB332:
 262:Core/Src/adc.c **** /* ADC4 init function */
ARM GAS  C:\Users\purdu\AppData\Local\Temp\cc3JAzG9.s 			page 17


 263:Core/Src/adc.c **** void MX_ADC4_Init(void)
 264:Core/Src/adc.c **** {
 645              		.loc 1 264 1 is_stmt 1 view -0
 646              		.cfi_startproc
 647              		@ args = 0, pretend = 0, frame = 32
 648              		@ frame_needed = 0, uses_anonymous_args = 0
 649 0000 00B5     		push	{lr}
 650              	.LCFI12:
 651              		.cfi_def_cfa_offset 4
 652              		.cfi_offset 14, -4
 653 0002 89B0     		sub	sp, sp, #36
 654              	.LCFI13:
 655              		.cfi_def_cfa_offset 40
 265:Core/Src/adc.c **** 
 266:Core/Src/adc.c ****   /* USER CODE BEGIN ADC4_Init 0 */
 267:Core/Src/adc.c **** 
 268:Core/Src/adc.c ****   /* USER CODE END ADC4_Init 0 */
 269:Core/Src/adc.c **** 
 270:Core/Src/adc.c ****   ADC_ChannelConfTypeDef sConfig = {0};
 656              		.loc 1 270 3 view .LVU228
 657              		.loc 1 270 26 is_stmt 0 view .LVU229
 658 0004 2022     		movs	r2, #32
 659 0006 0021     		movs	r1, #0
 660 0008 6846     		mov	r0, sp
 661 000a FFF7FEFF 		bl	memset
 662              	.LVL29:
 271:Core/Src/adc.c **** 
 272:Core/Src/adc.c ****   /* USER CODE BEGIN ADC4_Init 1 */
 273:Core/Src/adc.c **** 
 274:Core/Src/adc.c ****   /* USER CODE END ADC4_Init 1 */
 275:Core/Src/adc.c **** 
 276:Core/Src/adc.c ****   /** Common config
 277:Core/Src/adc.c ****   */
 278:Core/Src/adc.c ****   hadc4.Instance = ADC4;
 663              		.loc 1 278 3 is_stmt 1 view .LVU230
 664              		.loc 1 278 18 is_stmt 0 view .LVU231
 665 000e 2248     		ldr	r0, .L47
 666 0010 224B     		ldr	r3, .L47+4
 667 0012 0360     		str	r3, [r0]
 279:Core/Src/adc.c ****   hadc4.Init.ClockPrescaler = ADC_CLOCK_ASYNC_DIV4;
 668              		.loc 1 279 3 is_stmt 1 view .LVU232
 669              		.loc 1 279 29 is_stmt 0 view .LVU233
 670 0014 4FF40023 		mov	r3, #524288
 671 0018 4360     		str	r3, [r0, #4]
 280:Core/Src/adc.c ****   hadc4.Init.Resolution = ADC_RESOLUTION_12B;
 672              		.loc 1 280 3 is_stmt 1 view .LVU234
 673              		.loc 1 280 25 is_stmt 0 view .LVU235
 674 001a 0023     		movs	r3, #0
 675 001c 8360     		str	r3, [r0, #8]
 281:Core/Src/adc.c ****   hadc4.Init.DataAlign = ADC_DATAALIGN_RIGHT;
 676              		.loc 1 281 3 is_stmt 1 view .LVU236
 677              		.loc 1 281 24 is_stmt 0 view .LVU237
 678 001e C360     		str	r3, [r0, #12]
 282:Core/Src/adc.c ****   hadc4.Init.GainCompensation = 0;
 679              		.loc 1 282 3 is_stmt 1 view .LVU238
 680              		.loc 1 282 31 is_stmt 0 view .LVU239
 681 0020 0361     		str	r3, [r0, #16]
ARM GAS  C:\Users\purdu\AppData\Local\Temp\cc3JAzG9.s 			page 18


 283:Core/Src/adc.c ****   hadc4.Init.ScanConvMode = ADC_SCAN_ENABLE;
 682              		.loc 1 283 3 is_stmt 1 view .LVU240
 683              		.loc 1 283 27 is_stmt 0 view .LVU241
 684 0022 0122     		movs	r2, #1
 685 0024 4261     		str	r2, [r0, #20]
 284:Core/Src/adc.c ****   hadc4.Init.EOCSelection = ADC_EOC_SINGLE_CONV;
 686              		.loc 1 284 3 is_stmt 1 view .LVU242
 687              		.loc 1 284 27 is_stmt 0 view .LVU243
 688 0026 0421     		movs	r1, #4
 689 0028 8161     		str	r1, [r0, #24]
 285:Core/Src/adc.c ****   hadc4.Init.LowPowerAutoWait = DISABLE;
 690              		.loc 1 285 3 is_stmt 1 view .LVU244
 691              		.loc 1 285 31 is_stmt 0 view .LVU245
 692 002a 0377     		strb	r3, [r0, #28]
 286:Core/Src/adc.c ****   hadc4.Init.ContinuousConvMode = ENABLE;
 693              		.loc 1 286 3 is_stmt 1 view .LVU246
 694              		.loc 1 286 33 is_stmt 0 view .LVU247
 695 002c 4277     		strb	r2, [r0, #29]
 287:Core/Src/adc.c ****   hadc4.Init.NbrOfConversion = 2;
 696              		.loc 1 287 3 is_stmt 1 view .LVU248
 697              		.loc 1 287 30 is_stmt 0 view .LVU249
 698 002e 0221     		movs	r1, #2
 699 0030 0162     		str	r1, [r0, #32]
 288:Core/Src/adc.c ****   hadc4.Init.DiscontinuousConvMode = DISABLE;
 700              		.loc 1 288 3 is_stmt 1 view .LVU250
 701              		.loc 1 288 36 is_stmt 0 view .LVU251
 702 0032 80F82430 		strb	r3, [r0, #36]
 289:Core/Src/adc.c ****   hadc4.Init.ExternalTrigConv = ADC_SOFTWARE_START;
 703              		.loc 1 289 3 is_stmt 1 view .LVU252
 704              		.loc 1 289 31 is_stmt 0 view .LVU253
 705 0036 C362     		str	r3, [r0, #44]
 290:Core/Src/adc.c ****   hadc4.Init.ExternalTrigConvEdge = ADC_EXTERNALTRIGCONVEDGE_NONE;
 706              		.loc 1 290 3 is_stmt 1 view .LVU254
 707              		.loc 1 290 35 is_stmt 0 view .LVU255
 708 0038 0363     		str	r3, [r0, #48]
 291:Core/Src/adc.c ****   hadc4.Init.DMAContinuousRequests = ENABLE;
 709              		.loc 1 291 3 is_stmt 1 view .LVU256
 710              		.loc 1 291 36 is_stmt 0 view .LVU257
 711 003a 80F83820 		strb	r2, [r0, #56]
 292:Core/Src/adc.c ****   hadc4.Init.Overrun = ADC_OVR_DATA_PRESERVED;
 712              		.loc 1 292 3 is_stmt 1 view .LVU258
 713              		.loc 1 292 22 is_stmt 0 view .LVU259
 714 003e C363     		str	r3, [r0, #60]
 293:Core/Src/adc.c ****   hadc4.Init.OversamplingMode = DISABLE;
 715              		.loc 1 293 3 is_stmt 1 view .LVU260
 716              		.loc 1 293 31 is_stmt 0 view .LVU261
 717 0040 80F84030 		strb	r3, [r0, #64]
 294:Core/Src/adc.c ****   if (HAL_ADC_Init(&hadc4) != HAL_OK)
 718              		.loc 1 294 3 is_stmt 1 view .LVU262
 719              		.loc 1 294 7 is_stmt 0 view .LVU263
 720 0044 FFF7FEFF 		bl	HAL_ADC_Init
 721              	.LVL30:
 722              		.loc 1 294 6 discriminator 1 view .LVU264
 723 0048 E0B9     		cbnz	r0, .L44
 724              	.L40:
 295:Core/Src/adc.c ****   {
 296:Core/Src/adc.c ****     Error_Handler();
ARM GAS  C:\Users\purdu\AppData\Local\Temp\cc3JAzG9.s 			page 19


 297:Core/Src/adc.c ****   }
 298:Core/Src/adc.c **** 
 299:Core/Src/adc.c ****   /** Configure Regular Channel
 300:Core/Src/adc.c ****   */
 301:Core/Src/adc.c ****   sConfig.Channel = ADC_CHANNEL_3;
 725              		.loc 1 301 3 is_stmt 1 view .LVU265
 726              		.loc 1 301 19 is_stmt 0 view .LVU266
 727 004a 154B     		ldr	r3, .L47+8
 728 004c 0093     		str	r3, [sp]
 302:Core/Src/adc.c ****   sConfig.Rank = ADC_REGULAR_RANK_1;
 729              		.loc 1 302 3 is_stmt 1 view .LVU267
 730              		.loc 1 302 16 is_stmt 0 view .LVU268
 731 004e 0623     		movs	r3, #6
 732 0050 0193     		str	r3, [sp, #4]
 303:Core/Src/adc.c ****   sConfig.SamplingTime = ADC_SAMPLETIME_12CYCLES_5;
 733              		.loc 1 303 3 is_stmt 1 view .LVU269
 734              		.loc 1 303 24 is_stmt 0 view .LVU270
 735 0052 0223     		movs	r3, #2
 736 0054 0293     		str	r3, [sp, #8]
 304:Core/Src/adc.c ****   sConfig.SingleDiff = ADC_SINGLE_ENDED;
 737              		.loc 1 304 3 is_stmt 1 view .LVU271
 738              		.loc 1 304 22 is_stmt 0 view .LVU272
 739 0056 7F23     		movs	r3, #127
 740 0058 0393     		str	r3, [sp, #12]
 305:Core/Src/adc.c ****   sConfig.OffsetNumber = ADC_OFFSET_NONE;
 741              		.loc 1 305 3 is_stmt 1 view .LVU273
 742              		.loc 1 305 24 is_stmt 0 view .LVU274
 743 005a 0423     		movs	r3, #4
 744 005c 0493     		str	r3, [sp, #16]
 306:Core/Src/adc.c ****   sConfig.Offset = 0;
 745              		.loc 1 306 3 is_stmt 1 view .LVU275
 746              		.loc 1 306 18 is_stmt 0 view .LVU276
 747 005e 0023     		movs	r3, #0
 748 0060 0593     		str	r3, [sp, #20]
 307:Core/Src/adc.c ****   if (HAL_ADC_ConfigChannel(&hadc4, &sConfig) != HAL_OK)
 749              		.loc 1 307 3 is_stmt 1 view .LVU277
 750              		.loc 1 307 7 is_stmt 0 view .LVU278
 751 0062 6946     		mov	r1, sp
 752 0064 0C48     		ldr	r0, .L47
 753 0066 FFF7FEFF 		bl	HAL_ADC_ConfigChannel
 754              	.LVL31:
 755              		.loc 1 307 6 discriminator 1 view .LVU279
 756 006a 70B9     		cbnz	r0, .L45
 757              	.L41:
 308:Core/Src/adc.c ****   {
 309:Core/Src/adc.c ****     Error_Handler();
 310:Core/Src/adc.c ****   }
 311:Core/Src/adc.c **** 
 312:Core/Src/adc.c ****   /** Configure Regular Channel
 313:Core/Src/adc.c ****   */
 314:Core/Src/adc.c ****   sConfig.Channel = ADC_CHANNEL_12;
 758              		.loc 1 314 3 is_stmt 1 view .LVU280
 759              		.loc 1 314 19 is_stmt 0 view .LVU281
 760 006c 0D4B     		ldr	r3, .L47+12
 761 006e 0093     		str	r3, [sp]
 315:Core/Src/adc.c ****   sConfig.Rank = ADC_REGULAR_RANK_2;
 762              		.loc 1 315 3 is_stmt 1 view .LVU282
ARM GAS  C:\Users\purdu\AppData\Local\Temp\cc3JAzG9.s 			page 20


 763              		.loc 1 315 16 is_stmt 0 view .LVU283
 764 0070 0C23     		movs	r3, #12
 765 0072 0193     		str	r3, [sp, #4]
 316:Core/Src/adc.c ****   if (HAL_ADC_ConfigChannel(&hadc4, &sConfig) != HAL_OK)
 766              		.loc 1 316 3 is_stmt 1 view .LVU284
 767              		.loc 1 316 7 is_stmt 0 view .LVU285
 768 0074 6946     		mov	r1, sp
 769 0076 0848     		ldr	r0, .L47
 770 0078 FFF7FEFF 		bl	HAL_ADC_ConfigChannel
 771              	.LVL32:
 772              		.loc 1 316 6 discriminator 1 view .LVU286
 773 007c 40B9     		cbnz	r0, .L46
 774              	.L39:
 317:Core/Src/adc.c ****   {
 318:Core/Src/adc.c ****     Error_Handler();
 319:Core/Src/adc.c ****   }
 320:Core/Src/adc.c ****   /* USER CODE BEGIN ADC4_Init 2 */
 321:Core/Src/adc.c **** 
 322:Core/Src/adc.c ****   /* USER CODE END ADC4_Init 2 */
 323:Core/Src/adc.c **** 
 324:Core/Src/adc.c **** }
 775              		.loc 1 324 1 view .LVU287
 776 007e 09B0     		add	sp, sp, #36
 777              	.LCFI14:
 778              		.cfi_remember_state
 779              		.cfi_def_cfa_offset 4
 780              		@ sp needed
 781 0080 5DF804FB 		ldr	pc, [sp], #4
 782              	.L44:
 783              	.LCFI15:
 784              		.cfi_restore_state
 296:Core/Src/adc.c ****   }
 785              		.loc 1 296 5 is_stmt 1 view .LVU288
 786 0084 FFF7FEFF 		bl	Error_Handler
 787              	.LVL33:
 788 0088 DFE7     		b	.L40
 789              	.L45:
 309:Core/Src/adc.c ****   }
 790              		.loc 1 309 5 view .LVU289
 791 008a FFF7FEFF 		bl	Error_Handler
 792              	.LVL34:
 793 008e EDE7     		b	.L41
 794              	.L46:
 318:Core/Src/adc.c ****   }
 795              		.loc 1 318 5 view .LVU290
 796 0090 FFF7FEFF 		bl	Error_Handler
 797              	.LVL35:
 798              		.loc 1 324 1 is_stmt 0 view .LVU291
 799 0094 F3E7     		b	.L39
 800              	.L48:
 801 0096 00BF     		.align	2
 802              	.L47:
 803 0098 00000000 		.word	hadc4
 804 009c 00050050 		.word	1342178560
 805 00a0 0800900C 		.word	210763784
 806 00a4 00106032 		.word	845156352
 807              		.cfi_endproc
ARM GAS  C:\Users\purdu\AppData\Local\Temp\cc3JAzG9.s 			page 21


 808              	.LFE332:
 810              		.section	.text.MX_ADC5_Init,"ax",%progbits
 811              		.align	1
 812              		.global	MX_ADC5_Init
 813              		.syntax unified
 814              		.thumb
 815              		.thumb_func
 817              	MX_ADC5_Init:
 818              	.LFB333:
 325:Core/Src/adc.c **** /* ADC5 init function */
 326:Core/Src/adc.c **** void MX_ADC5_Init(void)
 327:Core/Src/adc.c **** {
 819              		.loc 1 327 1 is_stmt 1 view -0
 820              		.cfi_startproc
 821              		@ args = 0, pretend = 0, frame = 32
 822              		@ frame_needed = 0, uses_anonymous_args = 0
 823 0000 00B5     		push	{lr}
 824              	.LCFI16:
 825              		.cfi_def_cfa_offset 4
 826              		.cfi_offset 14, -4
 827 0002 89B0     		sub	sp, sp, #36
 828              	.LCFI17:
 829              		.cfi_def_cfa_offset 40
 328:Core/Src/adc.c **** 
 329:Core/Src/adc.c ****   /* USER CODE BEGIN ADC5_Init 0 */
 330:Core/Src/adc.c **** 
 331:Core/Src/adc.c ****   /* USER CODE END ADC5_Init 0 */
 332:Core/Src/adc.c **** 
 333:Core/Src/adc.c ****   ADC_ChannelConfTypeDef sConfig = {0};
 830              		.loc 1 333 3 view .LVU293
 831              		.loc 1 333 26 is_stmt 0 view .LVU294
 832 0004 2022     		movs	r2, #32
 833 0006 0021     		movs	r1, #0
 834 0008 6846     		mov	r0, sp
 835 000a FFF7FEFF 		bl	memset
 836              	.LVL36:
 334:Core/Src/adc.c **** 
 335:Core/Src/adc.c ****   /* USER CODE BEGIN ADC5_Init 1 */
 336:Core/Src/adc.c **** 
 337:Core/Src/adc.c ****   /* USER CODE END ADC5_Init 1 */
 338:Core/Src/adc.c **** 
 339:Core/Src/adc.c ****   /** Common config
 340:Core/Src/adc.c ****   */
 341:Core/Src/adc.c ****   hadc5.Instance = ADC5;
 837              		.loc 1 341 3 is_stmt 1 view .LVU295
 838              		.loc 1 341 18 is_stmt 0 view .LVU296
 839 000e 1B48     		ldr	r0, .L55
 840 0010 1B4B     		ldr	r3, .L55+4
 841 0012 0360     		str	r3, [r0]
 342:Core/Src/adc.c ****   hadc5.Init.ClockPrescaler = ADC_CLOCK_ASYNC_DIV4;
 842              		.loc 1 342 3 is_stmt 1 view .LVU297
 843              		.loc 1 342 29 is_stmt 0 view .LVU298
 844 0014 4FF40023 		mov	r3, #524288
 845 0018 4360     		str	r3, [r0, #4]
 343:Core/Src/adc.c ****   hadc5.Init.Resolution = ADC_RESOLUTION_12B;
 846              		.loc 1 343 3 is_stmt 1 view .LVU299
 847              		.loc 1 343 25 is_stmt 0 view .LVU300
ARM GAS  C:\Users\purdu\AppData\Local\Temp\cc3JAzG9.s 			page 22


 848 001a 0023     		movs	r3, #0
 849 001c 8360     		str	r3, [r0, #8]
 344:Core/Src/adc.c ****   hadc5.Init.DataAlign = ADC_DATAALIGN_RIGHT;
 850              		.loc 1 344 3 is_stmt 1 view .LVU301
 851              		.loc 1 344 24 is_stmt 0 view .LVU302
 852 001e C360     		str	r3, [r0, #12]
 345:Core/Src/adc.c ****   hadc5.Init.GainCompensation = 0;
 853              		.loc 1 345 3 is_stmt 1 view .LVU303
 854              		.loc 1 345 31 is_stmt 0 view .LVU304
 855 0020 0361     		str	r3, [r0, #16]
 346:Core/Src/adc.c ****   hadc5.Init.ScanConvMode = ADC_SCAN_DISABLE;
 856              		.loc 1 346 3 is_stmt 1 view .LVU305
 857              		.loc 1 346 27 is_stmt 0 view .LVU306
 858 0022 4361     		str	r3, [r0, #20]
 347:Core/Src/adc.c ****   hadc5.Init.EOCSelection = ADC_EOC_SINGLE_CONV;
 859              		.loc 1 347 3 is_stmt 1 view .LVU307
 860              		.loc 1 347 27 is_stmt 0 view .LVU308
 861 0024 0422     		movs	r2, #4
 862 0026 8261     		str	r2, [r0, #24]
 348:Core/Src/adc.c ****   hadc5.Init.LowPowerAutoWait = DISABLE;
 863              		.loc 1 348 3 is_stmt 1 view .LVU309
 864              		.loc 1 348 31 is_stmt 0 view .LVU310
 865 0028 0377     		strb	r3, [r0, #28]
 349:Core/Src/adc.c ****   hadc5.Init.ContinuousConvMode = DISABLE;
 866              		.loc 1 349 3 is_stmt 1 view .LVU311
 867              		.loc 1 349 33 is_stmt 0 view .LVU312
 868 002a 4377     		strb	r3, [r0, #29]
 350:Core/Src/adc.c ****   hadc5.Init.NbrOfConversion = 1;
 869              		.loc 1 350 3 is_stmt 1 view .LVU313
 870              		.loc 1 350 30 is_stmt 0 view .LVU314
 871 002c 0122     		movs	r2, #1
 872 002e 0262     		str	r2, [r0, #32]
 351:Core/Src/adc.c ****   hadc5.Init.DiscontinuousConvMode = DISABLE;
 873              		.loc 1 351 3 is_stmt 1 view .LVU315
 874              		.loc 1 351 36 is_stmt 0 view .LVU316
 875 0030 80F82430 		strb	r3, [r0, #36]
 352:Core/Src/adc.c ****   hadc5.Init.ExternalTrigConv = ADC_SOFTWARE_START;
 876              		.loc 1 352 3 is_stmt 1 view .LVU317
 877              		.loc 1 352 31 is_stmt 0 view .LVU318
 878 0034 C362     		str	r3, [r0, #44]
 353:Core/Src/adc.c ****   hadc5.Init.ExternalTrigConvEdge = ADC_EXTERNALTRIGCONVEDGE_NONE;
 879              		.loc 1 353 3 is_stmt 1 view .LVU319
 880              		.loc 1 353 35 is_stmt 0 view .LVU320
 881 0036 0363     		str	r3, [r0, #48]
 354:Core/Src/adc.c ****   hadc5.Init.DMAContinuousRequests = DISABLE;
 882              		.loc 1 354 3 is_stmt 1 view .LVU321
 883              		.loc 1 354 36 is_stmt 0 view .LVU322
 884 0038 80F83830 		strb	r3, [r0, #56]
 355:Core/Src/adc.c ****   hadc5.Init.Overrun = ADC_OVR_DATA_PRESERVED;
 885              		.loc 1 355 3 is_stmt 1 view .LVU323
 886              		.loc 1 355 22 is_stmt 0 view .LVU324
 887 003c C363     		str	r3, [r0, #60]
 356:Core/Src/adc.c ****   hadc5.Init.OversamplingMode = DISABLE;
 888              		.loc 1 356 3 is_stmt 1 view .LVU325
 889              		.loc 1 356 31 is_stmt 0 view .LVU326
 890 003e 80F84030 		strb	r3, [r0, #64]
 357:Core/Src/adc.c ****   if (HAL_ADC_Init(&hadc5) != HAL_OK)
ARM GAS  C:\Users\purdu\AppData\Local\Temp\cc3JAzG9.s 			page 23


 891              		.loc 1 357 3 is_stmt 1 view .LVU327
 892              		.loc 1 357 7 is_stmt 0 view .LVU328
 893 0042 FFF7FEFF 		bl	HAL_ADC_Init
 894              	.LVL37:
 895              		.loc 1 357 6 discriminator 1 view .LVU329
 896 0046 98B9     		cbnz	r0, .L53
 897              	.L50:
 358:Core/Src/adc.c ****   {
 359:Core/Src/adc.c ****     Error_Handler();
 360:Core/Src/adc.c ****   }
 361:Core/Src/adc.c **** 
 362:Core/Src/adc.c ****   /** Configure Regular Channel
 363:Core/Src/adc.c ****   */
 364:Core/Src/adc.c ****   sConfig.Channel = ADC_CHANNEL_1;
 898              		.loc 1 364 3 is_stmt 1 view .LVU330
 899              		.loc 1 364 19 is_stmt 0 view .LVU331
 900 0048 0E4B     		ldr	r3, .L55+8
 901 004a 0093     		str	r3, [sp]
 365:Core/Src/adc.c ****   sConfig.Rank = ADC_REGULAR_RANK_1;
 902              		.loc 1 365 3 is_stmt 1 view .LVU332
 903              		.loc 1 365 16 is_stmt 0 view .LVU333
 904 004c 0623     		movs	r3, #6
 905 004e 0193     		str	r3, [sp, #4]
 366:Core/Src/adc.c ****   sConfig.SamplingTime = ADC_SAMPLETIME_12CYCLES_5;
 906              		.loc 1 366 3 is_stmt 1 view .LVU334
 907              		.loc 1 366 24 is_stmt 0 view .LVU335
 908 0050 0223     		movs	r3, #2
 909 0052 0293     		str	r3, [sp, #8]
 367:Core/Src/adc.c ****   sConfig.SingleDiff = ADC_SINGLE_ENDED;
 910              		.loc 1 367 3 is_stmt 1 view .LVU336
 911              		.loc 1 367 22 is_stmt 0 view .LVU337
 912 0054 7F23     		movs	r3, #127
 913 0056 0393     		str	r3, [sp, #12]
 368:Core/Src/adc.c ****   sConfig.OffsetNumber = ADC_OFFSET_NONE;
 914              		.loc 1 368 3 is_stmt 1 view .LVU338
 915              		.loc 1 368 24 is_stmt 0 view .LVU339
 916 0058 0423     		movs	r3, #4
 917 005a 0493     		str	r3, [sp, #16]
 369:Core/Src/adc.c ****   sConfig.Offset = 0;
 918              		.loc 1 369 3 is_stmt 1 view .LVU340
 919              		.loc 1 369 18 is_stmt 0 view .LVU341
 920 005c 0023     		movs	r3, #0
 921 005e 0593     		str	r3, [sp, #20]
 370:Core/Src/adc.c ****   if (HAL_ADC_ConfigChannel(&hadc5, &sConfig) != HAL_OK)
 922              		.loc 1 370 3 is_stmt 1 view .LVU342
 923              		.loc 1 370 7 is_stmt 0 view .LVU343
 924 0060 6946     		mov	r1, sp
 925 0062 0648     		ldr	r0, .L55
 926 0064 FFF7FEFF 		bl	HAL_ADC_ConfigChannel
 927              	.LVL38:
 928              		.loc 1 370 6 discriminator 1 view .LVU344
 929 0068 28B9     		cbnz	r0, .L54
 930              	.L49:
 371:Core/Src/adc.c ****   {
 372:Core/Src/adc.c ****     Error_Handler();
 373:Core/Src/adc.c ****   }
 374:Core/Src/adc.c ****   /* USER CODE BEGIN ADC5_Init 2 */
ARM GAS  C:\Users\purdu\AppData\Local\Temp\cc3JAzG9.s 			page 24


 375:Core/Src/adc.c **** 
 376:Core/Src/adc.c ****   /* USER CODE END ADC5_Init 2 */
 377:Core/Src/adc.c **** 
 378:Core/Src/adc.c **** }
 931              		.loc 1 378 1 view .LVU345
 932 006a 09B0     		add	sp, sp, #36
 933              	.LCFI18:
 934              		.cfi_remember_state
 935              		.cfi_def_cfa_offset 4
 936              		@ sp needed
 937 006c 5DF804FB 		ldr	pc, [sp], #4
 938              	.L53:
 939              	.LCFI19:
 940              		.cfi_restore_state
 359:Core/Src/adc.c ****   }
 941              		.loc 1 359 5 is_stmt 1 view .LVU346
 942 0070 FFF7FEFF 		bl	Error_Handler
 943              	.LVL39:
 944 0074 E8E7     		b	.L50
 945              	.L54:
 372:Core/Src/adc.c ****   }
 946              		.loc 1 372 5 view .LVU347
 947 0076 FFF7FEFF 		bl	Error_Handler
 948              	.LVL40:
 949              		.loc 1 378 1 is_stmt 0 view .LVU348
 950 007a F6E7     		b	.L49
 951              	.L56:
 952              		.align	2
 953              	.L55:
 954 007c 00000000 		.word	hadc5
 955 0080 00060050 		.word	1342178816
 956 0084 02003004 		.word	70254594
 957              		.cfi_endproc
 958              	.LFE333:
 960              		.section	.text.HAL_ADC_MspInit,"ax",%progbits
 961              		.align	1
 962              		.global	HAL_ADC_MspInit
 963              		.syntax unified
 964              		.thumb
 965              		.thumb_func
 967              	HAL_ADC_MspInit:
 968              	.LVL41:
 969              	.LFB334:
 379:Core/Src/adc.c **** 
 380:Core/Src/adc.c **** static uint32_t HAL_RCC_ADC12_CLK_ENABLED=0;
 381:Core/Src/adc.c **** static uint32_t HAL_RCC_ADC345_CLK_ENABLED=0;
 382:Core/Src/adc.c **** 
 383:Core/Src/adc.c **** void HAL_ADC_MspInit(ADC_HandleTypeDef* adcHandle)
 384:Core/Src/adc.c **** {
 970              		.loc 1 384 1 is_stmt 1 view -0
 971              		.cfi_startproc
 972              		@ args = 0, pretend = 0, frame = 160
 973              		@ frame_needed = 0, uses_anonymous_args = 0
 974              		.loc 1 384 1 is_stmt 0 view .LVU350
 975 0000 F0B5     		push	{r4, r5, r6, r7, lr}
 976              	.LCFI20:
 977              		.cfi_def_cfa_offset 20
ARM GAS  C:\Users\purdu\AppData\Local\Temp\cc3JAzG9.s 			page 25


 978              		.cfi_offset 4, -20
 979              		.cfi_offset 5, -16
 980              		.cfi_offset 6, -12
 981              		.cfi_offset 7, -8
 982              		.cfi_offset 14, -4
 983 0002 A9B0     		sub	sp, sp, #164
 984              	.LCFI21:
 985              		.cfi_def_cfa_offset 184
 986 0004 0446     		mov	r4, r0
 385:Core/Src/adc.c **** 
 386:Core/Src/adc.c ****   GPIO_InitTypeDef GPIO_InitStruct = {0};
 987              		.loc 1 386 3 is_stmt 1 view .LVU351
 988              		.loc 1 386 20 is_stmt 0 view .LVU352
 989 0006 0021     		movs	r1, #0
 990 0008 2391     		str	r1, [sp, #140]
 991 000a 2491     		str	r1, [sp, #144]
 992 000c 2591     		str	r1, [sp, #148]
 993 000e 2691     		str	r1, [sp, #152]
 994 0010 2791     		str	r1, [sp, #156]
 387:Core/Src/adc.c ****   RCC_PeriphCLKInitTypeDef PeriphClkInit = {0};
 995              		.loc 1 387 3 is_stmt 1 view .LVU353
 996              		.loc 1 387 28 is_stmt 0 view .LVU354
 997 0012 5422     		movs	r2, #84
 998 0014 0EA8     		add	r0, sp, #56
 999              	.LVL42:
 1000              		.loc 1 387 28 view .LVU355
 1001 0016 FFF7FEFF 		bl	memset
 1002              	.LVL43:
 388:Core/Src/adc.c ****   if(adcHandle->Instance==ADC1)
 1003              		.loc 1 388 3 is_stmt 1 view .LVU356
 1004              		.loc 1 388 15 is_stmt 0 view .LVU357
 1005 001a 2368     		ldr	r3, [r4]
 1006              		.loc 1 388 5 view .LVU358
 1007 001c B3F1A04F 		cmp	r3, #1342177280
 1008 0020 10D0     		beq	.L78
 389:Core/Src/adc.c ****   {
 390:Core/Src/adc.c ****   /* USER CODE BEGIN ADC1_MspInit 0 */
 391:Core/Src/adc.c **** 
 392:Core/Src/adc.c ****   /* USER CODE END ADC1_MspInit 0 */
 393:Core/Src/adc.c **** 
 394:Core/Src/adc.c ****   /** Initializes the peripherals clocks
 395:Core/Src/adc.c ****   */
 396:Core/Src/adc.c ****     PeriphClkInit.PeriphClockSelection = RCC_PERIPHCLK_ADC12;
 397:Core/Src/adc.c ****     PeriphClkInit.Adc12ClockSelection = RCC_ADC12CLKSOURCE_SYSCLK;
 398:Core/Src/adc.c ****     if (HAL_RCCEx_PeriphCLKConfig(&PeriphClkInit) != HAL_OK)
 399:Core/Src/adc.c ****     {
 400:Core/Src/adc.c ****       Error_Handler();
 401:Core/Src/adc.c ****     }
 402:Core/Src/adc.c **** 
 403:Core/Src/adc.c ****     /* ADC1 clock enable */
 404:Core/Src/adc.c ****     HAL_RCC_ADC12_CLK_ENABLED++;
 405:Core/Src/adc.c ****     if(HAL_RCC_ADC12_CLK_ENABLED==1){
 406:Core/Src/adc.c ****       __HAL_RCC_ADC12_CLK_ENABLE();
 407:Core/Src/adc.c ****     }
 408:Core/Src/adc.c **** 
 409:Core/Src/adc.c ****     __HAL_RCC_GPIOA_CLK_ENABLE();
 410:Core/Src/adc.c ****     /**ADC1 GPIO Configuration
ARM GAS  C:\Users\purdu\AppData\Local\Temp\cc3JAzG9.s 			page 26


 411:Core/Src/adc.c ****     PA0     ------> ADC1_IN1
 412:Core/Src/adc.c ****     PA1     ------> ADC1_IN2
 413:Core/Src/adc.c ****     */
 414:Core/Src/adc.c ****     GPIO_InitStruct.Pin = GPIO_PIN_0|GPIO_PIN_1;
 415:Core/Src/adc.c ****     GPIO_InitStruct.Mode = GPIO_MODE_ANALOG;
 416:Core/Src/adc.c ****     GPIO_InitStruct.Pull = GPIO_NOPULL;
 417:Core/Src/adc.c ****     HAL_GPIO_Init(GPIOA, &GPIO_InitStruct);
 418:Core/Src/adc.c **** 
 419:Core/Src/adc.c ****     /* ADC1 DMA Init */
 420:Core/Src/adc.c ****     /* ADC1 Init */
 421:Core/Src/adc.c ****     hdma_adc1.Instance = DMA2_Channel1;
 422:Core/Src/adc.c ****     hdma_adc1.Init.Request = DMA_REQUEST_ADC1;
 423:Core/Src/adc.c ****     hdma_adc1.Init.Direction = DMA_PERIPH_TO_MEMORY;
 424:Core/Src/adc.c ****     hdma_adc1.Init.PeriphInc = DMA_PINC_DISABLE;
 425:Core/Src/adc.c ****     hdma_adc1.Init.MemInc = DMA_MINC_ENABLE;
 426:Core/Src/adc.c ****     hdma_adc1.Init.PeriphDataAlignment = DMA_PDATAALIGN_HALFWORD;
 427:Core/Src/adc.c ****     hdma_adc1.Init.MemDataAlignment = DMA_MDATAALIGN_HALFWORD;
 428:Core/Src/adc.c ****     hdma_adc1.Init.Mode = DMA_CIRCULAR;
 429:Core/Src/adc.c ****     hdma_adc1.Init.Priority = DMA_PRIORITY_LOW;
 430:Core/Src/adc.c ****     if (HAL_DMA_Init(&hdma_adc1) != HAL_OK)
 431:Core/Src/adc.c ****     {
 432:Core/Src/adc.c ****       Error_Handler();
 433:Core/Src/adc.c ****     }
 434:Core/Src/adc.c **** 
 435:Core/Src/adc.c ****     __HAL_LINKDMA(adcHandle,DMA_Handle,hdma_adc1);
 436:Core/Src/adc.c **** 
 437:Core/Src/adc.c ****   /* USER CODE BEGIN ADC1_MspInit 1 */
 438:Core/Src/adc.c **** 
 439:Core/Src/adc.c ****   /* USER CODE END ADC1_MspInit 1 */
 440:Core/Src/adc.c ****   }
 441:Core/Src/adc.c ****   else if(adcHandle->Instance==ADC2)
 1009              		.loc 1 441 8 is_stmt 1 view .LVU359
 1010              		.loc 1 441 10 is_stmt 0 view .LVU360
 1011 0022 904A     		ldr	r2, .L97
 1012 0024 9342     		cmp	r3, r2
 1013 0026 5CD0     		beq	.L79
 442:Core/Src/adc.c ****   {
 443:Core/Src/adc.c ****   /* USER CODE BEGIN ADC2_MspInit 0 */
 444:Core/Src/adc.c **** 
 445:Core/Src/adc.c ****   /* USER CODE END ADC2_MspInit 0 */
 446:Core/Src/adc.c **** 
 447:Core/Src/adc.c ****   /** Initializes the peripherals clocks
 448:Core/Src/adc.c ****   */
 449:Core/Src/adc.c ****     PeriphClkInit.PeriphClockSelection = RCC_PERIPHCLK_ADC12;
 450:Core/Src/adc.c ****     PeriphClkInit.Adc12ClockSelection = RCC_ADC12CLKSOURCE_SYSCLK;
 451:Core/Src/adc.c ****     if (HAL_RCCEx_PeriphCLKConfig(&PeriphClkInit) != HAL_OK)
 452:Core/Src/adc.c ****     {
 453:Core/Src/adc.c ****       Error_Handler();
 454:Core/Src/adc.c ****     }
 455:Core/Src/adc.c **** 
 456:Core/Src/adc.c ****     /* ADC2 clock enable */
 457:Core/Src/adc.c ****     HAL_RCC_ADC12_CLK_ENABLED++;
 458:Core/Src/adc.c ****     if(HAL_RCC_ADC12_CLK_ENABLED==1){
 459:Core/Src/adc.c ****       __HAL_RCC_ADC12_CLK_ENABLE();
 460:Core/Src/adc.c ****     }
 461:Core/Src/adc.c **** 
 462:Core/Src/adc.c ****     __HAL_RCC_GPIOA_CLK_ENABLE();
ARM GAS  C:\Users\purdu\AppData\Local\Temp\cc3JAzG9.s 			page 27


 463:Core/Src/adc.c ****     __HAL_RCC_GPIOC_CLK_ENABLE();
 464:Core/Src/adc.c ****     __HAL_RCC_GPIOB_CLK_ENABLE();
 465:Core/Src/adc.c ****     /**ADC2 GPIO Configuration
 466:Core/Src/adc.c ****     PA5     ------> ADC2_IN13
 467:Core/Src/adc.c ****     PC5     ------> ADC2_IN11
 468:Core/Src/adc.c ****     PB2     ------> ADC2_IN12
 469:Core/Src/adc.c ****     */
 470:Core/Src/adc.c ****     GPIO_InitStruct.Pin = GPIO_PIN_5;
 471:Core/Src/adc.c ****     GPIO_InitStruct.Mode = GPIO_MODE_ANALOG;
 472:Core/Src/adc.c ****     GPIO_InitStruct.Pull = GPIO_NOPULL;
 473:Core/Src/adc.c ****     HAL_GPIO_Init(GPIOA, &GPIO_InitStruct);
 474:Core/Src/adc.c **** 
 475:Core/Src/adc.c ****     GPIO_InitStruct.Pin = GPIO_PIN_5;
 476:Core/Src/adc.c ****     GPIO_InitStruct.Mode = GPIO_MODE_ANALOG;
 477:Core/Src/adc.c ****     GPIO_InitStruct.Pull = GPIO_NOPULL;
 478:Core/Src/adc.c ****     HAL_GPIO_Init(GPIOC, &GPIO_InitStruct);
 479:Core/Src/adc.c **** 
 480:Core/Src/adc.c ****     GPIO_InitStruct.Pin = GPIO_PIN_2;
 481:Core/Src/adc.c ****     GPIO_InitStruct.Mode = GPIO_MODE_ANALOG;
 482:Core/Src/adc.c ****     GPIO_InitStruct.Pull = GPIO_NOPULL;
 483:Core/Src/adc.c ****     HAL_GPIO_Init(GPIOB, &GPIO_InitStruct);
 484:Core/Src/adc.c **** 
 485:Core/Src/adc.c ****     /* ADC2 DMA Init */
 486:Core/Src/adc.c ****     /* ADC2 Init */
 487:Core/Src/adc.c ****     hdma_adc2.Instance = DMA1_Channel1;
 488:Core/Src/adc.c ****     hdma_adc2.Init.Request = DMA_REQUEST_ADC2;
 489:Core/Src/adc.c ****     hdma_adc2.Init.Direction = DMA_PERIPH_TO_MEMORY;
 490:Core/Src/adc.c ****     hdma_adc2.Init.PeriphInc = DMA_PINC_DISABLE;
 491:Core/Src/adc.c ****     hdma_adc2.Init.MemInc = DMA_MINC_ENABLE;
 492:Core/Src/adc.c ****     hdma_adc2.Init.PeriphDataAlignment = DMA_PDATAALIGN_HALFWORD;
 493:Core/Src/adc.c ****     hdma_adc2.Init.MemDataAlignment = DMA_MDATAALIGN_HALFWORD;
 494:Core/Src/adc.c ****     hdma_adc2.Init.Mode = DMA_CIRCULAR;
 495:Core/Src/adc.c ****     hdma_adc2.Init.Priority = DMA_PRIORITY_LOW;
 496:Core/Src/adc.c ****     if (HAL_DMA_Init(&hdma_adc2) != HAL_OK)
 497:Core/Src/adc.c ****     {
 498:Core/Src/adc.c ****       Error_Handler();
 499:Core/Src/adc.c ****     }
 500:Core/Src/adc.c **** 
 501:Core/Src/adc.c ****     __HAL_LINKDMA(adcHandle,DMA_Handle,hdma_adc2);
 502:Core/Src/adc.c **** 
 503:Core/Src/adc.c ****   /* USER CODE BEGIN ADC2_MspInit 1 */
 504:Core/Src/adc.c **** 
 505:Core/Src/adc.c ****   /* USER CODE END ADC2_MspInit 1 */
 506:Core/Src/adc.c ****   }
 507:Core/Src/adc.c ****   else if(adcHandle->Instance==ADC3)
 1014              		.loc 1 507 8 is_stmt 1 view .LVU361
 1015              		.loc 1 507 10 is_stmt 0 view .LVU362
 1016 0028 8F4A     		ldr	r2, .L97+4
 1017 002a 9342     		cmp	r3, r2
 1018 002c 00F0C980 		beq	.L80
 508:Core/Src/adc.c ****   {
 509:Core/Src/adc.c ****   /* USER CODE BEGIN ADC3_MspInit 0 */
 510:Core/Src/adc.c **** 
 511:Core/Src/adc.c ****   /* USER CODE END ADC3_MspInit 0 */
 512:Core/Src/adc.c **** 
 513:Core/Src/adc.c ****   /** Initializes the peripherals clocks
 514:Core/Src/adc.c ****   */
ARM GAS  C:\Users\purdu\AppData\Local\Temp\cc3JAzG9.s 			page 28


 515:Core/Src/adc.c ****     PeriphClkInit.PeriphClockSelection = RCC_PERIPHCLK_ADC345;
 516:Core/Src/adc.c ****     PeriphClkInit.Adc345ClockSelection = RCC_ADC345CLKSOURCE_SYSCLK;
 517:Core/Src/adc.c ****     if (HAL_RCCEx_PeriphCLKConfig(&PeriphClkInit) != HAL_OK)
 518:Core/Src/adc.c ****     {
 519:Core/Src/adc.c ****       Error_Handler();
 520:Core/Src/adc.c ****     }
 521:Core/Src/adc.c **** 
 522:Core/Src/adc.c ****     /* ADC3 clock enable */
 523:Core/Src/adc.c ****     HAL_RCC_ADC345_CLK_ENABLED++;
 524:Core/Src/adc.c ****     if(HAL_RCC_ADC345_CLK_ENABLED==1){
 525:Core/Src/adc.c ****       __HAL_RCC_ADC345_CLK_ENABLE();
 526:Core/Src/adc.c ****     }
 527:Core/Src/adc.c **** 
 528:Core/Src/adc.c ****     __HAL_RCC_GPIOE_CLK_ENABLE();
 529:Core/Src/adc.c ****     /**ADC3 GPIO Configuration
 530:Core/Src/adc.c ****     PE7     ------> ADC3_IN4
 531:Core/Src/adc.c ****     PE8     ------> ADC3_IN6
 532:Core/Src/adc.c ****     PE9     ------> ADC3_IN2
 533:Core/Src/adc.c ****     */
 534:Core/Src/adc.c ****     GPIO_InitStruct.Pin = GPIO_PIN_7|GPIO_PIN_8|GPIO_PIN_9;
 535:Core/Src/adc.c ****     GPIO_InitStruct.Mode = GPIO_MODE_ANALOG;
 536:Core/Src/adc.c ****     GPIO_InitStruct.Pull = GPIO_NOPULL;
 537:Core/Src/adc.c ****     HAL_GPIO_Init(GPIOE, &GPIO_InitStruct);
 538:Core/Src/adc.c **** 
 539:Core/Src/adc.c ****     /* ADC3 DMA Init */
 540:Core/Src/adc.c ****     /* ADC3 Init */
 541:Core/Src/adc.c ****     hdma_adc3.Instance = DMA1_Channel2;
 542:Core/Src/adc.c ****     hdma_adc3.Init.Request = DMA_REQUEST_ADC3;
 543:Core/Src/adc.c ****     hdma_adc3.Init.Direction = DMA_PERIPH_TO_MEMORY;
 544:Core/Src/adc.c ****     hdma_adc3.Init.PeriphInc = DMA_PINC_DISABLE;
 545:Core/Src/adc.c ****     hdma_adc3.Init.MemInc = DMA_MINC_ENABLE;
 546:Core/Src/adc.c ****     hdma_adc3.Init.PeriphDataAlignment = DMA_PDATAALIGN_HALFWORD;
 547:Core/Src/adc.c ****     hdma_adc3.Init.MemDataAlignment = DMA_MDATAALIGN_HALFWORD;
 548:Core/Src/adc.c ****     hdma_adc3.Init.Mode = DMA_CIRCULAR;
 549:Core/Src/adc.c ****     hdma_adc3.Init.Priority = DMA_PRIORITY_LOW;
 550:Core/Src/adc.c ****     if (HAL_DMA_Init(&hdma_adc3) != HAL_OK)
 551:Core/Src/adc.c ****     {
 552:Core/Src/adc.c ****       Error_Handler();
 553:Core/Src/adc.c ****     }
 554:Core/Src/adc.c **** 
 555:Core/Src/adc.c ****     __HAL_LINKDMA(adcHandle,DMA_Handle,hdma_adc3);
 556:Core/Src/adc.c **** 
 557:Core/Src/adc.c ****   /* USER CODE BEGIN ADC3_MspInit 1 */
 558:Core/Src/adc.c **** 
 559:Core/Src/adc.c ****   /* USER CODE END ADC3_MspInit 1 */
 560:Core/Src/adc.c ****   }
 561:Core/Src/adc.c ****   else if(adcHandle->Instance==ADC4)
 1019              		.loc 1 561 8 is_stmt 1 view .LVU363
 1020              		.loc 1 561 10 is_stmt 0 view .LVU364
 1021 0030 8E4A     		ldr	r2, .L97+8
 1022 0032 9342     		cmp	r3, r2
 1023 0034 00F03681 		beq	.L81
 562:Core/Src/adc.c ****   {
 563:Core/Src/adc.c ****   /* USER CODE BEGIN ADC4_MspInit 0 */
 564:Core/Src/adc.c **** 
 565:Core/Src/adc.c ****   /* USER CODE END ADC4_MspInit 0 */
 566:Core/Src/adc.c **** 
ARM GAS  C:\Users\purdu\AppData\Local\Temp\cc3JAzG9.s 			page 29


 567:Core/Src/adc.c ****   /** Initializes the peripherals clocks
 568:Core/Src/adc.c ****   */
 569:Core/Src/adc.c ****     PeriphClkInit.PeriphClockSelection = RCC_PERIPHCLK_ADC345;
 570:Core/Src/adc.c ****     PeriphClkInit.Adc345ClockSelection = RCC_ADC345CLKSOURCE_SYSCLK;
 571:Core/Src/adc.c ****     if (HAL_RCCEx_PeriphCLKConfig(&PeriphClkInit) != HAL_OK)
 572:Core/Src/adc.c ****     {
 573:Core/Src/adc.c ****       Error_Handler();
 574:Core/Src/adc.c ****     }
 575:Core/Src/adc.c **** 
 576:Core/Src/adc.c ****     /* ADC4 clock enable */
 577:Core/Src/adc.c ****     HAL_RCC_ADC345_CLK_ENABLED++;
 578:Core/Src/adc.c ****     if(HAL_RCC_ADC345_CLK_ENABLED==1){
 579:Core/Src/adc.c ****       __HAL_RCC_ADC345_CLK_ENABLE();
 580:Core/Src/adc.c ****     }
 581:Core/Src/adc.c **** 
 582:Core/Src/adc.c ****     __HAL_RCC_GPIOB_CLK_ENABLE();
 583:Core/Src/adc.c ****     __HAL_RCC_GPIOD_CLK_ENABLE();
 584:Core/Src/adc.c ****     /**ADC4 GPIO Configuration
 585:Core/Src/adc.c ****     PB12     ------> ADC4_IN3
 586:Core/Src/adc.c ****     PD8     ------> ADC4_IN12
 587:Core/Src/adc.c ****     */
 588:Core/Src/adc.c ****     GPIO_InitStruct.Pin = GPIO_PIN_12;
 589:Core/Src/adc.c ****     GPIO_InitStruct.Mode = GPIO_MODE_ANALOG;
 590:Core/Src/adc.c ****     GPIO_InitStruct.Pull = GPIO_NOPULL;
 591:Core/Src/adc.c ****     HAL_GPIO_Init(GPIOB, &GPIO_InitStruct);
 592:Core/Src/adc.c **** 
 593:Core/Src/adc.c ****     GPIO_InitStruct.Pin = GPIO_PIN_8;
 594:Core/Src/adc.c ****     GPIO_InitStruct.Mode = GPIO_MODE_ANALOG;
 595:Core/Src/adc.c ****     GPIO_InitStruct.Pull = GPIO_NOPULL;
 596:Core/Src/adc.c ****     HAL_GPIO_Init(GPIOD, &GPIO_InitStruct);
 597:Core/Src/adc.c **** 
 598:Core/Src/adc.c ****     /* ADC4 DMA Init */
 599:Core/Src/adc.c ****     /* ADC4 Init */
 600:Core/Src/adc.c ****     hdma_adc4.Instance = DMA1_Channel3;
 601:Core/Src/adc.c ****     hdma_adc4.Init.Request = DMA_REQUEST_ADC4;
 602:Core/Src/adc.c ****     hdma_adc4.Init.Direction = DMA_PERIPH_TO_MEMORY;
 603:Core/Src/adc.c ****     hdma_adc4.Init.PeriphInc = DMA_PINC_DISABLE;
 604:Core/Src/adc.c ****     hdma_adc4.Init.MemInc = DMA_MINC_ENABLE;
 605:Core/Src/adc.c ****     hdma_adc4.Init.PeriphDataAlignment = DMA_PDATAALIGN_HALFWORD;
 606:Core/Src/adc.c ****     hdma_adc4.Init.MemDataAlignment = DMA_MDATAALIGN_HALFWORD;
 607:Core/Src/adc.c ****     hdma_adc4.Init.Mode = DMA_CIRCULAR;
 608:Core/Src/adc.c ****     hdma_adc4.Init.Priority = DMA_PRIORITY_LOW;
 609:Core/Src/adc.c ****     if (HAL_DMA_Init(&hdma_adc4) != HAL_OK)
 610:Core/Src/adc.c ****     {
 611:Core/Src/adc.c ****       Error_Handler();
 612:Core/Src/adc.c ****     }
 613:Core/Src/adc.c **** 
 614:Core/Src/adc.c ****     __HAL_LINKDMA(adcHandle,DMA_Handle,hdma_adc4);
 615:Core/Src/adc.c **** 
 616:Core/Src/adc.c ****   /* USER CODE BEGIN ADC4_MspInit 1 */
 617:Core/Src/adc.c **** 
 618:Core/Src/adc.c ****   /* USER CODE END ADC4_MspInit 1 */
 619:Core/Src/adc.c ****   }
 620:Core/Src/adc.c ****   else if(adcHandle->Instance==ADC5)
 1024              		.loc 1 620 8 is_stmt 1 view .LVU365
 1025              		.loc 1 620 10 is_stmt 0 view .LVU366
 1026 0038 8D4A     		ldr	r2, .L97+12
ARM GAS  C:\Users\purdu\AppData\Local\Temp\cc3JAzG9.s 			page 30


 1027 003a 9342     		cmp	r3, r2
 1028 003c 00F09281 		beq	.L82
 1029              	.L57:
 621:Core/Src/adc.c ****   {
 622:Core/Src/adc.c ****   /* USER CODE BEGIN ADC5_MspInit 0 */
 623:Core/Src/adc.c **** 
 624:Core/Src/adc.c ****   /* USER CODE END ADC5_MspInit 0 */
 625:Core/Src/adc.c **** 
 626:Core/Src/adc.c ****   /** Initializes the peripherals clocks
 627:Core/Src/adc.c ****   */
 628:Core/Src/adc.c ****     PeriphClkInit.PeriphClockSelection = RCC_PERIPHCLK_ADC345;
 629:Core/Src/adc.c ****     PeriphClkInit.Adc345ClockSelection = RCC_ADC345CLKSOURCE_SYSCLK;
 630:Core/Src/adc.c ****     if (HAL_RCCEx_PeriphCLKConfig(&PeriphClkInit) != HAL_OK)
 631:Core/Src/adc.c ****     {
 632:Core/Src/adc.c ****       Error_Handler();
 633:Core/Src/adc.c ****     }
 634:Core/Src/adc.c **** 
 635:Core/Src/adc.c ****     /* ADC5 clock enable */
 636:Core/Src/adc.c ****     HAL_RCC_ADC345_CLK_ENABLED++;
 637:Core/Src/adc.c ****     if(HAL_RCC_ADC345_CLK_ENABLED==1){
 638:Core/Src/adc.c ****       __HAL_RCC_ADC345_CLK_ENABLE();
 639:Core/Src/adc.c ****     }
 640:Core/Src/adc.c **** 
 641:Core/Src/adc.c ****     __HAL_RCC_GPIOA_CLK_ENABLE();
 642:Core/Src/adc.c ****     /**ADC5 GPIO Configuration
 643:Core/Src/adc.c ****     PA8     ------> ADC5_IN1
 644:Core/Src/adc.c ****     */
 645:Core/Src/adc.c ****     GPIO_InitStruct.Pin = GPIO_PIN_8;
 646:Core/Src/adc.c ****     GPIO_InitStruct.Mode = GPIO_MODE_ANALOG;
 647:Core/Src/adc.c ****     GPIO_InitStruct.Pull = GPIO_NOPULL;
 648:Core/Src/adc.c ****     HAL_GPIO_Init(GPIOA, &GPIO_InitStruct);
 649:Core/Src/adc.c **** 
 650:Core/Src/adc.c ****   /* USER CODE BEGIN ADC5_MspInit 1 */
 651:Core/Src/adc.c **** 
 652:Core/Src/adc.c ****   /* USER CODE END ADC5_MspInit 1 */
 653:Core/Src/adc.c ****   }
 654:Core/Src/adc.c **** }
 1030              		.loc 1 654 1 view .LVU367
 1031 0040 29B0     		add	sp, sp, #164
 1032              	.LCFI22:
 1033              		.cfi_remember_state
 1034              		.cfi_def_cfa_offset 20
 1035              		@ sp needed
 1036 0042 F0BD     		pop	{r4, r5, r6, r7, pc}
 1037              	.LVL44:
 1038              	.L78:
 1039              	.LCFI23:
 1040              		.cfi_restore_state
 396:Core/Src/adc.c ****     PeriphClkInit.Adc12ClockSelection = RCC_ADC12CLKSOURCE_SYSCLK;
 1041              		.loc 1 396 5 is_stmt 1 view .LVU368
 396:Core/Src/adc.c ****     PeriphClkInit.Adc12ClockSelection = RCC_ADC12CLKSOURCE_SYSCLK;
 1042              		.loc 1 396 40 is_stmt 0 view .LVU369
 1043 0044 4FF40043 		mov	r3, #32768
 1044 0048 0E93     		str	r3, [sp, #56]
 397:Core/Src/adc.c ****     if (HAL_RCCEx_PeriphCLKConfig(&PeriphClkInit) != HAL_OK)
 1045              		.loc 1 397 5 is_stmt 1 view .LVU370
 397:Core/Src/adc.c ****     if (HAL_RCCEx_PeriphCLKConfig(&PeriphClkInit) != HAL_OK)
ARM GAS  C:\Users\purdu\AppData\Local\Temp\cc3JAzG9.s 			page 31


 1046              		.loc 1 397 39 is_stmt 0 view .LVU371
 1047 004a 4FF00053 		mov	r3, #536870912
 1048 004e 1F93     		str	r3, [sp, #124]
 398:Core/Src/adc.c ****     {
 1049              		.loc 1 398 5 is_stmt 1 view .LVU372
 398:Core/Src/adc.c ****     {
 1050              		.loc 1 398 9 is_stmt 0 view .LVU373
 1051 0050 0EA8     		add	r0, sp, #56
 1052 0052 FFF7FEFF 		bl	HAL_RCCEx_PeriphCLKConfig
 1053              	.LVL45:
 398:Core/Src/adc.c ****     {
 1054              		.loc 1 398 8 discriminator 1 view .LVU374
 1055 0056 0028     		cmp	r0, #0
 1056 0058 32D1     		bne	.L83
 1057              	.L59:
 404:Core/Src/adc.c ****     if(HAL_RCC_ADC12_CLK_ENABLED==1){
 1058              		.loc 1 404 5 is_stmt 1 view .LVU375
 404:Core/Src/adc.c ****     if(HAL_RCC_ADC12_CLK_ENABLED==1){
 1059              		.loc 1 404 30 is_stmt 0 view .LVU376
 1060 005a 864A     		ldr	r2, .L97+16
 1061 005c 1368     		ldr	r3, [r2]
 1062 005e 0133     		adds	r3, r3, #1
 1063 0060 1360     		str	r3, [r2]
 405:Core/Src/adc.c ****       __HAL_RCC_ADC12_CLK_ENABLE();
 1064              		.loc 1 405 5 is_stmt 1 view .LVU377
 405:Core/Src/adc.c ****       __HAL_RCC_ADC12_CLK_ENABLE();
 1065              		.loc 1 405 7 is_stmt 0 view .LVU378
 1066 0062 012B     		cmp	r3, #1
 1067 0064 2FD0     		beq	.L84
 1068              	.L60:
 406:Core/Src/adc.c ****     }
 1069              		.loc 1 406 7 is_stmt 1 discriminator 1 view .LVU379
 409:Core/Src/adc.c ****     /**ADC1 GPIO Configuration
 1070              		.loc 1 409 5 view .LVU380
 1071              	.LBB2:
 409:Core/Src/adc.c ****     /**ADC1 GPIO Configuration
 1072              		.loc 1 409 5 view .LVU381
 409:Core/Src/adc.c ****     /**ADC1 GPIO Configuration
 1073              		.loc 1 409 5 view .LVU382
 1074 0066 844B     		ldr	r3, .L97+20
 1075 0068 DA6C     		ldr	r2, [r3, #76]
 1076 006a 42F00102 		orr	r2, r2, #1
 1077 006e DA64     		str	r2, [r3, #76]
 409:Core/Src/adc.c ****     /**ADC1 GPIO Configuration
 1078              		.loc 1 409 5 view .LVU383
 1079 0070 DB6C     		ldr	r3, [r3, #76]
 1080 0072 03F00103 		and	r3, r3, #1
 1081 0076 0293     		str	r3, [sp, #8]
 409:Core/Src/adc.c ****     /**ADC1 GPIO Configuration
 1082              		.loc 1 409 5 view .LVU384
 1083 0078 029B     		ldr	r3, [sp, #8]
 1084              	.LBE2:
 409:Core/Src/adc.c ****     /**ADC1 GPIO Configuration
 1085              		.loc 1 409 5 view .LVU385
 414:Core/Src/adc.c ****     GPIO_InitStruct.Mode = GPIO_MODE_ANALOG;
 1086              		.loc 1 414 5 view .LVU386
 414:Core/Src/adc.c ****     GPIO_InitStruct.Mode = GPIO_MODE_ANALOG;
ARM GAS  C:\Users\purdu\AppData\Local\Temp\cc3JAzG9.s 			page 32


 1087              		.loc 1 414 25 is_stmt 0 view .LVU387
 1088 007a 0323     		movs	r3, #3
 1089 007c 2393     		str	r3, [sp, #140]
 415:Core/Src/adc.c ****     GPIO_InitStruct.Pull = GPIO_NOPULL;
 1090              		.loc 1 415 5 is_stmt 1 view .LVU388
 415:Core/Src/adc.c ****     GPIO_InitStruct.Pull = GPIO_NOPULL;
 1091              		.loc 1 415 26 is_stmt 0 view .LVU389
 1092 007e 2493     		str	r3, [sp, #144]
 416:Core/Src/adc.c ****     HAL_GPIO_Init(GPIOA, &GPIO_InitStruct);
 1093              		.loc 1 416 5 is_stmt 1 view .LVU390
 416:Core/Src/adc.c ****     HAL_GPIO_Init(GPIOA, &GPIO_InitStruct);
 1094              		.loc 1 416 26 is_stmt 0 view .LVU391
 1095 0080 0025     		movs	r5, #0
 1096 0082 2595     		str	r5, [sp, #148]
 417:Core/Src/adc.c **** 
 1097              		.loc 1 417 5 is_stmt 1 view .LVU392
 1098 0084 23A9     		add	r1, sp, #140
 1099 0086 4FF09040 		mov	r0, #1207959552
 1100 008a FFF7FEFF 		bl	HAL_GPIO_Init
 1101              	.LVL46:
 421:Core/Src/adc.c ****     hdma_adc1.Init.Request = DMA_REQUEST_ADC1;
 1102              		.loc 1 421 5 view .LVU393
 421:Core/Src/adc.c ****     hdma_adc1.Init.Request = DMA_REQUEST_ADC1;
 1103              		.loc 1 421 24 is_stmt 0 view .LVU394
 1104 008e 7B48     		ldr	r0, .L97+24
 1105 0090 7B4B     		ldr	r3, .L97+28
 1106 0092 0360     		str	r3, [r0]
 422:Core/Src/adc.c ****     hdma_adc1.Init.Direction = DMA_PERIPH_TO_MEMORY;
 1107              		.loc 1 422 5 is_stmt 1 view .LVU395
 422:Core/Src/adc.c ****     hdma_adc1.Init.Direction = DMA_PERIPH_TO_MEMORY;
 1108              		.loc 1 422 28 is_stmt 0 view .LVU396
 1109 0094 0523     		movs	r3, #5
 1110 0096 4360     		str	r3, [r0, #4]
 423:Core/Src/adc.c ****     hdma_adc1.Init.PeriphInc = DMA_PINC_DISABLE;
 1111              		.loc 1 423 5 is_stmt 1 view .LVU397
 423:Core/Src/adc.c ****     hdma_adc1.Init.PeriphInc = DMA_PINC_DISABLE;
 1112              		.loc 1 423 30 is_stmt 0 view .LVU398
 1113 0098 8560     		str	r5, [r0, #8]
 424:Core/Src/adc.c ****     hdma_adc1.Init.MemInc = DMA_MINC_ENABLE;
 1114              		.loc 1 424 5 is_stmt 1 view .LVU399
 424:Core/Src/adc.c ****     hdma_adc1.Init.MemInc = DMA_MINC_ENABLE;
 1115              		.loc 1 424 30 is_stmt 0 view .LVU400
 1116 009a C560     		str	r5, [r0, #12]
 425:Core/Src/adc.c ****     hdma_adc1.Init.PeriphDataAlignment = DMA_PDATAALIGN_HALFWORD;
 1117              		.loc 1 425 5 is_stmt 1 view .LVU401
 425:Core/Src/adc.c ****     hdma_adc1.Init.PeriphDataAlignment = DMA_PDATAALIGN_HALFWORD;
 1118              		.loc 1 425 27 is_stmt 0 view .LVU402
 1119 009c 8023     		movs	r3, #128
 1120 009e 0361     		str	r3, [r0, #16]
 426:Core/Src/adc.c ****     hdma_adc1.Init.MemDataAlignment = DMA_MDATAALIGN_HALFWORD;
 1121              		.loc 1 426 5 is_stmt 1 view .LVU403
 426:Core/Src/adc.c ****     hdma_adc1.Init.MemDataAlignment = DMA_MDATAALIGN_HALFWORD;
 1122              		.loc 1 426 40 is_stmt 0 view .LVU404
 1123 00a0 4FF48073 		mov	r3, #256
 1124 00a4 4361     		str	r3, [r0, #20]
 427:Core/Src/adc.c ****     hdma_adc1.Init.Mode = DMA_CIRCULAR;
 1125              		.loc 1 427 5 is_stmt 1 view .LVU405
ARM GAS  C:\Users\purdu\AppData\Local\Temp\cc3JAzG9.s 			page 33


 427:Core/Src/adc.c ****     hdma_adc1.Init.Mode = DMA_CIRCULAR;
 1126              		.loc 1 427 37 is_stmt 0 view .LVU406
 1127 00a6 4FF48063 		mov	r3, #1024
 1128 00aa 8361     		str	r3, [r0, #24]
 428:Core/Src/adc.c ****     hdma_adc1.Init.Priority = DMA_PRIORITY_LOW;
 1129              		.loc 1 428 5 is_stmt 1 view .LVU407
 428:Core/Src/adc.c ****     hdma_adc1.Init.Priority = DMA_PRIORITY_LOW;
 1130              		.loc 1 428 25 is_stmt 0 view .LVU408
 1131 00ac 2023     		movs	r3, #32
 1132 00ae C361     		str	r3, [r0, #28]
 429:Core/Src/adc.c ****     if (HAL_DMA_Init(&hdma_adc1) != HAL_OK)
 1133              		.loc 1 429 5 is_stmt 1 view .LVU409
 429:Core/Src/adc.c ****     if (HAL_DMA_Init(&hdma_adc1) != HAL_OK)
 1134              		.loc 1 429 29 is_stmt 0 view .LVU410
 1135 00b0 0562     		str	r5, [r0, #32]
 430:Core/Src/adc.c ****     {
 1136              		.loc 1 430 5 is_stmt 1 view .LVU411
 430:Core/Src/adc.c ****     {
 1137              		.loc 1 430 9 is_stmt 0 view .LVU412
 1138 00b2 FFF7FEFF 		bl	HAL_DMA_Init
 1139              	.LVL47:
 430:Core/Src/adc.c ****     {
 1140              		.loc 1 430 8 discriminator 1 view .LVU413
 1141 00b6 88B9     		cbnz	r0, .L85
 1142              	.L61:
 435:Core/Src/adc.c **** 
 1143              		.loc 1 435 5 is_stmt 1 view .LVU414
 435:Core/Src/adc.c **** 
 1144              		.loc 1 435 5 view .LVU415
 1145 00b8 704B     		ldr	r3, .L97+24
 1146 00ba 6365     		str	r3, [r4, #84]
 435:Core/Src/adc.c **** 
 1147              		.loc 1 435 5 view .LVU416
 1148 00bc 9C62     		str	r4, [r3, #40]
 435:Core/Src/adc.c **** 
 1149              		.loc 1 435 5 view .LVU417
 1150 00be BFE7     		b	.L57
 1151              	.L83:
 400:Core/Src/adc.c ****     }
 1152              		.loc 1 400 7 view .LVU418
 1153 00c0 FFF7FEFF 		bl	Error_Handler
 1154              	.LVL48:
 1155 00c4 C9E7     		b	.L59
 1156              	.L84:
 406:Core/Src/adc.c ****     }
 1157              		.loc 1 406 7 view .LVU419
 1158              	.LBB3:
 406:Core/Src/adc.c ****     }
 1159              		.loc 1 406 7 view .LVU420
 406:Core/Src/adc.c ****     }
 1160              		.loc 1 406 7 view .LVU421
 1161 00c6 6C4B     		ldr	r3, .L97+20
 1162 00c8 DA6C     		ldr	r2, [r3, #76]
 1163 00ca 42F40052 		orr	r2, r2, #8192
 1164 00ce DA64     		str	r2, [r3, #76]
 406:Core/Src/adc.c ****     }
 1165              		.loc 1 406 7 view .LVU422
ARM GAS  C:\Users\purdu\AppData\Local\Temp\cc3JAzG9.s 			page 34


 1166 00d0 DB6C     		ldr	r3, [r3, #76]
 1167 00d2 03F40053 		and	r3, r3, #8192
 1168 00d6 0193     		str	r3, [sp, #4]
 406:Core/Src/adc.c ****     }
 1169              		.loc 1 406 7 view .LVU423
 1170 00d8 019B     		ldr	r3, [sp, #4]
 1171 00da C4E7     		b	.L60
 1172              	.L85:
 1173              	.LBE3:
 432:Core/Src/adc.c ****     }
 1174              		.loc 1 432 7 view .LVU424
 1175 00dc FFF7FEFF 		bl	Error_Handler
 1176              	.LVL49:
 1177 00e0 EAE7     		b	.L61
 1178              	.L79:
 449:Core/Src/adc.c ****     PeriphClkInit.Adc12ClockSelection = RCC_ADC12CLKSOURCE_SYSCLK;
 1179              		.loc 1 449 5 view .LVU425
 449:Core/Src/adc.c ****     PeriphClkInit.Adc12ClockSelection = RCC_ADC12CLKSOURCE_SYSCLK;
 1180              		.loc 1 449 40 is_stmt 0 view .LVU426
 1181 00e2 4FF40043 		mov	r3, #32768
 1182 00e6 0E93     		str	r3, [sp, #56]
 450:Core/Src/adc.c ****     if (HAL_RCCEx_PeriphCLKConfig(&PeriphClkInit) != HAL_OK)
 1183              		.loc 1 450 5 is_stmt 1 view .LVU427
 450:Core/Src/adc.c ****     if (HAL_RCCEx_PeriphCLKConfig(&PeriphClkInit) != HAL_OK)
 1184              		.loc 1 450 39 is_stmt 0 view .LVU428
 1185 00e8 4FF00053 		mov	r3, #536870912
 1186 00ec 1F93     		str	r3, [sp, #124]
 451:Core/Src/adc.c ****     {
 1187              		.loc 1 451 5 is_stmt 1 view .LVU429
 451:Core/Src/adc.c ****     {
 1188              		.loc 1 451 9 is_stmt 0 view .LVU430
 1189 00ee 0EA8     		add	r0, sp, #56
 1190 00f0 FFF7FEFF 		bl	HAL_RCCEx_PeriphCLKConfig
 1191              	.LVL50:
 451:Core/Src/adc.c ****     {
 1192              		.loc 1 451 8 discriminator 1 view .LVU431
 1193 00f4 0028     		cmp	r0, #0
 1194 00f6 53D1     		bne	.L86
 1195              	.L64:
 457:Core/Src/adc.c ****     if(HAL_RCC_ADC12_CLK_ENABLED==1){
 1196              		.loc 1 457 5 is_stmt 1 view .LVU432
 457:Core/Src/adc.c ****     if(HAL_RCC_ADC12_CLK_ENABLED==1){
 1197              		.loc 1 457 30 is_stmt 0 view .LVU433
 1198 00f8 5E4A     		ldr	r2, .L97+16
 1199 00fa 1368     		ldr	r3, [r2]
 1200 00fc 0133     		adds	r3, r3, #1
 1201 00fe 1360     		str	r3, [r2]
 458:Core/Src/adc.c ****       __HAL_RCC_ADC12_CLK_ENABLE();
 1202              		.loc 1 458 5 is_stmt 1 view .LVU434
 458:Core/Src/adc.c ****       __HAL_RCC_ADC12_CLK_ENABLE();
 1203              		.loc 1 458 7 is_stmt 0 view .LVU435
 1204 0100 012B     		cmp	r3, #1
 1205 0102 50D0     		beq	.L87
 1206              	.L65:
 459:Core/Src/adc.c ****     }
 1207              		.loc 1 459 7 is_stmt 1 discriminator 1 view .LVU436
 462:Core/Src/adc.c ****     __HAL_RCC_GPIOC_CLK_ENABLE();
ARM GAS  C:\Users\purdu\AppData\Local\Temp\cc3JAzG9.s 			page 35


 1208              		.loc 1 462 5 view .LVU437
 1209              	.LBB4:
 462:Core/Src/adc.c ****     __HAL_RCC_GPIOC_CLK_ENABLE();
 1210              		.loc 1 462 5 view .LVU438
 462:Core/Src/adc.c ****     __HAL_RCC_GPIOC_CLK_ENABLE();
 1211              		.loc 1 462 5 view .LVU439
 1212 0104 5C4B     		ldr	r3, .L97+20
 1213 0106 DA6C     		ldr	r2, [r3, #76]
 1214 0108 42F00102 		orr	r2, r2, #1
 1215 010c DA64     		str	r2, [r3, #76]
 462:Core/Src/adc.c ****     __HAL_RCC_GPIOC_CLK_ENABLE();
 1216              		.loc 1 462 5 view .LVU440
 1217 010e DA6C     		ldr	r2, [r3, #76]
 1218 0110 02F00102 		and	r2, r2, #1
 1219 0114 0492     		str	r2, [sp, #16]
 462:Core/Src/adc.c ****     __HAL_RCC_GPIOC_CLK_ENABLE();
 1220              		.loc 1 462 5 view .LVU441
 1221 0116 049A     		ldr	r2, [sp, #16]
 1222              	.LBE4:
 462:Core/Src/adc.c ****     __HAL_RCC_GPIOC_CLK_ENABLE();
 1223              		.loc 1 462 5 view .LVU442
 463:Core/Src/adc.c ****     __HAL_RCC_GPIOB_CLK_ENABLE();
 1224              		.loc 1 463 5 view .LVU443
 1225              	.LBB5:
 463:Core/Src/adc.c ****     __HAL_RCC_GPIOB_CLK_ENABLE();
 1226              		.loc 1 463 5 view .LVU444
 463:Core/Src/adc.c ****     __HAL_RCC_GPIOB_CLK_ENABLE();
 1227              		.loc 1 463 5 view .LVU445
 1228 0118 DA6C     		ldr	r2, [r3, #76]
 1229 011a 42F00402 		orr	r2, r2, #4
 1230 011e DA64     		str	r2, [r3, #76]
 463:Core/Src/adc.c ****     __HAL_RCC_GPIOB_CLK_ENABLE();
 1231              		.loc 1 463 5 view .LVU446
 1232 0120 DA6C     		ldr	r2, [r3, #76]
 1233 0122 02F00402 		and	r2, r2, #4
 1234 0126 0592     		str	r2, [sp, #20]
 463:Core/Src/adc.c ****     __HAL_RCC_GPIOB_CLK_ENABLE();
 1235              		.loc 1 463 5 view .LVU447
 1236 0128 059A     		ldr	r2, [sp, #20]
 1237              	.LBE5:
 463:Core/Src/adc.c ****     __HAL_RCC_GPIOB_CLK_ENABLE();
 1238              		.loc 1 463 5 view .LVU448
 464:Core/Src/adc.c ****     /**ADC2 GPIO Configuration
 1239              		.loc 1 464 5 view .LVU449
 1240              	.LBB6:
 464:Core/Src/adc.c ****     /**ADC2 GPIO Configuration
 1241              		.loc 1 464 5 view .LVU450
 464:Core/Src/adc.c ****     /**ADC2 GPIO Configuration
 1242              		.loc 1 464 5 view .LVU451
 1243 012a DA6C     		ldr	r2, [r3, #76]
 1244 012c 42F00202 		orr	r2, r2, #2
 1245 0130 DA64     		str	r2, [r3, #76]
 464:Core/Src/adc.c ****     /**ADC2 GPIO Configuration
 1246              		.loc 1 464 5 view .LVU452
 1247 0132 DB6C     		ldr	r3, [r3, #76]
 1248 0134 03F00203 		and	r3, r3, #2
 1249 0138 0693     		str	r3, [sp, #24]
ARM GAS  C:\Users\purdu\AppData\Local\Temp\cc3JAzG9.s 			page 36


 464:Core/Src/adc.c ****     /**ADC2 GPIO Configuration
 1250              		.loc 1 464 5 view .LVU453
 1251 013a 069B     		ldr	r3, [sp, #24]
 1252              	.LBE6:
 464:Core/Src/adc.c ****     /**ADC2 GPIO Configuration
 1253              		.loc 1 464 5 view .LVU454
 470:Core/Src/adc.c ****     GPIO_InitStruct.Mode = GPIO_MODE_ANALOG;
 1254              		.loc 1 470 5 view .LVU455
 470:Core/Src/adc.c ****     GPIO_InitStruct.Mode = GPIO_MODE_ANALOG;
 1255              		.loc 1 470 25 is_stmt 0 view .LVU456
 1256 013c 2026     		movs	r6, #32
 1257 013e 2396     		str	r6, [sp, #140]
 471:Core/Src/adc.c ****     GPIO_InitStruct.Pull = GPIO_NOPULL;
 1258              		.loc 1 471 5 is_stmt 1 view .LVU457
 471:Core/Src/adc.c ****     GPIO_InitStruct.Pull = GPIO_NOPULL;
 1259              		.loc 1 471 26 is_stmt 0 view .LVU458
 1260 0140 0327     		movs	r7, #3
 1261 0142 2497     		str	r7, [sp, #144]
 472:Core/Src/adc.c ****     HAL_GPIO_Init(GPIOA, &GPIO_InitStruct);
 1262              		.loc 1 472 5 is_stmt 1 view .LVU459
 472:Core/Src/adc.c ****     HAL_GPIO_Init(GPIOA, &GPIO_InitStruct);
 1263              		.loc 1 472 26 is_stmt 0 view .LVU460
 1264 0144 0025     		movs	r5, #0
 1265 0146 2595     		str	r5, [sp, #148]
 473:Core/Src/adc.c **** 
 1266              		.loc 1 473 5 is_stmt 1 view .LVU461
 1267 0148 23A9     		add	r1, sp, #140
 1268 014a 4FF09040 		mov	r0, #1207959552
 1269 014e FFF7FEFF 		bl	HAL_GPIO_Init
 1270              	.LVL51:
 475:Core/Src/adc.c ****     GPIO_InitStruct.Mode = GPIO_MODE_ANALOG;
 1271              		.loc 1 475 5 view .LVU462
 475:Core/Src/adc.c ****     GPIO_InitStruct.Mode = GPIO_MODE_ANALOG;
 1272              		.loc 1 475 25 is_stmt 0 view .LVU463
 1273 0152 2396     		str	r6, [sp, #140]
 476:Core/Src/adc.c ****     GPIO_InitStruct.Pull = GPIO_NOPULL;
 1274              		.loc 1 476 5 is_stmt 1 view .LVU464
 476:Core/Src/adc.c ****     GPIO_InitStruct.Pull = GPIO_NOPULL;
 1275              		.loc 1 476 26 is_stmt 0 view .LVU465
 1276 0154 2497     		str	r7, [sp, #144]
 477:Core/Src/adc.c ****     HAL_GPIO_Init(GPIOC, &GPIO_InitStruct);
 1277              		.loc 1 477 5 is_stmt 1 view .LVU466
 477:Core/Src/adc.c ****     HAL_GPIO_Init(GPIOC, &GPIO_InitStruct);
 1278              		.loc 1 477 26 is_stmt 0 view .LVU467
 1279 0156 2595     		str	r5, [sp, #148]
 478:Core/Src/adc.c **** 
 1280              		.loc 1 478 5 is_stmt 1 view .LVU468
 1281 0158 23A9     		add	r1, sp, #140
 1282 015a 4A48     		ldr	r0, .L97+32
 1283 015c FFF7FEFF 		bl	HAL_GPIO_Init
 1284              	.LVL52:
 480:Core/Src/adc.c ****     GPIO_InitStruct.Mode = GPIO_MODE_ANALOG;
 1285              		.loc 1 480 5 view .LVU469
 480:Core/Src/adc.c ****     GPIO_InitStruct.Mode = GPIO_MODE_ANALOG;
 1286              		.loc 1 480 25 is_stmt 0 view .LVU470
 1287 0160 0423     		movs	r3, #4
 1288 0162 2393     		str	r3, [sp, #140]
ARM GAS  C:\Users\purdu\AppData\Local\Temp\cc3JAzG9.s 			page 37


 481:Core/Src/adc.c ****     GPIO_InitStruct.Pull = GPIO_NOPULL;
 1289              		.loc 1 481 5 is_stmt 1 view .LVU471
 481:Core/Src/adc.c ****     GPIO_InitStruct.Pull = GPIO_NOPULL;
 1290              		.loc 1 481 26 is_stmt 0 view .LVU472
 1291 0164 2497     		str	r7, [sp, #144]
 482:Core/Src/adc.c ****     HAL_GPIO_Init(GPIOB, &GPIO_InitStruct);
 1292              		.loc 1 482 5 is_stmt 1 view .LVU473
 482:Core/Src/adc.c ****     HAL_GPIO_Init(GPIOB, &GPIO_InitStruct);
 1293              		.loc 1 482 26 is_stmt 0 view .LVU474
 1294 0166 2595     		str	r5, [sp, #148]
 483:Core/Src/adc.c **** 
 1295              		.loc 1 483 5 is_stmt 1 view .LVU475
 1296 0168 23A9     		add	r1, sp, #140
 1297 016a 4748     		ldr	r0, .L97+36
 1298 016c FFF7FEFF 		bl	HAL_GPIO_Init
 1299              	.LVL53:
 487:Core/Src/adc.c ****     hdma_adc2.Init.Request = DMA_REQUEST_ADC2;
 1300              		.loc 1 487 5 view .LVU476
 487:Core/Src/adc.c ****     hdma_adc2.Init.Request = DMA_REQUEST_ADC2;
 1301              		.loc 1 487 24 is_stmt 0 view .LVU477
 1302 0170 4648     		ldr	r0, .L97+40
 1303 0172 474B     		ldr	r3, .L97+44
 1304 0174 0360     		str	r3, [r0]
 488:Core/Src/adc.c ****     hdma_adc2.Init.Direction = DMA_PERIPH_TO_MEMORY;
 1305              		.loc 1 488 5 is_stmt 1 view .LVU478
 488:Core/Src/adc.c ****     hdma_adc2.Init.Direction = DMA_PERIPH_TO_MEMORY;
 1306              		.loc 1 488 28 is_stmt 0 view .LVU479
 1307 0176 2423     		movs	r3, #36
 1308 0178 4360     		str	r3, [r0, #4]
 489:Core/Src/adc.c ****     hdma_adc2.Init.PeriphInc = DMA_PINC_DISABLE;
 1309              		.loc 1 489 5 is_stmt 1 view .LVU480
 489:Core/Src/adc.c ****     hdma_adc2.Init.PeriphInc = DMA_PINC_DISABLE;
 1310              		.loc 1 489 30 is_stmt 0 view .LVU481
 1311 017a 8560     		str	r5, [r0, #8]
 490:Core/Src/adc.c ****     hdma_adc2.Init.MemInc = DMA_MINC_ENABLE;
 1312              		.loc 1 490 5 is_stmt 1 view .LVU482
 490:Core/Src/adc.c ****     hdma_adc2.Init.MemInc = DMA_MINC_ENABLE;
 1313              		.loc 1 490 30 is_stmt 0 view .LVU483
 1314 017c C560     		str	r5, [r0, #12]
 491:Core/Src/adc.c ****     hdma_adc2.Init.PeriphDataAlignment = DMA_PDATAALIGN_HALFWORD;
 1315              		.loc 1 491 5 is_stmt 1 view .LVU484
 491:Core/Src/adc.c ****     hdma_adc2.Init.PeriphDataAlignment = DMA_PDATAALIGN_HALFWORD;
 1316              		.loc 1 491 27 is_stmt 0 view .LVU485
 1317 017e 8023     		movs	r3, #128
 1318 0180 0361     		str	r3, [r0, #16]
 492:Core/Src/adc.c ****     hdma_adc2.Init.MemDataAlignment = DMA_MDATAALIGN_HALFWORD;
 1319              		.loc 1 492 5 is_stmt 1 view .LVU486
 492:Core/Src/adc.c ****     hdma_adc2.Init.MemDataAlignment = DMA_MDATAALIGN_HALFWORD;
 1320              		.loc 1 492 40 is_stmt 0 view .LVU487
 1321 0182 4FF48073 		mov	r3, #256
 1322 0186 4361     		str	r3, [r0, #20]
 493:Core/Src/adc.c ****     hdma_adc2.Init.Mode = DMA_CIRCULAR;
 1323              		.loc 1 493 5 is_stmt 1 view .LVU488
 493:Core/Src/adc.c ****     hdma_adc2.Init.Mode = DMA_CIRCULAR;
 1324              		.loc 1 493 37 is_stmt 0 view .LVU489
 1325 0188 4FF48063 		mov	r3, #1024
 1326 018c 8361     		str	r3, [r0, #24]
ARM GAS  C:\Users\purdu\AppData\Local\Temp\cc3JAzG9.s 			page 38


 494:Core/Src/adc.c ****     hdma_adc2.Init.Priority = DMA_PRIORITY_LOW;
 1327              		.loc 1 494 5 is_stmt 1 view .LVU490
 494:Core/Src/adc.c ****     hdma_adc2.Init.Priority = DMA_PRIORITY_LOW;
 1328              		.loc 1 494 25 is_stmt 0 view .LVU491
 1329 018e C661     		str	r6, [r0, #28]
 495:Core/Src/adc.c ****     if (HAL_DMA_Init(&hdma_adc2) != HAL_OK)
 1330              		.loc 1 495 5 is_stmt 1 view .LVU492
 495:Core/Src/adc.c ****     if (HAL_DMA_Init(&hdma_adc2) != HAL_OK)
 1331              		.loc 1 495 29 is_stmt 0 view .LVU493
 1332 0190 0562     		str	r5, [r0, #32]
 496:Core/Src/adc.c ****     {
 1333              		.loc 1 496 5 is_stmt 1 view .LVU494
 496:Core/Src/adc.c ****     {
 1334              		.loc 1 496 9 is_stmt 0 view .LVU495
 1335 0192 FFF7FEFF 		bl	HAL_DMA_Init
 1336              	.LVL54:
 496:Core/Src/adc.c ****     {
 1337              		.loc 1 496 8 discriminator 1 view .LVU496
 1338 0196 88B9     		cbnz	r0, .L88
 1339              	.L66:
 501:Core/Src/adc.c **** 
 1340              		.loc 1 501 5 is_stmt 1 view .LVU497
 501:Core/Src/adc.c **** 
 1341              		.loc 1 501 5 view .LVU498
 1342 0198 3C4B     		ldr	r3, .L97+40
 1343 019a 6365     		str	r3, [r4, #84]
 501:Core/Src/adc.c **** 
 1344              		.loc 1 501 5 view .LVU499
 1345 019c 9C62     		str	r4, [r3, #40]
 501:Core/Src/adc.c **** 
 1346              		.loc 1 501 5 view .LVU500
 1347 019e 4FE7     		b	.L57
 1348              	.L86:
 453:Core/Src/adc.c ****     }
 1349              		.loc 1 453 7 view .LVU501
 1350 01a0 FFF7FEFF 		bl	Error_Handler
 1351              	.LVL55:
 1352 01a4 A8E7     		b	.L64
 1353              	.L87:
 459:Core/Src/adc.c ****     }
 1354              		.loc 1 459 7 view .LVU502
 1355              	.LBB7:
 459:Core/Src/adc.c ****     }
 1356              		.loc 1 459 7 view .LVU503
 459:Core/Src/adc.c ****     }
 1357              		.loc 1 459 7 view .LVU504
 1358 01a6 344B     		ldr	r3, .L97+20
 1359 01a8 DA6C     		ldr	r2, [r3, #76]
 1360 01aa 42F40052 		orr	r2, r2, #8192
 1361 01ae DA64     		str	r2, [r3, #76]
 459:Core/Src/adc.c ****     }
 1362              		.loc 1 459 7 view .LVU505
 1363 01b0 DB6C     		ldr	r3, [r3, #76]
 1364 01b2 03F40053 		and	r3, r3, #8192
 1365 01b6 0393     		str	r3, [sp, #12]
 459:Core/Src/adc.c ****     }
 1366              		.loc 1 459 7 view .LVU506
ARM GAS  C:\Users\purdu\AppData\Local\Temp\cc3JAzG9.s 			page 39


 1367 01b8 039B     		ldr	r3, [sp, #12]
 1368 01ba A3E7     		b	.L65
 1369              	.L88:
 1370              	.LBE7:
 498:Core/Src/adc.c ****     }
 1371              		.loc 1 498 7 view .LVU507
 1372 01bc FFF7FEFF 		bl	Error_Handler
 1373              	.LVL56:
 1374 01c0 EAE7     		b	.L66
 1375              	.L80:
 515:Core/Src/adc.c ****     PeriphClkInit.Adc345ClockSelection = RCC_ADC345CLKSOURCE_SYSCLK;
 1376              		.loc 1 515 5 view .LVU508
 515:Core/Src/adc.c ****     PeriphClkInit.Adc345ClockSelection = RCC_ADC345CLKSOURCE_SYSCLK;
 1377              		.loc 1 515 40 is_stmt 0 view .LVU509
 1378 01c2 4FF48033 		mov	r3, #65536
 1379 01c6 0E93     		str	r3, [sp, #56]
 516:Core/Src/adc.c ****     if (HAL_RCCEx_PeriphCLKConfig(&PeriphClkInit) != HAL_OK)
 1380              		.loc 1 516 5 is_stmt 1 view .LVU510
 516:Core/Src/adc.c ****     if (HAL_RCCEx_PeriphCLKConfig(&PeriphClkInit) != HAL_OK)
 1381              		.loc 1 516 40 is_stmt 0 view .LVU511
 1382 01c8 4FF00043 		mov	r3, #-2147483648
 1383 01cc 2093     		str	r3, [sp, #128]
 517:Core/Src/adc.c ****     {
 1384              		.loc 1 517 5 is_stmt 1 view .LVU512
 517:Core/Src/adc.c ****     {
 1385              		.loc 1 517 9 is_stmt 0 view .LVU513
 1386 01ce 0EA8     		add	r0, sp, #56
 1387 01d0 FFF7FEFF 		bl	HAL_RCCEx_PeriphCLKConfig
 1388              	.LVL57:
 517:Core/Src/adc.c ****     {
 1389              		.loc 1 517 8 discriminator 1 view .LVU514
 1390 01d4 0028     		cmp	r0, #0
 1391 01d6 33D1     		bne	.L89
 1392              	.L68:
 523:Core/Src/adc.c ****     if(HAL_RCC_ADC345_CLK_ENABLED==1){
 1393              		.loc 1 523 5 is_stmt 1 view .LVU515
 523:Core/Src/adc.c ****     if(HAL_RCC_ADC345_CLK_ENABLED==1){
 1394              		.loc 1 523 31 is_stmt 0 view .LVU516
 1395 01d8 2E4A     		ldr	r2, .L97+48
 1396 01da 1368     		ldr	r3, [r2]
 1397 01dc 0133     		adds	r3, r3, #1
 1398 01de 1360     		str	r3, [r2]
 524:Core/Src/adc.c ****       __HAL_RCC_ADC345_CLK_ENABLE();
 1399              		.loc 1 524 5 is_stmt 1 view .LVU517
 524:Core/Src/adc.c ****       __HAL_RCC_ADC345_CLK_ENABLE();
 1400              		.loc 1 524 7 is_stmt 0 view .LVU518
 1401 01e0 012B     		cmp	r3, #1
 1402 01e2 30D0     		beq	.L90
 1403              	.L69:
 525:Core/Src/adc.c ****     }
 1404              		.loc 1 525 7 is_stmt 1 discriminator 1 view .LVU519
 528:Core/Src/adc.c ****     /**ADC3 GPIO Configuration
 1405              		.loc 1 528 5 view .LVU520
 1406              	.LBB8:
 528:Core/Src/adc.c ****     /**ADC3 GPIO Configuration
 1407              		.loc 1 528 5 view .LVU521
 528:Core/Src/adc.c ****     /**ADC3 GPIO Configuration
ARM GAS  C:\Users\purdu\AppData\Local\Temp\cc3JAzG9.s 			page 40


 1408              		.loc 1 528 5 view .LVU522
 1409 01e4 244B     		ldr	r3, .L97+20
 1410 01e6 DA6C     		ldr	r2, [r3, #76]
 1411 01e8 42F01002 		orr	r2, r2, #16
 1412 01ec DA64     		str	r2, [r3, #76]
 528:Core/Src/adc.c ****     /**ADC3 GPIO Configuration
 1413              		.loc 1 528 5 view .LVU523
 1414 01ee DB6C     		ldr	r3, [r3, #76]
 1415 01f0 03F01003 		and	r3, r3, #16
 1416 01f4 0893     		str	r3, [sp, #32]
 528:Core/Src/adc.c ****     /**ADC3 GPIO Configuration
 1417              		.loc 1 528 5 view .LVU524
 1418 01f6 089B     		ldr	r3, [sp, #32]
 1419              	.LBE8:
 528:Core/Src/adc.c ****     /**ADC3 GPIO Configuration
 1420              		.loc 1 528 5 view .LVU525
 534:Core/Src/adc.c ****     GPIO_InitStruct.Mode = GPIO_MODE_ANALOG;
 1421              		.loc 1 534 5 view .LVU526
 534:Core/Src/adc.c ****     GPIO_InitStruct.Mode = GPIO_MODE_ANALOG;
 1422              		.loc 1 534 25 is_stmt 0 view .LVU527
 1423 01f8 4FF46073 		mov	r3, #896
 1424 01fc 2393     		str	r3, [sp, #140]
 535:Core/Src/adc.c ****     GPIO_InitStruct.Pull = GPIO_NOPULL;
 1425              		.loc 1 535 5 is_stmt 1 view .LVU528
 535:Core/Src/adc.c ****     GPIO_InitStruct.Pull = GPIO_NOPULL;
 1426              		.loc 1 535 26 is_stmt 0 view .LVU529
 1427 01fe 0323     		movs	r3, #3
 1428 0200 2493     		str	r3, [sp, #144]
 536:Core/Src/adc.c ****     HAL_GPIO_Init(GPIOE, &GPIO_InitStruct);
 1429              		.loc 1 536 5 is_stmt 1 view .LVU530
 536:Core/Src/adc.c ****     HAL_GPIO_Init(GPIOE, &GPIO_InitStruct);
 1430              		.loc 1 536 26 is_stmt 0 view .LVU531
 1431 0202 0025     		movs	r5, #0
 1432 0204 2595     		str	r5, [sp, #148]
 537:Core/Src/adc.c **** 
 1433              		.loc 1 537 5 is_stmt 1 view .LVU532
 1434 0206 23A9     		add	r1, sp, #140
 1435 0208 2348     		ldr	r0, .L97+52
 1436 020a FFF7FEFF 		bl	HAL_GPIO_Init
 1437              	.LVL58:
 541:Core/Src/adc.c ****     hdma_adc3.Init.Request = DMA_REQUEST_ADC3;
 1438              		.loc 1 541 5 view .LVU533
 541:Core/Src/adc.c ****     hdma_adc3.Init.Request = DMA_REQUEST_ADC3;
 1439              		.loc 1 541 24 is_stmt 0 view .LVU534
 1440 020e 2348     		ldr	r0, .L97+56
 1441 0210 234B     		ldr	r3, .L97+60
 1442 0212 0360     		str	r3, [r0]
 542:Core/Src/adc.c ****     hdma_adc3.Init.Direction = DMA_PERIPH_TO_MEMORY;
 1443              		.loc 1 542 5 is_stmt 1 view .LVU535
 542:Core/Src/adc.c ****     hdma_adc3.Init.Direction = DMA_PERIPH_TO_MEMORY;
 1444              		.loc 1 542 28 is_stmt 0 view .LVU536
 1445 0214 2523     		movs	r3, #37
 1446 0216 4360     		str	r3, [r0, #4]
 543:Core/Src/adc.c ****     hdma_adc3.Init.PeriphInc = DMA_PINC_DISABLE;
 1447              		.loc 1 543 5 is_stmt 1 view .LVU537
 543:Core/Src/adc.c ****     hdma_adc3.Init.PeriphInc = DMA_PINC_DISABLE;
 1448              		.loc 1 543 30 is_stmt 0 view .LVU538
ARM GAS  C:\Users\purdu\AppData\Local\Temp\cc3JAzG9.s 			page 41


 1449 0218 8560     		str	r5, [r0, #8]
 544:Core/Src/adc.c ****     hdma_adc3.Init.MemInc = DMA_MINC_ENABLE;
 1450              		.loc 1 544 5 is_stmt 1 view .LVU539
 544:Core/Src/adc.c ****     hdma_adc3.Init.MemInc = DMA_MINC_ENABLE;
 1451              		.loc 1 544 30 is_stmt 0 view .LVU540
 1452 021a C560     		str	r5, [r0, #12]
 545:Core/Src/adc.c ****     hdma_adc3.Init.PeriphDataAlignment = DMA_PDATAALIGN_HALFWORD;
 1453              		.loc 1 545 5 is_stmt 1 view .LVU541
 545:Core/Src/adc.c ****     hdma_adc3.Init.PeriphDataAlignment = DMA_PDATAALIGN_HALFWORD;
 1454              		.loc 1 545 27 is_stmt 0 view .LVU542
 1455 021c 8023     		movs	r3, #128
 1456 021e 0361     		str	r3, [r0, #16]
 546:Core/Src/adc.c ****     hdma_adc3.Init.MemDataAlignment = DMA_MDATAALIGN_HALFWORD;
 1457              		.loc 1 546 5 is_stmt 1 view .LVU543
 546:Core/Src/adc.c ****     hdma_adc3.Init.MemDataAlignment = DMA_MDATAALIGN_HALFWORD;
 1458              		.loc 1 546 40 is_stmt 0 view .LVU544
 1459 0220 4FF48073 		mov	r3, #256
 1460 0224 4361     		str	r3, [r0, #20]
 547:Core/Src/adc.c ****     hdma_adc3.Init.Mode = DMA_CIRCULAR;
 1461              		.loc 1 547 5 is_stmt 1 view .LVU545
 547:Core/Src/adc.c ****     hdma_adc3.Init.Mode = DMA_CIRCULAR;
 1462              		.loc 1 547 37 is_stmt 0 view .LVU546
 1463 0226 4FF48063 		mov	r3, #1024
 1464 022a 8361     		str	r3, [r0, #24]
 548:Core/Src/adc.c ****     hdma_adc3.Init.Priority = DMA_PRIORITY_LOW;
 1465              		.loc 1 548 5 is_stmt 1 view .LVU547
 548:Core/Src/adc.c ****     hdma_adc3.Init.Priority = DMA_PRIORITY_LOW;
 1466              		.loc 1 548 25 is_stmt 0 view .LVU548
 1467 022c 2023     		movs	r3, #32
 1468 022e C361     		str	r3, [r0, #28]
 549:Core/Src/adc.c ****     if (HAL_DMA_Init(&hdma_adc3) != HAL_OK)
 1469              		.loc 1 549 5 is_stmt 1 view .LVU549
 549:Core/Src/adc.c ****     if (HAL_DMA_Init(&hdma_adc3) != HAL_OK)
 1470              		.loc 1 549 29 is_stmt 0 view .LVU550
 1471 0230 0562     		str	r5, [r0, #32]
 550:Core/Src/adc.c ****     {
 1472              		.loc 1 550 5 is_stmt 1 view .LVU551
 550:Core/Src/adc.c ****     {
 1473              		.loc 1 550 9 is_stmt 0 view .LVU552
 1474 0232 FFF7FEFF 		bl	HAL_DMA_Init
 1475              	.LVL59:
 550:Core/Src/adc.c ****     {
 1476              		.loc 1 550 8 discriminator 1 view .LVU553
 1477 0236 88B9     		cbnz	r0, .L91
 1478              	.L70:
 555:Core/Src/adc.c **** 
 1479              		.loc 1 555 5 is_stmt 1 view .LVU554
 555:Core/Src/adc.c **** 
 1480              		.loc 1 555 5 view .LVU555
 1481 0238 184B     		ldr	r3, .L97+56
 1482 023a 6365     		str	r3, [r4, #84]
 555:Core/Src/adc.c **** 
 1483              		.loc 1 555 5 view .LVU556
 1484 023c 9C62     		str	r4, [r3, #40]
 555:Core/Src/adc.c **** 
 1485              		.loc 1 555 5 view .LVU557
 1486 023e FFE6     		b	.L57
ARM GAS  C:\Users\purdu\AppData\Local\Temp\cc3JAzG9.s 			page 42


 1487              	.L89:
 519:Core/Src/adc.c ****     }
 1488              		.loc 1 519 7 view .LVU558
 1489 0240 FFF7FEFF 		bl	Error_Handler
 1490              	.LVL60:
 1491 0244 C8E7     		b	.L68
 1492              	.L90:
 525:Core/Src/adc.c ****     }
 1493              		.loc 1 525 7 view .LVU559
 1494              	.LBB9:
 525:Core/Src/adc.c ****     }
 1495              		.loc 1 525 7 view .LVU560
 525:Core/Src/adc.c ****     }
 1496              		.loc 1 525 7 view .LVU561
 1497 0246 0C4B     		ldr	r3, .L97+20
 1498 0248 DA6C     		ldr	r2, [r3, #76]
 1499 024a 42F48042 		orr	r2, r2, #16384
 1500 024e DA64     		str	r2, [r3, #76]
 525:Core/Src/adc.c ****     }
 1501              		.loc 1 525 7 view .LVU562
 1502 0250 DB6C     		ldr	r3, [r3, #76]
 1503 0252 03F48043 		and	r3, r3, #16384
 1504 0256 0793     		str	r3, [sp, #28]
 525:Core/Src/adc.c ****     }
 1505              		.loc 1 525 7 view .LVU563
 1506 0258 079B     		ldr	r3, [sp, #28]
 1507 025a C3E7     		b	.L69
 1508              	.L91:
 1509              	.LBE9:
 552:Core/Src/adc.c ****     }
 1510              		.loc 1 552 7 view .LVU564
 1511 025c FFF7FEFF 		bl	Error_Handler
 1512              	.LVL61:
 1513 0260 EAE7     		b	.L70
 1514              	.L98:
 1515 0262 00BF     		.align	2
 1516              	.L97:
 1517 0264 00010050 		.word	1342177536
 1518 0268 00040050 		.word	1342178304
 1519 026c 00050050 		.word	1342178560
 1520 0270 00060050 		.word	1342178816
 1521 0274 00000000 		.word	HAL_RCC_ADC12_CLK_ENABLED
 1522 0278 00100240 		.word	1073876992
 1523 027c 00000000 		.word	hdma_adc1
 1524 0280 08040240 		.word	1073873928
 1525 0284 00080048 		.word	1207961600
 1526 0288 00040048 		.word	1207960576
 1527 028c 00000000 		.word	hdma_adc2
 1528 0290 08000240 		.word	1073872904
 1529 0294 00000000 		.word	HAL_RCC_ADC345_CLK_ENABLED
 1530 0298 00100048 		.word	1207963648
 1531 029c 00000000 		.word	hdma_adc3
 1532 02a0 1C000240 		.word	1073872924
 1533              	.L81:
 569:Core/Src/adc.c ****     PeriphClkInit.Adc345ClockSelection = RCC_ADC345CLKSOURCE_SYSCLK;
 1534              		.loc 1 569 5 view .LVU565
 569:Core/Src/adc.c ****     PeriphClkInit.Adc345ClockSelection = RCC_ADC345CLKSOURCE_SYSCLK;
ARM GAS  C:\Users\purdu\AppData\Local\Temp\cc3JAzG9.s 			page 43


 1535              		.loc 1 569 40 is_stmt 0 view .LVU566
 1536 02a4 4FF48033 		mov	r3, #65536
 1537 02a8 0E93     		str	r3, [sp, #56]
 570:Core/Src/adc.c ****     if (HAL_RCCEx_PeriphCLKConfig(&PeriphClkInit) != HAL_OK)
 1538              		.loc 1 570 5 is_stmt 1 view .LVU567
 570:Core/Src/adc.c ****     if (HAL_RCCEx_PeriphCLKConfig(&PeriphClkInit) != HAL_OK)
 1539              		.loc 1 570 40 is_stmt 0 view .LVU568
 1540 02aa 4FF00043 		mov	r3, #-2147483648
 1541 02ae 2093     		str	r3, [sp, #128]
 571:Core/Src/adc.c ****     {
 1542              		.loc 1 571 5 is_stmt 1 view .LVU569
 571:Core/Src/adc.c ****     {
 1543              		.loc 1 571 9 is_stmt 0 view .LVU570
 1544 02b0 0EA8     		add	r0, sp, #56
 1545 02b2 FFF7FEFF 		bl	HAL_RCCEx_PeriphCLKConfig
 1546              	.LVL62:
 571:Core/Src/adc.c ****     {
 1547              		.loc 1 571 8 discriminator 1 view .LVU571
 1548 02b6 0028     		cmp	r0, #0
 1549 02b8 43D1     		bne	.L92
 1550              	.L72:
 577:Core/Src/adc.c ****     if(HAL_RCC_ADC345_CLK_ENABLED==1){
 1551              		.loc 1 577 5 is_stmt 1 view .LVU572
 577:Core/Src/adc.c ****     if(HAL_RCC_ADC345_CLK_ENABLED==1){
 1552              		.loc 1 577 31 is_stmt 0 view .LVU573
 1553 02ba 454A     		ldr	r2, .L99
 1554 02bc 1368     		ldr	r3, [r2]
 1555 02be 0133     		adds	r3, r3, #1
 1556 02c0 1360     		str	r3, [r2]
 578:Core/Src/adc.c ****       __HAL_RCC_ADC345_CLK_ENABLE();
 1557              		.loc 1 578 5 is_stmt 1 view .LVU574
 578:Core/Src/adc.c ****       __HAL_RCC_ADC345_CLK_ENABLE();
 1558              		.loc 1 578 7 is_stmt 0 view .LVU575
 1559 02c2 012B     		cmp	r3, #1
 1560 02c4 40D0     		beq	.L93
 1561              	.L73:
 579:Core/Src/adc.c ****     }
 1562              		.loc 1 579 7 is_stmt 1 discriminator 1 view .LVU576
 582:Core/Src/adc.c ****     __HAL_RCC_GPIOD_CLK_ENABLE();
 1563              		.loc 1 582 5 view .LVU577
 1564              	.LBB10:
 582:Core/Src/adc.c ****     __HAL_RCC_GPIOD_CLK_ENABLE();
 1565              		.loc 1 582 5 view .LVU578
 582:Core/Src/adc.c ****     __HAL_RCC_GPIOD_CLK_ENABLE();
 1566              		.loc 1 582 5 view .LVU579
 1567 02c6 434B     		ldr	r3, .L99+4
 1568 02c8 DA6C     		ldr	r2, [r3, #76]
 1569 02ca 42F00202 		orr	r2, r2, #2
 1570 02ce DA64     		str	r2, [r3, #76]
 582:Core/Src/adc.c ****     __HAL_RCC_GPIOD_CLK_ENABLE();
 1571              		.loc 1 582 5 view .LVU580
 1572 02d0 DA6C     		ldr	r2, [r3, #76]
 1573 02d2 02F00202 		and	r2, r2, #2
 1574 02d6 0A92     		str	r2, [sp, #40]
 582:Core/Src/adc.c ****     __HAL_RCC_GPIOD_CLK_ENABLE();
 1575              		.loc 1 582 5 view .LVU581
 1576 02d8 0A9A     		ldr	r2, [sp, #40]
ARM GAS  C:\Users\purdu\AppData\Local\Temp\cc3JAzG9.s 			page 44


 1577              	.LBE10:
 582:Core/Src/adc.c ****     __HAL_RCC_GPIOD_CLK_ENABLE();
 1578              		.loc 1 582 5 view .LVU582
 583:Core/Src/adc.c ****     /**ADC4 GPIO Configuration
 1579              		.loc 1 583 5 view .LVU583
 1580              	.LBB11:
 583:Core/Src/adc.c ****     /**ADC4 GPIO Configuration
 1581              		.loc 1 583 5 view .LVU584
 583:Core/Src/adc.c ****     /**ADC4 GPIO Configuration
 1582              		.loc 1 583 5 view .LVU585
 1583 02da DA6C     		ldr	r2, [r3, #76]
 1584 02dc 42F00802 		orr	r2, r2, #8
 1585 02e0 DA64     		str	r2, [r3, #76]
 583:Core/Src/adc.c ****     /**ADC4 GPIO Configuration
 1586              		.loc 1 583 5 view .LVU586
 1587 02e2 DB6C     		ldr	r3, [r3, #76]
 1588 02e4 03F00803 		and	r3, r3, #8
 1589 02e8 0B93     		str	r3, [sp, #44]
 583:Core/Src/adc.c ****     /**ADC4 GPIO Configuration
 1590              		.loc 1 583 5 view .LVU587
 1591 02ea 0B9B     		ldr	r3, [sp, #44]
 1592              	.LBE11:
 583:Core/Src/adc.c ****     /**ADC4 GPIO Configuration
 1593              		.loc 1 583 5 view .LVU588
 588:Core/Src/adc.c ****     GPIO_InitStruct.Mode = GPIO_MODE_ANALOG;
 1594              		.loc 1 588 5 view .LVU589
 588:Core/Src/adc.c ****     GPIO_InitStruct.Mode = GPIO_MODE_ANALOG;
 1595              		.loc 1 588 25 is_stmt 0 view .LVU590
 1596 02ec 4FF48053 		mov	r3, #4096
 1597 02f0 2393     		str	r3, [sp, #140]
 589:Core/Src/adc.c ****     GPIO_InitStruct.Pull = GPIO_NOPULL;
 1598              		.loc 1 589 5 is_stmt 1 view .LVU591
 589:Core/Src/adc.c ****     GPIO_InitStruct.Pull = GPIO_NOPULL;
 1599              		.loc 1 589 26 is_stmt 0 view .LVU592
 1600 02f2 0327     		movs	r7, #3
 1601 02f4 2497     		str	r7, [sp, #144]
 590:Core/Src/adc.c ****     HAL_GPIO_Init(GPIOB, &GPIO_InitStruct);
 1602              		.loc 1 590 5 is_stmt 1 view .LVU593
 590:Core/Src/adc.c ****     HAL_GPIO_Init(GPIOB, &GPIO_InitStruct);
 1603              		.loc 1 590 26 is_stmt 0 view .LVU594
 1604 02f6 0025     		movs	r5, #0
 1605 02f8 2595     		str	r5, [sp, #148]
 591:Core/Src/adc.c **** 
 1606              		.loc 1 591 5 is_stmt 1 view .LVU595
 1607 02fa 23A9     		add	r1, sp, #140
 1608 02fc 3648     		ldr	r0, .L99+8
 1609 02fe FFF7FEFF 		bl	HAL_GPIO_Init
 1610              	.LVL63:
 593:Core/Src/adc.c ****     GPIO_InitStruct.Mode = GPIO_MODE_ANALOG;
 1611              		.loc 1 593 5 view .LVU596
 593:Core/Src/adc.c ****     GPIO_InitStruct.Mode = GPIO_MODE_ANALOG;
 1612              		.loc 1 593 25 is_stmt 0 view .LVU597
 1613 0302 4FF48076 		mov	r6, #256
 1614 0306 2396     		str	r6, [sp, #140]
 594:Core/Src/adc.c ****     GPIO_InitStruct.Pull = GPIO_NOPULL;
 1615              		.loc 1 594 5 is_stmt 1 view .LVU598
 594:Core/Src/adc.c ****     GPIO_InitStruct.Pull = GPIO_NOPULL;
ARM GAS  C:\Users\purdu\AppData\Local\Temp\cc3JAzG9.s 			page 45


 1616              		.loc 1 594 26 is_stmt 0 view .LVU599
 1617 0308 2497     		str	r7, [sp, #144]
 595:Core/Src/adc.c ****     HAL_GPIO_Init(GPIOD, &GPIO_InitStruct);
 1618              		.loc 1 595 5 is_stmt 1 view .LVU600
 595:Core/Src/adc.c ****     HAL_GPIO_Init(GPIOD, &GPIO_InitStruct);
 1619              		.loc 1 595 26 is_stmt 0 view .LVU601
 1620 030a 2595     		str	r5, [sp, #148]
 596:Core/Src/adc.c **** 
 1621              		.loc 1 596 5 is_stmt 1 view .LVU602
 1622 030c 23A9     		add	r1, sp, #140
 1623 030e 3348     		ldr	r0, .L99+12
 1624 0310 FFF7FEFF 		bl	HAL_GPIO_Init
 1625              	.LVL64:
 600:Core/Src/adc.c ****     hdma_adc4.Init.Request = DMA_REQUEST_ADC4;
 1626              		.loc 1 600 5 view .LVU603
 600:Core/Src/adc.c ****     hdma_adc4.Init.Request = DMA_REQUEST_ADC4;
 1627              		.loc 1 600 24 is_stmt 0 view .LVU604
 1628 0314 3248     		ldr	r0, .L99+16
 1629 0316 334B     		ldr	r3, .L99+20
 1630 0318 0360     		str	r3, [r0]
 601:Core/Src/adc.c ****     hdma_adc4.Init.Direction = DMA_PERIPH_TO_MEMORY;
 1631              		.loc 1 601 5 is_stmt 1 view .LVU605
 601:Core/Src/adc.c ****     hdma_adc4.Init.Direction = DMA_PERIPH_TO_MEMORY;
 1632              		.loc 1 601 28 is_stmt 0 view .LVU606
 1633 031a 2623     		movs	r3, #38
 1634 031c 4360     		str	r3, [r0, #4]
 602:Core/Src/adc.c ****     hdma_adc4.Init.PeriphInc = DMA_PINC_DISABLE;
 1635              		.loc 1 602 5 is_stmt 1 view .LVU607
 602:Core/Src/adc.c ****     hdma_adc4.Init.PeriphInc = DMA_PINC_DISABLE;
 1636              		.loc 1 602 30 is_stmt 0 view .LVU608
 1637 031e 8560     		str	r5, [r0, #8]
 603:Core/Src/adc.c ****     hdma_adc4.Init.MemInc = DMA_MINC_ENABLE;
 1638              		.loc 1 603 5 is_stmt 1 view .LVU609
 603:Core/Src/adc.c ****     hdma_adc4.Init.MemInc = DMA_MINC_ENABLE;
 1639              		.loc 1 603 30 is_stmt 0 view .LVU610
 1640 0320 C560     		str	r5, [r0, #12]
 604:Core/Src/adc.c ****     hdma_adc4.Init.PeriphDataAlignment = DMA_PDATAALIGN_HALFWORD;
 1641              		.loc 1 604 5 is_stmt 1 view .LVU611
 604:Core/Src/adc.c ****     hdma_adc4.Init.PeriphDataAlignment = DMA_PDATAALIGN_HALFWORD;
 1642              		.loc 1 604 27 is_stmt 0 view .LVU612
 1643 0322 8023     		movs	r3, #128
 1644 0324 0361     		str	r3, [r0, #16]
 605:Core/Src/adc.c ****     hdma_adc4.Init.MemDataAlignment = DMA_MDATAALIGN_HALFWORD;
 1645              		.loc 1 605 5 is_stmt 1 view .LVU613
 605:Core/Src/adc.c ****     hdma_adc4.Init.MemDataAlignment = DMA_MDATAALIGN_HALFWORD;
 1646              		.loc 1 605 40 is_stmt 0 view .LVU614
 1647 0326 4661     		str	r6, [r0, #20]
 606:Core/Src/adc.c ****     hdma_adc4.Init.Mode = DMA_CIRCULAR;
 1648              		.loc 1 606 5 is_stmt 1 view .LVU615
 606:Core/Src/adc.c ****     hdma_adc4.Init.Mode = DMA_CIRCULAR;
 1649              		.loc 1 606 37 is_stmt 0 view .LVU616
 1650 0328 4FF48063 		mov	r3, #1024
 1651 032c 8361     		str	r3, [r0, #24]
 607:Core/Src/adc.c ****     hdma_adc4.Init.Priority = DMA_PRIORITY_LOW;
 1652              		.loc 1 607 5 is_stmt 1 view .LVU617
 607:Core/Src/adc.c ****     hdma_adc4.Init.Priority = DMA_PRIORITY_LOW;
 1653              		.loc 1 607 25 is_stmt 0 view .LVU618
ARM GAS  C:\Users\purdu\AppData\Local\Temp\cc3JAzG9.s 			page 46


 1654 032e 2023     		movs	r3, #32
 1655 0330 C361     		str	r3, [r0, #28]
 608:Core/Src/adc.c ****     if (HAL_DMA_Init(&hdma_adc4) != HAL_OK)
 1656              		.loc 1 608 5 is_stmt 1 view .LVU619
 608:Core/Src/adc.c ****     if (HAL_DMA_Init(&hdma_adc4) != HAL_OK)
 1657              		.loc 1 608 29 is_stmt 0 view .LVU620
 1658 0332 0562     		str	r5, [r0, #32]
 609:Core/Src/adc.c ****     {
 1659              		.loc 1 609 5 is_stmt 1 view .LVU621
 609:Core/Src/adc.c ****     {
 1660              		.loc 1 609 9 is_stmt 0 view .LVU622
 1661 0334 FFF7FEFF 		bl	HAL_DMA_Init
 1662              	.LVL65:
 609:Core/Src/adc.c ****     {
 1663              		.loc 1 609 8 discriminator 1 view .LVU623
 1664 0338 88B9     		cbnz	r0, .L94
 1665              	.L74:
 614:Core/Src/adc.c **** 
 1666              		.loc 1 614 5 is_stmt 1 view .LVU624
 614:Core/Src/adc.c **** 
 1667              		.loc 1 614 5 view .LVU625
 1668 033a 294B     		ldr	r3, .L99+16
 1669 033c 6365     		str	r3, [r4, #84]
 614:Core/Src/adc.c **** 
 1670              		.loc 1 614 5 view .LVU626
 1671 033e 9C62     		str	r4, [r3, #40]
 614:Core/Src/adc.c **** 
 1672              		.loc 1 614 5 view .LVU627
 1673 0340 7EE6     		b	.L57
 1674              	.L92:
 573:Core/Src/adc.c ****     }
 1675              		.loc 1 573 7 view .LVU628
 1676 0342 FFF7FEFF 		bl	Error_Handler
 1677              	.LVL66:
 1678 0346 B8E7     		b	.L72
 1679              	.L93:
 579:Core/Src/adc.c ****     }
 1680              		.loc 1 579 7 view .LVU629
 1681              	.LBB12:
 579:Core/Src/adc.c ****     }
 1682              		.loc 1 579 7 view .LVU630
 579:Core/Src/adc.c ****     }
 1683              		.loc 1 579 7 view .LVU631
 1684 0348 224B     		ldr	r3, .L99+4
 1685 034a DA6C     		ldr	r2, [r3, #76]
 1686 034c 42F48042 		orr	r2, r2, #16384
 1687 0350 DA64     		str	r2, [r3, #76]
 579:Core/Src/adc.c ****     }
 1688              		.loc 1 579 7 view .LVU632
 1689 0352 DB6C     		ldr	r3, [r3, #76]
 1690 0354 03F48043 		and	r3, r3, #16384
 1691 0358 0993     		str	r3, [sp, #36]
 579:Core/Src/adc.c ****     }
 1692              		.loc 1 579 7 view .LVU633
 1693 035a 099B     		ldr	r3, [sp, #36]
 1694 035c B3E7     		b	.L73
 1695              	.L94:
ARM GAS  C:\Users\purdu\AppData\Local\Temp\cc3JAzG9.s 			page 47


 1696              	.LBE12:
 611:Core/Src/adc.c ****     }
 1697              		.loc 1 611 7 view .LVU634
 1698 035e FFF7FEFF 		bl	Error_Handler
 1699              	.LVL67:
 1700 0362 EAE7     		b	.L74
 1701              	.L82:
 628:Core/Src/adc.c ****     PeriphClkInit.Adc345ClockSelection = RCC_ADC345CLKSOURCE_SYSCLK;
 1702              		.loc 1 628 5 view .LVU635
 628:Core/Src/adc.c ****     PeriphClkInit.Adc345ClockSelection = RCC_ADC345CLKSOURCE_SYSCLK;
 1703              		.loc 1 628 40 is_stmt 0 view .LVU636
 1704 0364 4FF48033 		mov	r3, #65536
 1705 0368 0E93     		str	r3, [sp, #56]
 629:Core/Src/adc.c ****     if (HAL_RCCEx_PeriphCLKConfig(&PeriphClkInit) != HAL_OK)
 1706              		.loc 1 629 5 is_stmt 1 view .LVU637
 629:Core/Src/adc.c ****     if (HAL_RCCEx_PeriphCLKConfig(&PeriphClkInit) != HAL_OK)
 1707              		.loc 1 629 40 is_stmt 0 view .LVU638
 1708 036a 4FF00043 		mov	r3, #-2147483648
 1709 036e 2093     		str	r3, [sp, #128]
 630:Core/Src/adc.c ****     {
 1710              		.loc 1 630 5 is_stmt 1 view .LVU639
 630:Core/Src/adc.c ****     {
 1711              		.loc 1 630 9 is_stmt 0 view .LVU640
 1712 0370 0EA8     		add	r0, sp, #56
 1713 0372 FFF7FEFF 		bl	HAL_RCCEx_PeriphCLKConfig
 1714              	.LVL68:
 630:Core/Src/adc.c ****     {
 1715              		.loc 1 630 8 discriminator 1 view .LVU641
 1716 0376 E0B9     		cbnz	r0, .L95
 1717              	.L75:
 636:Core/Src/adc.c ****     if(HAL_RCC_ADC345_CLK_ENABLED==1){
 1718              		.loc 1 636 5 is_stmt 1 view .LVU642
 636:Core/Src/adc.c ****     if(HAL_RCC_ADC345_CLK_ENABLED==1){
 1719              		.loc 1 636 31 is_stmt 0 view .LVU643
 1720 0378 154A     		ldr	r2, .L99
 1721 037a 1368     		ldr	r3, [r2]
 1722 037c 0133     		adds	r3, r3, #1
 1723 037e 1360     		str	r3, [r2]
 637:Core/Src/adc.c ****       __HAL_RCC_ADC345_CLK_ENABLE();
 1724              		.loc 1 637 5 is_stmt 1 view .LVU644
 637:Core/Src/adc.c ****       __HAL_RCC_ADC345_CLK_ENABLE();
 1725              		.loc 1 637 7 is_stmt 0 view .LVU645
 1726 0380 012B     		cmp	r3, #1
 1727 0382 19D0     		beq	.L96
 1728              	.L76:
 638:Core/Src/adc.c ****     }
 1729              		.loc 1 638 7 is_stmt 1 discriminator 1 view .LVU646
 641:Core/Src/adc.c ****     /**ADC5 GPIO Configuration
 1730              		.loc 1 641 5 view .LVU647
 1731              	.LBB13:
 641:Core/Src/adc.c ****     /**ADC5 GPIO Configuration
 1732              		.loc 1 641 5 view .LVU648
 641:Core/Src/adc.c ****     /**ADC5 GPIO Configuration
 1733              		.loc 1 641 5 view .LVU649
 1734 0384 134B     		ldr	r3, .L99+4
 1735 0386 DA6C     		ldr	r2, [r3, #76]
 1736 0388 42F00102 		orr	r2, r2, #1
ARM GAS  C:\Users\purdu\AppData\Local\Temp\cc3JAzG9.s 			page 48


 1737 038c DA64     		str	r2, [r3, #76]
 641:Core/Src/adc.c ****     /**ADC5 GPIO Configuration
 1738              		.loc 1 641 5 view .LVU650
 1739 038e DB6C     		ldr	r3, [r3, #76]
 1740 0390 03F00103 		and	r3, r3, #1
 1741 0394 0D93     		str	r3, [sp, #52]
 641:Core/Src/adc.c ****     /**ADC5 GPIO Configuration
 1742              		.loc 1 641 5 view .LVU651
 1743 0396 0D9B     		ldr	r3, [sp, #52]
 1744              	.LBE13:
 641:Core/Src/adc.c ****     /**ADC5 GPIO Configuration
 1745              		.loc 1 641 5 view .LVU652
 645:Core/Src/adc.c ****     GPIO_InitStruct.Mode = GPIO_MODE_ANALOG;
 1746              		.loc 1 645 5 view .LVU653
 645:Core/Src/adc.c ****     GPIO_InitStruct.Mode = GPIO_MODE_ANALOG;
 1747              		.loc 1 645 25 is_stmt 0 view .LVU654
 1748 0398 4FF48073 		mov	r3, #256
 1749 039c 2393     		str	r3, [sp, #140]
 646:Core/Src/adc.c ****     GPIO_InitStruct.Pull = GPIO_NOPULL;
 1750              		.loc 1 646 5 is_stmt 1 view .LVU655
 646:Core/Src/adc.c ****     GPIO_InitStruct.Pull = GPIO_NOPULL;
 1751              		.loc 1 646 26 is_stmt 0 view .LVU656
 1752 039e 0323     		movs	r3, #3
 1753 03a0 2493     		str	r3, [sp, #144]
 647:Core/Src/adc.c ****     HAL_GPIO_Init(GPIOA, &GPIO_InitStruct);
 1754              		.loc 1 647 5 is_stmt 1 view .LVU657
 647:Core/Src/adc.c ****     HAL_GPIO_Init(GPIOA, &GPIO_InitStruct);
 1755              		.loc 1 647 26 is_stmt 0 view .LVU658
 1756 03a2 0023     		movs	r3, #0
 1757 03a4 2593     		str	r3, [sp, #148]
 648:Core/Src/adc.c **** 
 1758              		.loc 1 648 5 is_stmt 1 view .LVU659
 1759 03a6 23A9     		add	r1, sp, #140
 1760 03a8 4FF09040 		mov	r0, #1207959552
 1761 03ac FFF7FEFF 		bl	HAL_GPIO_Init
 1762              	.LVL69:
 1763              		.loc 1 654 1 is_stmt 0 view .LVU660
 1764 03b0 46E6     		b	.L57
 1765              	.L95:
 632:Core/Src/adc.c ****     }
 1766              		.loc 1 632 7 is_stmt 1 view .LVU661
 1767 03b2 FFF7FEFF 		bl	Error_Handler
 1768              	.LVL70:
 1769 03b6 DFE7     		b	.L75
 1770              	.L96:
 638:Core/Src/adc.c ****     }
 1771              		.loc 1 638 7 view .LVU662
 1772              	.LBB14:
 638:Core/Src/adc.c ****     }
 1773              		.loc 1 638 7 view .LVU663
 638:Core/Src/adc.c ****     }
 1774              		.loc 1 638 7 view .LVU664
 1775 03b8 064B     		ldr	r3, .L99+4
 1776 03ba DA6C     		ldr	r2, [r3, #76]
 1777 03bc 42F48042 		orr	r2, r2, #16384
 1778 03c0 DA64     		str	r2, [r3, #76]
 638:Core/Src/adc.c ****     }
ARM GAS  C:\Users\purdu\AppData\Local\Temp\cc3JAzG9.s 			page 49


 1779              		.loc 1 638 7 view .LVU665
 1780 03c2 DB6C     		ldr	r3, [r3, #76]
 1781 03c4 03F48043 		and	r3, r3, #16384
 1782 03c8 0C93     		str	r3, [sp, #48]
 638:Core/Src/adc.c ****     }
 1783              		.loc 1 638 7 view .LVU666
 1784 03ca 0C9B     		ldr	r3, [sp, #48]
 1785 03cc DAE7     		b	.L76
 1786              	.L100:
 1787 03ce 00BF     		.align	2
 1788              	.L99:
 1789 03d0 00000000 		.word	HAL_RCC_ADC345_CLK_ENABLED
 1790 03d4 00100240 		.word	1073876992
 1791 03d8 00040048 		.word	1207960576
 1792 03dc 000C0048 		.word	1207962624
 1793 03e0 00000000 		.word	hdma_adc4
 1794 03e4 30000240 		.word	1073872944
 1795              	.LBE14:
 1796              		.cfi_endproc
 1797              	.LFE334:
 1799              		.section	.text.HAL_ADC_MspDeInit,"ax",%progbits
 1800              		.align	1
 1801              		.global	HAL_ADC_MspDeInit
 1802              		.syntax unified
 1803              		.thumb
 1804              		.thumb_func
 1806              	HAL_ADC_MspDeInit:
 1807              	.LVL71:
 1808              	.LFB335:
 655:Core/Src/adc.c **** 
 656:Core/Src/adc.c **** void HAL_ADC_MspDeInit(ADC_HandleTypeDef* adcHandle)
 657:Core/Src/adc.c **** {
 1809              		.loc 1 657 1 view -0
 1810              		.cfi_startproc
 1811              		@ args = 0, pretend = 0, frame = 0
 1812              		@ frame_needed = 0, uses_anonymous_args = 0
 1813              		.loc 1 657 1 is_stmt 0 view .LVU668
 1814 0000 10B5     		push	{r4, lr}
 1815              	.LCFI24:
 1816              		.cfi_def_cfa_offset 8
 1817              		.cfi_offset 4, -8
 1818              		.cfi_offset 14, -4
 1819 0002 0446     		mov	r4, r0
 658:Core/Src/adc.c **** 
 659:Core/Src/adc.c ****   if(adcHandle->Instance==ADC1)
 1820              		.loc 1 659 3 is_stmt 1 view .LVU669
 1821              		.loc 1 659 15 is_stmt 0 view .LVU670
 1822 0004 0368     		ldr	r3, [r0]
 1823              		.loc 1 659 5 view .LVU671
 1824 0006 B3F1A04F 		cmp	r3, #1342177280
 1825 000a 1CD0     		beq	.L113
 660:Core/Src/adc.c ****   {
 661:Core/Src/adc.c ****   /* USER CODE BEGIN ADC1_MspDeInit 0 */
 662:Core/Src/adc.c **** 
 663:Core/Src/adc.c ****   /* USER CODE END ADC1_MspDeInit 0 */
 664:Core/Src/adc.c ****     /* Peripheral clock disable */
 665:Core/Src/adc.c ****     HAL_RCC_ADC12_CLK_ENABLED--;
ARM GAS  C:\Users\purdu\AppData\Local\Temp\cc3JAzG9.s 			page 50


 666:Core/Src/adc.c ****     if(HAL_RCC_ADC12_CLK_ENABLED==0){
 667:Core/Src/adc.c ****       __HAL_RCC_ADC12_CLK_DISABLE();
 668:Core/Src/adc.c ****     }
 669:Core/Src/adc.c **** 
 670:Core/Src/adc.c ****     /**ADC1 GPIO Configuration
 671:Core/Src/adc.c ****     PA0     ------> ADC1_IN1
 672:Core/Src/adc.c ****     PA1     ------> ADC1_IN2
 673:Core/Src/adc.c ****     */
 674:Core/Src/adc.c ****     HAL_GPIO_DeInit(GPIOA, GPIO_PIN_0|GPIO_PIN_1);
 675:Core/Src/adc.c **** 
 676:Core/Src/adc.c ****     /* ADC1 DMA DeInit */
 677:Core/Src/adc.c ****     HAL_DMA_DeInit(adcHandle->DMA_Handle);
 678:Core/Src/adc.c ****   /* USER CODE BEGIN ADC1_MspDeInit 1 */
 679:Core/Src/adc.c **** 
 680:Core/Src/adc.c ****   /* USER CODE END ADC1_MspDeInit 1 */
 681:Core/Src/adc.c ****   }
 682:Core/Src/adc.c ****   else if(adcHandle->Instance==ADC2)
 1826              		.loc 1 682 8 is_stmt 1 view .LVU672
 1827              		.loc 1 682 10 is_stmt 0 view .LVU673
 1828 000c 3A4A     		ldr	r2, .L117
 1829 000e 9342     		cmp	r3, r2
 1830 0010 2CD0     		beq	.L114
 683:Core/Src/adc.c ****   {
 684:Core/Src/adc.c ****   /* USER CODE BEGIN ADC2_MspDeInit 0 */
 685:Core/Src/adc.c **** 
 686:Core/Src/adc.c ****   /* USER CODE END ADC2_MspDeInit 0 */
 687:Core/Src/adc.c ****     /* Peripheral clock disable */
 688:Core/Src/adc.c ****     HAL_RCC_ADC12_CLK_ENABLED--;
 689:Core/Src/adc.c ****     if(HAL_RCC_ADC12_CLK_ENABLED==0){
 690:Core/Src/adc.c ****       __HAL_RCC_ADC12_CLK_DISABLE();
 691:Core/Src/adc.c ****     }
 692:Core/Src/adc.c **** 
 693:Core/Src/adc.c ****     /**ADC2 GPIO Configuration
 694:Core/Src/adc.c ****     PA5     ------> ADC2_IN13
 695:Core/Src/adc.c ****     PC5     ------> ADC2_IN11
 696:Core/Src/adc.c ****     PB2     ------> ADC2_IN12
 697:Core/Src/adc.c ****     */
 698:Core/Src/adc.c ****     HAL_GPIO_DeInit(GPIOA, GPIO_PIN_5);
 699:Core/Src/adc.c **** 
 700:Core/Src/adc.c ****     HAL_GPIO_DeInit(GPIOC, GPIO_PIN_5);
 701:Core/Src/adc.c **** 
 702:Core/Src/adc.c ****     HAL_GPIO_DeInit(GPIOB, GPIO_PIN_2);
 703:Core/Src/adc.c **** 
 704:Core/Src/adc.c ****     /* ADC2 DMA DeInit */
 705:Core/Src/adc.c ****     HAL_DMA_DeInit(adcHandle->DMA_Handle);
 706:Core/Src/adc.c ****   /* USER CODE BEGIN ADC2_MspDeInit 1 */
 707:Core/Src/adc.c **** 
 708:Core/Src/adc.c ****   /* USER CODE END ADC2_MspDeInit 1 */
 709:Core/Src/adc.c ****   }
 710:Core/Src/adc.c ****   else if(adcHandle->Instance==ADC3)
 1831              		.loc 1 710 8 is_stmt 1 view .LVU674
 1832              		.loc 1 710 10 is_stmt 0 view .LVU675
 1833 0012 3A4A     		ldr	r2, .L117+4
 1834 0014 9342     		cmp	r3, r2
 1835 0016 44D0     		beq	.L115
 711:Core/Src/adc.c ****   {
 712:Core/Src/adc.c ****   /* USER CODE BEGIN ADC3_MspDeInit 0 */
ARM GAS  C:\Users\purdu\AppData\Local\Temp\cc3JAzG9.s 			page 51


 713:Core/Src/adc.c **** 
 714:Core/Src/adc.c ****   /* USER CODE END ADC3_MspDeInit 0 */
 715:Core/Src/adc.c ****     /* Peripheral clock disable */
 716:Core/Src/adc.c ****     HAL_RCC_ADC345_CLK_ENABLED--;
 717:Core/Src/adc.c ****     if(HAL_RCC_ADC345_CLK_ENABLED==0){
 718:Core/Src/adc.c ****       __HAL_RCC_ADC345_CLK_DISABLE();
 719:Core/Src/adc.c ****     }
 720:Core/Src/adc.c **** 
 721:Core/Src/adc.c ****     /**ADC3 GPIO Configuration
 722:Core/Src/adc.c ****     PE7     ------> ADC3_IN4
 723:Core/Src/adc.c ****     PE8     ------> ADC3_IN6
 724:Core/Src/adc.c ****     PE9     ------> ADC3_IN2
 725:Core/Src/adc.c ****     */
 726:Core/Src/adc.c ****     HAL_GPIO_DeInit(GPIOE, GPIO_PIN_7|GPIO_PIN_8|GPIO_PIN_9);
 727:Core/Src/adc.c **** 
 728:Core/Src/adc.c ****     /* ADC3 DMA DeInit */
 729:Core/Src/adc.c ****     HAL_DMA_DeInit(adcHandle->DMA_Handle);
 730:Core/Src/adc.c ****   /* USER CODE BEGIN ADC3_MspDeInit 1 */
 731:Core/Src/adc.c **** 
 732:Core/Src/adc.c ****   /* USER CODE END ADC3_MspDeInit 1 */
 733:Core/Src/adc.c ****   }
 734:Core/Src/adc.c ****   else if(adcHandle->Instance==ADC4)
 1836              		.loc 1 734 8 is_stmt 1 view .LVU676
 1837              		.loc 1 734 10 is_stmt 0 view .LVU677
 1838 0018 394A     		ldr	r2, .L117+8
 1839 001a 9342     		cmp	r3, r2
 1840 001c 54D0     		beq	.L116
 735:Core/Src/adc.c ****   {
 736:Core/Src/adc.c ****   /* USER CODE BEGIN ADC4_MspDeInit 0 */
 737:Core/Src/adc.c **** 
 738:Core/Src/adc.c ****   /* USER CODE END ADC4_MspDeInit 0 */
 739:Core/Src/adc.c ****     /* Peripheral clock disable */
 740:Core/Src/adc.c ****     HAL_RCC_ADC345_CLK_ENABLED--;
 741:Core/Src/adc.c ****     if(HAL_RCC_ADC345_CLK_ENABLED==0){
 742:Core/Src/adc.c ****       __HAL_RCC_ADC345_CLK_DISABLE();
 743:Core/Src/adc.c ****     }
 744:Core/Src/adc.c **** 
 745:Core/Src/adc.c ****     /**ADC4 GPIO Configuration
 746:Core/Src/adc.c ****     PB12     ------> ADC4_IN3
 747:Core/Src/adc.c ****     PD8     ------> ADC4_IN12
 748:Core/Src/adc.c ****     */
 749:Core/Src/adc.c ****     HAL_GPIO_DeInit(GPIOB, GPIO_PIN_12);
 750:Core/Src/adc.c **** 
 751:Core/Src/adc.c ****     HAL_GPIO_DeInit(GPIOD, GPIO_PIN_8);
 752:Core/Src/adc.c **** 
 753:Core/Src/adc.c ****     /* ADC4 DMA DeInit */
 754:Core/Src/adc.c ****     HAL_DMA_DeInit(adcHandle->DMA_Handle);
 755:Core/Src/adc.c ****   /* USER CODE BEGIN ADC4_MspDeInit 1 */
 756:Core/Src/adc.c **** 
 757:Core/Src/adc.c ****   /* USER CODE END ADC4_MspDeInit 1 */
 758:Core/Src/adc.c ****   }
 759:Core/Src/adc.c ****   else if(adcHandle->Instance==ADC5)
 1841              		.loc 1 759 8 is_stmt 1 view .LVU678
 1842              		.loc 1 759 10 is_stmt 0 view .LVU679
 1843 001e 394A     		ldr	r2, .L117+12
 1844 0020 9342     		cmp	r3, r2
 1845 0022 22D1     		bne	.L101
ARM GAS  C:\Users\purdu\AppData\Local\Temp\cc3JAzG9.s 			page 52


 760:Core/Src/adc.c ****   {
 761:Core/Src/adc.c ****   /* USER CODE BEGIN ADC5_MspDeInit 0 */
 762:Core/Src/adc.c **** 
 763:Core/Src/adc.c ****   /* USER CODE END ADC5_MspDeInit 0 */
 764:Core/Src/adc.c ****     /* Peripheral clock disable */
 765:Core/Src/adc.c ****     HAL_RCC_ADC345_CLK_ENABLED--;
 1846              		.loc 1 765 5 is_stmt 1 view .LVU680
 1847              		.loc 1 765 31 is_stmt 0 view .LVU681
 1848 0024 384A     		ldr	r2, .L117+16
 1849 0026 1368     		ldr	r3, [r2]
 1850 0028 013B     		subs	r3, r3, #1
 1851 002a 1360     		str	r3, [r2]
 766:Core/Src/adc.c ****     if(HAL_RCC_ADC345_CLK_ENABLED==0){
 1852              		.loc 1 766 5 is_stmt 1 view .LVU682
 1853              		.loc 1 766 7 is_stmt 0 view .LVU683
 1854 002c 23B9     		cbnz	r3, .L111
 767:Core/Src/adc.c ****       __HAL_RCC_ADC345_CLK_DISABLE();
 1855              		.loc 1 767 7 is_stmt 1 view .LVU684
 1856 002e 374A     		ldr	r2, .L117+20
 1857 0030 D36C     		ldr	r3, [r2, #76]
 1858 0032 23F48043 		bic	r3, r3, #16384
 1859 0036 D364     		str	r3, [r2, #76]
 1860              	.L111:
 768:Core/Src/adc.c ****     }
 769:Core/Src/adc.c **** 
 770:Core/Src/adc.c ****     /**ADC5 GPIO Configuration
 771:Core/Src/adc.c ****     PA8     ------> ADC5_IN1
 772:Core/Src/adc.c ****     */
 773:Core/Src/adc.c ****     HAL_GPIO_DeInit(GPIOA, GPIO_PIN_8);
 1861              		.loc 1 773 5 view .LVU685
 1862 0038 4FF48071 		mov	r1, #256
 1863 003c 4FF09040 		mov	r0, #1207959552
 1864              	.LVL72:
 1865              		.loc 1 773 5 is_stmt 0 view .LVU686
 1866 0040 FFF7FEFF 		bl	HAL_GPIO_DeInit
 1867              	.LVL73:
 774:Core/Src/adc.c **** 
 775:Core/Src/adc.c ****   /* USER CODE BEGIN ADC5_MspDeInit 1 */
 776:Core/Src/adc.c **** 
 777:Core/Src/adc.c ****   /* USER CODE END ADC5_MspDeInit 1 */
 778:Core/Src/adc.c ****   }
 779:Core/Src/adc.c **** }
 1868              		.loc 1 779 1 view .LVU687
 1869 0044 11E0     		b	.L101
 1870              	.LVL74:
 1871              	.L113:
 665:Core/Src/adc.c ****     if(HAL_RCC_ADC12_CLK_ENABLED==0){
 1872              		.loc 1 665 5 is_stmt 1 view .LVU688
 665:Core/Src/adc.c ****     if(HAL_RCC_ADC12_CLK_ENABLED==0){
 1873              		.loc 1 665 30 is_stmt 0 view .LVU689
 1874 0046 324A     		ldr	r2, .L117+24
 1875 0048 1368     		ldr	r3, [r2]
 1876 004a 013B     		subs	r3, r3, #1
 1877 004c 1360     		str	r3, [r2]
 666:Core/Src/adc.c ****       __HAL_RCC_ADC12_CLK_DISABLE();
 1878              		.loc 1 666 5 is_stmt 1 view .LVU690
 666:Core/Src/adc.c ****       __HAL_RCC_ADC12_CLK_DISABLE();
ARM GAS  C:\Users\purdu\AppData\Local\Temp\cc3JAzG9.s 			page 53


 1879              		.loc 1 666 7 is_stmt 0 view .LVU691
 1880 004e 23B9     		cbnz	r3, .L103
 667:Core/Src/adc.c ****     }
 1881              		.loc 1 667 7 is_stmt 1 view .LVU692
 1882 0050 2E4A     		ldr	r2, .L117+20
 1883 0052 D36C     		ldr	r3, [r2, #76]
 1884 0054 23F40053 		bic	r3, r3, #8192
 1885 0058 D364     		str	r3, [r2, #76]
 1886              	.L103:
 674:Core/Src/adc.c **** 
 1887              		.loc 1 674 5 view .LVU693
 1888 005a 0321     		movs	r1, #3
 1889 005c 4FF09040 		mov	r0, #1207959552
 1890              	.LVL75:
 674:Core/Src/adc.c **** 
 1891              		.loc 1 674 5 is_stmt 0 view .LVU694
 1892 0060 FFF7FEFF 		bl	HAL_GPIO_DeInit
 1893              	.LVL76:
 677:Core/Src/adc.c ****   /* USER CODE BEGIN ADC1_MspDeInit 1 */
 1894              		.loc 1 677 5 is_stmt 1 view .LVU695
 1895 0064 606D     		ldr	r0, [r4, #84]
 1896 0066 FFF7FEFF 		bl	HAL_DMA_DeInit
 1897              	.LVL77:
 1898              	.L101:
 1899              		.loc 1 779 1 is_stmt 0 view .LVU696
 1900 006a 10BD     		pop	{r4, pc}
 1901              	.LVL78:
 1902              	.L114:
 688:Core/Src/adc.c ****     if(HAL_RCC_ADC12_CLK_ENABLED==0){
 1903              		.loc 1 688 5 is_stmt 1 view .LVU697
 688:Core/Src/adc.c ****     if(HAL_RCC_ADC12_CLK_ENABLED==0){
 1904              		.loc 1 688 30 is_stmt 0 view .LVU698
 1905 006c 284A     		ldr	r2, .L117+24
 1906 006e 1368     		ldr	r3, [r2]
 1907 0070 013B     		subs	r3, r3, #1
 1908 0072 1360     		str	r3, [r2]
 689:Core/Src/adc.c ****       __HAL_RCC_ADC12_CLK_DISABLE();
 1909              		.loc 1 689 5 is_stmt 1 view .LVU699
 689:Core/Src/adc.c ****       __HAL_RCC_ADC12_CLK_DISABLE();
 1910              		.loc 1 689 7 is_stmt 0 view .LVU700
 1911 0074 23B9     		cbnz	r3, .L106
 690:Core/Src/adc.c ****     }
 1912              		.loc 1 690 7 is_stmt 1 view .LVU701
 1913 0076 254A     		ldr	r2, .L117+20
 1914 0078 D36C     		ldr	r3, [r2, #76]
 1915 007a 23F40053 		bic	r3, r3, #8192
 1916 007e D364     		str	r3, [r2, #76]
 1917              	.L106:
 698:Core/Src/adc.c **** 
 1918              		.loc 1 698 5 view .LVU702
 1919 0080 2021     		movs	r1, #32
 1920 0082 4FF09040 		mov	r0, #1207959552
 1921              	.LVL79:
 698:Core/Src/adc.c **** 
 1922              		.loc 1 698 5 is_stmt 0 view .LVU703
 1923 0086 FFF7FEFF 		bl	HAL_GPIO_DeInit
 1924              	.LVL80:
ARM GAS  C:\Users\purdu\AppData\Local\Temp\cc3JAzG9.s 			page 54


 700:Core/Src/adc.c **** 
 1925              		.loc 1 700 5 is_stmt 1 view .LVU704
 1926 008a 2021     		movs	r1, #32
 1927 008c 2148     		ldr	r0, .L117+28
 1928 008e FFF7FEFF 		bl	HAL_GPIO_DeInit
 1929              	.LVL81:
 702:Core/Src/adc.c **** 
 1930              		.loc 1 702 5 view .LVU705
 1931 0092 0421     		movs	r1, #4
 1932 0094 2048     		ldr	r0, .L117+32
 1933 0096 FFF7FEFF 		bl	HAL_GPIO_DeInit
 1934              	.LVL82:
 705:Core/Src/adc.c ****   /* USER CODE BEGIN ADC2_MspDeInit 1 */
 1935              		.loc 1 705 5 view .LVU706
 1936 009a 606D     		ldr	r0, [r4, #84]
 1937 009c FFF7FEFF 		bl	HAL_DMA_DeInit
 1938              	.LVL83:
 1939 00a0 E3E7     		b	.L101
 1940              	.LVL84:
 1941              	.L115:
 716:Core/Src/adc.c ****     if(HAL_RCC_ADC345_CLK_ENABLED==0){
 1942              		.loc 1 716 5 view .LVU707
 716:Core/Src/adc.c ****     if(HAL_RCC_ADC345_CLK_ENABLED==0){
 1943              		.loc 1 716 31 is_stmt 0 view .LVU708
 1944 00a2 194A     		ldr	r2, .L117+16
 1945 00a4 1368     		ldr	r3, [r2]
 1946 00a6 013B     		subs	r3, r3, #1
 1947 00a8 1360     		str	r3, [r2]
 717:Core/Src/adc.c ****       __HAL_RCC_ADC345_CLK_DISABLE();
 1948              		.loc 1 717 5 is_stmt 1 view .LVU709
 717:Core/Src/adc.c ****       __HAL_RCC_ADC345_CLK_DISABLE();
 1949              		.loc 1 717 7 is_stmt 0 view .LVU710
 1950 00aa 23B9     		cbnz	r3, .L108
 718:Core/Src/adc.c ****     }
 1951              		.loc 1 718 7 is_stmt 1 view .LVU711
 1952 00ac 174A     		ldr	r2, .L117+20
 1953 00ae D36C     		ldr	r3, [r2, #76]
 1954 00b0 23F48043 		bic	r3, r3, #16384
 1955 00b4 D364     		str	r3, [r2, #76]
 1956              	.L108:
 726:Core/Src/adc.c **** 
 1957              		.loc 1 726 5 view .LVU712
 1958 00b6 4FF46071 		mov	r1, #896
 1959 00ba 1848     		ldr	r0, .L117+36
 1960              	.LVL85:
 726:Core/Src/adc.c **** 
 1961              		.loc 1 726 5 is_stmt 0 view .LVU713
 1962 00bc FFF7FEFF 		bl	HAL_GPIO_DeInit
 1963              	.LVL86:
 729:Core/Src/adc.c ****   /* USER CODE BEGIN ADC3_MspDeInit 1 */
 1964              		.loc 1 729 5 is_stmt 1 view .LVU714
 1965 00c0 606D     		ldr	r0, [r4, #84]
 1966 00c2 FFF7FEFF 		bl	HAL_DMA_DeInit
 1967              	.LVL87:
 1968 00c6 D0E7     		b	.L101
 1969              	.LVL88:
 1970              	.L116:
ARM GAS  C:\Users\purdu\AppData\Local\Temp\cc3JAzG9.s 			page 55


 740:Core/Src/adc.c ****     if(HAL_RCC_ADC345_CLK_ENABLED==0){
 1971              		.loc 1 740 5 view .LVU715
 740:Core/Src/adc.c ****     if(HAL_RCC_ADC345_CLK_ENABLED==0){
 1972              		.loc 1 740 31 is_stmt 0 view .LVU716
 1973 00c8 0F4A     		ldr	r2, .L117+16
 1974 00ca 1368     		ldr	r3, [r2]
 1975 00cc 013B     		subs	r3, r3, #1
 1976 00ce 1360     		str	r3, [r2]
 741:Core/Src/adc.c ****       __HAL_RCC_ADC345_CLK_DISABLE();
 1977              		.loc 1 741 5 is_stmt 1 view .LVU717
 741:Core/Src/adc.c ****       __HAL_RCC_ADC345_CLK_DISABLE();
 1978              		.loc 1 741 7 is_stmt 0 view .LVU718
 1979 00d0 23B9     		cbnz	r3, .L110
 742:Core/Src/adc.c ****     }
 1980              		.loc 1 742 7 is_stmt 1 view .LVU719
 1981 00d2 0E4A     		ldr	r2, .L117+20
 1982 00d4 D36C     		ldr	r3, [r2, #76]
 1983 00d6 23F48043 		bic	r3, r3, #16384
 1984 00da D364     		str	r3, [r2, #76]
 1985              	.L110:
 749:Core/Src/adc.c **** 
 1986              		.loc 1 749 5 view .LVU720
 1987 00dc 4FF48051 		mov	r1, #4096
 1988 00e0 0D48     		ldr	r0, .L117+32
 1989              	.LVL89:
 749:Core/Src/adc.c **** 
 1990              		.loc 1 749 5 is_stmt 0 view .LVU721
 1991 00e2 FFF7FEFF 		bl	HAL_GPIO_DeInit
 1992              	.LVL90:
 751:Core/Src/adc.c **** 
 1993              		.loc 1 751 5 is_stmt 1 view .LVU722
 1994 00e6 4FF48071 		mov	r1, #256
 1995 00ea 0D48     		ldr	r0, .L117+40
 1996 00ec FFF7FEFF 		bl	HAL_GPIO_DeInit
 1997              	.LVL91:
 754:Core/Src/adc.c ****   /* USER CODE BEGIN ADC4_MspDeInit 1 */
 1998              		.loc 1 754 5 view .LVU723
 1999 00f0 606D     		ldr	r0, [r4, #84]
 2000 00f2 FFF7FEFF 		bl	HAL_DMA_DeInit
 2001              	.LVL92:
 2002 00f6 B8E7     		b	.L101
 2003              	.L118:
 2004              		.align	2
 2005              	.L117:
 2006 00f8 00010050 		.word	1342177536
 2007 00fc 00040050 		.word	1342178304
 2008 0100 00050050 		.word	1342178560
 2009 0104 00060050 		.word	1342178816
 2010 0108 00000000 		.word	HAL_RCC_ADC345_CLK_ENABLED
 2011 010c 00100240 		.word	1073876992
 2012 0110 00000000 		.word	HAL_RCC_ADC12_CLK_ENABLED
 2013 0114 00080048 		.word	1207961600
 2014 0118 00040048 		.word	1207960576
 2015 011c 00100048 		.word	1207963648
 2016 0120 000C0048 		.word	1207962624
 2017              		.cfi_endproc
 2018              	.LFE335:
ARM GAS  C:\Users\purdu\AppData\Local\Temp\cc3JAzG9.s 			page 56


 2020              		.section	.bss.HAL_RCC_ADC345_CLK_ENABLED,"aw",%nobits
 2021              		.align	2
 2024              	HAL_RCC_ADC345_CLK_ENABLED:
 2025 0000 00000000 		.space	4
 2026              		.section	.bss.HAL_RCC_ADC12_CLK_ENABLED,"aw",%nobits
 2027              		.align	2
 2030              	HAL_RCC_ADC12_CLK_ENABLED:
 2031 0000 00000000 		.space	4
 2032              		.global	hdma_adc4
 2033              		.section	.bss.hdma_adc4,"aw",%nobits
 2034              		.align	2
 2037              	hdma_adc4:
 2038 0000 00000000 		.space	96
 2038      00000000 
 2038      00000000 
 2038      00000000 
 2038      00000000 
 2039              		.global	hdma_adc3
 2040              		.section	.bss.hdma_adc3,"aw",%nobits
 2041              		.align	2
 2044              	hdma_adc3:
 2045 0000 00000000 		.space	96
 2045      00000000 
 2045      00000000 
 2045      00000000 
 2045      00000000 
 2046              		.global	hdma_adc2
 2047              		.section	.bss.hdma_adc2,"aw",%nobits
 2048              		.align	2
 2051              	hdma_adc2:
 2052 0000 00000000 		.space	96
 2052      00000000 
 2052      00000000 
 2052      00000000 
 2052      00000000 
 2053              		.global	hdma_adc1
 2054              		.section	.bss.hdma_adc1,"aw",%nobits
 2055              		.align	2
 2058              	hdma_adc1:
 2059 0000 00000000 		.space	96
 2059      00000000 
 2059      00000000 
 2059      00000000 
 2059      00000000 
 2060              		.global	hadc5
 2061              		.section	.bss.hadc5,"aw",%nobits
 2062              		.align	2
 2065              	hadc5:
 2066 0000 00000000 		.space	108
 2066      00000000 
 2066      00000000 
 2066      00000000 
 2066      00000000 
 2067              		.global	hadc4
 2068              		.section	.bss.hadc4,"aw",%nobits
 2069              		.align	2
 2072              	hadc4:
ARM GAS  C:\Users\purdu\AppData\Local\Temp\cc3JAzG9.s 			page 57


 2073 0000 00000000 		.space	108
 2073      00000000 
 2073      00000000 
 2073      00000000 
 2073      00000000 
 2074              		.global	hadc3
 2075              		.section	.bss.hadc3,"aw",%nobits
 2076              		.align	2
 2079              	hadc3:
 2080 0000 00000000 		.space	108
 2080      00000000 
 2080      00000000 
 2080      00000000 
 2080      00000000 
 2081              		.global	hadc2
 2082              		.section	.bss.hadc2,"aw",%nobits
 2083              		.align	2
 2086              	hadc2:
 2087 0000 00000000 		.space	108
 2087      00000000 
 2087      00000000 
 2087      00000000 
 2087      00000000 
 2088              		.global	hadc1
 2089              		.section	.bss.hadc1,"aw",%nobits
 2090              		.align	2
 2093              	hadc1:
 2094 0000 00000000 		.space	108
 2094      00000000 
 2094      00000000 
 2094      00000000 
 2094      00000000 
 2095              		.text
 2096              	.Letext0:
 2097              		.file 2 "C:/Program Files (x86)/Arm GNU Toolchain arm-none-eabi/13.2 Rel1/arm-none-eabi/include/ma
 2098              		.file 3 "C:/Program Files (x86)/Arm GNU Toolchain arm-none-eabi/13.2 Rel1/arm-none-eabi/include/sy
 2099              		.file 4 "Drivers/CMSIS/Device/ST/STM32G4xx/Include/stm32g473xx.h"
 2100              		.file 5 "Drivers/CMSIS/Device/ST/STM32G4xx/Include/stm32g4xx.h"
 2101              		.file 6 "Drivers/STM32G4xx_HAL_Driver/Inc/stm32g4xx_hal_def.h"
 2102              		.file 7 "Drivers/STM32G4xx_HAL_Driver/Inc/stm32g4xx_hal_rcc_ex.h"
 2103              		.file 8 "Drivers/STM32G4xx_HAL_Driver/Inc/stm32g4xx_hal_gpio.h"
 2104              		.file 9 "Drivers/STM32G4xx_HAL_Driver/Inc/stm32g4xx_hal_dma.h"
 2105              		.file 10 "Drivers/STM32G4xx_HAL_Driver/Inc/stm32g4xx_hal_adc.h"
 2106              		.file 11 "Drivers/STM32G4xx_HAL_Driver/Inc/stm32g4xx_hal_adc_ex.h"
 2107              		.file 12 "Core/Inc/adc.h"
 2108              		.file 13 "Core/Inc/main.h"
 2109              		.file 14 "<built-in>"
ARM GAS  C:\Users\purdu\AppData\Local\Temp\cc3JAzG9.s 			page 58

