ARM GAS  C:\Users\purdu\AppData\Local\Temp\ccmyLePi.s 			page 1


   1              		.cpu cortex-m4
   2              		.arch armv7e-m
   3              		.fpu fpv4-sp-d16
   4              		.eabi_attribute 27, 1
   5              		.eabi_attribute 28, 1
   6              		.eabi_attribute 20, 1
   7              		.eabi_attribute 21, 1
   8              		.eabi_attribute 23, 3
   9              		.eabi_attribute 24, 1
  10              		.eabi_attribute 25, 1
  11              		.eabi_attribute 26, 1
  12              		.eabi_attribute 30, 1
  13              		.eabi_attribute 34, 1
  14              		.eabi_attribute 18, 4
  15              		.file	"main.c"
  16              		.text
  17              	.Ltext0:
  18              		.cfi_sections	.debug_frame
  19              		.file 1 "Core/Src/main.c"
  20              		.section	.text.fputc,"ax",%progbits
  21              		.align	1
  22              		.global	fputc
  23              		.syntax unified
  24              		.thumb
  25              		.thumb_func
  27              	fputc:
  28              	.LVL0:
  29              	.LFB332:
  30              		.file 2 "Core/Inc/Serial.h"
   1:Core/Inc/Serial.h **** /**
   2:Core/Inc/Serial.h ****  * @file Serial.h
   3:Core/Inc/Serial.h ****  * @author Leo Liu
   4:Core/Inc/Serial.h ****  * @brief Serial Communication with Laptop
   5:Core/Inc/Serial.h ****  * @version 1.0
   6:Core/Inc/Serial.h ****  * @date 2023-10-31
   7:Core/Inc/Serial.h ****  * 
   8:Core/Inc/Serial.h ****  * @copyright Copyright (c) 2023
   9:Core/Inc/Serial.h ****  * 
  10:Core/Inc/Serial.h ****  */
  11:Core/Inc/Serial.h **** 
  12:Core/Inc/Serial.h **** #ifndef __SERIAL_H
  13:Core/Inc/Serial.h **** #define __SERIAL_H
  14:Core/Inc/Serial.h ****  
  15:Core/Inc/Serial.h **** #include <stdio.h>
  16:Core/Inc/Serial.h **** #include <stdint.h>
  17:Core/Inc/Serial.h **** #include "usart.h"
  18:Core/Inc/Serial.h **** 
  19:Core/Inc/Serial.h **** int fputc(int ch, FILE *f)
  20:Core/Inc/Serial.h **** {
  31              		.loc 2 20 1 view -0
  32              		.cfi_startproc
  33              		@ args = 0, pretend = 0, frame = 8
  34              		@ frame_needed = 0, uses_anonymous_args = 0
  35              		.loc 2 20 1 is_stmt 0 view .LVU1
  36 0000 00B5     		push	{lr}
  37              	.LCFI0:
  38              		.cfi_def_cfa_offset 4
ARM GAS  C:\Users\purdu\AppData\Local\Temp\ccmyLePi.s 			page 2


  39              		.cfi_offset 14, -4
  40 0002 83B0     		sub	sp, sp, #12
  41              	.LCFI1:
  42              		.cfi_def_cfa_offset 16
  43 0004 0190     		str	r0, [sp, #4]
  21:Core/Inc/Serial.h **** 	HAL_UART_Transmit(&huart3,(uint8_t*)&ch,1,0xFFFF);
  44              		.loc 2 21 2 is_stmt 1 view .LVU2
  45 0006 4FF6FF73 		movw	r3, #65535
  46 000a 0122     		movs	r2, #1
  47 000c 01A9     		add	r1, sp, #4
  48              	.LVL1:
  49              		.loc 2 21 2 is_stmt 0 view .LVU3
  50 000e 0348     		ldr	r0, .L3
  51              	.LVL2:
  52              		.loc 2 21 2 view .LVU4
  53 0010 FFF7FEFF 		bl	HAL_UART_Transmit
  54              	.LVL3:
  22:Core/Inc/Serial.h **** 	return ch;
  55              		.loc 2 22 2 is_stmt 1 view .LVU5
  23:Core/Inc/Serial.h **** }
  56              		.loc 2 23 1 is_stmt 0 view .LVU6
  57 0014 0198     		ldr	r0, [sp, #4]
  58 0016 03B0     		add	sp, sp, #12
  59              	.LCFI2:
  60              		.cfi_def_cfa_offset 4
  61              		@ sp needed
  62 0018 5DF804FB 		ldr	pc, [sp], #4
  63              	.L4:
  64              		.align	2
  65              	.L3:
  66 001c 00000000 		.word	huart3
  67              		.cfi_endproc
  68              	.LFE332:
  70              		.section	.text.Error_Handler,"ax",%progbits
  71              		.align	1
  72              		.global	Error_Handler
  73              		.syntax unified
  74              		.thumb
  75              		.thumb_func
  77              	Error_Handler:
  78              	.LFB335:
   1:Core/Src/main.c **** /* USER CODE BEGIN Header */
   2:Core/Src/main.c **** /**
   3:Core/Src/main.c ****   ******************************************************************************
   4:Core/Src/main.c ****   * @file           : main.c
   5:Core/Src/main.c ****   * @brief          : Main program body
   6:Core/Src/main.c ****   ******************************************************************************
   7:Core/Src/main.c ****   * @attention
   8:Core/Src/main.c ****   *
   9:Core/Src/main.c ****   * Copyright (c) 2024 STMicroelectronics.
  10:Core/Src/main.c ****   * All rights reserved.
  11:Core/Src/main.c ****   *
  12:Core/Src/main.c ****   * This software is licensed under terms that can be found in the LICENSE file
  13:Core/Src/main.c ****   * in the root directory of this software component.
  14:Core/Src/main.c ****   * If no LICENSE file comes with this software, it is provided AS-IS.
  15:Core/Src/main.c ****   *
  16:Core/Src/main.c ****   ******************************************************************************
ARM GAS  C:\Users\purdu\AppData\Local\Temp\ccmyLePi.s 			page 3


  17:Core/Src/main.c ****   */
  18:Core/Src/main.c **** /* USER CODE END Header */
  19:Core/Src/main.c **** /* Includes ------------------------------------------------------------------*/
  20:Core/Src/main.c **** #include "main.h"
  21:Core/Src/main.c **** #include "adc.h"
  22:Core/Src/main.c **** #include "dma.h"
  23:Core/Src/main.c **** #include "fdcan.h"
  24:Core/Src/main.c **** #include "tim.h"
  25:Core/Src/main.c **** #include "usart.h"
  26:Core/Src/main.c **** #include "gpio.h"
  27:Core/Src/main.c **** 
  28:Core/Src/main.c **** /* Private includes ----------------------------------------------------------*/
  29:Core/Src/main.c **** /* USER CODE BEGIN Includes */
  30:Core/Src/main.c **** #include "supercap.h"
  31:Core/Src/main.c **** #include <stdio.h>
  32:Core/Src/main.c **** #include "Serial.h"
  33:Core/Src/main.c **** #include "Kalman_Filter.h"
  34:Core/Src/main.c **** 
  35:Core/Src/main.c **** #define MAX_CAP_VOLTAGE 2700 //24V in 12 bits
  36:Core/Src/main.c **** #define MAX_CURRENT 2202 //1A in 12 bits
  37:Core/Src/main.c **** #define MIN_CURRENT 2047 //0A in 12 bits
  38:Core/Src/main.c **** #define MAX_DUTY 278
  39:Core/Src/main.c **** #define MIN_DUTY 22
  40:Core/Src/main.c **** #define V_1V65 2047 //1.65V in 12 bits
  41:Core/Src/main.c **** 
  42:Core/Src/main.c **** /* USER CODE END Includes */
  43:Core/Src/main.c **** 
  44:Core/Src/main.c **** /* Private typedef -----------------------------------------------------------*/
  45:Core/Src/main.c **** /* USER CODE BEGIN PTD */
  46:Core/Src/main.c **** 
  47:Core/Src/main.c **** /* USER CODE END PTD */
  48:Core/Src/main.c **** 
  49:Core/Src/main.c **** /* Private define ------------------------------------------------------------*/
  50:Core/Src/main.c **** /* USER CODE BEGIN PD */
  51:Core/Src/main.c **** 
  52:Core/Src/main.c **** /* USER CODE END PD */
  53:Core/Src/main.c **** 
  54:Core/Src/main.c **** /* Private macro -------------------------------------------------------------*/
  55:Core/Src/main.c **** /* USER CODE BEGIN PM */
  56:Core/Src/main.c **** 
  57:Core/Src/main.c **** /* USER CODE END PM */
  58:Core/Src/main.c **** 
  59:Core/Src/main.c **** /* Private variables ---------------------------------------------------------*/
  60:Core/Src/main.c **** 
  61:Core/Src/main.c **** /* USER CODE BEGIN PV */
  62:Core/Src/main.c ****   uint16_t supercap_ADC1[2];
  63:Core/Src/main.c ****   uint16_t supercap_ADC2[3];
  64:Core/Src/main.c ****   uint16_t supercap_ADC3[3];
  65:Core/Src/main.c **** 	uint16_t supercap_ADC4[2];
  66:Core/Src/main.c **** 
  67:Core/Src/main.c ****   _ADC_Sample_t C_left = {0};
  68:Core/Src/main.c ****   _ADC_Sample_t C_sys = {0};
  69:Core/Src/main.c ****   _ADC_Sample_t C_right = {0};
  70:Core/Src/main.c ****   _ADC_Sample_t V_sys_op = {0};
  71:Core/Src/main.c ****   _ADC_Sample_t V_cap_op = {0};
  72:Core/Src/main.c ****   _ADC_Sample_t V_cap = {0}; //V_right
  73:Core/Src/main.c ****   _ADC_Sample_t V_bat = {0}; //V_left
ARM GAS  C:\Users\purdu\AppData\Local\Temp\ccmyLePi.s 			page 4


  74:Core/Src/main.c ****   _ADC_Sample_t V_sys = {0};
  75:Core/Src/main.c **** 	
  76:Core/Src/main.c **** 	_ADC_Sample_t V_1V6 = {0};
  77:Core/Src/main.c **** 	_ADC_Sample_t ADC4_12 = {0};
  78:Core/Src/main.c **** 
  79:Core/Src/main.c **** 	Kalman_Filter_t C_left_kalman = {.Q=0.5f,.R=1.0f};
  80:Core/Src/main.c **** 	
  81:Core/Src/main.c ****   _Supercap_PID_Controller_t PID_45W_loop;
  82:Core/Src/main.c ****   _Supercap_PID_Controller_t PID_24V_loop;
  83:Core/Src/main.c ****   _Supercap_PID_Controller_t PID_7A_loop;
  84:Core/Src/main.c **** 	_Supercap_PID_Controller_t PID_voltage_loop;
  85:Core/Src/main.c **** 	
  86:Core/Src/main.c **** 	float temp2;
  87:Core/Src/main.c **** 	uint16_t temp_counter;
  88:Core/Src/main.c **** 
  89:Core/Src/main.c **** /* USER CODE END PV */
  90:Core/Src/main.c **** 
  91:Core/Src/main.c **** /* Private function prototypes -----------------------------------------------*/
  92:Core/Src/main.c **** void SystemClock_Config(void);
  93:Core/Src/main.c **** /* USER CODE BEGIN PFP */
  94:Core/Src/main.c **** //void HAL_ADC_ConvCpltCallback(ADC_HandleTypeDef* hadc1)
  95:Core/Src/main.c **** //{
  96:Core/Src/main.c **** //  HAL_GPIO_TogglePin(GPIOB, GPIO_PIN_14);
  97:Core/Src/main.c **** //}
  98:Core/Src/main.c **** /* USER CODE END PFP */
  99:Core/Src/main.c **** 
 100:Core/Src/main.c **** /* Private user code ---------------------------------------------------------*/
 101:Core/Src/main.c **** /* USER CODE BEGIN 0 */
 102:Core/Src/main.c **** 
 103:Core/Src/main.c **** 
 104:Core/Src/main.c **** /* USER CODE END 0 */
 105:Core/Src/main.c **** 
 106:Core/Src/main.c **** /**
 107:Core/Src/main.c ****   * @brief  The application entry point.
 108:Core/Src/main.c ****   * @retval int
 109:Core/Src/main.c ****   */
 110:Core/Src/main.c **** int main(void)
 111:Core/Src/main.c **** {
 112:Core/Src/main.c ****   /* USER CODE BEGIN 1 */
 113:Core/Src/main.c ****   
 114:Core/Src/main.c ****   char tail[4] = {0x00, 0x00, 0x80, 0x7f};
 115:Core/Src/main.c **** 
 116:Core/Src/main.c ****   C_left.sample = &supercap_ADC1[0];
 117:Core/Src/main.c ****   C_sys.sample = &supercap_ADC1[1];
 118:Core/Src/main.c ****   C_right.sample = &supercap_ADC3[2];
 119:Core/Src/main.c ****   V_sys_op.sample = &supercap_ADC2[0];
 120:Core/Src/main.c ****   V_cap_op.sample = &supercap_ADC2[1];
 121:Core/Src/main.c ****   V_cap.sample = &supercap_ADC2[2];
 122:Core/Src/main.c ****   V_bat.sample = &supercap_ADC3[0];
 123:Core/Src/main.c ****   V_sys.sample = &supercap_ADC3[1];
 124:Core/Src/main.c **** 	V_1V6.sample = &supercap_ADC4[0];
 125:Core/Src/main.c **** 	ADC4_12.sample = &supercap_ADC4[1];
 126:Core/Src/main.c **** 	
 127:Core/Src/main.c **** 	float temp;
 128:Core/Src/main.c ****   /* USER CODE END 1 */
 129:Core/Src/main.c **** 
 130:Core/Src/main.c ****   /* MCU Configuration--------------------------------------------------------*/
ARM GAS  C:\Users\purdu\AppData\Local\Temp\ccmyLePi.s 			page 5


 131:Core/Src/main.c **** 
 132:Core/Src/main.c ****   /* Reset of all peripherals, Initializes the Flash interface and the Systick. */
 133:Core/Src/main.c ****   HAL_Init();
 134:Core/Src/main.c **** 
 135:Core/Src/main.c ****   /* USER CODE BEGIN Init */
 136:Core/Src/main.c **** 
 137:Core/Src/main.c ****   /* USER CODE END Init */
 138:Core/Src/main.c **** 
 139:Core/Src/main.c ****   /* Configure the system clock */
 140:Core/Src/main.c ****   SystemClock_Config();
 141:Core/Src/main.c **** 
 142:Core/Src/main.c ****   /* USER CODE BEGIN SysInit */
 143:Core/Src/main.c **** 
 144:Core/Src/main.c ****   /* USER CODE END SysInit */
 145:Core/Src/main.c **** 
 146:Core/Src/main.c ****   /* Initialize all configured peripherals */
 147:Core/Src/main.c ****   MX_GPIO_Init();
 148:Core/Src/main.c ****   MX_DMA_Init();
 149:Core/Src/main.c ****   MX_ADC1_Init();
 150:Core/Src/main.c ****   MX_ADC2_Init();
 151:Core/Src/main.c ****   MX_TIM1_Init();
 152:Core/Src/main.c ****   MX_USART1_UART_Init();
 153:Core/Src/main.c ****   MX_USART2_UART_Init();
 154:Core/Src/main.c ****   MX_USART3_UART_Init();
 155:Core/Src/main.c ****   MX_TIM3_Init();
 156:Core/Src/main.c ****   MX_TIM4_Init();
 157:Core/Src/main.c ****   MX_ADC4_Init();
 158:Core/Src/main.c ****   MX_FDCAN1_Init();
 159:Core/Src/main.c ****   MX_ADC5_Init();
 160:Core/Src/main.c ****   MX_ADC3_Init();
 161:Core/Src/main.c ****   MX_TIM2_Init();
 162:Core/Src/main.c ****   MX_TIM5_Init();
 163:Core/Src/main.c ****   /* USER CODE BEGIN 2 */
 164:Core/Src/main.c **** 	HAL_ADCEx_Calibration_Start(&hadc1, ADC_SINGLE_ENDED);
 165:Core/Src/main.c **** 	HAL_ADCEx_Calibration_Start(&hadc2, ADC_SINGLE_ENDED);
 166:Core/Src/main.c **** 	HAL_ADCEx_Calibration_Start(&hadc3, ADC_SINGLE_ENDED);
 167:Core/Src/main.c **** 	HAL_ADCEx_Calibration_Start(&hadc4, ADC_SINGLE_ENDED);
 168:Core/Src/main.c **** 
 169:Core/Src/main.c ****   HAL_ADC_Start_DMA(&hadc1, (uint32_t*)supercap_ADC1, 2);
 170:Core/Src/main.c ****   HAL_ADC_Start_DMA(&hadc2, (uint32_t*)supercap_ADC2, 3);
 171:Core/Src/main.c ****   HAL_ADC_Start_DMA(&hadc3, (uint32_t*)supercap_ADC3, 3);
 172:Core/Src/main.c **** 	HAL_ADC_Start_DMA(&hadc4, (uint32_t*)supercap_ADC4, 2);
 173:Core/Src/main.c **** 	
 174:Core/Src/main.c **** 	HAL_TIM_Base_Start(&htim1);
 175:Core/Src/main.c **** 	HAL_TIM_PWM_Start(&htim1, TIM_CHANNEL_1);
 176:Core/Src/main.c ****   HAL_TIMEx_PWMN_Start(&htim1, TIM_CHANNEL_1);
 177:Core/Src/main.c ****   HAL_TIM_PWM_Start(&htim1, TIM_CHANNEL_4);
 178:Core/Src/main.c ****   HAL_TIMEx_PWMN_Start(&htim1, TIM_CHANNEL_4);
 179:Core/Src/main.c **** 	
 180:Core/Src/main.c ****   HAL_TIM_PWM_Start(&htim3, TIM_CHANNEL_2);
 181:Core/Src/main.c **** 	HAL_TIM_PWM_Start(&htim3, TIM_CHANNEL_3);
 182:Core/Src/main.c **** 	
 183:Core/Src/main.c **** 	HAL_TIM_PWM_Start(&htim4, TIM_CHANNEL_1);
 184:Core/Src/main.c **** 	HAL_TIM_PWM_Start(&htim4, TIM_CHANNEL_2);
 185:Core/Src/main.c **** 	
 186:Core/Src/main.c **** 	//Supercap_Soft_Start();
 187:Core/Src/main.c **** 	
ARM GAS  C:\Users\purdu\AppData\Local\Temp\ccmyLePi.s 			page 6


 188:Core/Src/main.c **** 	Supercap_Function_Init(&C_sys);
 189:Core/Src/main.c **** 	Supercap_Function_Init(&C_right);
 190:Core/Src/main.c **** 	Supercap_Function_Init(&ADC4_12);
 191:Core/Src/main.c **** 	Supercap_Function_Init(&V_bat);
 192:Core/Src/main.c **** 	Supercap_Function_Init(&V_cap);
 193:Core/Src/main.c **** 
 194:Core/Src/main.c ****   Supercap_PID_Init(&PID_45W_loop, 0.001f, 0.0001f, 0.0f, MAX_CAP_VOLTAGE, 0, 2500);
 195:Core/Src/main.c ****   Supercap_PID_Init(&PID_24V_loop, 1.0f, 0.000f, 0.0f, MAX_CAP_VOLTAGE, 0, 2500);
 196:Core/Src/main.c ****   Supercap_PID_Init(&PID_7A_loop, 1.0f, 0.000f, 0.0f, MAX_CAP_VOLTAGE, 0, 2500);
 197:Core/Src/main.c **** 	Supercap_PID_Init(&PID_voltage_loop, 0.0001f, 0.00001f, 0.0f, MAX_DUTY, 0, 150);
 198:Core/Src/main.c **** 	
 199:Core/Src/main.c ****   Supercap_PWM_left(0);
 200:Core/Src/main.c **** 
 201:Core/Src/main.c **** 	HAL_TIM_Base_Start_IT(&htim2);
 202:Core/Src/main.c ****   while(V_cap.real_value_12bits<11){};
 203:Core/Src/main.c **** 	HAL_TIM_Base_Start_IT(&htim5);
 204:Core/Src/main.c **** 
 205:Core/Src/main.c **** 	
 206:Core/Src/main.c ****   /* USER CODE END 2 */
 207:Core/Src/main.c **** 
 208:Core/Src/main.c ****   /* Infinite loop */
 209:Core/Src/main.c ****   /* USER CODE BEGIN WHILE */
 210:Core/Src/main.c ****   while (1)
 211:Core/Src/main.c ****   {
 212:Core/Src/main.c ****     /* USER CODE END WHILE */
 213:Core/Src/main.c **** 
 214:Core/Src/main.c ****     /* USER CODE BEGIN 3 */
 215:Core/Src/main.c ****     //sending set: One side DCDC test bench
 216:Core/Src/main.c ****     //Current, voltage and duty cycle
 217:Core/Src/main.c ****     /*
 218:Core/Src/main.c **** 		temp = Supercap_ADC_to_Current_Funtion(C_sys.real_value_12bits,2047);
 219:Core/Src/main.c **** 		HAL_UART_Transmit(&huart3, (uint8_t*)&(temp), 4, 1000);
 220:Core/Src/main.c ****     temp = PID_45W_loop.output;
 221:Core/Src/main.c ****     HAL_UART_Transmit(&huart3, (uint8_t*)&(temp), 4, 1000);
 222:Core/Src/main.c ****     temp = Supercap_ADC_to_Voltage_Funtion(V_cap.real_value_12bits);
 223:Core/Src/main.c ****     HAL_UART_Transmit(&huart3, (uint8_t*)&(temp), 4, 1000);
 224:Core/Src/main.c ****     temp = PID_7A_loop.output;
 225:Core/Src/main.c ****     HAL_UART_Transmit(&huart3, (uint8_t*)&(temp), 4, 1000);
 226:Core/Src/main.c ****     temp = temp2;
 227:Core/Src/main.c ****     HAL_UART_Transmit(&huart3, (uint8_t*)&(temp), 4, 1000);
 228:Core/Src/main.c **** 		temp = PID_voltage_loop.output;
 229:Core/Src/main.c ****     HAL_UART_Transmit(&huart3, (uint8_t*)&(temp), 4, 1000);*/
 230:Core/Src/main.c **** 
 231:Core/Src/main.c ****     //test set 2: This set test the limitation of C_right
 232:Core/Src/main.c **** 		temp = Supercap_ADC_to_Current_Funtion(C_sys.real_value_12bits,2047);
 233:Core/Src/main.c **** 		HAL_UART_Transmit(&huart3, (uint8_t*)&(temp), 4, 1000);
 234:Core/Src/main.c **** 		temp = Supercap_ADC_to_Current_Funtion(C_right.real_value_12bits,2047);
 235:Core/Src/main.c **** 		HAL_UART_Transmit(&huart3, (uint8_t*)&(temp), 4, 1000);
 236:Core/Src/main.c ****     temp = Supercap_ADC_to_Voltage_Funtion(V_cap.real_value_12bits);
 237:Core/Src/main.c ****     HAL_UART_Transmit(&huart3, (uint8_t*)&(temp), 4, 1000);
 238:Core/Src/main.c ****     temp = Supercap_ADC_to_Voltage_Funtion(PID_7A_loop.output);
 239:Core/Src/main.c ****     HAL_UART_Transmit(&huart3, (uint8_t*)&(temp), 4, 1000);
 240:Core/Src/main.c ****     temp = Supercap_ADC_to_Voltage_Funtion(PID_45W_loop.output);
 241:Core/Src/main.c ****     HAL_UART_Transmit(&huart3, (uint8_t*)&(temp), 4, 1000);
 242:Core/Src/main.c ****     temp = Supercap_ADC_to_Voltage_Funtion(temp2); //output PWM
 243:Core/Src/main.c ****     HAL_UART_Transmit(&huart3, (uint8_t*)&(temp), 4, 1000);
 244:Core/Src/main.c ****     temp = temp2 * 0.1f;
ARM GAS  C:\Users\purdu\AppData\Local\Temp\ccmyLePi.s 			page 7


 245:Core/Src/main.c ****     HAL_UART_Transmit(&huart3, (uint8_t*)&(temp), 4, 1000);
 246:Core/Src/main.c **** 		temp = PID_voltage_loop.output;
 247:Core/Src/main.c ****     HAL_UART_Transmit(&huart3, (uint8_t*)&(temp), 4, 1000);
 248:Core/Src/main.c **** 
 249:Core/Src/main.c **** 		HAL_UART_Transmit(&huart3, (uint8_t*)tail, 4, 1000);
 250:Core/Src/main.c ****   }
 251:Core/Src/main.c ****   /* USER CODE END 3 */
 252:Core/Src/main.c **** }
 253:Core/Src/main.c **** 
 254:Core/Src/main.c **** /**
 255:Core/Src/main.c ****   * @brief System Clock Configuration
 256:Core/Src/main.c ****   * @retval None
 257:Core/Src/main.c ****   */
 258:Core/Src/main.c **** void SystemClock_Config(void)
 259:Core/Src/main.c **** {
 260:Core/Src/main.c ****   RCC_OscInitTypeDef RCC_OscInitStruct = {0};
 261:Core/Src/main.c ****   RCC_ClkInitTypeDef RCC_ClkInitStruct = {0};
 262:Core/Src/main.c **** 
 263:Core/Src/main.c ****   /** Configure the main internal regulator output voltage
 264:Core/Src/main.c ****   */
 265:Core/Src/main.c ****   HAL_PWREx_ControlVoltageScaling(PWR_REGULATOR_VOLTAGE_SCALE1);
 266:Core/Src/main.c **** 
 267:Core/Src/main.c ****   /** Initializes the RCC Oscillators according to the specified parameters
 268:Core/Src/main.c ****   * in the RCC_OscInitTypeDef structure.
 269:Core/Src/main.c ****   */
 270:Core/Src/main.c ****   RCC_OscInitStruct.OscillatorType = RCC_OSCILLATORTYPE_HSI;
 271:Core/Src/main.c ****   RCC_OscInitStruct.HSIState = RCC_HSI_ON;
 272:Core/Src/main.c ****   RCC_OscInitStruct.HSICalibrationValue = RCC_HSICALIBRATION_DEFAULT;
 273:Core/Src/main.c ****   RCC_OscInitStruct.PLL.PLLState = RCC_PLL_ON;
 274:Core/Src/main.c ****   RCC_OscInitStruct.PLL.PLLSource = RCC_PLLSOURCE_HSI;
 275:Core/Src/main.c ****   RCC_OscInitStruct.PLL.PLLM = RCC_PLLM_DIV4;
 276:Core/Src/main.c ****   RCC_OscInitStruct.PLL.PLLN = 75;
 277:Core/Src/main.c ****   RCC_OscInitStruct.PLL.PLLP = RCC_PLLP_DIV2;
 278:Core/Src/main.c ****   RCC_OscInitStruct.PLL.PLLQ = RCC_PLLQ_DIV2;
 279:Core/Src/main.c ****   RCC_OscInitStruct.PLL.PLLR = RCC_PLLR_DIV2;
 280:Core/Src/main.c ****   if (HAL_RCC_OscConfig(&RCC_OscInitStruct) != HAL_OK)
 281:Core/Src/main.c ****   {
 282:Core/Src/main.c ****     Error_Handler();
 283:Core/Src/main.c ****   }
 284:Core/Src/main.c **** 
 285:Core/Src/main.c ****   /** Initializes the CPU, AHB and APB buses clocks
 286:Core/Src/main.c ****   */
 287:Core/Src/main.c ****   RCC_ClkInitStruct.ClockType = RCC_CLOCKTYPE_HCLK|RCC_CLOCKTYPE_SYSCLK
 288:Core/Src/main.c ****                               |RCC_CLOCKTYPE_PCLK1|RCC_CLOCKTYPE_PCLK2;
 289:Core/Src/main.c ****   RCC_ClkInitStruct.SYSCLKSource = RCC_SYSCLKSOURCE_PLLCLK;
 290:Core/Src/main.c ****   RCC_ClkInitStruct.AHBCLKDivider = RCC_SYSCLK_DIV1;
 291:Core/Src/main.c ****   RCC_ClkInitStruct.APB1CLKDivider = RCC_HCLK_DIV1;
 292:Core/Src/main.c ****   RCC_ClkInitStruct.APB2CLKDivider = RCC_HCLK_DIV1;
 293:Core/Src/main.c **** 
 294:Core/Src/main.c ****   if (HAL_RCC_ClockConfig(&RCC_ClkInitStruct, FLASH_LATENCY_4) != HAL_OK)
 295:Core/Src/main.c ****   {
 296:Core/Src/main.c ****     Error_Handler();
 297:Core/Src/main.c ****   }
 298:Core/Src/main.c **** }
 299:Core/Src/main.c **** 
 300:Core/Src/main.c **** /* USER CODE BEGIN 4 */
 301:Core/Src/main.c **** 
ARM GAS  C:\Users\purdu\AppData\Local\Temp\ccmyLePi.s 			page 8


 302:Core/Src/main.c **** /* USER CODE END 4 */
 303:Core/Src/main.c **** 
 304:Core/Src/main.c **** /**
 305:Core/Src/main.c ****   * @brief  This function is executed in case of error occurrence.
 306:Core/Src/main.c ****   * @retval None
 307:Core/Src/main.c ****   */
 308:Core/Src/main.c **** void Error_Handler(void)
 309:Core/Src/main.c **** {
  79              		.loc 1 309 1 is_stmt 1 view -0
  80              		.cfi_startproc
  81              		@ Volatile: function does not return.
  82              		@ args = 0, pretend = 0, frame = 0
  83              		@ frame_needed = 0, uses_anonymous_args = 0
  84              		@ link register save eliminated.
 310:Core/Src/main.c ****   /* USER CODE BEGIN Error_Handler_Debug */
 311:Core/Src/main.c ****   /* User can add his own implementation to report the HAL error return state */
 312:Core/Src/main.c ****   __disable_irq();
  85              		.loc 1 312 3 view .LVU8
  86              	.LBB4:
  87              	.LBI4:
  88              		.file 3 "Drivers/CMSIS/Include/cmsis_gcc.h"
   1:Drivers/CMSIS/Include/cmsis_gcc.h **** /**************************************************************************//**
   2:Drivers/CMSIS/Include/cmsis_gcc.h ****  * @file     cmsis_gcc.h
   3:Drivers/CMSIS/Include/cmsis_gcc.h ****  * @brief    CMSIS compiler GCC header file
   4:Drivers/CMSIS/Include/cmsis_gcc.h ****  * @version  V5.2.0
   5:Drivers/CMSIS/Include/cmsis_gcc.h ****  * @date     08. May 2019
   6:Drivers/CMSIS/Include/cmsis_gcc.h ****  ******************************************************************************/
   7:Drivers/CMSIS/Include/cmsis_gcc.h **** /*
   8:Drivers/CMSIS/Include/cmsis_gcc.h ****  * Copyright (c) 2009-2019 Arm Limited. All rights reserved.
   9:Drivers/CMSIS/Include/cmsis_gcc.h ****  *
  10:Drivers/CMSIS/Include/cmsis_gcc.h ****  * SPDX-License-Identifier: Apache-2.0
  11:Drivers/CMSIS/Include/cmsis_gcc.h ****  *
  12:Drivers/CMSIS/Include/cmsis_gcc.h ****  * Licensed under the Apache License, Version 2.0 (the License); you may
  13:Drivers/CMSIS/Include/cmsis_gcc.h ****  * not use this file except in compliance with the License.
  14:Drivers/CMSIS/Include/cmsis_gcc.h ****  * You may obtain a copy of the License at
  15:Drivers/CMSIS/Include/cmsis_gcc.h ****  *
  16:Drivers/CMSIS/Include/cmsis_gcc.h ****  * www.apache.org/licenses/LICENSE-2.0
  17:Drivers/CMSIS/Include/cmsis_gcc.h ****  *
  18:Drivers/CMSIS/Include/cmsis_gcc.h ****  * Unless required by applicable law or agreed to in writing, software
  19:Drivers/CMSIS/Include/cmsis_gcc.h ****  * distributed under the License is distributed on an AS IS BASIS, WITHOUT
  20:Drivers/CMSIS/Include/cmsis_gcc.h ****  * WARRANTIES OR CONDITIONS OF ANY KIND, either express or implied.
  21:Drivers/CMSIS/Include/cmsis_gcc.h ****  * See the License for the specific language governing permissions and
  22:Drivers/CMSIS/Include/cmsis_gcc.h ****  * limitations under the License.
  23:Drivers/CMSIS/Include/cmsis_gcc.h ****  */
  24:Drivers/CMSIS/Include/cmsis_gcc.h **** 
  25:Drivers/CMSIS/Include/cmsis_gcc.h **** #ifndef __CMSIS_GCC_H
  26:Drivers/CMSIS/Include/cmsis_gcc.h **** #define __CMSIS_GCC_H
  27:Drivers/CMSIS/Include/cmsis_gcc.h **** 
  28:Drivers/CMSIS/Include/cmsis_gcc.h **** /* ignore some GCC warnings */
  29:Drivers/CMSIS/Include/cmsis_gcc.h **** #pragma GCC diagnostic push
  30:Drivers/CMSIS/Include/cmsis_gcc.h **** #pragma GCC diagnostic ignored "-Wsign-conversion"
  31:Drivers/CMSIS/Include/cmsis_gcc.h **** #pragma GCC diagnostic ignored "-Wconversion"
  32:Drivers/CMSIS/Include/cmsis_gcc.h **** #pragma GCC diagnostic ignored "-Wunused-parameter"
  33:Drivers/CMSIS/Include/cmsis_gcc.h **** 
  34:Drivers/CMSIS/Include/cmsis_gcc.h **** /* Fallback for __has_builtin */
  35:Drivers/CMSIS/Include/cmsis_gcc.h **** #ifndef __has_builtin
  36:Drivers/CMSIS/Include/cmsis_gcc.h ****   #define __has_builtin(x) (0)
ARM GAS  C:\Users\purdu\AppData\Local\Temp\ccmyLePi.s 			page 9


  37:Drivers/CMSIS/Include/cmsis_gcc.h **** #endif
  38:Drivers/CMSIS/Include/cmsis_gcc.h **** 
  39:Drivers/CMSIS/Include/cmsis_gcc.h **** /* CMSIS compiler specific defines */
  40:Drivers/CMSIS/Include/cmsis_gcc.h **** #ifndef   __ASM
  41:Drivers/CMSIS/Include/cmsis_gcc.h ****   #define __ASM                                  __asm
  42:Drivers/CMSIS/Include/cmsis_gcc.h **** #endif
  43:Drivers/CMSIS/Include/cmsis_gcc.h **** #ifndef   __INLINE
  44:Drivers/CMSIS/Include/cmsis_gcc.h ****   #define __INLINE                               inline
  45:Drivers/CMSIS/Include/cmsis_gcc.h **** #endif
  46:Drivers/CMSIS/Include/cmsis_gcc.h **** #ifndef   __STATIC_INLINE
  47:Drivers/CMSIS/Include/cmsis_gcc.h ****   #define __STATIC_INLINE                        static inline
  48:Drivers/CMSIS/Include/cmsis_gcc.h **** #endif
  49:Drivers/CMSIS/Include/cmsis_gcc.h **** #ifndef   __STATIC_FORCEINLINE                 
  50:Drivers/CMSIS/Include/cmsis_gcc.h ****   #define __STATIC_FORCEINLINE                   __attribute__((always_inline)) static inline
  51:Drivers/CMSIS/Include/cmsis_gcc.h **** #endif                                           
  52:Drivers/CMSIS/Include/cmsis_gcc.h **** #ifndef   __NO_RETURN
  53:Drivers/CMSIS/Include/cmsis_gcc.h ****   #define __NO_RETURN                            __attribute__((__noreturn__))
  54:Drivers/CMSIS/Include/cmsis_gcc.h **** #endif
  55:Drivers/CMSIS/Include/cmsis_gcc.h **** #ifndef   __USED
  56:Drivers/CMSIS/Include/cmsis_gcc.h ****   #define __USED                                 __attribute__((used))
  57:Drivers/CMSIS/Include/cmsis_gcc.h **** #endif
  58:Drivers/CMSIS/Include/cmsis_gcc.h **** #ifndef   __WEAK
  59:Drivers/CMSIS/Include/cmsis_gcc.h ****   #define __WEAK                                 __attribute__((weak))
  60:Drivers/CMSIS/Include/cmsis_gcc.h **** #endif
  61:Drivers/CMSIS/Include/cmsis_gcc.h **** #ifndef   __PACKED
  62:Drivers/CMSIS/Include/cmsis_gcc.h ****   #define __PACKED                               __attribute__((packed, aligned(1)))
  63:Drivers/CMSIS/Include/cmsis_gcc.h **** #endif
  64:Drivers/CMSIS/Include/cmsis_gcc.h **** #ifndef   __PACKED_STRUCT
  65:Drivers/CMSIS/Include/cmsis_gcc.h ****   #define __PACKED_STRUCT                        struct __attribute__((packed, aligned(1)))
  66:Drivers/CMSIS/Include/cmsis_gcc.h **** #endif
  67:Drivers/CMSIS/Include/cmsis_gcc.h **** #ifndef   __PACKED_UNION
  68:Drivers/CMSIS/Include/cmsis_gcc.h ****   #define __PACKED_UNION                         union __attribute__((packed, aligned(1)))
  69:Drivers/CMSIS/Include/cmsis_gcc.h **** #endif
  70:Drivers/CMSIS/Include/cmsis_gcc.h **** #ifndef   __UNALIGNED_UINT32        /* deprecated */
  71:Drivers/CMSIS/Include/cmsis_gcc.h ****   #pragma GCC diagnostic push
  72:Drivers/CMSIS/Include/cmsis_gcc.h ****   #pragma GCC diagnostic ignored "-Wpacked"
  73:Drivers/CMSIS/Include/cmsis_gcc.h ****   #pragma GCC diagnostic ignored "-Wattributes"
  74:Drivers/CMSIS/Include/cmsis_gcc.h ****   struct __attribute__((packed)) T_UINT32 { uint32_t v; };
  75:Drivers/CMSIS/Include/cmsis_gcc.h ****   #pragma GCC diagnostic pop
  76:Drivers/CMSIS/Include/cmsis_gcc.h ****   #define __UNALIGNED_UINT32(x)                  (((struct T_UINT32 *)(x))->v)
  77:Drivers/CMSIS/Include/cmsis_gcc.h **** #endif
  78:Drivers/CMSIS/Include/cmsis_gcc.h **** #ifndef   __UNALIGNED_UINT16_WRITE
  79:Drivers/CMSIS/Include/cmsis_gcc.h ****   #pragma GCC diagnostic push
  80:Drivers/CMSIS/Include/cmsis_gcc.h ****   #pragma GCC diagnostic ignored "-Wpacked"
  81:Drivers/CMSIS/Include/cmsis_gcc.h ****   #pragma GCC diagnostic ignored "-Wattributes"
  82:Drivers/CMSIS/Include/cmsis_gcc.h ****   __PACKED_STRUCT T_UINT16_WRITE { uint16_t v; };
  83:Drivers/CMSIS/Include/cmsis_gcc.h ****   #pragma GCC diagnostic pop
  84:Drivers/CMSIS/Include/cmsis_gcc.h ****   #define __UNALIGNED_UINT16_WRITE(addr, val)    (void)((((struct T_UINT16_WRITE *)(void *)(addr))-
  85:Drivers/CMSIS/Include/cmsis_gcc.h **** #endif
  86:Drivers/CMSIS/Include/cmsis_gcc.h **** #ifndef   __UNALIGNED_UINT16_READ
  87:Drivers/CMSIS/Include/cmsis_gcc.h ****   #pragma GCC diagnostic push
  88:Drivers/CMSIS/Include/cmsis_gcc.h ****   #pragma GCC diagnostic ignored "-Wpacked"
  89:Drivers/CMSIS/Include/cmsis_gcc.h ****   #pragma GCC diagnostic ignored "-Wattributes"
  90:Drivers/CMSIS/Include/cmsis_gcc.h ****   __PACKED_STRUCT T_UINT16_READ { uint16_t v; };
  91:Drivers/CMSIS/Include/cmsis_gcc.h ****   #pragma GCC diagnostic pop
  92:Drivers/CMSIS/Include/cmsis_gcc.h ****   #define __UNALIGNED_UINT16_READ(addr)          (((const struct T_UINT16_READ *)(const void *)(add
  93:Drivers/CMSIS/Include/cmsis_gcc.h **** #endif
ARM GAS  C:\Users\purdu\AppData\Local\Temp\ccmyLePi.s 			page 10


  94:Drivers/CMSIS/Include/cmsis_gcc.h **** #ifndef   __UNALIGNED_UINT32_WRITE
  95:Drivers/CMSIS/Include/cmsis_gcc.h ****   #pragma GCC diagnostic push
  96:Drivers/CMSIS/Include/cmsis_gcc.h ****   #pragma GCC diagnostic ignored "-Wpacked"
  97:Drivers/CMSIS/Include/cmsis_gcc.h ****   #pragma GCC diagnostic ignored "-Wattributes"
  98:Drivers/CMSIS/Include/cmsis_gcc.h ****   __PACKED_STRUCT T_UINT32_WRITE { uint32_t v; };
  99:Drivers/CMSIS/Include/cmsis_gcc.h ****   #pragma GCC diagnostic pop
 100:Drivers/CMSIS/Include/cmsis_gcc.h ****   #define __UNALIGNED_UINT32_WRITE(addr, val)    (void)((((struct T_UINT32_WRITE *)(void *)(addr))-
 101:Drivers/CMSIS/Include/cmsis_gcc.h **** #endif
 102:Drivers/CMSIS/Include/cmsis_gcc.h **** #ifndef   __UNALIGNED_UINT32_READ
 103:Drivers/CMSIS/Include/cmsis_gcc.h ****   #pragma GCC diagnostic push
 104:Drivers/CMSIS/Include/cmsis_gcc.h ****   #pragma GCC diagnostic ignored "-Wpacked"
 105:Drivers/CMSIS/Include/cmsis_gcc.h ****   #pragma GCC diagnostic ignored "-Wattributes"
 106:Drivers/CMSIS/Include/cmsis_gcc.h ****   __PACKED_STRUCT T_UINT32_READ { uint32_t v; };
 107:Drivers/CMSIS/Include/cmsis_gcc.h ****   #pragma GCC diagnostic pop
 108:Drivers/CMSIS/Include/cmsis_gcc.h ****   #define __UNALIGNED_UINT32_READ(addr)          (((const struct T_UINT32_READ *)(const void *)(add
 109:Drivers/CMSIS/Include/cmsis_gcc.h **** #endif
 110:Drivers/CMSIS/Include/cmsis_gcc.h **** #ifndef   __ALIGNED
 111:Drivers/CMSIS/Include/cmsis_gcc.h ****   #define __ALIGNED(x)                           __attribute__((aligned(x)))
 112:Drivers/CMSIS/Include/cmsis_gcc.h **** #endif
 113:Drivers/CMSIS/Include/cmsis_gcc.h **** #ifndef   __RESTRICT
 114:Drivers/CMSIS/Include/cmsis_gcc.h ****   #define __RESTRICT                             __restrict
 115:Drivers/CMSIS/Include/cmsis_gcc.h **** #endif
 116:Drivers/CMSIS/Include/cmsis_gcc.h **** #ifndef   __COMPILER_BARRIER
 117:Drivers/CMSIS/Include/cmsis_gcc.h ****   #define __COMPILER_BARRIER()                   __ASM volatile("":::"memory")
 118:Drivers/CMSIS/Include/cmsis_gcc.h **** #endif
 119:Drivers/CMSIS/Include/cmsis_gcc.h **** 
 120:Drivers/CMSIS/Include/cmsis_gcc.h **** /* #########################  Startup and Lowlevel Init  ######################## */
 121:Drivers/CMSIS/Include/cmsis_gcc.h **** 
 122:Drivers/CMSIS/Include/cmsis_gcc.h **** #ifndef __PROGRAM_START
 123:Drivers/CMSIS/Include/cmsis_gcc.h **** 
 124:Drivers/CMSIS/Include/cmsis_gcc.h **** /**
 125:Drivers/CMSIS/Include/cmsis_gcc.h ****   \brief   Initializes data and bss sections
 126:Drivers/CMSIS/Include/cmsis_gcc.h ****   \details This default implementations initialized all data and additional bss
 127:Drivers/CMSIS/Include/cmsis_gcc.h ****            sections relying on .copy.table and .zero.table specified properly
 128:Drivers/CMSIS/Include/cmsis_gcc.h ****            in the used linker script.
 129:Drivers/CMSIS/Include/cmsis_gcc.h ****   
 130:Drivers/CMSIS/Include/cmsis_gcc.h ****  */
 131:Drivers/CMSIS/Include/cmsis_gcc.h **** __STATIC_FORCEINLINE __NO_RETURN void __cmsis_start(void)
 132:Drivers/CMSIS/Include/cmsis_gcc.h **** {
 133:Drivers/CMSIS/Include/cmsis_gcc.h ****   extern void _start(void) __NO_RETURN;
 134:Drivers/CMSIS/Include/cmsis_gcc.h ****   
 135:Drivers/CMSIS/Include/cmsis_gcc.h ****   typedef struct {
 136:Drivers/CMSIS/Include/cmsis_gcc.h ****     uint32_t const* src;
 137:Drivers/CMSIS/Include/cmsis_gcc.h ****     uint32_t* dest;
 138:Drivers/CMSIS/Include/cmsis_gcc.h ****     uint32_t  wlen;
 139:Drivers/CMSIS/Include/cmsis_gcc.h ****   } __copy_table_t;
 140:Drivers/CMSIS/Include/cmsis_gcc.h ****   
 141:Drivers/CMSIS/Include/cmsis_gcc.h ****   typedef struct {
 142:Drivers/CMSIS/Include/cmsis_gcc.h ****     uint32_t* dest;
 143:Drivers/CMSIS/Include/cmsis_gcc.h ****     uint32_t  wlen;
 144:Drivers/CMSIS/Include/cmsis_gcc.h ****   } __zero_table_t;
 145:Drivers/CMSIS/Include/cmsis_gcc.h ****   
 146:Drivers/CMSIS/Include/cmsis_gcc.h ****   extern const __copy_table_t __copy_table_start__;
 147:Drivers/CMSIS/Include/cmsis_gcc.h ****   extern const __copy_table_t __copy_table_end__;
 148:Drivers/CMSIS/Include/cmsis_gcc.h ****   extern const __zero_table_t __zero_table_start__;
 149:Drivers/CMSIS/Include/cmsis_gcc.h ****   extern const __zero_table_t __zero_table_end__;
 150:Drivers/CMSIS/Include/cmsis_gcc.h **** 
ARM GAS  C:\Users\purdu\AppData\Local\Temp\ccmyLePi.s 			page 11


 151:Drivers/CMSIS/Include/cmsis_gcc.h ****   for (__copy_table_t const* pTable = &__copy_table_start__; pTable < &__copy_table_end__; ++pTable
 152:Drivers/CMSIS/Include/cmsis_gcc.h ****     for(uint32_t i=0u; i<pTable->wlen; ++i) {
 153:Drivers/CMSIS/Include/cmsis_gcc.h ****       pTable->dest[i] = pTable->src[i];
 154:Drivers/CMSIS/Include/cmsis_gcc.h ****     }
 155:Drivers/CMSIS/Include/cmsis_gcc.h ****   }
 156:Drivers/CMSIS/Include/cmsis_gcc.h ****  
 157:Drivers/CMSIS/Include/cmsis_gcc.h ****   for (__zero_table_t const* pTable = &__zero_table_start__; pTable < &__zero_table_end__; ++pTable
 158:Drivers/CMSIS/Include/cmsis_gcc.h ****     for(uint32_t i=0u; i<pTable->wlen; ++i) {
 159:Drivers/CMSIS/Include/cmsis_gcc.h ****       pTable->dest[i] = 0u;
 160:Drivers/CMSIS/Include/cmsis_gcc.h ****     }
 161:Drivers/CMSIS/Include/cmsis_gcc.h ****   }
 162:Drivers/CMSIS/Include/cmsis_gcc.h ****  
 163:Drivers/CMSIS/Include/cmsis_gcc.h ****   _start();
 164:Drivers/CMSIS/Include/cmsis_gcc.h **** }
 165:Drivers/CMSIS/Include/cmsis_gcc.h ****   
 166:Drivers/CMSIS/Include/cmsis_gcc.h **** #define __PROGRAM_START           __cmsis_start
 167:Drivers/CMSIS/Include/cmsis_gcc.h **** #endif
 168:Drivers/CMSIS/Include/cmsis_gcc.h **** 
 169:Drivers/CMSIS/Include/cmsis_gcc.h **** #ifndef __INITIAL_SP
 170:Drivers/CMSIS/Include/cmsis_gcc.h **** #define __INITIAL_SP              __StackTop
 171:Drivers/CMSIS/Include/cmsis_gcc.h **** #endif
 172:Drivers/CMSIS/Include/cmsis_gcc.h **** 
 173:Drivers/CMSIS/Include/cmsis_gcc.h **** #ifndef __STACK_LIMIT
 174:Drivers/CMSIS/Include/cmsis_gcc.h **** #define __STACK_LIMIT             __StackLimit
 175:Drivers/CMSIS/Include/cmsis_gcc.h **** #endif
 176:Drivers/CMSIS/Include/cmsis_gcc.h **** 
 177:Drivers/CMSIS/Include/cmsis_gcc.h **** #ifndef __VECTOR_TABLE
 178:Drivers/CMSIS/Include/cmsis_gcc.h **** #define __VECTOR_TABLE            __Vectors
 179:Drivers/CMSIS/Include/cmsis_gcc.h **** #endif
 180:Drivers/CMSIS/Include/cmsis_gcc.h **** 
 181:Drivers/CMSIS/Include/cmsis_gcc.h **** #ifndef __VECTOR_TABLE_ATTRIBUTE
 182:Drivers/CMSIS/Include/cmsis_gcc.h **** #define __VECTOR_TABLE_ATTRIBUTE  __attribute((used, section(".vectors")))
 183:Drivers/CMSIS/Include/cmsis_gcc.h **** #endif
 184:Drivers/CMSIS/Include/cmsis_gcc.h **** 
 185:Drivers/CMSIS/Include/cmsis_gcc.h **** /* ###########################  Core Function Access  ########################### */
 186:Drivers/CMSIS/Include/cmsis_gcc.h **** /** \ingroup  CMSIS_Core_FunctionInterface
 187:Drivers/CMSIS/Include/cmsis_gcc.h ****     \defgroup CMSIS_Core_RegAccFunctions CMSIS Core Register Access Functions
 188:Drivers/CMSIS/Include/cmsis_gcc.h ****   @{
 189:Drivers/CMSIS/Include/cmsis_gcc.h ****  */
 190:Drivers/CMSIS/Include/cmsis_gcc.h **** 
 191:Drivers/CMSIS/Include/cmsis_gcc.h **** /**
 192:Drivers/CMSIS/Include/cmsis_gcc.h ****   \brief   Enable IRQ Interrupts
 193:Drivers/CMSIS/Include/cmsis_gcc.h ****   \details Enables IRQ interrupts by clearing the I-bit in the CPSR.
 194:Drivers/CMSIS/Include/cmsis_gcc.h ****            Can only be executed in Privileged modes.
 195:Drivers/CMSIS/Include/cmsis_gcc.h ****  */
 196:Drivers/CMSIS/Include/cmsis_gcc.h **** __STATIC_FORCEINLINE void __enable_irq(void)
 197:Drivers/CMSIS/Include/cmsis_gcc.h **** {
 198:Drivers/CMSIS/Include/cmsis_gcc.h ****   __ASM volatile ("cpsie i" : : : "memory");
 199:Drivers/CMSIS/Include/cmsis_gcc.h **** }
 200:Drivers/CMSIS/Include/cmsis_gcc.h **** 
 201:Drivers/CMSIS/Include/cmsis_gcc.h **** 
 202:Drivers/CMSIS/Include/cmsis_gcc.h **** /**
 203:Drivers/CMSIS/Include/cmsis_gcc.h ****   \brief   Disable IRQ Interrupts
 204:Drivers/CMSIS/Include/cmsis_gcc.h ****   \details Disables IRQ interrupts by setting the I-bit in the CPSR.
 205:Drivers/CMSIS/Include/cmsis_gcc.h ****            Can only be executed in Privileged modes.
 206:Drivers/CMSIS/Include/cmsis_gcc.h ****  */
 207:Drivers/CMSIS/Include/cmsis_gcc.h **** __STATIC_FORCEINLINE void __disable_irq(void)
ARM GAS  C:\Users\purdu\AppData\Local\Temp\ccmyLePi.s 			page 12


  89              		.loc 3 207 27 view .LVU9
  90              	.LBB5:
 208:Drivers/CMSIS/Include/cmsis_gcc.h **** {
 209:Drivers/CMSIS/Include/cmsis_gcc.h ****   __ASM volatile ("cpsid i" : : : "memory");
  91              		.loc 3 209 3 view .LVU10
  92              		.syntax unified
  93              	@ 209 "Drivers/CMSIS/Include/cmsis_gcc.h" 1
  94 0000 72B6     		cpsid i
  95              	@ 0 "" 2
  96              		.thumb
  97              		.syntax unified
  98              	.L6:
  99              	.LBE5:
 100              	.LBE4:
 313:Core/Src/main.c ****   while (1)
 101              		.loc 1 313 3 view .LVU11
 314:Core/Src/main.c ****   {
 315:Core/Src/main.c ****   }
 102              		.loc 1 315 3 view .LVU12
 313:Core/Src/main.c ****   while (1)
 103              		.loc 1 313 9 view .LVU13
 104 0002 FEE7     		b	.L6
 105              		.cfi_endproc
 106              	.LFE335:
 108              		.section	.text.SystemClock_Config,"ax",%progbits
 109              		.align	1
 110              		.global	SystemClock_Config
 111              		.syntax unified
 112              		.thumb
 113              		.thumb_func
 115              	SystemClock_Config:
 116              	.LFB334:
 259:Core/Src/main.c ****   RCC_OscInitTypeDef RCC_OscInitStruct = {0};
 117              		.loc 1 259 1 view -0
 118              		.cfi_startproc
 119              		@ args = 0, pretend = 0, frame = 80
 120              		@ frame_needed = 0, uses_anonymous_args = 0
 121 0000 00B5     		push	{lr}
 122              	.LCFI3:
 123              		.cfi_def_cfa_offset 4
 124              		.cfi_offset 14, -4
 125 0002 95B0     		sub	sp, sp, #84
 126              	.LCFI4:
 127              		.cfi_def_cfa_offset 88
 260:Core/Src/main.c ****   RCC_ClkInitTypeDef RCC_ClkInitStruct = {0};
 128              		.loc 1 260 3 view .LVU15
 260:Core/Src/main.c ****   RCC_ClkInitTypeDef RCC_ClkInitStruct = {0};
 129              		.loc 1 260 22 is_stmt 0 view .LVU16
 130 0004 3822     		movs	r2, #56
 131 0006 0021     		movs	r1, #0
 132 0008 06A8     		add	r0, sp, #24
 133 000a FFF7FEFF 		bl	memset
 134              	.LVL4:
 261:Core/Src/main.c **** 
 135              		.loc 1 261 3 is_stmt 1 view .LVU17
 261:Core/Src/main.c **** 
 136              		.loc 1 261 22 is_stmt 0 view .LVU18
ARM GAS  C:\Users\purdu\AppData\Local\Temp\ccmyLePi.s 			page 13


 137 000e 0023     		movs	r3, #0
 138 0010 0193     		str	r3, [sp, #4]
 139 0012 0293     		str	r3, [sp, #8]
 140 0014 0393     		str	r3, [sp, #12]
 141 0016 0493     		str	r3, [sp, #16]
 142 0018 0593     		str	r3, [sp, #20]
 265:Core/Src/main.c **** 
 143              		.loc 1 265 3 is_stmt 1 view .LVU19
 144 001a 4FF40070 		mov	r0, #512
 145 001e FFF7FEFF 		bl	HAL_PWREx_ControlVoltageScaling
 146              	.LVL5:
 270:Core/Src/main.c ****   RCC_OscInitStruct.HSIState = RCC_HSI_ON;
 147              		.loc 1 270 3 view .LVU20
 270:Core/Src/main.c ****   RCC_OscInitStruct.HSIState = RCC_HSI_ON;
 148              		.loc 1 270 36 is_stmt 0 view .LVU21
 149 0022 0223     		movs	r3, #2
 150 0024 0693     		str	r3, [sp, #24]
 271:Core/Src/main.c ****   RCC_OscInitStruct.HSICalibrationValue = RCC_HSICALIBRATION_DEFAULT;
 151              		.loc 1 271 3 is_stmt 1 view .LVU22
 271:Core/Src/main.c ****   RCC_OscInitStruct.HSICalibrationValue = RCC_HSICALIBRATION_DEFAULT;
 152              		.loc 1 271 30 is_stmt 0 view .LVU23
 153 0026 4FF48072 		mov	r2, #256
 154 002a 0992     		str	r2, [sp, #36]
 272:Core/Src/main.c ****   RCC_OscInitStruct.PLL.PLLState = RCC_PLL_ON;
 155              		.loc 1 272 3 is_stmt 1 view .LVU24
 272:Core/Src/main.c ****   RCC_OscInitStruct.PLL.PLLState = RCC_PLL_ON;
 156              		.loc 1 272 41 is_stmt 0 view .LVU25
 157 002c 4022     		movs	r2, #64
 158 002e 0A92     		str	r2, [sp, #40]
 273:Core/Src/main.c ****   RCC_OscInitStruct.PLL.PLLSource = RCC_PLLSOURCE_HSI;
 159              		.loc 1 273 3 is_stmt 1 view .LVU26
 273:Core/Src/main.c ****   RCC_OscInitStruct.PLL.PLLSource = RCC_PLLSOURCE_HSI;
 160              		.loc 1 273 34 is_stmt 0 view .LVU27
 161 0030 0D93     		str	r3, [sp, #52]
 274:Core/Src/main.c ****   RCC_OscInitStruct.PLL.PLLM = RCC_PLLM_DIV4;
 162              		.loc 1 274 3 is_stmt 1 view .LVU28
 274:Core/Src/main.c ****   RCC_OscInitStruct.PLL.PLLM = RCC_PLLM_DIV4;
 163              		.loc 1 274 35 is_stmt 0 view .LVU29
 164 0032 0E93     		str	r3, [sp, #56]
 275:Core/Src/main.c ****   RCC_OscInitStruct.PLL.PLLN = 75;
 165              		.loc 1 275 3 is_stmt 1 view .LVU30
 275:Core/Src/main.c ****   RCC_OscInitStruct.PLL.PLLN = 75;
 166              		.loc 1 275 30 is_stmt 0 view .LVU31
 167 0034 0422     		movs	r2, #4
 168 0036 0F92     		str	r2, [sp, #60]
 276:Core/Src/main.c ****   RCC_OscInitStruct.PLL.PLLP = RCC_PLLP_DIV2;
 169              		.loc 1 276 3 is_stmt 1 view .LVU32
 276:Core/Src/main.c ****   RCC_OscInitStruct.PLL.PLLP = RCC_PLLP_DIV2;
 170              		.loc 1 276 30 is_stmt 0 view .LVU33
 171 0038 4B22     		movs	r2, #75
 172 003a 1092     		str	r2, [sp, #64]
 277:Core/Src/main.c ****   RCC_OscInitStruct.PLL.PLLQ = RCC_PLLQ_DIV2;
 173              		.loc 1 277 3 is_stmt 1 view .LVU34
 277:Core/Src/main.c ****   RCC_OscInitStruct.PLL.PLLQ = RCC_PLLQ_DIV2;
 174              		.loc 1 277 30 is_stmt 0 view .LVU35
 175 003c 1193     		str	r3, [sp, #68]
 278:Core/Src/main.c ****   RCC_OscInitStruct.PLL.PLLR = RCC_PLLR_DIV2;
ARM GAS  C:\Users\purdu\AppData\Local\Temp\ccmyLePi.s 			page 14


 176              		.loc 1 278 3 is_stmt 1 view .LVU36
 278:Core/Src/main.c ****   RCC_OscInitStruct.PLL.PLLR = RCC_PLLR_DIV2;
 177              		.loc 1 278 30 is_stmt 0 view .LVU37
 178 003e 1293     		str	r3, [sp, #72]
 279:Core/Src/main.c ****   if (HAL_RCC_OscConfig(&RCC_OscInitStruct) != HAL_OK)
 179              		.loc 1 279 3 is_stmt 1 view .LVU38
 279:Core/Src/main.c ****   if (HAL_RCC_OscConfig(&RCC_OscInitStruct) != HAL_OK)
 180              		.loc 1 279 30 is_stmt 0 view .LVU39
 181 0040 1393     		str	r3, [sp, #76]
 280:Core/Src/main.c ****   {
 182              		.loc 1 280 3 is_stmt 1 view .LVU40
 280:Core/Src/main.c ****   {
 183              		.loc 1 280 7 is_stmt 0 view .LVU41
 184 0042 06A8     		add	r0, sp, #24
 185 0044 FFF7FEFF 		bl	HAL_RCC_OscConfig
 186              	.LVL6:
 280:Core/Src/main.c ****   {
 187              		.loc 1 280 6 discriminator 1 view .LVU42
 188 0048 80B9     		cbnz	r0, .L11
 287:Core/Src/main.c ****                               |RCC_CLOCKTYPE_PCLK1|RCC_CLOCKTYPE_PCLK2;
 189              		.loc 1 287 3 is_stmt 1 view .LVU43
 287:Core/Src/main.c ****                               |RCC_CLOCKTYPE_PCLK1|RCC_CLOCKTYPE_PCLK2;
 190              		.loc 1 287 31 is_stmt 0 view .LVU44
 191 004a 0F23     		movs	r3, #15
 192 004c 0193     		str	r3, [sp, #4]
 289:Core/Src/main.c ****   RCC_ClkInitStruct.AHBCLKDivider = RCC_SYSCLK_DIV1;
 193              		.loc 1 289 3 is_stmt 1 view .LVU45
 289:Core/Src/main.c ****   RCC_ClkInitStruct.AHBCLKDivider = RCC_SYSCLK_DIV1;
 194              		.loc 1 289 34 is_stmt 0 view .LVU46
 195 004e 0323     		movs	r3, #3
 196 0050 0293     		str	r3, [sp, #8]
 290:Core/Src/main.c ****   RCC_ClkInitStruct.APB1CLKDivider = RCC_HCLK_DIV1;
 197              		.loc 1 290 3 is_stmt 1 view .LVU47
 290:Core/Src/main.c ****   RCC_ClkInitStruct.APB1CLKDivider = RCC_HCLK_DIV1;
 198              		.loc 1 290 35 is_stmt 0 view .LVU48
 199 0052 0023     		movs	r3, #0
 200 0054 0393     		str	r3, [sp, #12]
 291:Core/Src/main.c ****   RCC_ClkInitStruct.APB2CLKDivider = RCC_HCLK_DIV1;
 201              		.loc 1 291 3 is_stmt 1 view .LVU49
 291:Core/Src/main.c ****   RCC_ClkInitStruct.APB2CLKDivider = RCC_HCLK_DIV1;
 202              		.loc 1 291 36 is_stmt 0 view .LVU50
 203 0056 0493     		str	r3, [sp, #16]
 292:Core/Src/main.c **** 
 204              		.loc 1 292 3 is_stmt 1 view .LVU51
 292:Core/Src/main.c **** 
 205              		.loc 1 292 36 is_stmt 0 view .LVU52
 206 0058 0593     		str	r3, [sp, #20]
 294:Core/Src/main.c ****   {
 207              		.loc 1 294 3 is_stmt 1 view .LVU53
 294:Core/Src/main.c ****   {
 208              		.loc 1 294 7 is_stmt 0 view .LVU54
 209 005a 0421     		movs	r1, #4
 210 005c 0DEB0100 		add	r0, sp, r1
 211 0060 FFF7FEFF 		bl	HAL_RCC_ClockConfig
 212              	.LVL7:
 294:Core/Src/main.c ****   {
 213              		.loc 1 294 6 discriminator 1 view .LVU55
ARM GAS  C:\Users\purdu\AppData\Local\Temp\ccmyLePi.s 			page 15


 214 0064 20B9     		cbnz	r0, .L12
 298:Core/Src/main.c **** 
 215              		.loc 1 298 1 view .LVU56
 216 0066 15B0     		add	sp, sp, #84
 217              	.LCFI5:
 218              		.cfi_remember_state
 219              		.cfi_def_cfa_offset 4
 220              		@ sp needed
 221 0068 5DF804FB 		ldr	pc, [sp], #4
 222              	.L11:
 223              	.LCFI6:
 224              		.cfi_restore_state
 282:Core/Src/main.c ****   }
 225              		.loc 1 282 5 is_stmt 1 view .LVU57
 226 006c FFF7FEFF 		bl	Error_Handler
 227              	.LVL8:
 228              	.L12:
 296:Core/Src/main.c ****   }
 229              		.loc 1 296 5 view .LVU58
 230 0070 FFF7FEFF 		bl	Error_Handler
 231              	.LVL9:
 232              		.cfi_endproc
 233              	.LFE334:
 235              		.section	.text.main,"ax",%progbits
 236              		.align	1
 237              		.global	main
 238              		.syntax unified
 239              		.thumb
 240              		.thumb_func
 242              	main:
 243              	.LFB333:
 111:Core/Src/main.c ****   /* USER CODE BEGIN 1 */
 244              		.loc 1 111 1 view -0
 245              		.cfi_startproc
 246              		@ Volatile: function does not return.
 247              		@ args = 0, pretend = 0, frame = 8
 248              		@ frame_needed = 0, uses_anonymous_args = 0
 249 0000 2DE98048 		push	{r7, fp, lr}
 250              	.LCFI7:
 251              		.cfi_def_cfa_offset 12
 252              		.cfi_offset 7, -12
 253              		.cfi_offset 11, -8
 254              		.cfi_offset 14, -4
 255 0004 83B0     		sub	sp, sp, #12
 256              	.LCFI8:
 257              		.cfi_def_cfa_offset 24
 114:Core/Src/main.c **** 
 258              		.loc 1 114 3 view .LVU60
 114:Core/Src/main.c **** 
 259              		.loc 1 114 8 is_stmt 0 view .LVU61
 260 0006 4FF0FF43 		mov	r3, #2139095040
 261 000a 0193     		str	r3, [sp, #4]
 116:Core/Src/main.c ****   C_sys.sample = &supercap_ADC1[1];
 262              		.loc 1 116 3 is_stmt 1 view .LVU62
 116:Core/Src/main.c ****   C_sys.sample = &supercap_ADC1[1];
 263              		.loc 1 116 17 is_stmt 0 view .LVU63
 264 000c B74F     		ldr	r7, .L17
ARM GAS  C:\Users\purdu\AppData\Local\Temp\ccmyLePi.s 			page 16


 265 000e B84B     		ldr	r3, .L17+4
 266 0010 1F60     		str	r7, [r3]
 117:Core/Src/main.c ****   C_right.sample = &supercap_ADC3[2];
 267              		.loc 1 117 3 is_stmt 1 view .LVU64
 117:Core/Src/main.c ****   C_right.sample = &supercap_ADC3[2];
 268              		.loc 1 117 16 is_stmt 0 view .LVU65
 269 0012 BB1C     		adds	r3, r7, #2
 270 0014 B74A     		ldr	r2, .L17+8
 271 0016 1360     		str	r3, [r2]
 118:Core/Src/main.c ****   V_sys_op.sample = &supercap_ADC2[0];
 272              		.loc 1 118 3 is_stmt 1 view .LVU66
 118:Core/Src/main.c ****   V_sys_op.sample = &supercap_ADC2[0];
 273              		.loc 1 118 18 is_stmt 0 view .LVU67
 274 0018 DFF844B3 		ldr	fp, .L17+116
 275 001c B64C     		ldr	r4, .L17+12
 276 001e CBF80040 		str	r4, [fp]
 119:Core/Src/main.c ****   V_cap_op.sample = &supercap_ADC2[1];
 277              		.loc 1 119 3 is_stmt 1 view .LVU68
 119:Core/Src/main.c ****   V_cap_op.sample = &supercap_ADC2[1];
 278              		.loc 1 119 19 is_stmt 0 view .LVU69
 279 0022 B64D     		ldr	r5, .L17+16
 280 0024 B64B     		ldr	r3, .L17+20
 281 0026 1D60     		str	r5, [r3]
 120:Core/Src/main.c ****   V_cap.sample = &supercap_ADC2[2];
 282              		.loc 1 120 3 is_stmt 1 view .LVU70
 120:Core/Src/main.c ****   V_cap.sample = &supercap_ADC2[2];
 283              		.loc 1 120 19 is_stmt 0 view .LVU71
 284 0028 AA1C     		adds	r2, r5, #2
 285 002a B64B     		ldr	r3, .L17+24
 286 002c 1A60     		str	r2, [r3]
 121:Core/Src/main.c ****   V_bat.sample = &supercap_ADC3[0];
 287              		.loc 1 121 3 is_stmt 1 view .LVU72
 121:Core/Src/main.c ****   V_bat.sample = &supercap_ADC3[0];
 288              		.loc 1 121 16 is_stmt 0 view .LVU73
 289 002e DFF82483 		ldr	r8, .L17+104
 290 0032 2B1D     		adds	r3, r5, #4
 291 0034 C8F80030 		str	r3, [r8]
 122:Core/Src/main.c ****   V_sys.sample = &supercap_ADC3[1];
 292              		.loc 1 122 3 is_stmt 1 view .LVU74
 122:Core/Src/main.c ****   V_sys.sample = &supercap_ADC3[1];
 293              		.loc 1 122 16 is_stmt 0 view .LVU75
 294 0038 DFF83093 		ldr	r9, .L17+128
 295 003c 043C     		subs	r4, r4, #4
 296 003e C9F80040 		str	r4, [r9]
 123:Core/Src/main.c **** 	V_1V6.sample = &supercap_ADC4[0];
 297              		.loc 1 123 3 is_stmt 1 view .LVU76
 123:Core/Src/main.c **** 	V_1V6.sample = &supercap_ADC4[0];
 298              		.loc 1 123 16 is_stmt 0 view .LVU77
 299 0042 A21C     		adds	r2, r4, #2
 300 0044 B04B     		ldr	r3, .L17+28
 301 0046 1A60     		str	r2, [r3]
 124:Core/Src/main.c **** 	ADC4_12.sample = &supercap_ADC4[1];
 302              		.loc 1 124 2 is_stmt 1 view .LVU78
 124:Core/Src/main.c **** 	ADC4_12.sample = &supercap_ADC4[1];
 303              		.loc 1 124 15 is_stmt 0 view .LVU79
 304 0048 B04E     		ldr	r6, .L17+32
 305 004a B14B     		ldr	r3, .L17+36
ARM GAS  C:\Users\purdu\AppData\Local\Temp\ccmyLePi.s 			page 17


 306 004c 1E60     		str	r6, [r3]
 125:Core/Src/main.c **** 	
 307              		.loc 1 125 2 is_stmt 1 view .LVU80
 125:Core/Src/main.c **** 	
 308              		.loc 1 125 17 is_stmt 0 view .LVU81
 309 004e DFF820A3 		ldr	r10, .L17+132
 310 0052 B31C     		adds	r3, r6, #2
 311 0054 CAF80030 		str	r3, [r10]
 127:Core/Src/main.c ****   /* USER CODE END 1 */
 312              		.loc 1 127 2 is_stmt 1 view .LVU82
 133:Core/Src/main.c **** 
 313              		.loc 1 133 3 view .LVU83
 314 0058 FFF7FEFF 		bl	HAL_Init
 315              	.LVL10:
 140:Core/Src/main.c **** 
 316              		.loc 1 140 3 view .LVU84
 317 005c FFF7FEFF 		bl	SystemClock_Config
 318              	.LVL11:
 147:Core/Src/main.c ****   MX_DMA_Init();
 319              		.loc 1 147 3 view .LVU85
 320 0060 FFF7FEFF 		bl	MX_GPIO_Init
 321              	.LVL12:
 148:Core/Src/main.c ****   MX_ADC1_Init();
 322              		.loc 1 148 3 view .LVU86
 323 0064 FFF7FEFF 		bl	MX_DMA_Init
 324              	.LVL13:
 149:Core/Src/main.c ****   MX_ADC2_Init();
 325              		.loc 1 149 3 view .LVU87
 326 0068 FFF7FEFF 		bl	MX_ADC1_Init
 327              	.LVL14:
 150:Core/Src/main.c ****   MX_TIM1_Init();
 328              		.loc 1 150 3 view .LVU88
 329 006c FFF7FEFF 		bl	MX_ADC2_Init
 330              	.LVL15:
 151:Core/Src/main.c ****   MX_USART1_UART_Init();
 331              		.loc 1 151 3 view .LVU89
 332 0070 FFF7FEFF 		bl	MX_TIM1_Init
 333              	.LVL16:
 152:Core/Src/main.c ****   MX_USART2_UART_Init();
 334              		.loc 1 152 3 view .LVU90
 335 0074 FFF7FEFF 		bl	MX_USART1_UART_Init
 336              	.LVL17:
 153:Core/Src/main.c ****   MX_USART3_UART_Init();
 337              		.loc 1 153 3 view .LVU91
 338 0078 FFF7FEFF 		bl	MX_USART2_UART_Init
 339              	.LVL18:
 154:Core/Src/main.c ****   MX_TIM3_Init();
 340              		.loc 1 154 3 view .LVU92
 341 007c FFF7FEFF 		bl	MX_USART3_UART_Init
 342              	.LVL19:
 155:Core/Src/main.c ****   MX_TIM4_Init();
 343              		.loc 1 155 3 view .LVU93
 344 0080 FFF7FEFF 		bl	MX_TIM3_Init
 345              	.LVL20:
 156:Core/Src/main.c ****   MX_ADC4_Init();
 346              		.loc 1 156 3 view .LVU94
 347 0084 FFF7FEFF 		bl	MX_TIM4_Init
ARM GAS  C:\Users\purdu\AppData\Local\Temp\ccmyLePi.s 			page 18


 348              	.LVL21:
 157:Core/Src/main.c ****   MX_FDCAN1_Init();
 349              		.loc 1 157 3 view .LVU95
 350 0088 FFF7FEFF 		bl	MX_ADC4_Init
 351              	.LVL22:
 158:Core/Src/main.c ****   MX_ADC5_Init();
 352              		.loc 1 158 3 view .LVU96
 353 008c FFF7FEFF 		bl	MX_FDCAN1_Init
 354              	.LVL23:
 159:Core/Src/main.c ****   MX_ADC3_Init();
 355              		.loc 1 159 3 view .LVU97
 356 0090 FFF7FEFF 		bl	MX_ADC5_Init
 357              	.LVL24:
 160:Core/Src/main.c ****   MX_TIM2_Init();
 358              		.loc 1 160 3 view .LVU98
 359 0094 FFF7FEFF 		bl	MX_ADC3_Init
 360              	.LVL25:
 161:Core/Src/main.c ****   MX_TIM5_Init();
 361              		.loc 1 161 3 view .LVU99
 362 0098 FFF7FEFF 		bl	MX_TIM2_Init
 363              	.LVL26:
 162:Core/Src/main.c ****   /* USER CODE BEGIN 2 */
 364              		.loc 1 162 3 view .LVU100
 365 009c FFF7FEFF 		bl	MX_TIM5_Init
 366              	.LVL27:
 164:Core/Src/main.c **** 	HAL_ADCEx_Calibration_Start(&hadc2, ADC_SINGLE_ENDED);
 367              		.loc 1 164 2 view .LVU101
 368 00a0 7F21     		movs	r1, #127
 369 00a2 9C48     		ldr	r0, .L17+40
 370 00a4 FFF7FEFF 		bl	HAL_ADCEx_Calibration_Start
 371              	.LVL28:
 165:Core/Src/main.c **** 	HAL_ADCEx_Calibration_Start(&hadc3, ADC_SINGLE_ENDED);
 372              		.loc 1 165 2 view .LVU102
 373 00a8 7F21     		movs	r1, #127
 374 00aa 9B48     		ldr	r0, .L17+44
 375 00ac FFF7FEFF 		bl	HAL_ADCEx_Calibration_Start
 376              	.LVL29:
 166:Core/Src/main.c **** 	HAL_ADCEx_Calibration_Start(&hadc4, ADC_SINGLE_ENDED);
 377              		.loc 1 166 2 view .LVU103
 378 00b0 7F21     		movs	r1, #127
 379 00b2 9A48     		ldr	r0, .L17+48
 380 00b4 FFF7FEFF 		bl	HAL_ADCEx_Calibration_Start
 381              	.LVL30:
 167:Core/Src/main.c **** 
 382              		.loc 1 167 2 view .LVU104
 383 00b8 7F21     		movs	r1, #127
 384 00ba 9948     		ldr	r0, .L17+52
 385 00bc FFF7FEFF 		bl	HAL_ADCEx_Calibration_Start
 386              	.LVL31:
 169:Core/Src/main.c ****   HAL_ADC_Start_DMA(&hadc2, (uint32_t*)supercap_ADC2, 3);
 387              		.loc 1 169 3 view .LVU105
 388 00c0 0222     		movs	r2, #2
 389 00c2 3946     		mov	r1, r7
 390 00c4 9348     		ldr	r0, .L17+40
 391 00c6 FFF7FEFF 		bl	HAL_ADC_Start_DMA
 392              	.LVL32:
 170:Core/Src/main.c ****   HAL_ADC_Start_DMA(&hadc3, (uint32_t*)supercap_ADC3, 3);
ARM GAS  C:\Users\purdu\AppData\Local\Temp\ccmyLePi.s 			page 19


 393              		.loc 1 170 3 view .LVU106
 394 00ca 0322     		movs	r2, #3
 395 00cc 2946     		mov	r1, r5
 396 00ce 9248     		ldr	r0, .L17+44
 397 00d0 FFF7FEFF 		bl	HAL_ADC_Start_DMA
 398              	.LVL33:
 171:Core/Src/main.c **** 	HAL_ADC_Start_DMA(&hadc4, (uint32_t*)supercap_ADC4, 2);
 399              		.loc 1 171 3 view .LVU107
 400 00d4 0322     		movs	r2, #3
 401 00d6 2146     		mov	r1, r4
 402 00d8 9048     		ldr	r0, .L17+48
 403 00da FFF7FEFF 		bl	HAL_ADC_Start_DMA
 404              	.LVL34:
 172:Core/Src/main.c **** 	
 405              		.loc 1 172 2 view .LVU108
 406 00de 0222     		movs	r2, #2
 407 00e0 3146     		mov	r1, r6
 408 00e2 8F48     		ldr	r0, .L17+52
 409 00e4 FFF7FEFF 		bl	HAL_ADC_Start_DMA
 410              	.LVL35:
 174:Core/Src/main.c **** 	HAL_TIM_PWM_Start(&htim1, TIM_CHANNEL_1);
 411              		.loc 1 174 2 view .LVU109
 412 00e8 8E4C     		ldr	r4, .L17+56
 413 00ea 2046     		mov	r0, r4
 414 00ec FFF7FEFF 		bl	HAL_TIM_Base_Start
 415              	.LVL36:
 175:Core/Src/main.c ****   HAL_TIMEx_PWMN_Start(&htim1, TIM_CHANNEL_1);
 416              		.loc 1 175 2 view .LVU110
 417 00f0 0021     		movs	r1, #0
 418 00f2 2046     		mov	r0, r4
 419 00f4 FFF7FEFF 		bl	HAL_TIM_PWM_Start
 420              	.LVL37:
 176:Core/Src/main.c ****   HAL_TIM_PWM_Start(&htim1, TIM_CHANNEL_4);
 421              		.loc 1 176 3 view .LVU111
 422 00f8 0021     		movs	r1, #0
 423 00fa 2046     		mov	r0, r4
 424 00fc FFF7FEFF 		bl	HAL_TIMEx_PWMN_Start
 425              	.LVL38:
 177:Core/Src/main.c ****   HAL_TIMEx_PWMN_Start(&htim1, TIM_CHANNEL_4);
 426              		.loc 1 177 3 view .LVU112
 427 0100 0C21     		movs	r1, #12
 428 0102 2046     		mov	r0, r4
 429 0104 FFF7FEFF 		bl	HAL_TIM_PWM_Start
 430              	.LVL39:
 178:Core/Src/main.c **** 	
 431              		.loc 1 178 3 view .LVU113
 432 0108 0C21     		movs	r1, #12
 433 010a 2046     		mov	r0, r4
 434 010c FFF7FEFF 		bl	HAL_TIMEx_PWMN_Start
 435              	.LVL40:
 180:Core/Src/main.c **** 	HAL_TIM_PWM_Start(&htim3, TIM_CHANNEL_3);
 436              		.loc 1 180 3 view .LVU114
 437 0110 854C     		ldr	r4, .L17+60
 438 0112 0421     		movs	r1, #4
 439 0114 2046     		mov	r0, r4
 440 0116 FFF7FEFF 		bl	HAL_TIM_PWM_Start
 441              	.LVL41:
ARM GAS  C:\Users\purdu\AppData\Local\Temp\ccmyLePi.s 			page 20


 181:Core/Src/main.c **** 	
 442              		.loc 1 181 2 view .LVU115
 443 011a 0821     		movs	r1, #8
 444 011c 2046     		mov	r0, r4
 445 011e FFF7FEFF 		bl	HAL_TIM_PWM_Start
 446              	.LVL42:
 183:Core/Src/main.c **** 	HAL_TIM_PWM_Start(&htim4, TIM_CHANNEL_2);
 447              		.loc 1 183 2 view .LVU116
 448 0122 824C     		ldr	r4, .L17+64
 449 0124 0021     		movs	r1, #0
 450 0126 2046     		mov	r0, r4
 451 0128 FFF7FEFF 		bl	HAL_TIM_PWM_Start
 452              	.LVL43:
 184:Core/Src/main.c **** 	
 453              		.loc 1 184 2 view .LVU117
 454 012c 0421     		movs	r1, #4
 455 012e 2046     		mov	r0, r4
 456 0130 FFF7FEFF 		bl	HAL_TIM_PWM_Start
 457              	.LVL44:
 188:Core/Src/main.c **** 	Supercap_Function_Init(&C_right);
 458              		.loc 1 188 2 view .LVU118
 459 0134 6F48     		ldr	r0, .L17+8
 460 0136 FFF7FEFF 		bl	Supercap_Function_Init
 461              	.LVL45:
 189:Core/Src/main.c **** 	Supercap_Function_Init(&ADC4_12);
 462              		.loc 1 189 2 view .LVU119
 463 013a 5846     		mov	r0, fp
 464 013c FFF7FEFF 		bl	Supercap_Function_Init
 465              	.LVL46:
 190:Core/Src/main.c **** 	Supercap_Function_Init(&V_bat);
 466              		.loc 1 190 2 view .LVU120
 467 0140 5046     		mov	r0, r10
 468 0142 FFF7FEFF 		bl	Supercap_Function_Init
 469              	.LVL47:
 191:Core/Src/main.c **** 	Supercap_Function_Init(&V_cap);
 470              		.loc 1 191 2 view .LVU121
 471 0146 4846     		mov	r0, r9
 472 0148 FFF7FEFF 		bl	Supercap_Function_Init
 473              	.LVL48:
 192:Core/Src/main.c **** 
 474              		.loc 1 192 2 view .LVU122
 475 014c 4046     		mov	r0, r8
 476 014e FFF7FEFF 		bl	Supercap_Function_Init
 477              	.LVL49:
 194:Core/Src/main.c ****   Supercap_PID_Init(&PID_24V_loop, 1.0f, 0.000f, 0.0f, MAX_CAP_VOLTAGE, 0, 2500);
 478              		.loc 1 194 3 view .LVU123
 479 0152 9FED778A 		vldr.32	s16, .L17+68
 480 0156 DFED778A 		vldr.32	s17, .L17+72
 481 015a 40F6C413 		movw	r3, #2500
 482 015e 0022     		movs	r2, #0
 483 0160 40F68C21 		movw	r1, #2700
 484 0164 B0EE481A 		vmov.f32	s2, s16
 485 0168 F0EE680A 		vmov.f32	s1, s17
 486 016c 9FED720A 		vldr.32	s0, .L17+76
 487 0170 7248     		ldr	r0, .L17+80
 488 0172 FFF7FEFF 		bl	Supercap_PID_Init
 489              	.LVL50:
ARM GAS  C:\Users\purdu\AppData\Local\Temp\ccmyLePi.s 			page 21


 195:Core/Src/main.c ****   Supercap_PID_Init(&PID_7A_loop, 1.0f, 0.000f, 0.0f, MAX_CAP_VOLTAGE, 0, 2500);
 490              		.loc 1 195 3 view .LVU124
 491 0176 40F6C413 		movw	r3, #2500
 492 017a 0022     		movs	r2, #0
 493 017c 40F68C21 		movw	r1, #2700
 494 0180 B0EE481A 		vmov.f32	s2, s16
 495 0184 F0EE480A 		vmov.f32	s1, s16
 496 0188 B7EE000A 		vmov.f32	s0, #1.0e+0
 497 018c 6C48     		ldr	r0, .L17+84
 498 018e FFF7FEFF 		bl	Supercap_PID_Init
 499              	.LVL51:
 196:Core/Src/main.c **** 	Supercap_PID_Init(&PID_voltage_loop, 0.0001f, 0.00001f, 0.0f, MAX_DUTY, 0, 150);
 500              		.loc 1 196 3 view .LVU125
 501 0192 40F6C413 		movw	r3, #2500
 502 0196 0022     		movs	r2, #0
 503 0198 40F68C21 		movw	r1, #2700
 504 019c B0EE481A 		vmov.f32	s2, s16
 505 01a0 F0EE480A 		vmov.f32	s1, s16
 506 01a4 B7EE000A 		vmov.f32	s0, #1.0e+0
 507 01a8 6648     		ldr	r0, .L17+88
 508 01aa FFF7FEFF 		bl	Supercap_PID_Init
 509              	.LVL52:
 197:Core/Src/main.c **** 	
 510              		.loc 1 197 2 view .LVU126
 511 01ae 9623     		movs	r3, #150
 512 01b0 0022     		movs	r2, #0
 513 01b2 4FF48B71 		mov	r1, #278
 514 01b6 B0EE481A 		vmov.f32	s2, s16
 515 01ba DFED630A 		vldr.32	s1, .L17+92
 516 01be B0EE680A 		vmov.f32	s0, s17
 517 01c2 6248     		ldr	r0, .L17+96
 518 01c4 FFF7FEFF 		bl	Supercap_PID_Init
 519              	.LVL53:
 199:Core/Src/main.c **** 
 520              		.loc 1 199 3 view .LVU127
 521 01c8 0020     		movs	r0, #0
 522 01ca FFF7FEFF 		bl	Supercap_PWM_left
 523              	.LVL54:
 201:Core/Src/main.c ****   while(V_cap.real_value_12bits<11){};
 524              		.loc 1 201 2 view .LVU128
 525 01ce 6048     		ldr	r0, .L17+100
 526 01d0 FFF7FEFF 		bl	HAL_TIM_Base_Start_IT
 527              	.LVL55:
 202:Core/Src/main.c **** 	HAL_TIM_Base_Start_IT(&htim5);
 528              		.loc 1 202 3 view .LVU129
 529              	.L14:
 202:Core/Src/main.c **** 	HAL_TIM_Base_Start_IT(&htim5);
 530              		.loc 1 202 37 discriminator 1 view .LVU130
 202:Core/Src/main.c **** 	HAL_TIM_Base_Start_IT(&htim5);
 531              		.loc 1 202 32 discriminator 1 view .LVU131
 202:Core/Src/main.c **** 	HAL_TIM_Base_Start_IT(&htim5);
 532              		.loc 1 202 14 is_stmt 0 discriminator 1 view .LVU132
 533 01d4 5F4B     		ldr	r3, .L17+104
 534 01d6 9B89     		ldrh	r3, [r3, #12]
 202:Core/Src/main.c **** 	HAL_TIM_Base_Start_IT(&htim5);
 535              		.loc 1 202 32 discriminator 1 view .LVU133
 536 01d8 0A2B     		cmp	r3, #10
ARM GAS  C:\Users\purdu\AppData\Local\Temp\ccmyLePi.s 			page 22


 537 01da FBD9     		bls	.L14
 202:Core/Src/main.c **** 	HAL_TIM_Base_Start_IT(&htim5);
 538              		.loc 1 202 38 is_stmt 1 discriminator 2 view .LVU134
 203:Core/Src/main.c **** 
 539              		.loc 1 203 2 view .LVU135
 540 01dc 5E48     		ldr	r0, .L17+108
 541 01de FFF7FEFF 		bl	HAL_TIM_Base_Start_IT
 542              	.LVL56:
 543              	.L15:
 210:Core/Src/main.c ****   {
 544              		.loc 1 210 3 view .LVU136
 232:Core/Src/main.c **** 		HAL_UART_Transmit(&huart3, (uint8_t*)&(temp), 4, 1000);
 545              		.loc 1 232 3 view .LVU137
 232:Core/Src/main.c **** 		HAL_UART_Transmit(&huart3, (uint8_t*)&(temp), 4, 1000);
 546              		.loc 1 232 10 is_stmt 0 view .LVU138
 547 01e2 40F2FF71 		movw	r1, #2047
 548 01e6 434B     		ldr	r3, .L17+8
 549 01e8 9889     		ldrh	r0, [r3, #12]
 550 01ea FFF7FEFF 		bl	Supercap_ADC_to_Current_Funtion
 551              	.LVL57:
 232:Core/Src/main.c **** 		HAL_UART_Transmit(&huart3, (uint8_t*)&(temp), 4, 1000);
 552              		.loc 1 232 8 discriminator 1 view .LVU139
 553 01ee 8DED000A 		vstr.32	s0, [sp]
 233:Core/Src/main.c **** 		temp = Supercap_ADC_to_Current_Funtion(C_right.real_value_12bits,2047);
 554              		.loc 1 233 3 is_stmt 1 view .LVU140
 555 01f2 5A4C     		ldr	r4, .L17+112
 556 01f4 4FF47A73 		mov	r3, #1000
 557 01f8 0422     		movs	r2, #4
 558 01fa 6946     		mov	r1, sp
 559 01fc 2046     		mov	r0, r4
 560 01fe FFF7FEFF 		bl	HAL_UART_Transmit
 561              	.LVL58:
 234:Core/Src/main.c **** 		HAL_UART_Transmit(&huart3, (uint8_t*)&(temp), 4, 1000);
 562              		.loc 1 234 3 view .LVU141
 234:Core/Src/main.c **** 		HAL_UART_Transmit(&huart3, (uint8_t*)&(temp), 4, 1000);
 563              		.loc 1 234 10 is_stmt 0 view .LVU142
 564 0202 40F2FF71 		movw	r1, #2047
 565 0206 564B     		ldr	r3, .L17+116
 566 0208 9889     		ldrh	r0, [r3, #12]
 567 020a FFF7FEFF 		bl	Supercap_ADC_to_Current_Funtion
 568              	.LVL59:
 234:Core/Src/main.c **** 		HAL_UART_Transmit(&huart3, (uint8_t*)&(temp), 4, 1000);
 569              		.loc 1 234 8 discriminator 1 view .LVU143
 570 020e 8DED000A 		vstr.32	s0, [sp]
 235:Core/Src/main.c ****     temp = Supercap_ADC_to_Voltage_Funtion(V_cap.real_value_12bits);
 571              		.loc 1 235 3 is_stmt 1 view .LVU144
 572 0212 4FF47A73 		mov	r3, #1000
 573 0216 0422     		movs	r2, #4
 574 0218 6946     		mov	r1, sp
 575 021a 2046     		mov	r0, r4
 576 021c FFF7FEFF 		bl	HAL_UART_Transmit
 577              	.LVL60:
 236:Core/Src/main.c ****     HAL_UART_Transmit(&huart3, (uint8_t*)&(temp), 4, 1000);
 578              		.loc 1 236 5 view .LVU145
 236:Core/Src/main.c ****     HAL_UART_Transmit(&huart3, (uint8_t*)&(temp), 4, 1000);
 579              		.loc 1 236 12 is_stmt 0 view .LVU146
 580 0220 4C4B     		ldr	r3, .L17+104
ARM GAS  C:\Users\purdu\AppData\Local\Temp\ccmyLePi.s 			page 23


 581 0222 9889     		ldrh	r0, [r3, #12]
 582 0224 FFF7FEFF 		bl	Supercap_ADC_to_Voltage_Funtion
 583              	.LVL61:
 236:Core/Src/main.c ****     HAL_UART_Transmit(&huart3, (uint8_t*)&(temp), 4, 1000);
 584              		.loc 1 236 10 discriminator 1 view .LVU147
 585 0228 8DED000A 		vstr.32	s0, [sp]
 237:Core/Src/main.c ****     temp = Supercap_ADC_to_Voltage_Funtion(PID_7A_loop.output);
 586              		.loc 1 237 5 is_stmt 1 view .LVU148
 587 022c 4FF47A73 		mov	r3, #1000
 588 0230 0422     		movs	r2, #4
 589 0232 6946     		mov	r1, sp
 590 0234 2046     		mov	r0, r4
 591 0236 FFF7FEFF 		bl	HAL_UART_Transmit
 592              	.LVL62:
 238:Core/Src/main.c ****     HAL_UART_Transmit(&huart3, (uint8_t*)&(temp), 4, 1000);
 593              		.loc 1 238 5 view .LVU149
 238:Core/Src/main.c ****     HAL_UART_Transmit(&huart3, (uint8_t*)&(temp), 4, 1000);
 594              		.loc 1 238 55 is_stmt 0 view .LVU150
 595 023a 424B     		ldr	r3, .L17+88
 596 023c B3F91400 		ldrsh	r0, [r3, #20]
 238:Core/Src/main.c ****     HAL_UART_Transmit(&huart3, (uint8_t*)&(temp), 4, 1000);
 597              		.loc 1 238 12 view .LVU151
 598 0240 80B2     		uxth	r0, r0
 599 0242 FFF7FEFF 		bl	Supercap_ADC_to_Voltage_Funtion
 600              	.LVL63:
 238:Core/Src/main.c ****     HAL_UART_Transmit(&huart3, (uint8_t*)&(temp), 4, 1000);
 601              		.loc 1 238 10 discriminator 1 view .LVU152
 602 0246 8DED000A 		vstr.32	s0, [sp]
 239:Core/Src/main.c ****     temp = Supercap_ADC_to_Voltage_Funtion(PID_45W_loop.output);
 603              		.loc 1 239 5 is_stmt 1 view .LVU153
 604 024a 4FF47A73 		mov	r3, #1000
 605 024e 0422     		movs	r2, #4
 606 0250 6946     		mov	r1, sp
 607 0252 2046     		mov	r0, r4
 608 0254 FFF7FEFF 		bl	HAL_UART_Transmit
 609              	.LVL64:
 240:Core/Src/main.c ****     HAL_UART_Transmit(&huart3, (uint8_t*)&(temp), 4, 1000);
 610              		.loc 1 240 5 view .LVU154
 240:Core/Src/main.c ****     HAL_UART_Transmit(&huart3, (uint8_t*)&(temp), 4, 1000);
 611              		.loc 1 240 56 is_stmt 0 view .LVU155
 612 0258 384B     		ldr	r3, .L17+80
 613 025a B3F91400 		ldrsh	r0, [r3, #20]
 240:Core/Src/main.c ****     HAL_UART_Transmit(&huart3, (uint8_t*)&(temp), 4, 1000);
 614              		.loc 1 240 12 view .LVU156
 615 025e 80B2     		uxth	r0, r0
 616 0260 FFF7FEFF 		bl	Supercap_ADC_to_Voltage_Funtion
 617              	.LVL65:
 240:Core/Src/main.c ****     HAL_UART_Transmit(&huart3, (uint8_t*)&(temp), 4, 1000);
 618              		.loc 1 240 10 discriminator 1 view .LVU157
 619 0264 8DED000A 		vstr.32	s0, [sp]
 241:Core/Src/main.c ****     temp = Supercap_ADC_to_Voltage_Funtion(temp2); //output PWM
 620              		.loc 1 241 5 is_stmt 1 view .LVU158
 621 0268 4FF47A73 		mov	r3, #1000
 622 026c 0422     		movs	r2, #4
 623 026e 6946     		mov	r1, sp
 624 0270 2046     		mov	r0, r4
 625 0272 FFF7FEFF 		bl	HAL_UART_Transmit
ARM GAS  C:\Users\purdu\AppData\Local\Temp\ccmyLePi.s 			page 24


 626              	.LVL66:
 242:Core/Src/main.c ****     HAL_UART_Transmit(&huart3, (uint8_t*)&(temp), 4, 1000);
 627              		.loc 1 242 5 view .LVU159
 242:Core/Src/main.c ****     HAL_UART_Transmit(&huart3, (uint8_t*)&(temp), 4, 1000);
 628              		.loc 1 242 12 is_stmt 0 view .LVU160
 629 0276 3B4D     		ldr	r5, .L17+120
 630 0278 D5ED007A 		vldr.32	s15, [r5]
 631 027c FCEEE77A 		vcvt.u32.f32	s15, s15
 632 0280 17EE903A 		vmov	r3, s15	@ int
 633 0284 98B2     		uxth	r0, r3
 634 0286 FFF7FEFF 		bl	Supercap_ADC_to_Voltage_Funtion
 635              	.LVL67:
 242:Core/Src/main.c ****     HAL_UART_Transmit(&huart3, (uint8_t*)&(temp), 4, 1000);
 636              		.loc 1 242 10 discriminator 1 view .LVU161
 637 028a 8DED000A 		vstr.32	s0, [sp]
 243:Core/Src/main.c ****     temp = temp2 * 0.1f;
 638              		.loc 1 243 5 is_stmt 1 view .LVU162
 639 028e 4FF47A73 		mov	r3, #1000
 640 0292 0422     		movs	r2, #4
 641 0294 6946     		mov	r1, sp
 642 0296 2046     		mov	r0, r4
 643 0298 FFF7FEFF 		bl	HAL_UART_Transmit
 644              	.LVL68:
 244:Core/Src/main.c ****     HAL_UART_Transmit(&huart3, (uint8_t*)&(temp), 4, 1000);
 645              		.loc 1 244 5 view .LVU163
 244:Core/Src/main.c ****     HAL_UART_Transmit(&huart3, (uint8_t*)&(temp), 4, 1000);
 646              		.loc 1 244 18 is_stmt 0 view .LVU164
 647 029c D5ED007A 		vldr.32	s15, [r5]
 648 02a0 9FED317A 		vldr.32	s14, .L17+124
 649 02a4 67EE877A 		vmul.f32	s15, s15, s14
 244:Core/Src/main.c ****     HAL_UART_Transmit(&huart3, (uint8_t*)&(temp), 4, 1000);
 650              		.loc 1 244 10 view .LVU165
 651 02a8 CDED007A 		vstr.32	s15, [sp]
 245:Core/Src/main.c **** 		temp = PID_voltage_loop.output;
 652              		.loc 1 245 5 is_stmt 1 view .LVU166
 653 02ac 4FF47A73 		mov	r3, #1000
 654 02b0 0422     		movs	r2, #4
 655 02b2 6946     		mov	r1, sp
 656 02b4 2046     		mov	r0, r4
 657 02b6 FFF7FEFF 		bl	HAL_UART_Transmit
 658              	.LVL69:
 246:Core/Src/main.c ****     HAL_UART_Transmit(&huart3, (uint8_t*)&(temp), 4, 1000);
 659              		.loc 1 246 3 view .LVU167
 246:Core/Src/main.c ****     HAL_UART_Transmit(&huart3, (uint8_t*)&(temp), 4, 1000);
 660              		.loc 1 246 26 is_stmt 0 view .LVU168
 661 02ba 244B     		ldr	r3, .L17+96
 662 02bc B3F91430 		ldrsh	r3, [r3, #20]
 663 02c0 07EE903A 		vmov	s15, r3	@ int
 246:Core/Src/main.c ****     HAL_UART_Transmit(&huart3, (uint8_t*)&(temp), 4, 1000);
 664              		.loc 1 246 8 view .LVU169
 665 02c4 F8EEE77A 		vcvt.f32.s32	s15, s15
 666 02c8 CDED007A 		vstr.32	s15, [sp]
 247:Core/Src/main.c **** 
 667              		.loc 1 247 5 is_stmt 1 view .LVU170
 668 02cc 4FF47A73 		mov	r3, #1000
 669 02d0 0422     		movs	r2, #4
 670 02d2 6946     		mov	r1, sp
ARM GAS  C:\Users\purdu\AppData\Local\Temp\ccmyLePi.s 			page 25


 671 02d4 2046     		mov	r0, r4
 672 02d6 FFF7FEFF 		bl	HAL_UART_Transmit
 673              	.LVL70:
 249:Core/Src/main.c ****   }
 674              		.loc 1 249 3 discriminator 1 view .LVU171
 675 02da 4FF47A73 		mov	r3, #1000
 676 02de 0422     		movs	r2, #4
 677 02e0 0DEB0201 		add	r1, sp, r2
 678 02e4 2046     		mov	r0, r4
 679 02e6 FFF7FEFF 		bl	HAL_UART_Transmit
 680              	.LVL71:
 210:Core/Src/main.c ****   {
 681              		.loc 1 210 9 view .LVU172
 682 02ea 7AE7     		b	.L15
 683              	.L18:
 684              		.align	2
 685              	.L17:
 686 02ec 00000000 		.word	supercap_ADC1
 687 02f0 00000000 		.word	C_left
 688 02f4 00000000 		.word	C_sys
 689 02f8 04000000 		.word	supercap_ADC3+4
 690 02fc 00000000 		.word	supercap_ADC2
 691 0300 00000000 		.word	V_sys_op
 692 0304 00000000 		.word	V_cap_op
 693 0308 00000000 		.word	V_sys
 694 030c 00000000 		.word	supercap_ADC4
 695 0310 00000000 		.word	V_1V6
 696 0314 00000000 		.word	hadc1
 697 0318 00000000 		.word	hadc2
 698 031c 00000000 		.word	hadc3
 699 0320 00000000 		.word	hadc4
 700 0324 00000000 		.word	htim1
 701 0328 00000000 		.word	htim3
 702 032c 00000000 		.word	htim4
 703 0330 00000000 		.word	0
 704 0334 17B7D138 		.word	953267991
 705 0338 6F12833A 		.word	981668463
 706 033c 00000000 		.word	PID_45W_loop
 707 0340 00000000 		.word	PID_24V_loop
 708 0344 00000000 		.word	PID_7A_loop
 709 0348 ACC52737 		.word	925353388
 710 034c 00000000 		.word	PID_voltage_loop
 711 0350 00000000 		.word	htim2
 712 0354 00000000 		.word	V_cap
 713 0358 00000000 		.word	htim5
 714 035c 00000000 		.word	huart3
 715 0360 00000000 		.word	C_right
 716 0364 00000000 		.word	temp2
 717 0368 CDCCCC3D 		.word	1036831949
 718 036c 00000000 		.word	V_bat
 719 0370 00000000 		.word	ADC4_12
 720              		.cfi_endproc
 721              	.LFE333:
 723              		.global	temp_counter
 724              		.section	.bss.temp_counter,"aw",%nobits
 725              		.align	1
 728              	temp_counter:
ARM GAS  C:\Users\purdu\AppData\Local\Temp\ccmyLePi.s 			page 26


 729 0000 0000     		.space	2
 730              		.global	temp2
 731              		.section	.bss.temp2,"aw",%nobits
 732              		.align	2
 735              	temp2:
 736 0000 00000000 		.space	4
 737              		.global	PID_voltage_loop
 738              		.section	.bss.PID_voltage_loop,"aw",%nobits
 739              		.align	2
 742              	PID_voltage_loop:
 743 0000 00000000 		.space	28
 743      00000000 
 743      00000000 
 743      00000000 
 743      00000000 
 744              		.global	PID_7A_loop
 745              		.section	.bss.PID_7A_loop,"aw",%nobits
 746              		.align	2
 749              	PID_7A_loop:
 750 0000 00000000 		.space	28
 750      00000000 
 750      00000000 
 750      00000000 
 750      00000000 
 751              		.global	PID_24V_loop
 752              		.section	.bss.PID_24V_loop,"aw",%nobits
 753              		.align	2
 756              	PID_24V_loop:
 757 0000 00000000 		.space	28
 757      00000000 
 757      00000000 
 757      00000000 
 757      00000000 
 758              		.global	PID_45W_loop
 759              		.section	.bss.PID_45W_loop,"aw",%nobits
 760              		.align	2
 763              	PID_45W_loop:
 764 0000 00000000 		.space	28
 764      00000000 
 764      00000000 
 764      00000000 
 764      00000000 
 765              		.global	C_left_kalman
 766              		.section	.data.C_left_kalman,"aw"
 767              		.align	2
 770              	C_left_kalman:
 771 0000 00000000 		.space	16
 771      00000000 
 771      00000000 
 771      00000000 
 772 0010 0000003F 		.word	1056964608
 773 0014 0000803F 		.word	1065353216
 774              		.global	ADC4_12
 775              		.section	.bss.ADC4_12,"aw",%nobits
 776              		.align	2
 779              	ADC4_12:
 780 0000 00000000 		.space	20
ARM GAS  C:\Users\purdu\AppData\Local\Temp\ccmyLePi.s 			page 27


 780      00000000 
 780      00000000 
 780      00000000 
 780      00000000 
 781              		.global	V_1V6
 782              		.section	.bss.V_1V6,"aw",%nobits
 783              		.align	2
 786              	V_1V6:
 787 0000 00000000 		.space	20
 787      00000000 
 787      00000000 
 787      00000000 
 787      00000000 
 788              		.global	V_sys
 789              		.section	.bss.V_sys,"aw",%nobits
 790              		.align	2
 793              	V_sys:
 794 0000 00000000 		.space	20
 794      00000000 
 794      00000000 
 794      00000000 
 794      00000000 
 795              		.global	V_bat
 796              		.section	.bss.V_bat,"aw",%nobits
 797              		.align	2
 800              	V_bat:
 801 0000 00000000 		.space	20
 801      00000000 
 801      00000000 
 801      00000000 
 801      00000000 
 802              		.global	V_cap
 803              		.section	.bss.V_cap,"aw",%nobits
 804              		.align	2
 807              	V_cap:
 808 0000 00000000 		.space	20
 808      00000000 
 808      00000000 
 808      00000000 
 808      00000000 
 809              		.global	V_cap_op
 810              		.section	.bss.V_cap_op,"aw",%nobits
 811              		.align	2
 814              	V_cap_op:
 815 0000 00000000 		.space	20
 815      00000000 
 815      00000000 
 815      00000000 
 815      00000000 
 816              		.global	V_sys_op
 817              		.section	.bss.V_sys_op,"aw",%nobits
 818              		.align	2
 821              	V_sys_op:
 822 0000 00000000 		.space	20
 822      00000000 
 822      00000000 
 822      00000000 
ARM GAS  C:\Users\purdu\AppData\Local\Temp\ccmyLePi.s 			page 28


 822      00000000 
 823              		.global	C_right
 824              		.section	.bss.C_right,"aw",%nobits
 825              		.align	2
 828              	C_right:
 829 0000 00000000 		.space	20
 829      00000000 
 829      00000000 
 829      00000000 
 829      00000000 
 830              		.global	C_sys
 831              		.section	.bss.C_sys,"aw",%nobits
 832              		.align	2
 835              	C_sys:
 836 0000 00000000 		.space	20
 836      00000000 
 836      00000000 
 836      00000000 
 836      00000000 
 837              		.global	C_left
 838              		.section	.bss.C_left,"aw",%nobits
 839              		.align	2
 842              	C_left:
 843 0000 00000000 		.space	20
 843      00000000 
 843      00000000 
 843      00000000 
 843      00000000 
 844              		.global	supercap_ADC4
 845              		.section	.bss.supercap_ADC4,"aw",%nobits
 846              		.align	2
 849              	supercap_ADC4:
 850 0000 00000000 		.space	4
 851              		.global	supercap_ADC3
 852              		.section	.bss.supercap_ADC3,"aw",%nobits
 853              		.align	2
 856              	supercap_ADC3:
 857 0000 00000000 		.space	6
 857      0000
 858              		.global	supercap_ADC2
 859              		.section	.bss.supercap_ADC2,"aw",%nobits
 860              		.align	2
 863              	supercap_ADC2:
 864 0000 00000000 		.space	6
 864      0000
 865              		.global	supercap_ADC1
 866              		.section	.bss.supercap_ADC1,"aw",%nobits
 867              		.align	2
 870              	supercap_ADC1:
 871 0000 00000000 		.space	4
 872              		.text
 873              	.Letext0:
 874              		.file 4 "C:/Program Files (x86)/Arm GNU Toolchain arm-none-eabi/13.2 Rel1/arm-none-eabi/include/ma
 875              		.file 5 "C:/Program Files (x86)/Arm GNU Toolchain arm-none-eabi/13.2 Rel1/arm-none-eabi/include/sy
 876              		.file 6 "Drivers/CMSIS/Device/ST/STM32G4xx/Include/stm32g473xx.h"
 877              		.file 7 "Drivers/CMSIS/Device/ST/STM32G4xx/Include/stm32g4xx.h"
 878              		.file 8 "Drivers/STM32G4xx_HAL_Driver/Inc/stm32g4xx_hal_def.h"
ARM GAS  C:\Users\purdu\AppData\Local\Temp\ccmyLePi.s 			page 29


 879              		.file 9 "Drivers/STM32G4xx_HAL_Driver/Inc/stm32g4xx_hal_rcc.h"
 880              		.file 10 "Drivers/STM32G4xx_HAL_Driver/Inc/stm32g4xx_hal_dma.h"
 881              		.file 11 "Drivers/STM32G4xx_HAL_Driver/Inc/stm32g4xx_hal_adc.h"
 882              		.file 12 "Drivers/STM32G4xx_HAL_Driver/Inc/stm32g4xx_hal_tim.h"
 883              		.file 13 "Drivers/STM32G4xx_HAL_Driver/Inc/stm32g4xx_hal_uart.h"
 884              		.file 14 "Core/Inc/adc.h"
 885              		.file 15 "Core/Inc/tim.h"
 886              		.file 16 "Core/Inc/usart.h"
 887              		.file 17 "C:/Program Files (x86)/Arm GNU Toolchain arm-none-eabi/13.2 Rel1/lib/gcc/arm-none-eabi/1
 888              		.file 18 "C:/Program Files (x86)/Arm GNU Toolchain arm-none-eabi/13.2 Rel1/arm-none-eabi/include/s
 889              		.file 19 "C:/Program Files (x86)/Arm GNU Toolchain arm-none-eabi/13.2 Rel1/arm-none-eabi/include/s
 890              		.file 20 "C:/Program Files (x86)/Arm GNU Toolchain arm-none-eabi/13.2 Rel1/arm-none-eabi/include/s
 891              		.file 21 "C:/Program Files (x86)/Arm GNU Toolchain arm-none-eabi/13.2 Rel1/arm-none-eabi/include/s
 892              		.file 22 "Core/Inc/Kalman_Filter.h"
 893              		.file 23 "Core/Inc/supercap.h"
 894              		.file 24 "Drivers/STM32G4xx_HAL_Driver/Inc/stm32g4xx_hal_pwr_ex.h"
 895              		.file 25 "Drivers/STM32G4xx_HAL_Driver/Inc/stm32g4xx_hal_tim_ex.h"
 896              		.file 26 "Drivers/STM32G4xx_HAL_Driver/Inc/stm32g4xx_hal_adc_ex.h"
 897              		.file 27 "Core/Inc/fdcan.h"
 898              		.file 28 "Core/Inc/dma.h"
 899              		.file 29 "Core/Inc/gpio.h"
 900              		.file 30 "Drivers/STM32G4xx_HAL_Driver/Inc/stm32g4xx_hal.h"
 901              		.file 31 "<built-in>"
ARM GAS  C:\Users\purdu\AppData\Local\Temp\ccmyLePi.s 			page 30

