ARM GAS  C:\Users\purdu\AppData\Local\Temp\ccWj3eAN.s 			page 1


   1              		.cpu cortex-m4
   2              		.arch armv7e-m
   3              		.fpu fpv4-sp-d16
   4              		.eabi_attribute 27, 1
   5              		.eabi_attribute 28, 1
   6              		.eabi_attribute 20, 1
   7              		.eabi_attribute 21, 1
   8              		.eabi_attribute 23, 3
   9              		.eabi_attribute 24, 1
  10              		.eabi_attribute 25, 1
  11              		.eabi_attribute 26, 1
  12              		.eabi_attribute 30, 1
  13              		.eabi_attribute 34, 1
  14              		.eabi_attribute 18, 4
  15              		.file	"supercap.c"
  16              		.text
  17              	.Ltext0:
  18              		.cfi_sections	.debug_frame
  19              		.file 1 "Core/Src/supercap.c"
  20              		.section	.text.Supercap_PID_Controller_Function,"ax",%progbits
  21              		.align	1
  22              		.global	Supercap_PID_Controller_Function
  23              		.syntax unified
  24              		.thumb
  25              		.thumb_func
  27              	Supercap_PID_Controller_Function:
  28              	.LVL0:
  29              	.LFB335:
   1:Core/Src/supercap.c **** /**
   2:Core/Src/supercap.c ****   ******************************************************************************
   3:Core/Src/supercap.c ****   * @file    supercap.c
   4:Core/Src/supercap.c ****   * @brief   This file provides code for the configuration
   5:Core/Src/supercap.c ****   *          of all used supercap pins.
   6:Core/Src/supercap.c ****   */
   7:Core/Src/supercap.c **** /* USER CODE END Header */
   8:Core/Src/supercap.c **** #include "supercap.h"
   9:Core/Src/supercap.c **** 
  10:Core/Src/supercap.c **** uint8_t PID_flag = 0;
  11:Core/Src/supercap.c **** uint16_t protection_counter = 0;
  12:Core/Src/supercap.c **** uint16_t fault_counter = 0;
  13:Core/Src/supercap.c **** 
  14:Core/Src/supercap.c **** //Timmer
  15:Core/Src/supercap.c **** void HAL_TIM_PeriodElapsedCallback(TIM_HandleTypeDef *htim) {
  16:Core/Src/supercap.c **** 	if(htim->Instance == TIM5){
  17:Core/Src/supercap.c **** 		HAL_GPIO_WritePin(GPIOB, GPIO_PIN_14, GPIO_PIN_SET);
  18:Core/Src/supercap.c ****     Supercap_FSM();
  19:Core/Src/supercap.c ****     //TIM5_NVIC();
  20:Core/Src/supercap.c **** 		HAL_GPIO_WritePin(GPIOB, GPIO_PIN_14, GPIO_PIN_RESET);
  21:Core/Src/supercap.c **** 	}
  22:Core/Src/supercap.c ****   else if(htim->Instance == TIM2) {
  23:Core/Src/supercap.c ****     HAL_GPIO_WritePin(GPIOB, GPIO_PIN_15, GPIO_PIN_SET);
  24:Core/Src/supercap.c ****     TIM2_NVIC();
  25:Core/Src/supercap.c ****     HAL_GPIO_WritePin(GPIOB, GPIO_PIN_15, GPIO_PIN_RESET);
  26:Core/Src/supercap.c ****   }
  27:Core/Src/supercap.c **** }
  28:Core/Src/supercap.c **** 
  29:Core/Src/supercap.c **** //state machine
ARM GAS  C:\Users\purdu\AppData\Local\Temp\ccWj3eAN.s 			page 2


  30:Core/Src/supercap.c **** //state 1(Begin): begin, if V_cap > 0.1V, go to state 2
  31:Core/Src/supercap.c **** //state 2(Cap in): stay
  32:Core/Src/supercap.c **** 
  33:Core/Src/supercap.c **** void TIM2_NVIC(){
  34:Core/Src/supercap.c ****   Supercap_First_Order_Filter_ADC_Function_Alpha(&C_sys, 6);
  35:Core/Src/supercap.c ****   Supercap_First_Order_Filter_ADC_Function_Alpha(&C_right, 4);
  36:Core/Src/supercap.c ****   Supercap_First_Order_Filter_ADC_Function_Alpha(&ADC4_12,2);
  37:Core/Src/supercap.c ****   Supercap_First_Order_Filter_ADC_Function_Alpha(&V_bat, 2);
  38:Core/Src/supercap.c ****   Supercap_First_Order_Filter_ADC_Function_Alpha(&V_cap, 4);/*
  39:Core/Src/supercap.c **** 	Supercap_First_Order_Filter_ADC_Function_Alpha(&V_sys, 4);
  40:Core/Src/supercap.c **** 	Supercap_First_Order_Filter_ADC_Function_Alpha(&V_cap_op, 4);
  41:Core/Src/supercap.c **** 	Supercap_First_Order_Filter_ADC_Function_Alpha(&V_sys_op, 4);
  42:Core/Src/supercap.c **** 	Supercap_First_Order_Filter_ADC_Function_Alpha(&C_left, 4);*/
  43:Core/Src/supercap.c **** }
  44:Core/Src/supercap.c **** 
  45:Core/Src/supercap.c **** void TIM5_NVIC(){
  46:Core/Src/supercap.c **** 	if(PID_flag == 1){
  47:Core/Src/supercap.c **** 	Supercap_PID_Controller_Function(&PID_45W_loop, &C_sys, 2360, ((2360.0f-C_sys.real_value_12bits)*5
  48:Core/Src/supercap.c **** 	Supercap_PID_Controller_Function(&PID_n7A_loop, &C_right, 3113, V_cap.real_value_12bits); //0 offs
  49:Core/Src/supercap.c ****   Supercap_PID_Controller_Function(&PID_7A_loop, &C_right, 962, V_cap.real_value_12bits); //0 offse
  50:Core/Src/supercap.c ****   temp2 = Supercap_Compare(PID_45W_loop.output, PID_n7A_loop.output, PID_7A_loop.output);
  51:Core/Src/supercap.c ****   temp2 = Supercap_Limit(temp2, 2707, 0);
  52:Core/Src/supercap.c **** 	Supercap_PID_Controller_Function(&PID_voltage_loop, &V_cap, temp2, 0.07f*temp2);
  53:Core/Src/supercap.c **** 	Supercap_PWM_left(temp2*0.12f);
  54:Core/Src/supercap.c ****   //Supercap_PWM_left(0);
  55:Core/Src/supercap.c **** 		}
  56:Core/Src/supercap.c **** }
  57:Core/Src/supercap.c **** 
  58:Core/Src/supercap.c **** void Supercap_PID_Controller_Function(_Supercap_PID_Controller_t *pid_controller, _ADC_Sample_t *ad
  30              		.loc 1 58 140 view -0
  31              		.cfi_startproc
  32              		@ args = 0, pretend = 0, frame = 0
  33              		@ frame_needed = 0, uses_anonymous_args = 0
  34              		@ link register save eliminated.
  59:Core/Src/supercap.c **** 	pid_controller->error = target - adc_sample->real_value_12bits;
  35              		.loc 1 59 2 view .LVU1
  36              		.loc 1 59 45 is_stmt 0 view .LVU2
  37 0000 8B89     		ldrh	r3, [r1, #12]
  38              		.loc 1 59 33 view .LVU3
  39 0002 D21A     		subs	r2, r2, r3
  40              	.LVL1:
  41              		.loc 1 59 33 view .LVU4
  42 0004 12B2     		sxth	r2, r2
  43              		.loc 1 59 24 view .LVU5
  44 0006 8281     		strh	r2, [r0, #12]	@ movhi
  60:Core/Src/supercap.c ****   pid_controller->error_sum += pid_controller->error * pid_controller->Ki;
  45              		.loc 1 60 3 is_stmt 1 view .LVU6
  46              		.loc 1 60 17 is_stmt 0 view .LVU7
  47 0008 90ED047A 		vldr.32	s14, [r0, #16]
  48              		.loc 1 60 54 view .LVU8
  49 000c 07EE902A 		vmov	s15, r2	@ int
  50 0010 F8EEE77A 		vcvt.f32.s32	s15, s15
  51              		.loc 1 60 70 view .LVU9
  52 0014 D0ED016A 		vldr.32	s13, [r0, #4]
  53              		.loc 1 60 54 view .LVU10
  54 0018 67EEA66A 		vmul.f32	s13, s15, s13
  55              		.loc 1 60 29 view .LVU11
ARM GAS  C:\Users\purdu\AppData\Local\Temp\ccWj3eAN.s 			page 3


  56 001c 37EE267A 		vadd.f32	s14, s14, s13
  57 0020 80ED047A 		vstr.32	s14, [r0, #16]
  61:Core/Src/supercap.c ****   if(pid_controller->error_sum > pid_controller->I_max)
  58              		.loc 1 61 3 is_stmt 1 view .LVU12
  59              		.loc 1 61 48 is_stmt 0 view .LVU13
  60 0024 B0F91A30 		ldrsh	r3, [r0, #26]
  61              		.loc 1 61 32 view .LVU14
  62 0028 06EE903A 		vmov	s13, r3	@ int
  63 002c F8EEE66A 		vcvt.f32.s32	s13, s13
  64              		.loc 1 61 5 view .LVU15
  65 0030 B4EEE67A 		vcmpe.f32	s14, s13
  66 0034 F1EE10FA 		vmrs	APSR_nzcv, FPSCR
  67 0038 25DD     		ble	.L10
  62:Core/Src/supercap.c ****   {pid_controller->error_sum = pid_controller->I_max;}
  68              		.loc 1 62 4 is_stmt 1 view .LVU16
  69              		.loc 1 62 30 is_stmt 0 view .LVU17
  70 003a C0ED046A 		vstr.32	s13, [r0, #16]
  71              	.L4:
  63:Core/Src/supercap.c ****   else if(pid_controller->error_sum < -pid_controller->I_max)
  64:Core/Src/supercap.c ****   {pid_controller->error_sum = -pid_controller->I_max;}
  65:Core/Src/supercap.c ****   pid_controller->output = pid_controller->Kp*pid_controller->error + pid_controller->error_sum + p
  72              		.loc 1 65 3 is_stmt 1 view .LVU18
  73              		.loc 1 65 42 is_stmt 0 view .LVU19
  74 003e 90ED007A 		vldr.32	s14, [r0]
  75              		.loc 1 65 46 view .LVU20
  76 0042 67EE877A 		vmul.f32	s15, s15, s14
  77              		.loc 1 65 85 view .LVU21
  78 0046 90ED047A 		vldr.32	s14, [r0, #16]
  79              		.loc 1 65 69 view .LVU22
  80 004a 77EE877A 		vadd.f32	s15, s15, s14
  81              		.loc 1 65 113 view .LVU23
  82 004e D0ED026A 		vldr.32	s13, [r0, #8]
  83              		.loc 1 65 157 view .LVU24
  84 0052 B0F90E30 		ldrsh	r3, [r0, #14]
  85              		.loc 1 65 141 view .LVU25
  86 0056 D31A     		subs	r3, r2, r3
  87 0058 07EE103A 		vmov	s14, r3	@ int
  88              		.loc 1 65 117 view .LVU26
  89 005c B8EEC77A 		vcvt.f32.s32	s14, s14
  90 0060 27EE267A 		vmul.f32	s14, s14, s13
  91              		.loc 1 65 97 view .LVU27
  92 0064 77EE877A 		vadd.f32	s15, s15, s14
  93              		.loc 1 65 171 view .LVU28
  94 0068 77EE807A 		vadd.f32	s15, s15, s0
  95              		.loc 1 65 26 view .LVU29
  96 006c FDEEE77A 		vcvt.s32.f32	s15, s15
  97 0070 17EE903A 		vmov	r3, s15	@ int
  98 0074 1BB2     		sxth	r3, r3
  99 0076 8382     		strh	r3, [r0, #20]	@ movhi
  66:Core/Src/supercap.c ****   pid_controller->error_last = pid_controller->error;
 100              		.loc 1 66 3 is_stmt 1 view .LVU30
 101              		.loc 1 66 30 is_stmt 0 view .LVU31
 102 0078 C281     		strh	r2, [r0, #14]	@ movhi
  67:Core/Src/supercap.c ****   if(pid_controller->output > pid_controller->output_max)
 103              		.loc 1 67 3 is_stmt 1 view .LVU32
 104              		.loc 1 67 45 is_stmt 0 view .LVU33
 105 007a B0F91620 		ldrsh	r2, [r0, #22]
ARM GAS  C:\Users\purdu\AppData\Local\Temp\ccWj3eAN.s 			page 4


 106              		.loc 1 67 5 view .LVU34
 107 007e 9342     		cmp	r3, r2
 108 0080 0EDD     		ble	.L6
  68:Core/Src/supercap.c ****   {pid_controller->output = pid_controller->output_max;}
 109              		.loc 1 68 4 is_stmt 1 view .LVU35
 110              		.loc 1 68 27 is_stmt 0 view .LVU36
 111 0082 8282     		strh	r2, [r0, #20]	@ movhi
 112 0084 7047     		bx	lr
 113              	.L10:
  63:Core/Src/supercap.c ****   {pid_controller->error_sum = -pid_controller->I_max;}
 114              		.loc 1 63 8 is_stmt 1 view .LVU37
  63:Core/Src/supercap.c ****   {pid_controller->error_sum = -pid_controller->I_max;}
 115              		.loc 1 63 39 is_stmt 0 view .LVU38
 116 0086 5B42     		rsbs	r3, r3, #0
  63:Core/Src/supercap.c ****   {pid_controller->error_sum = -pid_controller->I_max;}
 117              		.loc 1 63 37 view .LVU39
 118 0088 06EE903A 		vmov	s13, r3	@ int
 119 008c F8EEE66A 		vcvt.f32.s32	s13, s13
  63:Core/Src/supercap.c ****   {pid_controller->error_sum = -pid_controller->I_max;}
 120              		.loc 1 63 10 view .LVU40
 121 0090 B4EEE67A 		vcmpe.f32	s14, s13
 122 0094 F1EE10FA 		vmrs	APSR_nzcv, FPSCR
 123 0098 D1D5     		bpl	.L4
  64:Core/Src/supercap.c ****   pid_controller->output = pid_controller->Kp*pid_controller->error + pid_controller->error_sum + p
 124              		.loc 1 64 4 is_stmt 1 view .LVU41
  64:Core/Src/supercap.c ****   pid_controller->output = pid_controller->Kp*pid_controller->error + pid_controller->error_sum + p
 125              		.loc 1 64 30 is_stmt 0 view .LVU42
 126 009a C0ED046A 		vstr.32	s13, [r0, #16]
 127 009e CEE7     		b	.L4
 128              	.L6:
  69:Core/Src/supercap.c ****   else if(pid_controller->output < pid_controller->output_min)
 129              		.loc 1 69 8 is_stmt 1 view .LVU43
 130              		.loc 1 69 50 is_stmt 0 view .LVU44
 131 00a0 B0F91820 		ldrsh	r2, [r0, #24]
 132              		.loc 1 69 10 view .LVU45
 133 00a4 9342     		cmp	r3, r2
 134 00a6 00DA     		bge	.L1
  70:Core/Src/supercap.c ****   {pid_controller->output = pid_controller->output_min;}
 135              		.loc 1 70 4 is_stmt 1 view .LVU46
 136              		.loc 1 70 27 is_stmt 0 view .LVU47
 137 00a8 8282     		strh	r2, [r0, #20]	@ movhi
 138              	.L1:
  71:Core/Src/supercap.c **** }
 139              		.loc 1 71 1 view .LVU48
 140 00aa 7047     		bx	lr
 141              		.cfi_endproc
 142              	.LFE335:
 144              		.section	.text.Supercap_Compare,"ax",%progbits
 145              		.align	1
 146              		.global	Supercap_Compare
 147              		.syntax unified
 148              		.thumb
 149              		.thumb_func
 151              	Supercap_Compare:
 152              	.LVL2:
 153              	.LFB336:
  72:Core/Src/supercap.c **** 
ARM GAS  C:\Users\purdu\AppData\Local\Temp\ccWj3eAN.s 			page 5


  73:Core/Src/supercap.c **** int16_t Supercap_Compare(int16_t Output1, int16_t Output2, int16_t Output3){
 154              		.loc 1 73 76 is_stmt 1 view -0
 155              		.cfi_startproc
 156              		@ args = 0, pretend = 0, frame = 0
 157              		@ frame_needed = 0, uses_anonymous_args = 0
 158              		@ link register save eliminated.
  74:Core/Src/supercap.c ****   if ((Output1 >= Output2 && Output1 <= Output3) || (Output1 <= Output2 && Output1 >= Output3)) {
 159              		.loc 1 74 3 view .LVU50
 160              		.loc 1 74 6 is_stmt 0 view .LVU51
 161 0000 8842     		cmp	r0, r1
 162 0002 01DB     		blt	.L12
 163              		.loc 1 74 27 discriminator 1 view .LVU52
 164 0004 9042     		cmp	r0, r2
 165 0006 12DD     		ble	.L13
 166              	.L12:
 167              		.loc 1 74 50 discriminator 3 view .LVU53
 168 0008 8842     		cmp	r0, r1
 169 000a 01DC     		bgt	.L14
 170              		.loc 1 74 73 discriminator 4 view .LVU54
 171 000c 9042     		cmp	r0, r2
 172 000e 0EDA     		bge	.L13
 173              	.L14:
  75:Core/Src/supercap.c ****     return Output1;
  76:Core/Src/supercap.c ****   } else if ((Output2 >= Output1 && Output2 <= Output3) || (Output2 <= Output1 && Output2 >= Output
 174              		.loc 1 76 10 is_stmt 1 view .LVU55
 175              		.loc 1 76 13 is_stmt 0 view .LVU56
 176 0010 8842     		cmp	r0, r1
 177 0012 01DC     		bgt	.L15
 178              		.loc 1 76 34 discriminator 1 view .LVU57
 179 0014 9142     		cmp	r1, r2
 180 0016 05DD     		ble	.L18
 181              	.L15:
 182              		.loc 1 76 57 discriminator 3 view .LVU58
 183 0018 8842     		cmp	r0, r1
 184 001a 05DB     		blt	.L19
 185              		.loc 1 76 80 discriminator 4 view .LVU59
 186 001c 9142     		cmp	r1, r2
 187 001e 05DA     		bge	.L20
  77:Core/Src/supercap.c ****     return Output2;
  78:Core/Src/supercap.c ****   } else {
  79:Core/Src/supercap.c ****     return Output3;
 188              		.loc 1 79 12 view .LVU60
 189 0020 1046     		mov	r0, r2
 190              	.LVL3:
 191              		.loc 1 79 12 view .LVU61
 192 0022 7047     		bx	lr
 193              	.LVL4:
 194              	.L18:
  77:Core/Src/supercap.c ****     return Output2;
 195              		.loc 1 77 12 view .LVU62
 196 0024 0846     		mov	r0, r1
 197              	.LVL5:
  77:Core/Src/supercap.c ****     return Output2;
 198              		.loc 1 77 12 view .LVU63
 199 0026 7047     		bx	lr
 200              	.LVL6:
 201              	.L19:
ARM GAS  C:\Users\purdu\AppData\Local\Temp\ccWj3eAN.s 			page 6


 202              		.loc 1 79 12 view .LVU64
 203 0028 1046     		mov	r0, r2
 204              	.LVL7:
 205              		.loc 1 79 12 view .LVU65
 206 002a 7047     		bx	lr
 207              	.LVL8:
 208              	.L20:
  77:Core/Src/supercap.c ****     return Output2;
 209              		.loc 1 77 12 view .LVU66
 210 002c 0846     		mov	r0, r1
 211              	.LVL9:
 212              	.L13:
  80:Core/Src/supercap.c ****   }
  81:Core/Src/supercap.c **** }
 213              		.loc 1 81 1 view .LVU67
 214 002e 7047     		bx	lr
 215              		.cfi_endproc
 216              	.LFE336:
 218              		.section	.text.Supercap_Limit,"ax",%progbits
 219              		.align	1
 220              		.global	Supercap_Limit
 221              		.syntax unified
 222              		.thumb
 223              		.thumb_func
 225              	Supercap_Limit:
 226              	.LVL10:
 227              	.LFB337:
  82:Core/Src/supercap.c **** 
  83:Core/Src/supercap.c **** int16_t Supercap_Limit(int16_t input, int16_t max, int16_t min){
 228              		.loc 1 83 64 is_stmt 1 view -0
 229              		.cfi_startproc
 230              		@ args = 0, pretend = 0, frame = 0
 231              		@ frame_needed = 0, uses_anonymous_args = 0
 232              		@ link register save eliminated.
  84:Core/Src/supercap.c ****   if (input > max) {
 233              		.loc 1 84 3 view .LVU69
 234              		.loc 1 84 6 is_stmt 0 view .LVU70
 235 0000 8842     		cmp	r0, r1
 236 0002 03DC     		bgt	.L23
  85:Core/Src/supercap.c ****     return max;
  86:Core/Src/supercap.c ****   } else if (input < min) {
 237              		.loc 1 86 10 is_stmt 1 view .LVU71
 238              		.loc 1 86 13 is_stmt 0 view .LVU72
 239 0004 9042     		cmp	r0, r2
 240 0006 02DA     		bge	.L22
  87:Core/Src/supercap.c ****     return min;
 241              		.loc 1 87 12 view .LVU73
 242 0008 1046     		mov	r0, r2
 243              	.LVL11:
 244              		.loc 1 87 12 view .LVU74
 245 000a 7047     		bx	lr
 246              	.LVL12:
 247              	.L23:
  85:Core/Src/supercap.c ****     return max;
 248              		.loc 1 85 12 view .LVU75
 249 000c 0846     		mov	r0, r1
 250              	.LVL13:
ARM GAS  C:\Users\purdu\AppData\Local\Temp\ccWj3eAN.s 			page 7


 251              	.L22:
  88:Core/Src/supercap.c ****   } else {
  89:Core/Src/supercap.c ****     return input;
  90:Core/Src/supercap.c ****   }
  91:Core/Src/supercap.c **** }
 252              		.loc 1 91 1 view .LVU76
 253 000e 7047     		bx	lr
 254              		.cfi_endproc
 255              	.LFE337:
 257              		.section	.text.Supercap_Average_ADC_Function,"ax",%progbits
 258              		.align	1
 259              		.global	Supercap_Average_ADC_Function
 260              		.syntax unified
 261              		.thumb
 262              		.thumb_func
 264              	Supercap_Average_ADC_Function:
 265              	.LVL14:
 266              	.LFB339:
  92:Core/Src/supercap.c **** 
  93:Core/Src/supercap.c **** void Supercap_FSM(){
  94:Core/Src/supercap.c ****   //Protection
  95:Core/Src/supercap.c ****   if(C_right.real_value_12bits > 3598 || C_right.real_value_12bits < 500){ //ï¿½ï¿½ï¿½ï¿½ï¿½ï¿½ï¿½ï
  96:Core/Src/supercap.c **** 		fault_counter++;
  97:Core/Src/supercap.c **** 		if(fault_counter >= 500){
  98:Core/Src/supercap.c **** 			Supercap_AUX_BlueLED(60);
  99:Core/Src/supercap.c **** 			Supercap_AUX_YellowLED(100);
 100:Core/Src/supercap.c **** 			Supercap_DCDC_Stop();
 101:Core/Src/supercap.c **** 			CAP_STATE = FAULT;
 102:Core/Src/supercap.c **** 			fault_counter = 0;
 103:Core/Src/supercap.c **** 			Supercap_AUX_MachineSpirit(70);
 104:Core/Src/supercap.c **** 			Supercap_AUX_BlueLED(60);
 105:Core/Src/supercap.c **** 			Supercap_AUX_YellowLED(100);
 106:Core/Src/supercap.c **** 		}
 107:Core/Src/supercap.c ****   }	
 108:Core/Src/supercap.c **** 	
 109:Core/Src/supercap.c **** 
 110:Core/Src/supercap.c ****   //State switch
 111:Core/Src/supercap.c ****   switch(CAP_STATE){
 112:Core/Src/supercap.c ****     case READY:
 113:Core/Src/supercap.c ****       if(V_cap.real_value_12bits > 20){
 114:Core/Src/supercap.c ****         CAP_STATE = RUNNING;
 115:Core/Src/supercap.c **** 				Supercap_AUX_YellowLED(0);
 116:Core/Src/supercap.c **** 				Supercap_AUX_BlueLED(40);
 117:Core/Src/supercap.c **** 				Supercap_DCDC_Start();
 118:Core/Src/supercap.c ****       }
 119:Core/Src/supercap.c ****       break;
 120:Core/Src/supercap.c ****     case RUNNING:
 121:Core/Src/supercap.c ****       if(V_bat.real_value_12bits < 2256 && C_sys.real_value_12bits < 2047){
 122:Core/Src/supercap.c ****         CAP_STATE = STOP;
 123:Core/Src/supercap.c **** 				Supercap_DCDC_Start();
 124:Core/Src/supercap.c **** 				Supercap_PWM_left (274);
 125:Core/Src/supercap.c **** 				Supercap_AUX_BlueLED(0);
 126:Core/Src/supercap.c **** 				Supercap_AUX_YellowLED(0);
 127:Core/Src/supercap.c ****       }
 128:Core/Src/supercap.c ****       break;
 129:Core/Src/supercap.c ****     case STOP:
 130:Core/Src/supercap.c **** 			if(V_bat.real_value_12bits > 2256 && C_sys.real_value_12bits > 2047){
ARM GAS  C:\Users\purdu\AppData\Local\Temp\ccWj3eAN.s 			page 8


 131:Core/Src/supercap.c ****         CAP_STATE = READY;
 132:Core/Src/supercap.c **** 				Supercap_AUX_BlueLED(0);
 133:Core/Src/supercap.c **** 				Supercap_AUX_YellowLED(80);
 134:Core/Src/supercap.c **** 			}
 135:Core/Src/supercap.c ****       break;
 136:Core/Src/supercap.c ****     case FAULT:
 137:Core/Src/supercap.c **** 			if(protection_counter >= 2000){
 138:Core/Src/supercap.c **** 				CAP_STATE = READY;
 139:Core/Src/supercap.c **** 				Supercap_AUX_BlueLED(0);
 140:Core/Src/supercap.c **** 				Supercap_AUX_YellowLED(80);
 141:Core/Src/supercap.c **** 			}
 142:Core/Src/supercap.c ****       break;
 143:Core/Src/supercap.c ****   }
 144:Core/Src/supercap.c **** 
 145:Core/Src/supercap.c ****   //State output
 146:Core/Src/supercap.c ****   switch(CAP_STATE){
 147:Core/Src/supercap.c ****     case READY:
 148:Core/Src/supercap.c **** //      Supercap_AUX_BlueLED(0);
 149:Core/Src/supercap.c **** //      Supercap_AUX_YellowLED(80);
 150:Core/Src/supercap.c **** 		
 151:Core/Src/supercap.c **** //      Supercap_PID_Reset(&PID_45W_loop);
 152:Core/Src/supercap.c **** //      Supercap_PID_Reset(&PID_n7A_loop);
 153:Core/Src/supercap.c **** //      Supercap_PID_Reset(&PID_7A_loop);
 154:Core/Src/supercap.c **** //      Supercap_PID_Reset(&PID_voltage_loop);
 155:Core/Src/supercap.c **** 		Supercap_AUX_MachineSpirit(0);
 156:Core/Src/supercap.c **** 		PID_flag = 0;
 157:Core/Src/supercap.c **** 		protection_counter = 0;
 158:Core/Src/supercap.c ****       break;
 159:Core/Src/supercap.c ****     case RUNNING:
 160:Core/Src/supercap.c **** 			PID_flag = 1;
 161:Core/Src/supercap.c **** //      Supercap_AUX_YellowLED(0);
 162:Core/Src/supercap.c **** //      Supercap_AUX_BlueLED(40);
 163:Core/Src/supercap.c **** //      Supercap_DCDC_Start();
 164:Core/Src/supercap.c ****       break;
 165:Core/Src/supercap.c ****     case STOP:
 166:Core/Src/supercap.c **** 			PID_flag = 0;
 167:Core/Src/supercap.c **** //			Supercap_DCDC_Start();
 168:Core/Src/supercap.c **** //			Supercap_PWM_left (274);
 169:Core/Src/supercap.c **** //			Supercap_AUX_BlueLED(0);
 170:Core/Src/supercap.c **** //			Supercap_AUX_YellowLED(0);
 171:Core/Src/supercap.c ****       break;
 172:Core/Src/supercap.c ****     case FAULT:
 173:Core/Src/supercap.c **** 			//PID_flag = 0;
 174:Core/Src/supercap.c **** 			//Supercap_DCDC_Stop();
 175:Core/Src/supercap.c **** //		Supercap_AUX_MachineSpirit(70);
 176:Core/Src/supercap.c **** //		Supercap_AUX_BlueLED(60);
 177:Core/Src/supercap.c **** //    Supercap_AUX_YellowLED(100);
 178:Core/Src/supercap.c **** 		Supercap_PID_Reset(&PID_45W_loop);
 179:Core/Src/supercap.c **** 		Supercap_PID_Reset(&PID_n7A_loop);
 180:Core/Src/supercap.c **** 		Supercap_PID_Reset(&PID_7A_loop);
 181:Core/Src/supercap.c **** 		Supercap_PID_Reset(&PID_voltage_loop);
 182:Core/Src/supercap.c **** 		protection_counter++;
 183:Core/Src/supercap.c ****       break;
 184:Core/Src/supercap.c ****   }
 185:Core/Src/supercap.c **** 
 186:Core/Src/supercap.c **** }
 187:Core/Src/supercap.c **** 
ARM GAS  C:\Users\purdu\AppData\Local\Temp\ccWj3eAN.s 			page 9


 188:Core/Src/supercap.c **** void Supercap_Average_ADC_Function(_ADC_Sample_t *adc_sample) {
 267              		.loc 1 188 63 is_stmt 1 view -0
 268              		.cfi_startproc
 269              		@ args = 0, pretend = 0, frame = 0
 270              		@ frame_needed = 0, uses_anonymous_args = 0
 271              		@ link register save eliminated.
 189:Core/Src/supercap.c ****     if(adc_sample->count == 0){
 272              		.loc 1 189 5 view .LVU78
 273              		.loc 1 189 18 is_stmt 0 view .LVU79
 274 0000 0379     		ldrb	r3, [r0, #4]	@ zero_extendqisi2
 275              		.loc 1 189 7 view .LVU80
 276 0002 33B9     		cbnz	r3, .L26
 190:Core/Src/supercap.c ****       adc_sample->average = *(adc_sample->sample);
 277              		.loc 1 190 7 is_stmt 1 view .LVU81
 278              		.loc 1 190 41 is_stmt 0 view .LVU82
 279 0004 0368     		ldr	r3, [r0]
 280              		.loc 1 190 29 view .LVU83
 281 0006 1B88     		ldrh	r3, [r3]
 282              		.loc 1 190 27 view .LVU84
 283 0008 C380     		strh	r3, [r0, #6]	@ movhi
 191:Core/Src/supercap.c ****       adc_sample->history_sum = adc_sample->average << 2;
 284              		.loc 1 191 7 is_stmt 1 view .LVU85
 285              		.loc 1 191 53 is_stmt 0 view .LVU86
 286 000a 9B00     		lsls	r3, r3, #2
 287              		.loc 1 191 31 view .LVU87
 288 000c 8360     		str	r3, [r0, #8]
 192:Core/Src/supercap.c ****       adc_sample->count = 1;
 289              		.loc 1 192 7 is_stmt 1 view .LVU88
 290              		.loc 1 192 25 is_stmt 0 view .LVU89
 291 000e 0123     		movs	r3, #1
 292 0010 0371     		strb	r3, [r0, #4]
 293              	.L26:
 193:Core/Src/supercap.c ****     }
 194:Core/Src/supercap.c ****     adc_sample->history_sum = adc_sample->history_sum - adc_sample->average + *(adc_sample->sample)
 294              		.loc 1 194 5 is_stmt 1 view .LVU90
 295              		.loc 1 194 41 is_stmt 0 view .LVU91
 296 0012 8368     		ldr	r3, [r0, #8]
 297              		.loc 1 194 67 view .LVU92
 298 0014 C288     		ldrh	r2, [r0, #6]
 299              		.loc 1 194 55 view .LVU93
 300 0016 9B1A     		subs	r3, r3, r2
 301              		.loc 1 194 91 view .LVU94
 302 0018 0268     		ldr	r2, [r0]
 303              		.loc 1 194 79 view .LVU95
 304 001a 1288     		ldrh	r2, [r2]
 305              		.loc 1 194 77 view .LVU96
 306 001c 1344     		add	r3, r3, r2
 307              		.loc 1 194 29 view .LVU97
 308 001e 8360     		str	r3, [r0, #8]
 195:Core/Src/supercap.c ****     adc_sample->average = adc_sample->history_sum >> 2;
 309              		.loc 1 195 5 is_stmt 1 view .LVU98
 310              		.loc 1 195 25 is_stmt 0 view .LVU99
 311 0020 C3F38F03 		ubfx	r3, r3, #2, #16
 312 0024 C380     		strh	r3, [r0, #6]	@ movhi
 196:Core/Src/supercap.c ****     adc_sample->real_value_12bits = (adc_sample->average);
 313              		.loc 1 196 5 is_stmt 1 view .LVU100
 314              		.loc 1 196 35 is_stmt 0 view .LVU101
ARM GAS  C:\Users\purdu\AppData\Local\Temp\ccWj3eAN.s 			page 10


 315 0026 8381     		strh	r3, [r0, #12]	@ movhi
 197:Core/Src/supercap.c **** }
 316              		.loc 1 197 1 view .LVU102
 317 0028 7047     		bx	lr
 318              		.cfi_endproc
 319              	.LFE339:
 321              		.section	.text.Supercap_First_Order_Filter_ADC_Function,"ax",%progbits
 322              		.align	1
 323              		.global	Supercap_First_Order_Filter_ADC_Function
 324              		.syntax unified
 325              		.thumb
 326              		.thumb_func
 328              	Supercap_First_Order_Filter_ADC_Function:
 329              	.LVL15:
 330              	.LFB340:
 198:Core/Src/supercap.c **** 
 199:Core/Src/supercap.c **** void Supercap_First_Order_Filter_ADC_Function(_ADC_Sample_t *adc_sample) {
 331              		.loc 1 199 74 is_stmt 1 view -0
 332              		.cfi_startproc
 333              		@ args = 0, pretend = 0, frame = 0
 334              		@ frame_needed = 0, uses_anonymous_args = 0
 335              		@ link register save eliminated.
 200:Core/Src/supercap.c **** 			adc_sample->real_value_12bits = (*(adc_sample->sample)>>3) + (adc_sample->real_value_12bits - (a
 336              		.loc 1 200 4 view .LVU104
 337              		.loc 1 200 49 is_stmt 0 view .LVU105
 338 0000 0368     		ldr	r3, [r0]
 339              		.loc 1 200 37 view .LVU106
 340 0002 1A88     		ldrh	r2, [r3]
 341              		.loc 1 200 76 view .LVU107
 342 0004 8389     		ldrh	r3, [r0, #12]
 343              		.loc 1 200 96 view .LVU108
 344 0006 A3EBD303 		sub	r3, r3, r3, lsr #3
 345              		.loc 1 200 63 view .LVU109
 346 000a D208     		lsrs	r2, r2, #3
 347 000c 12FA83F3 		uxtah	r3, r2, r3
 348              		.loc 1 200 34 view .LVU110
 349 0010 8381     		strh	r3, [r0, #12]	@ movhi
 201:Core/Src/supercap.c **** }
 350              		.loc 1 201 1 view .LVU111
 351 0012 7047     		bx	lr
 352              		.cfi_endproc
 353              	.LFE340:
 355              		.section	.text.Supercap_First_Order_Filter_ADC_Function_Alpha,"ax",%progbits
 356              		.align	1
 357              		.global	Supercap_First_Order_Filter_ADC_Function_Alpha
 358              		.syntax unified
 359              		.thumb
 360              		.thumb_func
 362              	Supercap_First_Order_Filter_ADC_Function_Alpha:
 363              	.LVL16:
 364              	.LFB341:
 202:Core/Src/supercap.c **** 
 203:Core/Src/supercap.c **** void Supercap_First_Order_Filter_ADC_Function_Alpha(_ADC_Sample_t *adc_sample, uint16_t alpha) {
 365              		.loc 1 203 96 is_stmt 1 view -0
 366              		.cfi_startproc
 367              		@ args = 0, pretend = 0, frame = 0
 368              		@ frame_needed = 0, uses_anonymous_args = 0
ARM GAS  C:\Users\purdu\AppData\Local\Temp\ccWj3eAN.s 			page 11


 369              		@ link register save eliminated.
 204:Core/Src/supercap.c **** 			adc_sample->real_value_12bits = (*(adc_sample->sample)>>alpha) + (adc_sample->real_value_12bits 
 370              		.loc 1 204 4 view .LVU113
 371              		.loc 1 204 49 is_stmt 0 view .LVU114
 372 0000 0368     		ldr	r3, [r0]
 373              		.loc 1 204 37 view .LVU115
 374 0002 1A88     		ldrh	r2, [r3]
 375              		.loc 1 204 58 view .LVU116
 376 0004 0A41     		asrs	r2, r2, r1
 377              		.loc 1 204 80 view .LVU117
 378 0006 8389     		ldrh	r3, [r0, #12]
 379              		.loc 1 204 132 view .LVU118
 380 0008 43FA01F1 		asr	r1, r3, r1
 381              	.LVL17:
 382              		.loc 1 204 100 view .LVU119
 383 000c 5B1A     		subs	r3, r3, r1
 384              		.loc 1 204 67 view .LVU120
 385 000e 12FA83F3 		uxtah	r3, r2, r3
 386              		.loc 1 204 34 view .LVU121
 387 0012 8381     		strh	r3, [r0, #12]	@ movhi
 205:Core/Src/supercap.c **** }
 388              		.loc 1 205 1 view .LVU122
 389 0014 7047     		bx	lr
 390              		.cfi_endproc
 391              	.LFE341:
 393              		.section	.text.TIM2_NVIC,"ax",%progbits
 394              		.align	1
 395              		.global	TIM2_NVIC
 396              		.syntax unified
 397              		.thumb
 398              		.thumb_func
 400              	TIM2_NVIC:
 401              	.LFB333:
  33:Core/Src/supercap.c ****   Supercap_First_Order_Filter_ADC_Function_Alpha(&C_sys, 6);
 402              		.loc 1 33 17 is_stmt 1 view -0
 403              		.cfi_startproc
 404              		@ args = 0, pretend = 0, frame = 0
 405              		@ frame_needed = 0, uses_anonymous_args = 0
 406 0000 08B5     		push	{r3, lr}
 407              	.LCFI0:
 408              		.cfi_def_cfa_offset 8
 409              		.cfi_offset 3, -8
 410              		.cfi_offset 14, -4
  34:Core/Src/supercap.c ****   Supercap_First_Order_Filter_ADC_Function_Alpha(&C_right, 4);
 411              		.loc 1 34 3 view .LVU124
 412 0002 0621     		movs	r1, #6
 413 0004 0948     		ldr	r0, .L31
 414 0006 FFF7FEFF 		bl	Supercap_First_Order_Filter_ADC_Function_Alpha
 415              	.LVL18:
  35:Core/Src/supercap.c ****   Supercap_First_Order_Filter_ADC_Function_Alpha(&ADC4_12,2);
 416              		.loc 1 35 3 view .LVU125
 417 000a 0421     		movs	r1, #4
 418 000c 0848     		ldr	r0, .L31+4
 419 000e FFF7FEFF 		bl	Supercap_First_Order_Filter_ADC_Function_Alpha
 420              	.LVL19:
  36:Core/Src/supercap.c ****   Supercap_First_Order_Filter_ADC_Function_Alpha(&V_bat, 2);
 421              		.loc 1 36 3 view .LVU126
ARM GAS  C:\Users\purdu\AppData\Local\Temp\ccWj3eAN.s 			page 12


 422 0012 0221     		movs	r1, #2
 423 0014 0748     		ldr	r0, .L31+8
 424 0016 FFF7FEFF 		bl	Supercap_First_Order_Filter_ADC_Function_Alpha
 425              	.LVL20:
  37:Core/Src/supercap.c ****   Supercap_First_Order_Filter_ADC_Function_Alpha(&V_cap, 4);/*
 426              		.loc 1 37 3 view .LVU127
 427 001a 0221     		movs	r1, #2
 428 001c 0648     		ldr	r0, .L31+12
 429 001e FFF7FEFF 		bl	Supercap_First_Order_Filter_ADC_Function_Alpha
 430              	.LVL21:
  38:Core/Src/supercap.c **** 	Supercap_First_Order_Filter_ADC_Function_Alpha(&V_sys, 4);
 431              		.loc 1 38 3 view .LVU128
 432 0022 0421     		movs	r1, #4
 433 0024 0548     		ldr	r0, .L31+16
 434 0026 FFF7FEFF 		bl	Supercap_First_Order_Filter_ADC_Function_Alpha
 435              	.LVL22:
  43:Core/Src/supercap.c **** 
 436              		.loc 1 43 1 is_stmt 0 view .LVU129
 437 002a 08BD     		pop	{r3, pc}
 438              	.L32:
 439              		.align	2
 440              	.L31:
 441 002c 00000000 		.word	C_sys
 442 0030 00000000 		.word	C_right
 443 0034 00000000 		.word	ADC4_12
 444 0038 00000000 		.word	V_bat
 445 003c 00000000 		.word	V_cap
 446              		.cfi_endproc
 447              	.LFE333:
 449              		.section	.text.Supercap_Function_Init,"ax",%progbits
 450              		.align	1
 451              		.global	Supercap_Function_Init
 452              		.syntax unified
 453              		.thumb
 454              		.thumb_func
 456              	Supercap_Function_Init:
 457              	.LVL23:
 458              	.LFB342:
 206:Core/Src/supercap.c **** 
 207:Core/Src/supercap.c **** void Supercap_Function_Init(_ADC_Sample_t *adc_sample) {
 459              		.loc 1 207 56 is_stmt 1 view -0
 460              		.cfi_startproc
 461              		@ args = 0, pretend = 0, frame = 0
 462              		@ frame_needed = 0, uses_anonymous_args = 0
 463              		@ link register save eliminated.
 208:Core/Src/supercap.c **** 			adc_sample->real_value_12bits = *(adc_sample->sample);
 464              		.loc 1 208 4 view .LVU131
 465              		.loc 1 208 48 is_stmt 0 view .LVU132
 466 0000 0368     		ldr	r3, [r0]
 467              		.loc 1 208 36 view .LVU133
 468 0002 1B88     		ldrh	r3, [r3]
 469              		.loc 1 208 34 view .LVU134
 470 0004 8381     		strh	r3, [r0, #12]	@ movhi
 209:Core/Src/supercap.c **** }
 471              		.loc 1 209 1 view .LVU135
 472 0006 7047     		bx	lr
 473              		.cfi_endproc
ARM GAS  C:\Users\purdu\AppData\Local\Temp\ccWj3eAN.s 			page 13


 474              	.LFE342:
 476              		.section	.text.Supercap_ADC_to_Voltage_Funtion,"ax",%progbits
 477              		.align	1
 478              		.global	Supercap_ADC_to_Voltage_Funtion
 479              		.syntax unified
 480              		.thumb
 481              		.thumb_func
 483              	Supercap_ADC_to_Voltage_Funtion:
 484              	.LVL24:
 485              	.LFB343:
 210:Core/Src/supercap.c **** 
 211:Core/Src/supercap.c **** float Supercap_ADC_to_Voltage_Funtion(uint16_t adc_value) {
 486              		.loc 1 211 59 is_stmt 1 view -0
 487              		.cfi_startproc
 488              		@ args = 0, pretend = 0, frame = 0
 489              		@ frame_needed = 0, uses_anonymous_args = 0
 490              		@ link register save eliminated.
 491              		.loc 1 211 59 is_stmt 0 view .LVU137
 492 0000 07EE900A 		vmov	s15, r0	@ int
 212:Core/Src/supercap.c ****   float voltage = ((float)adc_value * 3.3f / 4095.0f) * 11;
 493              		.loc 1 212 3 is_stmt 1 view .LVU138
 494              		.loc 1 212 20 is_stmt 0 view .LVU139
 495 0004 F8EE677A 		vcvt.f32.u32	s15, s15
 496              		.loc 1 212 37 view .LVU140
 497 0008 9FED067A 		vldr.32	s14, .L35
 498 000c 67EE877A 		vmul.f32	s15, s15, s14
 499              		.loc 1 212 44 view .LVU141
 500 0010 9FED057A 		vldr.32	s14, .L35+4
 501 0014 87EE870A 		vdiv.f32	s0, s15, s14
 502              	.LVL25:
 213:Core/Src/supercap.c ****   return voltage;
 503              		.loc 1 213 3 is_stmt 1 view .LVU142
 214:Core/Src/supercap.c **** }
 504              		.loc 1 214 1 is_stmt 0 view .LVU143
 505 0018 F2EE067A 		vmov.f32	s15, #1.1e+1
 506 001c 20EE270A 		vmul.f32	s0, s0, s15
 507              	.LVL26:
 508              		.loc 1 214 1 view .LVU144
 509 0020 7047     		bx	lr
 510              	.L36:
 511 0022 00BF     		.align	2
 512              	.L35:
 513 0024 33335340 		.word	1079194419
 514 0028 00F07F45 		.word	1166012416
 515              		.cfi_endproc
 516              	.LFE343:
 518              		.section	.text.Supercap_ADC_to_Voltage_Funtion_Ref,"ax",%progbits
 519              		.align	1
 520              		.global	Supercap_ADC_to_Voltage_Funtion_Ref
 521              		.syntax unified
 522              		.thumb
 523              		.thumb_func
 525              	Supercap_ADC_to_Voltage_Funtion_Ref:
 526              	.LVL27:
 527              	.LFB344:
 215:Core/Src/supercap.c **** 
 216:Core/Src/supercap.c **** float Supercap_ADC_to_Voltage_Funtion_Ref(uint16_t adc_value) {
ARM GAS  C:\Users\purdu\AppData\Local\Temp\ccWj3eAN.s 			page 14


 528              		.loc 1 216 63 is_stmt 1 view -0
 529              		.cfi_startproc
 530              		@ args = 0, pretend = 0, frame = 0
 531              		@ frame_needed = 0, uses_anonymous_args = 0
 532              		@ link register save eliminated.
 533              		.loc 1 216 63 is_stmt 0 view .LVU146
 534 0000 07EE900A 		vmov	s15, r0	@ int
 217:Core/Src/supercap.c ****   float voltage = ((float)adc_value * 3.3f / 4095.0f);
 535              		.loc 1 217 3 is_stmt 1 view .LVU147
 536              		.loc 1 217 20 is_stmt 0 view .LVU148
 537 0004 F8EE677A 		vcvt.f32.u32	s15, s15
 538              		.loc 1 217 37 view .LVU149
 539 0008 9FED047A 		vldr.32	s14, .L38
 540 000c 67EE877A 		vmul.f32	s15, s15, s14
 541              	.LVL28:
 218:Core/Src/supercap.c ****   return voltage;
 542              		.loc 1 218 3 is_stmt 1 view .LVU150
 219:Core/Src/supercap.c **** }
 543              		.loc 1 219 1 is_stmt 0 view .LVU151
 544 0010 9FED030A 		vldr.32	s0, .L38+4
 545 0014 87EE800A 		vdiv.f32	s0, s15, s0
 546              	.LVL29:
 547              		.loc 1 219 1 view .LVU152
 548 0018 7047     		bx	lr
 549              	.L39:
 550 001a 00BF     		.align	2
 551              	.L38:
 552 001c 33335340 		.word	1079194419
 553 0020 00F07F45 		.word	1166012416
 554              		.cfi_endproc
 555              	.LFE344:
 557              		.section	.text.Supercap_ADC_to_Current_Funtion,"ax",%progbits
 558              		.align	1
 559              		.global	Supercap_ADC_to_Current_Funtion
 560              		.syntax unified
 561              		.thumb
 562              		.thumb_func
 564              	Supercap_ADC_to_Current_Funtion:
 565              	.LVL30:
 566              	.LFB345:
 220:Core/Src/supercap.c **** 
 221:Core/Src/supercap.c **** float Supercap_ADC_to_Current_Funtion(uint16_t adc_value, uint16_t ref_voltage) {
 567              		.loc 1 221 81 is_stmt 1 view -0
 568              		.cfi_startproc
 569              		@ args = 0, pretend = 0, frame = 0
 570              		@ frame_needed = 0, uses_anonymous_args = 0
 571              		@ link register save eliminated.
 222:Core/Src/supercap.c ****   // ((ref_12bits*3.3/4095)+(current_flot*0.005)*25)*4095/3.3=current_12bits
 223:Core/Src/supercap.c ****   float current = 0.00644689f * (float)(adc_value - ref_voltage);
 572              		.loc 1 223 3 view .LVU154
 573              		.loc 1 223 51 is_stmt 0 view .LVU155
 574 0000 401A     		subs	r0, r0, r1
 575              	.LVL31:
 576              		.loc 1 223 33 view .LVU156
 577 0002 07EE900A 		vmov	s15, r0	@ int
 578 0006 B8EEE70A 		vcvt.f32.s32	s0, s15
 579              	.LVL32:
ARM GAS  C:\Users\purdu\AppData\Local\Temp\ccWj3eAN.s 			page 15


 224:Core/Src/supercap.c ****   return current;
 580              		.loc 1 224 3 is_stmt 1 view .LVU157
 225:Core/Src/supercap.c **** }
 581              		.loc 1 225 1 is_stmt 0 view .LVU158
 582 000a DFED027A 		vldr.32	s15, .L41
 583 000e 20EE270A 		vmul.f32	s0, s0, s15
 584              	.LVL33:
 585              		.loc 1 225 1 view .LVU159
 586 0012 7047     		bx	lr
 587              	.L42:
 588              		.align	2
 589              	.L41:
 590 0014 6F40D33B 		.word	1003700335
 591              		.cfi_endproc
 592              	.LFE345:
 594              		.section	.text.Supercap_PID_Init,"ax",%progbits
 595              		.align	1
 596              		.global	Supercap_PID_Init
 597              		.syntax unified
 598              		.thumb
 599              		.thumb_func
 601              	Supercap_PID_Init:
 602              	.LVL34:
 603              	.LFB346:
 226:Core/Src/supercap.c **** 
 227:Core/Src/supercap.c **** //Init
 228:Core/Src/supercap.c **** void Supercap_PID_Init(_Supercap_PID_Controller_t *pid_controller, float Kp, float Ki, float Kd, in
 604              		.loc 1 228 153 is_stmt 1 view -0
 605              		.cfi_startproc
 606              		@ args = 0, pretend = 0, frame = 0
 607              		@ frame_needed = 0, uses_anonymous_args = 0
 608              		@ link register save eliminated.
 229:Core/Src/supercap.c ****   pid_controller->Kp = Kp;
 609              		.loc 1 229 3 view .LVU161
 610              		.loc 1 229 22 is_stmt 0 view .LVU162
 611 0000 80ED000A 		vstr.32	s0, [r0]
 230:Core/Src/supercap.c ****   pid_controller->Ki = Ki;
 612              		.loc 1 230 3 is_stmt 1 view .LVU163
 613              		.loc 1 230 22 is_stmt 0 view .LVU164
 614 0004 C0ED010A 		vstr.32	s1, [r0, #4]
 231:Core/Src/supercap.c ****   pid_controller->Kd = Kd;
 615              		.loc 1 231 3 is_stmt 1 view .LVU165
 616              		.loc 1 231 22 is_stmt 0 view .LVU166
 617 0008 80ED021A 		vstr.32	s2, [r0, #8]
 232:Core/Src/supercap.c ****   pid_controller->output_max = output_max;
 618              		.loc 1 232 3 is_stmt 1 view .LVU167
 619              		.loc 1 232 30 is_stmt 0 view .LVU168
 620 000c C182     		strh	r1, [r0, #22]	@ movhi
 233:Core/Src/supercap.c ****   pid_controller->output_min = output_min;
 621              		.loc 1 233 3 is_stmt 1 view .LVU169
 622              		.loc 1 233 30 is_stmt 0 view .LVU170
 623 000e 0283     		strh	r2, [r0, #24]	@ movhi
 234:Core/Src/supercap.c ****   pid_controller->I_max = I_max;
 624              		.loc 1 234 3 is_stmt 1 view .LVU171
 625              		.loc 1 234 25 is_stmt 0 view .LVU172
 626 0010 4383     		strh	r3, [r0, #26]	@ movhi
 235:Core/Src/supercap.c **** }
ARM GAS  C:\Users\purdu\AppData\Local\Temp\ccWj3eAN.s 			page 16


 627              		.loc 1 235 1 view .LVU173
 628 0012 7047     		bx	lr
 629              		.cfi_endproc
 630              	.LFE346:
 632              		.section	.text.Supercap_PID_Reset,"ax",%progbits
 633              		.align	1
 634              		.global	Supercap_PID_Reset
 635              		.syntax unified
 636              		.thumb
 637              		.thumb_func
 639              	Supercap_PID_Reset:
 640              	.LVL35:
 641              	.LFB347:
 236:Core/Src/supercap.c **** 
 237:Core/Src/supercap.c **** void Supercap_PID_Reset(_Supercap_PID_Controller_t *pid_controller){
 642              		.loc 1 237 68 is_stmt 1 view -0
 643              		.cfi_startproc
 644              		@ args = 0, pretend = 0, frame = 0
 645              		@ frame_needed = 0, uses_anonymous_args = 0
 646              		@ link register save eliminated.
 238:Core/Src/supercap.c ****   pid_controller->error_sum = 0;
 647              		.loc 1 238 3 view .LVU175
 648              		.loc 1 238 29 is_stmt 0 view .LVU176
 649 0000 0023     		movs	r3, #0
 650 0002 0361     		str	r3, [r0, #16]	@ float
 239:Core/Src/supercap.c **** }
 651              		.loc 1 239 1 view .LVU177
 652 0004 7047     		bx	lr
 653              		.cfi_endproc
 654              	.LFE347:
 656              		.section	.text.Supercap_PWM_left,"ax",%progbits
 657              		.align	1
 658              		.global	Supercap_PWM_left
 659              		.syntax unified
 660              		.thumb
 661              		.thumb_func
 663              	Supercap_PWM_left:
 664              	.LVL36:
 665              	.LFB348:
 240:Core/Src/supercap.c **** 
 241:Core/Src/supercap.c **** //Driver
 242:Core/Src/supercap.c **** void Supercap_PWM_left(int16_t pwm_duty_cycle) {
 666              		.loc 1 242 48 is_stmt 1 view -0
 667              		.cfi_startproc
 668              		@ args = 0, pretend = 0, frame = 0
 669              		@ frame_needed = 0, uses_anonymous_args = 0
 670              		@ link register save eliminated.
 243:Core/Src/supercap.c ****   __HAL_TIM_SET_COMPARE(&htim1, TIM_CHANNEL_1, pwm_duty_cycle);
 671              		.loc 1 243 3 view .LVU179
 672 0000 024B     		ldr	r3, .L46
 673 0002 1B68     		ldr	r3, [r3]
 674 0004 5863     		str	r0, [r3, #52]
 244:Core/Src/supercap.c ****   __HAL_TIM_SET_COMPARE(&htim1, TIM_CHANNEL_4, 22);
 675              		.loc 1 244 3 view .LVU180
 676 0006 1622     		movs	r2, #22
 677 0008 1A64     		str	r2, [r3, #64]
 245:Core/Src/supercap.c **** }
ARM GAS  C:\Users\purdu\AppData\Local\Temp\ccWj3eAN.s 			page 17


 678              		.loc 1 245 1 is_stmt 0 view .LVU181
 679 000a 7047     		bx	lr
 680              	.L47:
 681              		.align	2
 682              	.L46:
 683 000c 00000000 		.word	htim1
 684              		.cfi_endproc
 685              	.LFE348:
 687              		.section	.text.TIM5_NVIC,"ax",%progbits
 688              		.align	1
 689              		.global	TIM5_NVIC
 690              		.syntax unified
 691              		.thumb
 692              		.thumb_func
 694              	TIM5_NVIC:
 695              	.LFB334:
  45:Core/Src/supercap.c **** 	if(PID_flag == 1){
 696              		.loc 1 45 17 is_stmt 1 view -0
 697              		.cfi_startproc
 698              		@ args = 0, pretend = 0, frame = 0
 699              		@ frame_needed = 0, uses_anonymous_args = 0
  46:Core/Src/supercap.c **** 	Supercap_PID_Controller_Function(&PID_45W_loop, &C_sys, 2360, ((2360.0f-C_sys.real_value_12bits)*5
 700              		.loc 1 46 2 view .LVU183
  46:Core/Src/supercap.c **** 	Supercap_PID_Controller_Function(&PID_45W_loop, &C_sys, 2360, ((2360.0f-C_sys.real_value_12bits)*5
 701              		.loc 1 46 14 is_stmt 0 view .LVU184
 702 0000 374B     		ldr	r3, .L55
 703 0002 1B78     		ldrb	r3, [r3]	@ zero_extendqisi2
  46:Core/Src/supercap.c **** 	Supercap_PID_Controller_Function(&PID_45W_loop, &C_sys, 2360, ((2360.0f-C_sys.real_value_12bits)*5
 704              		.loc 1 46 4 view .LVU185
 705 0004 012B     		cmp	r3, #1
 706 0006 00D0     		beq	.L54
 707 0008 7047     		bx	lr
 708              	.L54:
  45:Core/Src/supercap.c **** 	if(PID_flag == 1){
 709              		.loc 1 45 17 view .LVU186
 710 000a 2DE9F041 		push	{r4, r5, r6, r7, r8, lr}
 711              	.LCFI1:
 712              		.cfi_def_cfa_offset 24
 713              		.cfi_offset 4, -24
 714              		.cfi_offset 5, -20
 715              		.cfi_offset 6, -16
 716              		.cfi_offset 7, -12
 717              		.cfi_offset 8, -8
 718              		.cfi_offset 14, -4
  47:Core/Src/supercap.c **** 	Supercap_PID_Controller_Function(&PID_n7A_loop, &C_right, 3113, V_cap.real_value_12bits); //0 offs
 719              		.loc 1 47 2 is_stmt 1 view .LVU187
  47:Core/Src/supercap.c **** 	Supercap_PID_Controller_Function(&PID_n7A_loop, &C_right, 3113, V_cap.real_value_12bits); //0 offs
 720              		.loc 1 47 79 is_stmt 0 view .LVU188
 721 000e 3549     		ldr	r1, .L55+4
 722 0010 8B89     		ldrh	r3, [r1, #12]
 723 0012 07EE103A 		vmov	s14, r3	@ int
  47:Core/Src/supercap.c **** 	Supercap_PID_Controller_Function(&PID_n7A_loop, &C_right, 3113, V_cap.real_value_12bits); //0 offs
 724              		.loc 1 47 73 view .LVU189
 725 0016 B8EEC77A 		vcvt.f32.s32	s14, s14
 726 001a DFED337A 		vldr.32	s15, .L55+8
 727 001e 77EEC77A 		vsub.f32	s15, s15, s14
  47:Core/Src/supercap.c **** 	Supercap_PID_Controller_Function(&PID_n7A_loop, &C_right, 3113, V_cap.real_value_12bits); //0 offs
ARM GAS  C:\Users\purdu\AppData\Local\Temp\ccWj3eAN.s 			page 18


 728              		.loc 1 47 98 view .LVU190
 729 0022 B1EE047A 		vmov.f32	s14, #5.0e+0
 730 0026 67EE877A 		vmul.f32	s15, s15, s14
  47:Core/Src/supercap.c **** 	Supercap_PID_Controller_Function(&PID_n7A_loop, &C_right, 3113, V_cap.real_value_12bits); //0 offs
 731              		.loc 1 47 109 view .LVU191
 732 002a 304C     		ldr	r4, .L55+12
 733 002c A389     		ldrh	r3, [r4, #12]
 734 002e 00EE103A 		vmov	s0, r3	@ int
  47:Core/Src/supercap.c **** 	Supercap_PID_Controller_Function(&PID_n7A_loop, &C_right, 3113, V_cap.real_value_12bits); //0 offs
 735              		.loc 1 47 2 view .LVU192
 736 0032 B8EEC00A 		vcvt.f32.s32	s0, s0
 737 0036 2E4D     		ldr	r5, .L55+16
 738 0038 30EE270A 		vadd.f32	s0, s0, s15
 739 003c 40F63812 		movw	r2, #2360
 740 0040 2846     		mov	r0, r5
 741 0042 FFF7FEFF 		bl	Supercap_PID_Controller_Function
 742              	.LVL37:
  48:Core/Src/supercap.c ****   Supercap_PID_Controller_Function(&PID_7A_loop, &C_right, 962, V_cap.real_value_12bits); //0 offse
 743              		.loc 1 48 2 is_stmt 1 view .LVU193
  48:Core/Src/supercap.c ****   Supercap_PID_Controller_Function(&PID_7A_loop, &C_right, 962, V_cap.real_value_12bits); //0 offse
 744              		.loc 1 48 71 is_stmt 0 view .LVU194
 745 0046 A389     		ldrh	r3, [r4, #12]
 746 0048 00EE103A 		vmov	s0, r3	@ int
  48:Core/Src/supercap.c ****   Supercap_PID_Controller_Function(&PID_7A_loop, &C_right, 962, V_cap.real_value_12bits); //0 offse
 747              		.loc 1 48 2 view .LVU195
 748 004c DFF8BC80 		ldr	r8, .L55+44
 749 0050 284E     		ldr	r6, .L55+20
 750 0052 B8EE400A 		vcvt.f32.u32	s0, s0
 751 0056 40F62942 		movw	r2, #3113
 752 005a 4146     		mov	r1, r8
 753 005c 3046     		mov	r0, r6
 754 005e FFF7FEFF 		bl	Supercap_PID_Controller_Function
 755              	.LVL38:
  49:Core/Src/supercap.c ****   temp2 = Supercap_Compare(PID_45W_loop.output, PID_n7A_loop.output, PID_7A_loop.output);
 756              		.loc 1 49 3 is_stmt 1 view .LVU196
  49:Core/Src/supercap.c ****   temp2 = Supercap_Compare(PID_45W_loop.output, PID_n7A_loop.output, PID_7A_loop.output);
 757              		.loc 1 49 70 is_stmt 0 view .LVU197
 758 0062 A389     		ldrh	r3, [r4, #12]
 759 0064 00EE103A 		vmov	s0, r3	@ int
  49:Core/Src/supercap.c ****   temp2 = Supercap_Compare(PID_45W_loop.output, PID_n7A_loop.output, PID_7A_loop.output);
 760              		.loc 1 49 3 view .LVU198
 761 0068 234F     		ldr	r7, .L55+24
 762 006a B8EE400A 		vcvt.f32.u32	s0, s0
 763 006e 40F2C232 		movw	r2, #962
 764 0072 4146     		mov	r1, r8
 765 0074 3846     		mov	r0, r7
 766 0076 FFF7FEFF 		bl	Supercap_PID_Controller_Function
 767              	.LVL39:
  50:Core/Src/supercap.c ****   temp2 = Supercap_Limit(temp2, 2707, 0);
 768              		.loc 1 50 3 is_stmt 1 view .LVU199
  50:Core/Src/supercap.c ****   temp2 = Supercap_Limit(temp2, 2707, 0);
 769              		.loc 1 50 11 is_stmt 0 view .LVU200
 770 007a B7F91420 		ldrsh	r2, [r7, #20]
 771 007e B6F91410 		ldrsh	r1, [r6, #20]
 772 0082 B5F91400 		ldrsh	r0, [r5, #20]
 773 0086 FFF7FEFF 		bl	Supercap_Compare
 774              	.LVL40:
ARM GAS  C:\Users\purdu\AppData\Local\Temp\ccWj3eAN.s 			page 19


 775 008a 07EE900A 		vmov	s15, r0	@ int
  50:Core/Src/supercap.c ****   temp2 = Supercap_Limit(temp2, 2707, 0);
 776              		.loc 1 50 9 discriminator 1 view .LVU201
 777 008e 1B4D     		ldr	r5, .L55+28
 778 0090 F8EEE77A 		vcvt.f32.s32	s15, s15
 779 0094 C5ED007A 		vstr.32	s15, [r5]
  51:Core/Src/supercap.c **** 	Supercap_PID_Controller_Function(&PID_voltage_loop, &V_cap, temp2, 0.07f*temp2);
 780              		.loc 1 51 3 is_stmt 1 view .LVU202
  51:Core/Src/supercap.c **** 	Supercap_PID_Controller_Function(&PID_voltage_loop, &V_cap, temp2, 0.07f*temp2);
 781              		.loc 1 51 11 is_stmt 0 view .LVU203
 782 0098 0022     		movs	r2, #0
 783 009a 40F69321 		movw	r1, #2707
 784 009e FFF7FEFF 		bl	Supercap_Limit
 785              	.LVL41:
 786 00a2 0246     		mov	r2, r0
  51:Core/Src/supercap.c **** 	Supercap_PID_Controller_Function(&PID_voltage_loop, &V_cap, temp2, 0.07f*temp2);
 787              		.loc 1 51 9 discriminator 1 view .LVU204
 788 00a4 07EE900A 		vmov	s15, r0	@ int
 789 00a8 F8EEE77A 		vcvt.f32.s32	s15, s15
 790 00ac C5ED007A 		vstr.32	s15, [r5]
  52:Core/Src/supercap.c **** 	Supercap_PWM_left(temp2*0.12f);
 791              		.loc 1 52 2 is_stmt 1 view .LVU205
 792 00b0 9FED130A 		vldr.32	s0, .L55+32
 793 00b4 27EE800A 		vmul.f32	s0, s15, s0
 794 00b8 2146     		mov	r1, r4
 795 00ba 1248     		ldr	r0, .L55+36
 796 00bc FFF7FEFF 		bl	Supercap_PID_Controller_Function
 797              	.LVL42:
  53:Core/Src/supercap.c ****   //Supercap_PWM_left(0);
 798              		.loc 1 53 2 view .LVU206
  53:Core/Src/supercap.c ****   //Supercap_PWM_left(0);
 799              		.loc 1 53 25 is_stmt 0 view .LVU207
 800 00c0 D5ED007A 		vldr.32	s15, [r5]
 801 00c4 9FED107A 		vldr.32	s14, .L55+40
 802 00c8 67EE877A 		vmul.f32	s15, s15, s14
  53:Core/Src/supercap.c ****   //Supercap_PWM_left(0);
 803              		.loc 1 53 2 view .LVU208
 804 00cc FDEEE77A 		vcvt.s32.f32	s15, s15
 805 00d0 17EE903A 		vmov	r3, s15	@ int
 806 00d4 18B2     		sxth	r0, r3
 807 00d6 FFF7FEFF 		bl	Supercap_PWM_left
 808              	.LVL43:
  56:Core/Src/supercap.c **** 
 809              		.loc 1 56 1 view .LVU209
 810 00da BDE8F081 		pop	{r4, r5, r6, r7, r8, pc}
 811              	.L56:
 812 00de 00BF     		.align	2
 813              	.L55:
 814 00e0 00000000 		.word	PID_flag
 815 00e4 00000000 		.word	C_sys
 816 00e8 00801345 		.word	1158905856
 817 00ec 00000000 		.word	V_cap
 818 00f0 00000000 		.word	PID_45W_loop
 819 00f4 00000000 		.word	PID_n7A_loop
 820 00f8 00000000 		.word	PID_7A_loop
 821 00fc 00000000 		.word	temp2
 822 0100 295C8F3D 		.word	1032805417
ARM GAS  C:\Users\purdu\AppData\Local\Temp\ccWj3eAN.s 			page 20


 823 0104 00000000 		.word	PID_voltage_loop
 824 0108 8FC2F53D 		.word	1039516303
 825 010c 00000000 		.word	C_right
 826              		.cfi_endproc
 827              	.LFE334:
 829              		.section	.text.Supercap_PWM_right,"ax",%progbits
 830              		.align	1
 831              		.global	Supercap_PWM_right
 832              		.syntax unified
 833              		.thumb
 834              		.thumb_func
 836              	Supercap_PWM_right:
 837              	.LVL44:
 838              	.LFB349:
 246:Core/Src/supercap.c **** 
 247:Core/Src/supercap.c **** void Supercap_PWM_right(int16_t pwm_duty_cycle) {
 839              		.loc 1 247 49 is_stmt 1 view -0
 840              		.cfi_startproc
 841              		@ args = 0, pretend = 0, frame = 0
 842              		@ frame_needed = 0, uses_anonymous_args = 0
 843              		@ link register save eliminated.
 248:Core/Src/supercap.c ****   __HAL_TIM_SET_COMPARE(&htim1, TIM_CHANNEL_1, 278);
 844              		.loc 1 248 3 view .LVU211
 845 0000 034B     		ldr	r3, .L58
 846 0002 1B68     		ldr	r3, [r3]
 847 0004 4FF48B72 		mov	r2, #278
 848 0008 5A63     		str	r2, [r3, #52]
 249:Core/Src/supercap.c ****   __HAL_TIM_SET_COMPARE(&htim1, TIM_CHANNEL_4, pwm_duty_cycle);
 849              		.loc 1 249 3 view .LVU212
 850 000a 1864     		str	r0, [r3, #64]
 250:Core/Src/supercap.c **** }
 851              		.loc 1 250 1 is_stmt 0 view .LVU213
 852 000c 7047     		bx	lr
 853              	.L59:
 854 000e 00BF     		.align	2
 855              	.L58:
 856 0010 00000000 		.word	htim1
 857              		.cfi_endproc
 858              	.LFE349:
 860              		.section	.text.Supercap_PWM_GND,"ax",%progbits
 861              		.align	1
 862              		.global	Supercap_PWM_GND
 863              		.syntax unified
 864              		.thumb
 865              		.thumb_func
 867              	Supercap_PWM_GND:
 868              	.LFB350:
 251:Core/Src/supercap.c **** 
 252:Core/Src/supercap.c **** void Supercap_PWM_GND() {
 869              		.loc 1 252 25 is_stmt 1 view -0
 870              		.cfi_startproc
 871              		@ args = 0, pretend = 0, frame = 0
 872              		@ frame_needed = 0, uses_anonymous_args = 0
 873              		@ link register save eliminated.
 253:Core/Src/supercap.c ****   __HAL_TIM_SET_COMPARE(&htim1, TIM_CHANNEL_1, 0);
 874              		.loc 1 253 3 view .LVU215
 875 0000 034B     		ldr	r3, .L61
ARM GAS  C:\Users\purdu\AppData\Local\Temp\ccWj3eAN.s 			page 21


 876 0002 1B68     		ldr	r3, [r3]
 877 0004 0022     		movs	r2, #0
 878 0006 5A63     		str	r2, [r3, #52]
 254:Core/Src/supercap.c ****   __HAL_TIM_SET_COMPARE(&htim1, TIM_CHANNEL_4, 300);
 879              		.loc 1 254 3 view .LVU216
 880 0008 4FF49672 		mov	r2, #300
 881 000c 1A64     		str	r2, [r3, #64]
 255:Core/Src/supercap.c **** }
 882              		.loc 1 255 1 is_stmt 0 view .LVU217
 883 000e 7047     		bx	lr
 884              	.L62:
 885              		.align	2
 886              	.L61:
 887 0010 00000000 		.word	htim1
 888              		.cfi_endproc
 889              	.LFE350:
 891              		.section	.text.Supercap_DCDC_Start,"ax",%progbits
 892              		.align	1
 893              		.global	Supercap_DCDC_Start
 894              		.syntax unified
 895              		.thumb
 896              		.thumb_func
 898              	Supercap_DCDC_Start:
 899              	.LFB351:
 256:Core/Src/supercap.c **** 
 257:Core/Src/supercap.c **** void Supercap_DCDC_Start(){
 900              		.loc 1 257 27 is_stmt 1 view -0
 901              		.cfi_startproc
 902              		@ args = 0, pretend = 0, frame = 0
 903              		@ frame_needed = 0, uses_anonymous_args = 0
 904 0000 10B5     		push	{r4, lr}
 905              	.LCFI2:
 906              		.cfi_def_cfa_offset 8
 907              		.cfi_offset 4, -8
 908              		.cfi_offset 14, -4
 258:Core/Src/supercap.c ****   HAL_TIM_PWM_Start(&htim1, TIM_CHANNEL_1);
 909              		.loc 1 258 3 view .LVU219
 910 0002 094C     		ldr	r4, .L65
 911 0004 0021     		movs	r1, #0
 912 0006 2046     		mov	r0, r4
 913 0008 FFF7FEFF 		bl	HAL_TIM_PWM_Start
 914              	.LVL45:
 259:Core/Src/supercap.c ****   HAL_TIMEx_PWMN_Start(&htim1, TIM_CHANNEL_1);
 915              		.loc 1 259 3 view .LVU220
 916 000c 0021     		movs	r1, #0
 917 000e 2046     		mov	r0, r4
 918 0010 FFF7FEFF 		bl	HAL_TIMEx_PWMN_Start
 919              	.LVL46:
 260:Core/Src/supercap.c ****   HAL_TIM_PWM_Start(&htim1, TIM_CHANNEL_4);
 920              		.loc 1 260 3 view .LVU221
 921 0014 0C21     		movs	r1, #12
 922 0016 2046     		mov	r0, r4
 923 0018 FFF7FEFF 		bl	HAL_TIM_PWM_Start
 924              	.LVL47:
 261:Core/Src/supercap.c ****   HAL_TIMEx_PWMN_Start(&htim1, TIM_CHANNEL_4);
 925              		.loc 1 261 3 view .LVU222
 926 001c 0C21     		movs	r1, #12
ARM GAS  C:\Users\purdu\AppData\Local\Temp\ccWj3eAN.s 			page 22


 927 001e 2046     		mov	r0, r4
 928 0020 FFF7FEFF 		bl	HAL_TIMEx_PWMN_Start
 929              	.LVL48:
 262:Core/Src/supercap.c **** }
 930              		.loc 1 262 1 is_stmt 0 view .LVU223
 931 0024 10BD     		pop	{r4, pc}
 932              	.L66:
 933 0026 00BF     		.align	2
 934              	.L65:
 935 0028 00000000 		.word	htim1
 936              		.cfi_endproc
 937              	.LFE351:
 939              		.section	.text.Supercap_DCDC_Stop,"ax",%progbits
 940              		.align	1
 941              		.global	Supercap_DCDC_Stop
 942              		.syntax unified
 943              		.thumb
 944              		.thumb_func
 946              	Supercap_DCDC_Stop:
 947              	.LFB352:
 263:Core/Src/supercap.c **** 
 264:Core/Src/supercap.c **** void Supercap_DCDC_Stop(){
 948              		.loc 1 264 26 is_stmt 1 view -0
 949              		.cfi_startproc
 950              		@ args = 0, pretend = 0, frame = 0
 951              		@ frame_needed = 0, uses_anonymous_args = 0
 952 0000 10B5     		push	{r4, lr}
 953              	.LCFI3:
 954              		.cfi_def_cfa_offset 8
 955              		.cfi_offset 4, -8
 956              		.cfi_offset 14, -4
 265:Core/Src/supercap.c ****   HAL_TIM_PWM_Stop(&htim1, TIM_CHANNEL_1);
 957              		.loc 1 265 3 view .LVU225
 958 0002 094C     		ldr	r4, .L69
 959 0004 0021     		movs	r1, #0
 960 0006 2046     		mov	r0, r4
 961 0008 FFF7FEFF 		bl	HAL_TIM_PWM_Stop
 962              	.LVL49:
 266:Core/Src/supercap.c ****   HAL_TIMEx_PWMN_Stop(&htim1, TIM_CHANNEL_1);
 963              		.loc 1 266 3 view .LVU226
 964 000c 0021     		movs	r1, #0
 965 000e 2046     		mov	r0, r4
 966 0010 FFF7FEFF 		bl	HAL_TIMEx_PWMN_Stop
 967              	.LVL50:
 267:Core/Src/supercap.c ****   HAL_TIM_PWM_Stop(&htim1, TIM_CHANNEL_4);
 968              		.loc 1 267 3 view .LVU227
 969 0014 0C21     		movs	r1, #12
 970 0016 2046     		mov	r0, r4
 971 0018 FFF7FEFF 		bl	HAL_TIM_PWM_Stop
 972              	.LVL51:
 268:Core/Src/supercap.c ****   HAL_TIMEx_PWMN_Stop(&htim1, TIM_CHANNEL_4);
 973              		.loc 1 268 3 view .LVU228
 974 001c 0C21     		movs	r1, #12
 975 001e 2046     		mov	r0, r4
 976 0020 FFF7FEFF 		bl	HAL_TIMEx_PWMN_Stop
 977              	.LVL52:
 269:Core/Src/supercap.c **** }
ARM GAS  C:\Users\purdu\AppData\Local\Temp\ccWj3eAN.s 			page 23


 978              		.loc 1 269 1 is_stmt 0 view .LVU229
 979 0024 10BD     		pop	{r4, pc}
 980              	.L70:
 981 0026 00BF     		.align	2
 982              	.L69:
 983 0028 00000000 		.word	htim1
 984              		.cfi_endproc
 985              	.LFE352:
 987              		.section	.text.Supercap_AUX_Init,"ax",%progbits
 988              		.align	1
 989              		.global	Supercap_AUX_Init
 990              		.syntax unified
 991              		.thumb
 992              		.thumb_func
 994              	Supercap_AUX_Init:
 995              	.LFB353:
 270:Core/Src/supercap.c **** 
 271:Core/Src/supercap.c **** void Supercap_AUX_Init(){
 996              		.loc 1 271 25 is_stmt 1 view -0
 997              		.cfi_startproc
 998              		@ args = 0, pretend = 0, frame = 0
 999              		@ frame_needed = 0, uses_anonymous_args = 0
 1000 0000 38B5     		push	{r3, r4, r5, lr}
 1001              	.LCFI4:
 1002              		.cfi_def_cfa_offset 16
 1003              		.cfi_offset 3, -16
 1004              		.cfi_offset 4, -12
 1005              		.cfi_offset 5, -8
 1006              		.cfi_offset 14, -4
 272:Core/Src/supercap.c ****   __HAL_TIM_SET_COMPARE(&htim3, TIM_CHANNEL_1, 0);
 1007              		.loc 1 272 3 view .LVU231
 1008 0002 0F4C     		ldr	r4, .L73
 1009 0004 2368     		ldr	r3, [r4]
 1010 0006 0025     		movs	r5, #0
 1011 0008 5D63     		str	r5, [r3, #52]
 273:Core/Src/supercap.c ****   TIM3_AUTORELOAD_over100 = 480;
 1012              		.loc 1 273 3 view .LVU232
 1013              		.loc 1 273 27 is_stmt 0 view .LVU233
 1014 000a 0E4B     		ldr	r3, .L73+4
 1015 000c 4FF4F072 		mov	r2, #480
 1016 0010 1A60     		str	r2, [r3]
 274:Core/Src/supercap.c ****   HAL_TIM_PWM_Start(&htim3, TIM_CHANNEL_1); //Buzzer
 1017              		.loc 1 274 3 is_stmt 1 view .LVU234
 1018 0012 2946     		mov	r1, r5
 1019 0014 2046     		mov	r0, r4
 1020 0016 FFF7FEFF 		bl	HAL_TIM_PWM_Start
 1021              	.LVL53:
 275:Core/Src/supercap.c ****   HAL_TIM_PWM_Start(&htim3, TIM_CHANNEL_2); //LED_0 red
 1022              		.loc 1 275 3 view .LVU235
 1023 001a 0421     		movs	r1, #4
 1024 001c 2046     		mov	r0, r4
 1025 001e FFF7FEFF 		bl	HAL_TIM_PWM_Start
 1026              	.LVL54:
 276:Core/Src/supercap.c **** 	HAL_TIM_PWM_Start(&htim3, TIM_CHANNEL_3); //LED_1 yellow
 1027              		.loc 1 276 2 view .LVU236
 1028 0022 0821     		movs	r1, #8
 1029 0024 2046     		mov	r0, r4
ARM GAS  C:\Users\purdu\AppData\Local\Temp\ccWj3eAN.s 			page 24


 1030 0026 FFF7FEFF 		bl	HAL_TIM_PWM_Start
 1031              	.LVL55:
 277:Core/Src/supercap.c **** 	
 278:Core/Src/supercap.c **** 	HAL_TIM_PWM_Start(&htim4, TIM_CHANNEL_1); //Machine Spirit
 1032              		.loc 1 278 2 view .LVU237
 1033 002a 074C     		ldr	r4, .L73+8
 1034 002c 2946     		mov	r1, r5
 1035 002e 2046     		mov	r0, r4
 1036 0030 FFF7FEFF 		bl	HAL_TIM_PWM_Start
 1037              	.LVL56:
 279:Core/Src/supercap.c **** 	HAL_TIM_PWM_Start(&htim4, TIM_CHANNEL_2); //LED blue
 1038              		.loc 1 279 2 view .LVU238
 1039 0034 0421     		movs	r1, #4
 1040 0036 2046     		mov	r0, r4
 1041 0038 FFF7FEFF 		bl	HAL_TIM_PWM_Start
 1042              	.LVL57:
 280:Core/Src/supercap.c **** }
 1043              		.loc 1 280 1 is_stmt 0 view .LVU239
 1044 003c 38BD     		pop	{r3, r4, r5, pc}
 1045              	.L74:
 1046 003e 00BF     		.align	2
 1047              	.L73:
 1048 0040 00000000 		.word	htim3
 1049 0044 00000000 		.word	TIM3_AUTORELOAD_over100
 1050 0048 00000000 		.word	htim4
 1051              		.cfi_endproc
 1052              	.LFE353:
 1054              		.section	.text.Supercap_AUX_RedLED,"ax",%progbits
 1055              		.align	1
 1056              		.global	Supercap_AUX_RedLED
 1057              		.syntax unified
 1058              		.thumb
 1059              		.thumb_func
 1061              	Supercap_AUX_RedLED:
 1062              	.LVL58:
 1063              	.LFB354:
 281:Core/Src/supercap.c **** 
 282:Core/Src/supercap.c **** void Supercap_AUX_RedLED(uint32_t brightness){
 1064              		.loc 1 282 46 is_stmt 1 view -0
 1065              		.cfi_startproc
 1066              		@ args = 0, pretend = 0, frame = 0
 1067              		@ frame_needed = 0, uses_anonymous_args = 0
 1068              		@ link register save eliminated.
 283:Core/Src/supercap.c ****   __HAL_TIM_SET_COMPARE(&htim3, TIM_CHANNEL_2, brightness * TIM3_AUTORELOAD_over100);
 1069              		.loc 1 283 3 view .LVU241
 1070 0000 034B     		ldr	r3, .L76
 1071 0002 1B68     		ldr	r3, [r3]
 1072 0004 034A     		ldr	r2, .L76+4
 1073 0006 1268     		ldr	r2, [r2]
 1074 0008 02FB00F0 		mul	r0, r2, r0
 1075              	.LVL59:
 1076              		.loc 1 283 3 is_stmt 0 view .LVU242
 1077 000c 9863     		str	r0, [r3, #56]
 284:Core/Src/supercap.c **** }
 1078              		.loc 1 284 1 view .LVU243
 1079 000e 7047     		bx	lr
 1080              	.L77:
ARM GAS  C:\Users\purdu\AppData\Local\Temp\ccWj3eAN.s 			page 25


 1081              		.align	2
 1082              	.L76:
 1083 0010 00000000 		.word	htim3
 1084 0014 00000000 		.word	TIM3_AUTORELOAD_over100
 1085              		.cfi_endproc
 1086              	.LFE354:
 1088              		.section	.text.Supercap_AUX_YellowLED,"ax",%progbits
 1089              		.align	1
 1090              		.global	Supercap_AUX_YellowLED
 1091              		.syntax unified
 1092              		.thumb
 1093              		.thumb_func
 1095              	Supercap_AUX_YellowLED:
 1096              	.LVL60:
 1097              	.LFB355:
 285:Core/Src/supercap.c **** 
 286:Core/Src/supercap.c **** void Supercap_AUX_YellowLED(uint32_t brightness){
 1098              		.loc 1 286 49 is_stmt 1 view -0
 1099              		.cfi_startproc
 1100              		@ args = 0, pretend = 0, frame = 0
 1101              		@ frame_needed = 0, uses_anonymous_args = 0
 1102              		@ link register save eliminated.
 287:Core/Src/supercap.c ****   __HAL_TIM_SET_COMPARE(&htim3, TIM_CHANNEL_3, brightness * TIM3_AUTORELOAD_over100);
 1103              		.loc 1 287 3 view .LVU245
 1104 0000 034B     		ldr	r3, .L79
 1105 0002 1B68     		ldr	r3, [r3]
 1106 0004 034A     		ldr	r2, .L79+4
 1107 0006 1268     		ldr	r2, [r2]
 1108 0008 02FB00F0 		mul	r0, r2, r0
 1109              	.LVL61:
 1110              		.loc 1 287 3 is_stmt 0 view .LVU246
 1111 000c D863     		str	r0, [r3, #60]
 288:Core/Src/supercap.c **** }
 1112              		.loc 1 288 1 view .LVU247
 1113 000e 7047     		bx	lr
 1114              	.L80:
 1115              		.align	2
 1116              	.L79:
 1117 0010 00000000 		.word	htim3
 1118 0014 00000000 		.word	TIM3_AUTORELOAD_over100
 1119              		.cfi_endproc
 1120              	.LFE355:
 1122              		.section	.text.Supercap_AUX_BlueLED,"ax",%progbits
 1123              		.align	1
 1124              		.global	Supercap_AUX_BlueLED
 1125              		.syntax unified
 1126              		.thumb
 1127              		.thumb_func
 1129              	Supercap_AUX_BlueLED:
 1130              	.LVL62:
 1131              	.LFB356:
 289:Core/Src/supercap.c **** 
 290:Core/Src/supercap.c **** void Supercap_AUX_BlueLED(uint32_t brightness){
 1132              		.loc 1 290 47 is_stmt 1 view -0
 1133              		.cfi_startproc
 1134              		@ args = 0, pretend = 0, frame = 0
 1135              		@ frame_needed = 0, uses_anonymous_args = 0
ARM GAS  C:\Users\purdu\AppData\Local\Temp\ccWj3eAN.s 			page 26


 1136              		@ link register save eliminated.
 291:Core/Src/supercap.c ****   __HAL_TIM_SET_COMPARE(&htim4, TIM_CHANNEL_2, brightness * 480);
 1137              		.loc 1 291 3 view .LVU249
 1138 0000 034B     		ldr	r3, .L82
 1139 0002 1B68     		ldr	r3, [r3]
 1140 0004 C0EB0010 		rsb	r0, r0, r0, lsl #4
 1141              	.LVL63:
 1142              		.loc 1 291 3 is_stmt 0 view .LVU250
 1143 0008 4001     		lsls	r0, r0, #5
 1144 000a 9863     		str	r0, [r3, #56]
 292:Core/Src/supercap.c **** }
 1145              		.loc 1 292 1 view .LVU251
 1146 000c 7047     		bx	lr
 1147              	.L83:
 1148 000e 00BF     		.align	2
 1149              	.L82:
 1150 0010 00000000 		.word	htim4
 1151              		.cfi_endproc
 1152              	.LFE356:
 1154              		.section	.text.Supercap_AUX_MachineSpirit,"ax",%progbits
 1155              		.align	1
 1156              		.global	Supercap_AUX_MachineSpirit
 1157              		.syntax unified
 1158              		.thumb
 1159              		.thumb_func
 1161              	Supercap_AUX_MachineSpirit:
 1162              	.LVL64:
 1163              	.LFB357:
 293:Core/Src/supercap.c **** 
 294:Core/Src/supercap.c **** void Supercap_AUX_MachineSpirit(uint32_t brightness){
 1164              		.loc 1 294 53 is_stmt 1 view -0
 1165              		.cfi_startproc
 1166              		@ args = 0, pretend = 0, frame = 0
 1167              		@ frame_needed = 0, uses_anonymous_args = 0
 1168              		@ link register save eliminated.
 295:Core/Src/supercap.c ****   __HAL_TIM_SET_COMPARE(&htim4, TIM_CHANNEL_1, brightness * 480);
 1169              		.loc 1 295 3 view .LVU253
 1170 0000 034B     		ldr	r3, .L85
 1171 0002 1B68     		ldr	r3, [r3]
 1172 0004 C0EB0010 		rsb	r0, r0, r0, lsl #4
 1173              	.LVL65:
 1174              		.loc 1 295 3 is_stmt 0 view .LVU254
 1175 0008 4001     		lsls	r0, r0, #5
 1176 000a 5863     		str	r0, [r3, #52]
 296:Core/Src/supercap.c **** }
 1177              		.loc 1 296 1 view .LVU255
 1178 000c 7047     		bx	lr
 1179              	.L86:
 1180 000e 00BF     		.align	2
 1181              	.L85:
 1182 0010 00000000 		.word	htim4
 1183              		.cfi_endproc
 1184              	.LFE357:
 1186              		.section	.text.Supercap_FSM,"ax",%progbits
 1187              		.align	1
 1188              		.global	Supercap_FSM
 1189              		.syntax unified
ARM GAS  C:\Users\purdu\AppData\Local\Temp\ccWj3eAN.s 			page 27


 1190              		.thumb
 1191              		.thumb_func
 1193              	Supercap_FSM:
 1194              	.LFB338:
  93:Core/Src/supercap.c ****   //Protection
 1195              		.loc 1 93 20 is_stmt 1 view -0
 1196              		.cfi_startproc
 1197              		@ args = 0, pretend = 0, frame = 0
 1198              		@ frame_needed = 0, uses_anonymous_args = 0
 1199 0000 08B5     		push	{r3, lr}
 1200              	.LCFI5:
 1201              		.cfi_def_cfa_offset 8
 1202              		.cfi_offset 3, -8
 1203              		.cfi_offset 14, -4
  95:Core/Src/supercap.c **** 		fault_counter++;
 1204              		.loc 1 95 3 view .LVU257
  95:Core/Src/supercap.c **** 		fault_counter++;
 1205              		.loc 1 95 13 is_stmt 0 view .LVU258
 1206 0002 554B     		ldr	r3, .L106
 1207 0004 9B89     		ldrh	r3, [r3, #12]
  95:Core/Src/supercap.c **** 		fault_counter++;
 1208              		.loc 1 95 39 view .LVU259
 1209 0006 A3F5FA73 		sub	r3, r3, #500
 1210 000a 9BB2     		uxth	r3, r3
  95:Core/Src/supercap.c **** 		fault_counter++;
 1211              		.loc 1 95 5 view .LVU260
 1212 000c 40F61A42 		movw	r2, #3098
 1213 0010 9342     		cmp	r3, r2
 1214 0012 07D9     		bls	.L88
  96:Core/Src/supercap.c **** 		if(fault_counter >= 500){
 1215              		.loc 1 96 3 is_stmt 1 view .LVU261
  96:Core/Src/supercap.c **** 		if(fault_counter >= 500){
 1216              		.loc 1 96 16 is_stmt 0 view .LVU262
 1217 0014 514A     		ldr	r2, .L106+4
 1218 0016 1388     		ldrh	r3, [r2]
 1219 0018 0133     		adds	r3, r3, #1
 1220 001a 9BB2     		uxth	r3, r3
 1221 001c 1380     		strh	r3, [r2]	@ movhi
  97:Core/Src/supercap.c **** 			Supercap_AUX_BlueLED(60);
 1222              		.loc 1 97 3 is_stmt 1 view .LVU263
  97:Core/Src/supercap.c **** 			Supercap_AUX_BlueLED(60);
 1223              		.loc 1 97 5 is_stmt 0 view .LVU264
 1224 001e B3F5FA7F 		cmp	r3, #500
 1225 0022 08D2     		bcs	.L104
 1226              	.L88:
 111:Core/Src/supercap.c ****     case READY:
 1227              		.loc 1 111 3 is_stmt 1 view .LVU265
 1228 0024 4E4B     		ldr	r3, .L106+8
 1229 0026 1B78     		ldrb	r3, [r3]	@ zero_extendqisi2
 1230 0028 013B     		subs	r3, r3, #1
 1231 002a 032B     		cmp	r3, #3
 1232 002c 1FD8     		bhi	.L89
 1233 002e DFE803F0 		tbb	[pc, r3]
 1234              	.L91:
 1235 0032 1A       		.byte	(.L94-.L91)/2
 1236 0033 33       		.byte	(.L93-.L91)/2
 1237 0034 4E       		.byte	(.L92-.L91)/2
ARM GAS  C:\Users\purdu\AppData\Local\Temp\ccWj3eAN.s 			page 28


 1238 0035 62       		.byte	(.L90-.L91)/2
 1239              		.p2align 1
 1240              	.L104:
  98:Core/Src/supercap.c **** 			Supercap_AUX_YellowLED(100);
 1241              		.loc 1 98 4 view .LVU266
 1242 0036 3C20     		movs	r0, #60
 1243 0038 FFF7FEFF 		bl	Supercap_AUX_BlueLED
 1244              	.LVL66:
  99:Core/Src/supercap.c **** 			Supercap_DCDC_Stop();
 1245              		.loc 1 99 4 view .LVU267
 1246 003c 6420     		movs	r0, #100
 1247 003e FFF7FEFF 		bl	Supercap_AUX_YellowLED
 1248              	.LVL67:
 100:Core/Src/supercap.c **** 			CAP_STATE = FAULT;
 1249              		.loc 1 100 4 view .LVU268
 1250 0042 FFF7FEFF 		bl	Supercap_DCDC_Stop
 1251              	.LVL68:
 101:Core/Src/supercap.c **** 			fault_counter = 0;
 1252              		.loc 1 101 4 view .LVU269
 101:Core/Src/supercap.c **** 			fault_counter = 0;
 1253              		.loc 1 101 14 is_stmt 0 view .LVU270
 1254 0046 464B     		ldr	r3, .L106+8
 1255 0048 0422     		movs	r2, #4
 1256 004a 1A70     		strb	r2, [r3]
 102:Core/Src/supercap.c **** 			Supercap_AUX_MachineSpirit(70);
 1257              		.loc 1 102 4 is_stmt 1 view .LVU271
 102:Core/Src/supercap.c **** 			Supercap_AUX_MachineSpirit(70);
 1258              		.loc 1 102 18 is_stmt 0 view .LVU272
 1259 004c 434B     		ldr	r3, .L106+4
 1260 004e 0022     		movs	r2, #0
 1261 0050 1A80     		strh	r2, [r3]	@ movhi
 103:Core/Src/supercap.c **** 			Supercap_AUX_BlueLED(60);
 1262              		.loc 1 103 4 is_stmt 1 view .LVU273
 1263 0052 4620     		movs	r0, #70
 1264 0054 FFF7FEFF 		bl	Supercap_AUX_MachineSpirit
 1265              	.LVL69:
 104:Core/Src/supercap.c **** 			Supercap_AUX_YellowLED(100);
 1266              		.loc 1 104 4 view .LVU274
 1267 0058 3C20     		movs	r0, #60
 1268 005a FFF7FEFF 		bl	Supercap_AUX_BlueLED
 1269              	.LVL70:
 105:Core/Src/supercap.c **** 		}
 1270              		.loc 1 105 4 view .LVU275
 1271 005e 6420     		movs	r0, #100
 1272 0060 FFF7FEFF 		bl	Supercap_AUX_YellowLED
 1273              	.LVL71:
 1274 0064 DEE7     		b	.L88
 1275              	.L94:
 113:Core/Src/supercap.c ****         CAP_STATE = RUNNING;
 1276              		.loc 1 113 7 view .LVU276
 113:Core/Src/supercap.c ****         CAP_STATE = RUNNING;
 1277              		.loc 1 113 15 is_stmt 0 view .LVU277
 1278 0066 3F4B     		ldr	r3, .L106+12
 1279 0068 9B89     		ldrh	r3, [r3, #12]
 113:Core/Src/supercap.c ****         CAP_STATE = RUNNING;
 1280              		.loc 1 113 9 view .LVU278
 1281 006a 142B     		cmp	r3, #20
ARM GAS  C:\Users\purdu\AppData\Local\Temp\ccWj3eAN.s 			page 29


 1282 006c 08D8     		bhi	.L105
 1283              	.L89:
 146:Core/Src/supercap.c ****     case READY:
 1284              		.loc 1 146 3 is_stmt 1 view .LVU279
 1285 006e 3C4B     		ldr	r3, .L106+8
 1286 0070 1B78     		ldrb	r3, [r3]	@ zero_extendqisi2
 1287 0072 013B     		subs	r3, r3, #1
 1288 0074 032B     		cmp	r3, #3
 1289 0076 55D8     		bhi	.L87
 1290 0078 DFE803F0 		tbb	[pc, r3]
 1291              	.L97:
 1292 007c 4C       		.byte	(.L100-.L97)/2
 1293 007d 55       		.byte	(.L99-.L97)/2
 1294 007e 59       		.byte	(.L98-.L97)/2
 1295 007f 5D       		.byte	(.L96-.L97)/2
 1296              		.p2align 1
 1297              	.L105:
 114:Core/Src/supercap.c **** 				Supercap_AUX_YellowLED(0);
 1298              		.loc 1 114 9 view .LVU280
 114:Core/Src/supercap.c **** 				Supercap_AUX_YellowLED(0);
 1299              		.loc 1 114 19 is_stmt 0 view .LVU281
 1300 0080 374B     		ldr	r3, .L106+8
 1301 0082 0222     		movs	r2, #2
 1302 0084 1A70     		strb	r2, [r3]
 115:Core/Src/supercap.c **** 				Supercap_AUX_BlueLED(40);
 1303              		.loc 1 115 5 is_stmt 1 view .LVU282
 1304 0086 0020     		movs	r0, #0
 1305 0088 FFF7FEFF 		bl	Supercap_AUX_YellowLED
 1306              	.LVL72:
 116:Core/Src/supercap.c **** 				Supercap_DCDC_Start();
 1307              		.loc 1 116 5 view .LVU283
 1308 008c 2820     		movs	r0, #40
 1309 008e FFF7FEFF 		bl	Supercap_AUX_BlueLED
 1310              	.LVL73:
 117:Core/Src/supercap.c ****       }
 1311              		.loc 1 117 5 view .LVU284
 1312 0092 FFF7FEFF 		bl	Supercap_DCDC_Start
 1313              	.LVL74:
 1314 0096 EAE7     		b	.L89
 1315              	.L93:
 121:Core/Src/supercap.c ****         CAP_STATE = STOP;
 1316              		.loc 1 121 7 view .LVU285
 121:Core/Src/supercap.c ****         CAP_STATE = STOP;
 1317              		.loc 1 121 15 is_stmt 0 view .LVU286
 1318 0098 334B     		ldr	r3, .L106+16
 1319 009a 9B89     		ldrh	r3, [r3, #12]
 121:Core/Src/supercap.c ****         CAP_STATE = STOP;
 1320              		.loc 1 121 9 view .LVU287
 1321 009c B3F50D6F 		cmp	r3, #2256
 1322 00a0 E5D2     		bcs	.L89
 121:Core/Src/supercap.c ****         CAP_STATE = STOP;
 1323              		.loc 1 121 49 discriminator 1 view .LVU288
 1324 00a2 324B     		ldr	r3, .L106+20
 1325 00a4 9A89     		ldrh	r2, [r3, #12]
 121:Core/Src/supercap.c ****         CAP_STATE = STOP;
 1326              		.loc 1 121 41 discriminator 1 view .LVU289
 1327 00a6 40F2FE73 		movw	r3, #2046
ARM GAS  C:\Users\purdu\AppData\Local\Temp\ccWj3eAN.s 			page 30


 1328 00aa 9A42     		cmp	r2, r3
 1329 00ac DFD8     		bhi	.L89
 122:Core/Src/supercap.c **** 				Supercap_DCDC_Start();
 1330              		.loc 1 122 9 is_stmt 1 view .LVU290
 122:Core/Src/supercap.c **** 				Supercap_DCDC_Start();
 1331              		.loc 1 122 19 is_stmt 0 view .LVU291
 1332 00ae 2C4B     		ldr	r3, .L106+8
 1333 00b0 0322     		movs	r2, #3
 1334 00b2 1A70     		strb	r2, [r3]
 123:Core/Src/supercap.c **** 				Supercap_PWM_left (274);
 1335              		.loc 1 123 5 is_stmt 1 view .LVU292
 1336 00b4 FFF7FEFF 		bl	Supercap_DCDC_Start
 1337              	.LVL75:
 124:Core/Src/supercap.c **** 				Supercap_AUX_BlueLED(0);
 1338              		.loc 1 124 5 view .LVU293
 1339 00b8 4FF48970 		mov	r0, #274
 1340 00bc FFF7FEFF 		bl	Supercap_PWM_left
 1341              	.LVL76:
 125:Core/Src/supercap.c **** 				Supercap_AUX_YellowLED(0);
 1342              		.loc 1 125 5 view .LVU294
 1343 00c0 0020     		movs	r0, #0
 1344 00c2 FFF7FEFF 		bl	Supercap_AUX_BlueLED
 1345              	.LVL77:
 126:Core/Src/supercap.c ****       }
 1346              		.loc 1 126 5 view .LVU295
 1347 00c6 0020     		movs	r0, #0
 1348 00c8 FFF7FEFF 		bl	Supercap_AUX_YellowLED
 1349              	.LVL78:
 1350 00cc CFE7     		b	.L89
 1351              	.L92:
 130:Core/Src/supercap.c ****         CAP_STATE = READY;
 1352              		.loc 1 130 4 view .LVU296
 130:Core/Src/supercap.c ****         CAP_STATE = READY;
 1353              		.loc 1 130 12 is_stmt 0 view .LVU297
 1354 00ce 264B     		ldr	r3, .L106+16
 1355 00d0 9B89     		ldrh	r3, [r3, #12]
 130:Core/Src/supercap.c ****         CAP_STATE = READY;
 1356              		.loc 1 130 6 view .LVU298
 1357 00d2 B3F50D6F 		cmp	r3, #2256
 1358 00d6 CAD9     		bls	.L89
 130:Core/Src/supercap.c ****         CAP_STATE = READY;
 1359              		.loc 1 130 46 discriminator 1 view .LVU299
 1360 00d8 244B     		ldr	r3, .L106+20
 1361 00da 9B89     		ldrh	r3, [r3, #12]
 130:Core/Src/supercap.c ****         CAP_STATE = READY;
 1362              		.loc 1 130 38 discriminator 1 view .LVU300
 1363 00dc B3F5006F 		cmp	r3, #2048
 1364 00e0 C5D3     		bcc	.L89
 131:Core/Src/supercap.c **** 				Supercap_AUX_BlueLED(0);
 1365              		.loc 1 131 9 is_stmt 1 view .LVU301
 131:Core/Src/supercap.c **** 				Supercap_AUX_BlueLED(0);
 1366              		.loc 1 131 19 is_stmt 0 view .LVU302
 1367 00e2 1F4B     		ldr	r3, .L106+8
 1368 00e4 0122     		movs	r2, #1
 1369 00e6 1A70     		strb	r2, [r3]
 132:Core/Src/supercap.c **** 				Supercap_AUX_YellowLED(80);
 1370              		.loc 1 132 5 is_stmt 1 view .LVU303
ARM GAS  C:\Users\purdu\AppData\Local\Temp\ccWj3eAN.s 			page 31


 1371 00e8 0020     		movs	r0, #0
 1372 00ea FFF7FEFF 		bl	Supercap_AUX_BlueLED
 1373              	.LVL79:
 133:Core/Src/supercap.c **** 			}
 1374              		.loc 1 133 5 view .LVU304
 1375 00ee 5020     		movs	r0, #80
 1376 00f0 FFF7FEFF 		bl	Supercap_AUX_YellowLED
 1377              	.LVL80:
 1378 00f4 BBE7     		b	.L89
 1379              	.L90:
 137:Core/Src/supercap.c **** 				CAP_STATE = READY;
 1380              		.loc 1 137 4 view .LVU305
 137:Core/Src/supercap.c **** 				CAP_STATE = READY;
 1381              		.loc 1 137 26 is_stmt 0 view .LVU306
 1382 00f6 1E4B     		ldr	r3, .L106+24
 1383 00f8 1B88     		ldrh	r3, [r3]
 137:Core/Src/supercap.c **** 				CAP_STATE = READY;
 1384              		.loc 1 137 6 view .LVU307
 1385 00fa B3F5FA6F 		cmp	r3, #2000
 1386 00fe B6D3     		bcc	.L89
 138:Core/Src/supercap.c **** 				Supercap_AUX_BlueLED(0);
 1387              		.loc 1 138 5 is_stmt 1 view .LVU308
 138:Core/Src/supercap.c **** 				Supercap_AUX_BlueLED(0);
 1388              		.loc 1 138 15 is_stmt 0 view .LVU309
 1389 0100 174B     		ldr	r3, .L106+8
 1390 0102 0122     		movs	r2, #1
 1391 0104 1A70     		strb	r2, [r3]
 139:Core/Src/supercap.c **** 				Supercap_AUX_YellowLED(80);
 1392              		.loc 1 139 5 is_stmt 1 view .LVU310
 1393 0106 0020     		movs	r0, #0
 1394 0108 FFF7FEFF 		bl	Supercap_AUX_BlueLED
 1395              	.LVL81:
 140:Core/Src/supercap.c **** 			}
 1396              		.loc 1 140 5 view .LVU311
 1397 010c 5020     		movs	r0, #80
 1398 010e FFF7FEFF 		bl	Supercap_AUX_YellowLED
 1399              	.LVL82:
 1400 0112 ACE7     		b	.L89
 1401              	.L100:
 155:Core/Src/supercap.c **** 		PID_flag = 0;
 1402              		.loc 1 155 3 view .LVU312
 1403 0114 0020     		movs	r0, #0
 1404 0116 FFF7FEFF 		bl	Supercap_AUX_MachineSpirit
 1405              	.LVL83:
 156:Core/Src/supercap.c **** 		protection_counter = 0;
 1406              		.loc 1 156 3 view .LVU313
 156:Core/Src/supercap.c **** 		protection_counter = 0;
 1407              		.loc 1 156 12 is_stmt 0 view .LVU314
 1408 011a 0023     		movs	r3, #0
 1409 011c 154A     		ldr	r2, .L106+28
 1410 011e 1370     		strb	r3, [r2]
 157:Core/Src/supercap.c ****       break;
 1411              		.loc 1 157 3 is_stmt 1 view .LVU315
 157:Core/Src/supercap.c ****       break;
 1412              		.loc 1 157 22 is_stmt 0 view .LVU316
 1413 0120 134A     		ldr	r2, .L106+24
 1414 0122 1380     		strh	r3, [r2]	@ movhi
ARM GAS  C:\Users\purdu\AppData\Local\Temp\ccWj3eAN.s 			page 32


 158:Core/Src/supercap.c ****     case RUNNING:
 1415              		.loc 1 158 7 is_stmt 1 view .LVU317
 1416              	.L87:
 186:Core/Src/supercap.c **** 
 1417              		.loc 1 186 1 is_stmt 0 view .LVU318
 1418 0124 08BD     		pop	{r3, pc}
 1419              	.L99:
 160:Core/Src/supercap.c **** //      Supercap_AUX_YellowLED(0);
 1420              		.loc 1 160 4 is_stmt 1 view .LVU319
 160:Core/Src/supercap.c **** //      Supercap_AUX_YellowLED(0);
 1421              		.loc 1 160 13 is_stmt 0 view .LVU320
 1422 0126 134B     		ldr	r3, .L106+28
 1423 0128 0122     		movs	r2, #1
 1424 012a 1A70     		strb	r2, [r3]
 164:Core/Src/supercap.c ****     case STOP:
 1425              		.loc 1 164 7 is_stmt 1 view .LVU321
 1426 012c FAE7     		b	.L87
 1427              	.L98:
 166:Core/Src/supercap.c **** //			Supercap_DCDC_Start();
 1428              		.loc 1 166 4 view .LVU322
 166:Core/Src/supercap.c **** //			Supercap_DCDC_Start();
 1429              		.loc 1 166 13 is_stmt 0 view .LVU323
 1430 012e 114B     		ldr	r3, .L106+28
 1431 0130 0022     		movs	r2, #0
 1432 0132 1A70     		strb	r2, [r3]
 171:Core/Src/supercap.c ****     case FAULT:
 1433              		.loc 1 171 7 is_stmt 1 view .LVU324
 1434 0134 F6E7     		b	.L87
 1435              	.L96:
 178:Core/Src/supercap.c **** 		Supercap_PID_Reset(&PID_n7A_loop);
 1436              		.loc 1 178 3 view .LVU325
 1437 0136 1048     		ldr	r0, .L106+32
 1438 0138 FFF7FEFF 		bl	Supercap_PID_Reset
 1439              	.LVL84:
 179:Core/Src/supercap.c **** 		Supercap_PID_Reset(&PID_7A_loop);
 1440              		.loc 1 179 3 view .LVU326
 1441 013c 0F48     		ldr	r0, .L106+36
 1442 013e FFF7FEFF 		bl	Supercap_PID_Reset
 1443              	.LVL85:
 180:Core/Src/supercap.c **** 		Supercap_PID_Reset(&PID_voltage_loop);
 1444              		.loc 1 180 3 view .LVU327
 1445 0142 0F48     		ldr	r0, .L106+40
 1446 0144 FFF7FEFF 		bl	Supercap_PID_Reset
 1447              	.LVL86:
 181:Core/Src/supercap.c **** 		protection_counter++;
 1448              		.loc 1 181 3 view .LVU328
 1449 0148 0E48     		ldr	r0, .L106+44
 1450 014a FFF7FEFF 		bl	Supercap_PID_Reset
 1451              	.LVL87:
 182:Core/Src/supercap.c ****       break;
 1452              		.loc 1 182 3 view .LVU329
 182:Core/Src/supercap.c ****       break;
 1453              		.loc 1 182 21 is_stmt 0 view .LVU330
 1454 014e 084A     		ldr	r2, .L106+24
 1455 0150 1388     		ldrh	r3, [r2]
 1456 0152 0133     		adds	r3, r3, #1
 1457 0154 1380     		strh	r3, [r2]	@ movhi
ARM GAS  C:\Users\purdu\AppData\Local\Temp\ccWj3eAN.s 			page 33


 183:Core/Src/supercap.c ****   }
 1458              		.loc 1 183 7 is_stmt 1 view .LVU331
 186:Core/Src/supercap.c **** 
 1459              		.loc 1 186 1 is_stmt 0 view .LVU332
 1460 0156 E5E7     		b	.L87
 1461              	.L107:
 1462              		.align	2
 1463              	.L106:
 1464 0158 00000000 		.word	C_right
 1465 015c 00000000 		.word	fault_counter
 1466 0160 00000000 		.word	CAP_STATE
 1467 0164 00000000 		.word	V_cap
 1468 0168 00000000 		.word	V_bat
 1469 016c 00000000 		.word	C_sys
 1470 0170 00000000 		.word	protection_counter
 1471 0174 00000000 		.word	PID_flag
 1472 0178 00000000 		.word	PID_45W_loop
 1473 017c 00000000 		.word	PID_n7A_loop
 1474 0180 00000000 		.word	PID_7A_loop
 1475 0184 00000000 		.word	PID_voltage_loop
 1476              		.cfi_endproc
 1477              	.LFE338:
 1479              		.section	.text.HAL_TIM_PeriodElapsedCallback,"ax",%progbits
 1480              		.align	1
 1481              		.global	HAL_TIM_PeriodElapsedCallback
 1482              		.syntax unified
 1483              		.thumb
 1484              		.thumb_func
 1486              	HAL_TIM_PeriodElapsedCallback:
 1487              	.LVL88:
 1488              	.LFB332:
  15:Core/Src/supercap.c **** 	if(htim->Instance == TIM5){
 1489              		.loc 1 15 61 is_stmt 1 view -0
 1490              		.cfi_startproc
 1491              		@ args = 0, pretend = 0, frame = 0
 1492              		@ frame_needed = 0, uses_anonymous_args = 0
  15:Core/Src/supercap.c **** 	if(htim->Instance == TIM5){
 1493              		.loc 1 15 61 is_stmt 0 view .LVU334
 1494 0000 10B5     		push	{r4, lr}
 1495              	.LCFI6:
 1496              		.cfi_def_cfa_offset 8
 1497              		.cfi_offset 4, -8
 1498              		.cfi_offset 14, -4
  16:Core/Src/supercap.c **** 		HAL_GPIO_WritePin(GPIOB, GPIO_PIN_14, GPIO_PIN_SET);
 1499              		.loc 1 16 2 is_stmt 1 view .LVU335
  16:Core/Src/supercap.c **** 		HAL_GPIO_WritePin(GPIOB, GPIO_PIN_14, GPIO_PIN_SET);
 1500              		.loc 1 16 9 is_stmt 0 view .LVU336
 1501 0002 0368     		ldr	r3, [r0]
  16:Core/Src/supercap.c **** 		HAL_GPIO_WritePin(GPIOB, GPIO_PIN_14, GPIO_PIN_SET);
 1502              		.loc 1 16 4 view .LVU337
 1503 0004 134A     		ldr	r2, .L114
 1504 0006 9342     		cmp	r3, r2
 1505 0008 03D0     		beq	.L112
  22:Core/Src/supercap.c ****     HAL_GPIO_WritePin(GPIOB, GPIO_PIN_15, GPIO_PIN_SET);
 1506              		.loc 1 22 8 is_stmt 1 view .LVU338
  22:Core/Src/supercap.c ****     HAL_GPIO_WritePin(GPIOB, GPIO_PIN_15, GPIO_PIN_SET);
 1507              		.loc 1 22 10 is_stmt 0 view .LVU339
ARM GAS  C:\Users\purdu\AppData\Local\Temp\ccWj3eAN.s 			page 34


 1508 000a B3F1804F 		cmp	r3, #1073741824
 1509 000e 10D0     		beq	.L113
 1510              	.LVL89:
 1511              	.L108:
  27:Core/Src/supercap.c **** 
 1512              		.loc 1 27 1 view .LVU340
 1513 0010 10BD     		pop	{r4, pc}
 1514              	.LVL90:
 1515              	.L112:
  17:Core/Src/supercap.c ****     Supercap_FSM();
 1516              		.loc 1 17 3 is_stmt 1 view .LVU341
 1517 0012 114C     		ldr	r4, .L114+4
 1518 0014 0122     		movs	r2, #1
 1519 0016 4FF48041 		mov	r1, #16384
 1520 001a 2046     		mov	r0, r4
 1521              	.LVL91:
  17:Core/Src/supercap.c ****     Supercap_FSM();
 1522              		.loc 1 17 3 is_stmt 0 view .LVU342
 1523 001c FFF7FEFF 		bl	HAL_GPIO_WritePin
 1524              	.LVL92:
  18:Core/Src/supercap.c ****     //TIM5_NVIC();
 1525              		.loc 1 18 5 is_stmt 1 view .LVU343
 1526 0020 FFF7FEFF 		bl	Supercap_FSM
 1527              	.LVL93:
  20:Core/Src/supercap.c **** 	}
 1528              		.loc 1 20 3 view .LVU344
 1529 0024 0022     		movs	r2, #0
 1530 0026 4FF48041 		mov	r1, #16384
 1531 002a 2046     		mov	r0, r4
 1532 002c FFF7FEFF 		bl	HAL_GPIO_WritePin
 1533              	.LVL94:
 1534 0030 EEE7     		b	.L108
 1535              	.LVL95:
 1536              	.L113:
  23:Core/Src/supercap.c ****     TIM2_NVIC();
 1537              		.loc 1 23 5 view .LVU345
 1538 0032 094C     		ldr	r4, .L114+4
 1539 0034 0122     		movs	r2, #1
 1540 0036 4FF40041 		mov	r1, #32768
 1541 003a 2046     		mov	r0, r4
 1542              	.LVL96:
  23:Core/Src/supercap.c ****     TIM2_NVIC();
 1543              		.loc 1 23 5 is_stmt 0 view .LVU346
 1544 003c FFF7FEFF 		bl	HAL_GPIO_WritePin
 1545              	.LVL97:
  24:Core/Src/supercap.c ****     HAL_GPIO_WritePin(GPIOB, GPIO_PIN_15, GPIO_PIN_RESET);
 1546              		.loc 1 24 5 is_stmt 1 view .LVU347
 1547 0040 FFF7FEFF 		bl	TIM2_NVIC
 1548              	.LVL98:
  25:Core/Src/supercap.c ****   }
 1549              		.loc 1 25 5 view .LVU348
 1550 0044 0022     		movs	r2, #0
 1551 0046 4FF40041 		mov	r1, #32768
 1552 004a 2046     		mov	r0, r4
 1553 004c FFF7FEFF 		bl	HAL_GPIO_WritePin
 1554              	.LVL99:
  27:Core/Src/supercap.c **** 
ARM GAS  C:\Users\purdu\AppData\Local\Temp\ccWj3eAN.s 			page 35


 1555              		.loc 1 27 1 is_stmt 0 view .LVU349
 1556 0050 DEE7     		b	.L108
 1557              	.L115:
 1558 0052 00BF     		.align	2
 1559              	.L114:
 1560 0054 000C0040 		.word	1073744896
 1561 0058 00040048 		.word	1207960576
 1562              		.cfi_endproc
 1563              	.LFE332:
 1565              		.section	.text.Supercap_AUX_Buzzer,"ax",%progbits
 1566              		.align	1
 1567              		.global	Supercap_AUX_Buzzer
 1568              		.syntax unified
 1569              		.thumb
 1570              		.thumb_func
 1572              	Supercap_AUX_Buzzer:
 1573              	.LVL100:
 1574              	.LFB358:
 297:Core/Src/supercap.c **** 
 298:Core/Src/supercap.c **** void Supercap_AUX_Buzzer(uint32_t volume, int16_t note){
 1575              		.loc 1 298 56 is_stmt 1 view -0
 1576              		.cfi_startproc
 1577              		@ args = 0, pretend = 0, frame = 0
 1578              		@ frame_needed = 0, uses_anonymous_args = 0
 1579              		@ link register save eliminated.
 299:Core/Src/supercap.c **** if (note == -1) {
 1580              		.loc 1 299 1 view .LVU351
 1581 0000 0731     		adds	r1, r1, #7
 1582              	.LVL101:
 1583              		.loc 1 299 1 is_stmt 0 view .LVU352
 1584 0002 1829     		cmp	r1, #24
 1585 0004 00F2F480 		bhi	.L117
 1586 0008 DFE811F0 		tbh	[pc, r1, lsl #1]
 1587              	.L119:
 1588 000c 5C00     		.2byte	(.L139-.L119)/2
 1589 000e 5200     		.2byte	(.L138-.L119)/2
 1590 0010 4800     		.2byte	(.L137-.L119)/2
 1591 0012 3E00     		.2byte	(.L136-.L119)/2
 1592 0014 3400     		.2byte	(.L135-.L119)/2
 1593 0016 2A00     		.2byte	(.L134-.L119)/2
 1594 0018 1900     		.2byte	(.L133-.L119)/2
 1595 001a F200     		.2byte	(.L117-.L119)/2
 1596 001c 6600     		.2byte	(.L132-.L119)/2
 1597 001e 7000     		.2byte	(.L131-.L119)/2
 1598 0020 7A00     		.2byte	(.L130-.L119)/2
 1599 0022 8400     		.2byte	(.L129-.L119)/2
 1600 0024 8E00     		.2byte	(.L128-.L119)/2
 1601 0026 9800     		.2byte	(.L127-.L119)/2
 1602 0028 A200     		.2byte	(.L126-.L119)/2
 1603 002a F200     		.2byte	(.L117-.L119)/2
 1604 002c F200     		.2byte	(.L117-.L119)/2
 1605 002e F200     		.2byte	(.L117-.L119)/2
 1606 0030 AC00     		.2byte	(.L125-.L119)/2
 1607 0032 B600     		.2byte	(.L124-.L119)/2
 1608 0034 C000     		.2byte	(.L123-.L119)/2
 1609 0036 CA00     		.2byte	(.L122-.L119)/2
 1610 0038 D400     		.2byte	(.L121-.L119)/2
ARM GAS  C:\Users\purdu\AppData\Local\Temp\ccWj3eAN.s 			page 36


 1611 003a DE00     		.2byte	(.L120-.L119)/2
 1612 003c E800     		.2byte	(.L118-.L119)/2
 1613              		.p2align 1
 1614              	.L133:
 300:Core/Src/supercap.c ****   __HAL_TIM_SET_AUTORELOAD(&htim3, 11538);
 1615              		.loc 1 300 3 is_stmt 1 view .LVU353
 1616              		.loc 1 300 3 view .LVU354
 1617 003e 714B     		ldr	r3, .L141
 1618 0040 1968     		ldr	r1, [r3]
 1619              	.LVL102:
 1620              		.loc 1 300 3 is_stmt 0 view .LVU355
 1621 0042 42F61252 		movw	r2, #11538
 1622 0046 CA62     		str	r2, [r1, #44]
 1623              		.loc 1 300 3 is_stmt 1 view .LVU356
 1624 0048 DA60     		str	r2, [r3, #12]
 1625              		.loc 1 300 3 view .LVU357
 301:Core/Src/supercap.c ****   TIM3_AUTORELOAD_over100 = 115;
 1626              		.loc 1 301 3 view .LVU358
 1627              		.loc 1 301 27 is_stmt 0 view .LVU359
 1628 004a 6F4B     		ldr	r3, .L141+4
 1629 004c 7322     		movs	r2, #115
 1630 004e 1A60     		str	r2, [r3]
 1631              	.L140:
 302:Core/Src/supercap.c **** } else if (note == -2) {
 303:Core/Src/supercap.c ****   __HAL_TIM_SET_AUTORELOAD(&htim3, 10273);
 304:Core/Src/supercap.c ****   TIM3_AUTORELOAD_over100 = 103;
 305:Core/Src/supercap.c **** } else if (note == -3) {
 306:Core/Src/supercap.c ****   __HAL_TIM_SET_AUTORELOAD(&htim3, 9146);
 307:Core/Src/supercap.c ****   TIM3_AUTORELOAD_over100 = 91;
 308:Core/Src/supercap.c **** } else if (note == -4) {
 309:Core/Src/supercap.c ****   __HAL_TIM_SET_AUTORELOAD(&htim3, 8620);
 310:Core/Src/supercap.c ****   TIM3_AUTORELOAD_over100 = 86;
 311:Core/Src/supercap.c **** } else if (note == -5) {
 312:Core/Src/supercap.c ****   __HAL_TIM_SET_AUTORELOAD(&htim3, 7692);
 313:Core/Src/supercap.c ****   TIM3_AUTORELOAD_over100 = 77;
 314:Core/Src/supercap.c **** } else if (note == -6) {
 315:Core/Src/supercap.c ****   __HAL_TIM_SET_AUTORELOAD(&htim3, 6818);
 316:Core/Src/supercap.c ****   TIM3_AUTORELOAD_over100 = 68;
 317:Core/Src/supercap.c **** } else if (note == -7) {
 318:Core/Src/supercap.c ****   __HAL_TIM_SET_AUTORELOAD(&htim3, 6097);
 319:Core/Src/supercap.c ****   TIM3_AUTORELOAD_over100 = 61;
 320:Core/Src/supercap.c **** } else if (note == 1) {
 321:Core/Src/supercap.c ****   __HAL_TIM_SET_AUTORELOAD(&htim3, 5747);
 322:Core/Src/supercap.c ****   TIM3_AUTORELOAD_over100 = 57;
 323:Core/Src/supercap.c **** } else if (note == 2) {
 324:Core/Src/supercap.c ****   __HAL_TIM_SET_AUTORELOAD(&htim3, 5119);
 325:Core/Src/supercap.c ****   TIM3_AUTORELOAD_over100 = 51;
 326:Core/Src/supercap.c **** } else if (note == 3) {
 327:Core/Src/supercap.c ****   __HAL_TIM_SET_AUTORELOAD(&htim3, 4559);
 328:Core/Src/supercap.c ****   TIM3_AUTORELOAD_over100 = 46;
 329:Core/Src/supercap.c **** } else if (note == 4) {
 330:Core/Src/supercap.c ****   __HAL_TIM_SET_AUTORELOAD(&htim3, 4297);
 331:Core/Src/supercap.c ****   TIM3_AUTORELOAD_over100 = 43;
 332:Core/Src/supercap.c **** } else if (note == 5) {
 333:Core/Src/supercap.c ****   __HAL_TIM_SET_AUTORELOAD(&htim3, 3836);
 334:Core/Src/supercap.c ****   TIM3_AUTORELOAD_over100 = 38;
 335:Core/Src/supercap.c **** } else if (note == 6) {
ARM GAS  C:\Users\purdu\AppData\Local\Temp\ccWj3eAN.s 			page 37


 336:Core/Src/supercap.c ****   __HAL_TIM_SET_AUTORELOAD(&htim3, 3409);
 337:Core/Src/supercap.c ****   TIM3_AUTORELOAD_over100 = 34;
 338:Core/Src/supercap.c **** } else if (note == 7) {
 339:Core/Src/supercap.c ****   __HAL_TIM_SET_AUTORELOAD(&htim3, 3042);
 340:Core/Src/supercap.c ****   TIM3_AUTORELOAD_over100 = 30;
 341:Core/Src/supercap.c **** } else if (note == 11) {
 342:Core/Src/supercap.c ****   __HAL_TIM_SET_AUTORELOAD(&htim3, 2868);
 343:Core/Src/supercap.c ****   TIM3_AUTORELOAD_over100 = 29;
 344:Core/Src/supercap.c **** } else if (note == 12) {
 345:Core/Src/supercap.c ****   __HAL_TIM_SET_AUTORELOAD(&htim3, 2555);
 346:Core/Src/supercap.c ****   TIM3_AUTORELOAD_over100 = 26;
 347:Core/Src/supercap.c **** } else if (note == 13) {
 348:Core/Src/supercap.c ****   __HAL_TIM_SET_AUTORELOAD(&htim3, 2276);
 349:Core/Src/supercap.c ****   TIM3_AUTORELOAD_over100 = 23;
 350:Core/Src/supercap.c **** } else if (note == 14) {
 351:Core/Src/supercap.c ****   __HAL_TIM_SET_AUTORELOAD(&htim3, 2148);
 352:Core/Src/supercap.c ****   TIM3_AUTORELOAD_over100 = 21;
 353:Core/Src/supercap.c **** } else if (note == 15) {
 354:Core/Src/supercap.c ****   __HAL_TIM_SET_AUTORELOAD(&htim3, 1915);
 355:Core/Src/supercap.c ****   TIM3_AUTORELOAD_over100 = 19;
 356:Core/Src/supercap.c **** } else if (note == 16) {
 357:Core/Src/supercap.c ****   __HAL_TIM_SET_AUTORELOAD(&htim3, 1704);
 358:Core/Src/supercap.c ****   TIM3_AUTORELOAD_over100 = 17;
 359:Core/Src/supercap.c **** } else if (note == 17) {
 360:Core/Src/supercap.c ****   __HAL_TIM_SET_AUTORELOAD(&htim3, 1518);
 361:Core/Src/supercap.c ****   TIM3_AUTORELOAD_over100 = 15;
 362:Core/Src/supercap.c **** } else{
 363:Core/Src/supercap.c ****   __HAL_TIM_SET_AUTORELOAD(&htim3, 1000);
 364:Core/Src/supercap.c ****   TIM3_AUTORELOAD_over100 = 10;
 365:Core/Src/supercap.c **** }
 366:Core/Src/supercap.c ****   __HAL_TIM_SET_COMPARE(&htim3, TIM_CHANNEL_1, volume * TIM3_AUTORELOAD_over100);
 1632              		.loc 1 366 3 is_stmt 1 view .LVU360
 1633 0050 6C4B     		ldr	r3, .L141
 1634 0052 1B68     		ldr	r3, [r3]
 1635 0054 6C4A     		ldr	r2, .L141+4
 1636 0056 1268     		ldr	r2, [r2]
 1637 0058 02FB00F0 		mul	r0, r2, r0
 1638              	.LVL103:
 1639              		.loc 1 366 3 is_stmt 0 view .LVU361
 1640 005c 5863     		str	r0, [r3, #52]
 367:Core/Src/supercap.c **** }...
 1641              		.loc 1 367 1 view .LVU362
 1642 005e 7047     		bx	lr
 1643              	.LVL104:
 1644              	.L134:
 303:Core/Src/supercap.c ****   __HAL_TIM_SET_AUTORELOAD(&htim3, 10273);
 1645              		.loc 1 303 3 is_stmt 1 view .LVU363
 303:Core/Src/supercap.c ****   __HAL_TIM_SET_AUTORELOAD(&htim3, 10273);
 1646              		.loc 1 303 3 view .LVU364
 1647 0060 684B     		ldr	r3, .L141
 1648 0062 1968     		ldr	r1, [r3]
 1649 0064 42F62102 		movw	r2, #10273
 1650 0068 CA62     		str	r2, [r1, #44]
 303:Core/Src/supercap.c ****   __HAL_TIM_SET_AUTORELOAD(&htim3, 10273);
 1651              		.loc 1 303 3 view .LVU365
 1652 006a DA60     		str	r2, [r3, #12]
 303:Core/Src/supercap.c ****   __HAL_TIM_SET_AUTORELOAD(&htim3, 10273);
ARM GAS  C:\Users\purdu\AppData\Local\Temp\ccWj3eAN.s 			page 38


 1653              		.loc 1 303 3 view .LVU366
 304:Core/Src/supercap.c ****   TIM3_AUTORELOAD_over100 = 103;
 1654              		.loc 1 304 3 view .LVU367
 304:Core/Src/supercap.c ****   TIM3_AUTORELOAD_over100 = 103;
 1655              		.loc 1 304 27 is_stmt 0 view .LVU368
 1656 006c 664B     		ldr	r3, .L141+4
 1657 006e 6722     		movs	r2, #103
 1658 0070 1A60     		str	r2, [r3]
 1659 0072 EDE7     		b	.L140
 1660              	.L135:
 306:Core/Src/supercap.c ****   __HAL_TIM_SET_AUTORELOAD(&htim3, 9146);
 1661              		.loc 1 306 3 is_stmt 1 view .LVU369
 306:Core/Src/supercap.c ****   __HAL_TIM_SET_AUTORELOAD(&htim3, 9146);
 1662              		.loc 1 306 3 view .LVU370
 1663 0074 634B     		ldr	r3, .L141
 1664 0076 1968     		ldr	r1, [r3]
 1665 0078 42F2BA32 		movw	r2, #9146
 1666 007c CA62     		str	r2, [r1, #44]
 306:Core/Src/supercap.c ****   __HAL_TIM_SET_AUTORELOAD(&htim3, 9146);
 1667              		.loc 1 306 3 view .LVU371
 1668 007e DA60     		str	r2, [r3, #12]
 306:Core/Src/supercap.c ****   __HAL_TIM_SET_AUTORELOAD(&htim3, 9146);
 1669              		.loc 1 306 3 view .LVU372
 307:Core/Src/supercap.c ****   TIM3_AUTORELOAD_over100 = 91;
 1670              		.loc 1 307 3 view .LVU373
 307:Core/Src/supercap.c ****   TIM3_AUTORELOAD_over100 = 91;
 1671              		.loc 1 307 27 is_stmt 0 view .LVU374
 1672 0080 614B     		ldr	r3, .L141+4
 1673 0082 5B22     		movs	r2, #91
 1674 0084 1A60     		str	r2, [r3]
 1675 0086 E3E7     		b	.L140
 1676              	.L136:
 309:Core/Src/supercap.c ****   __HAL_TIM_SET_AUTORELOAD(&htim3, 8620);
 1677              		.loc 1 309 3 is_stmt 1 view .LVU375
 309:Core/Src/supercap.c ****   __HAL_TIM_SET_AUTORELOAD(&htim3, 8620);
 1678              		.loc 1 309 3 view .LVU376
 1679 0088 5E4B     		ldr	r3, .L141
 1680 008a 1968     		ldr	r1, [r3]
 1681 008c 42F2AC12 		movw	r2, #8620
 1682 0090 CA62     		str	r2, [r1, #44]
 309:Core/Src/supercap.c ****   __HAL_TIM_SET_AUTORELOAD(&htim3, 8620);
 1683              		.loc 1 309 3 view .LVU377
 1684 0092 DA60     		str	r2, [r3, #12]
 309:Core/Src/supercap.c ****   __HAL_TIM_SET_AUTORELOAD(&htim3, 8620);
 1685              		.loc 1 309 3 view .LVU378
 310:Core/Src/supercap.c ****   TIM3_AUTORELOAD_over100 = 86;
 1686              		.loc 1 310 3 view .LVU379
 310:Core/Src/supercap.c ****   TIM3_AUTORELOAD_over100 = 86;
 1687              		.loc 1 310 27 is_stmt 0 view .LVU380
 1688 0094 5C4B     		ldr	r3, .L141+4
 1689 0096 5622     		movs	r2, #86
 1690 0098 1A60     		str	r2, [r3]
 1691 009a D9E7     		b	.L140
 1692              	.L137:
 312:Core/Src/supercap.c ****   __HAL_TIM_SET_AUTORELOAD(&htim3, 7692);
 1693              		.loc 1 312 3 is_stmt 1 view .LVU381
 312:Core/Src/supercap.c ****   __HAL_TIM_SET_AUTORELOAD(&htim3, 7692);
ARM GAS  C:\Users\purdu\AppData\Local\Temp\ccWj3eAN.s 			page 39


 1694              		.loc 1 312 3 view .LVU382
 1695 009c 594B     		ldr	r3, .L141
 1696 009e 1968     		ldr	r1, [r3]
 1697 00a0 41F60C62 		movw	r2, #7692
 1698 00a4 CA62     		str	r2, [r1, #44]
 312:Core/Src/supercap.c ****   __HAL_TIM_SET_AUTORELOAD(&htim3, 7692);
 1699              		.loc 1 312 3 view .LVU383
 1700 00a6 DA60     		str	r2, [r3, #12]
 312:Core/Src/supercap.c ****   __HAL_TIM_SET_AUTORELOAD(&htim3, 7692);
 1701              		.loc 1 312 3 view .LVU384
 313:Core/Src/supercap.c ****   TIM3_AUTORELOAD_over100 = 77;
 1702              		.loc 1 313 3 view .LVU385
 313:Core/Src/supercap.c ****   TIM3_AUTORELOAD_over100 = 77;
 1703              		.loc 1 313 27 is_stmt 0 view .LVU386
 1704 00a8 574B     		ldr	r3, .L141+4
 1705 00aa 4D22     		movs	r2, #77
 1706 00ac 1A60     		str	r2, [r3]
 1707 00ae CFE7     		b	.L140
 1708              	.L138:
 315:Core/Src/supercap.c ****   __HAL_TIM_SET_AUTORELOAD(&htim3, 6818);
 1709              		.loc 1 315 3 is_stmt 1 view .LVU387
 315:Core/Src/supercap.c ****   __HAL_TIM_SET_AUTORELOAD(&htim3, 6818);
 1710              		.loc 1 315 3 view .LVU388
 1711 00b0 544B     		ldr	r3, .L141
 1712 00b2 1968     		ldr	r1, [r3]
 1713 00b4 41F6A222 		movw	r2, #6818
 1714 00b8 CA62     		str	r2, [r1, #44]
 315:Core/Src/supercap.c ****   __HAL_TIM_SET_AUTORELOAD(&htim3, 6818);
 1715              		.loc 1 315 3 view .LVU389
 1716 00ba DA60     		str	r2, [r3, #12]
 315:Core/Src/supercap.c ****   __HAL_TIM_SET_AUTORELOAD(&htim3, 6818);
 1717              		.loc 1 315 3 view .LVU390
 316:Core/Src/supercap.c ****   TIM3_AUTORELOAD_over100 = 68;
 1718              		.loc 1 316 3 view .LVU391
 316:Core/Src/supercap.c ****   TIM3_AUTORELOAD_over100 = 68;
 1719              		.loc 1 316 27 is_stmt 0 view .LVU392
 1720 00bc 524B     		ldr	r3, .L141+4
 1721 00be 4422     		movs	r2, #68
 1722 00c0 1A60     		str	r2, [r3]
 1723 00c2 C5E7     		b	.L140
 1724              	.L139:
 318:Core/Src/supercap.c ****   __HAL_TIM_SET_AUTORELOAD(&htim3, 6097);
 1725              		.loc 1 318 3 is_stmt 1 view .LVU393
 318:Core/Src/supercap.c ****   __HAL_TIM_SET_AUTORELOAD(&htim3, 6097);
 1726              		.loc 1 318 3 view .LVU394
 1727 00c4 4F4B     		ldr	r3, .L141
 1728 00c6 1968     		ldr	r1, [r3]
 1729 00c8 41F2D172 		movw	r2, #6097
 1730 00cc CA62     		str	r2, [r1, #44]
 318:Core/Src/supercap.c ****   __HAL_TIM_SET_AUTORELOAD(&htim3, 6097);
 1731              		.loc 1 318 3 view .LVU395
 1732 00ce DA60     		str	r2, [r3, #12]
 318:Core/Src/supercap.c ****   __HAL_TIM_SET_AUTORELOAD(&htim3, 6097);
 1733              		.loc 1 318 3 view .LVU396
 319:Core/Src/supercap.c ****   TIM3_AUTORELOAD_over100 = 61;
 1734              		.loc 1 319 3 view .LVU397
 319:Core/Src/supercap.c ****   TIM3_AUTORELOAD_over100 = 61;
ARM GAS  C:\Users\purdu\AppData\Local\Temp\ccWj3eAN.s 			page 40


 1735              		.loc 1 319 27 is_stmt 0 view .LVU398
 1736 00d0 4D4B     		ldr	r3, .L141+4
 1737 00d2 3D22     		movs	r2, #61
 1738 00d4 1A60     		str	r2, [r3]
 1739 00d6 BBE7     		b	.L140
 1740              	.L132:
 321:Core/Src/supercap.c ****   __HAL_TIM_SET_AUTORELOAD(&htim3, 5747);
 1741              		.loc 1 321 3 is_stmt 1 view .LVU399
 321:Core/Src/supercap.c ****   __HAL_TIM_SET_AUTORELOAD(&htim3, 5747);
 1742              		.loc 1 321 3 view .LVU400
 1743 00d8 4A4B     		ldr	r3, .L141
 1744 00da 1968     		ldr	r1, [r3]
 1745 00dc 41F27362 		movw	r2, #5747
 1746 00e0 CA62     		str	r2, [r1, #44]
 321:Core/Src/supercap.c ****   __HAL_TIM_SET_AUTORELOAD(&htim3, 5747);
 1747              		.loc 1 321 3 view .LVU401
 1748 00e2 DA60     		str	r2, [r3, #12]
 321:Core/Src/supercap.c ****   __HAL_TIM_SET_AUTORELOAD(&htim3, 5747);
 1749              		.loc 1 321 3 view .LVU402
 322:Core/Src/supercap.c ****   TIM3_AUTORELOAD_over100 = 57;
 1750              		.loc 1 322 3 view .LVU403
 322:Core/Src/supercap.c ****   TIM3_AUTORELOAD_over100 = 57;
 1751              		.loc 1 322 27 is_stmt 0 view .LVU404
 1752 00e4 484B     		ldr	r3, .L141+4
 1753 00e6 3922     		movs	r2, #57
 1754 00e8 1A60     		str	r2, [r3]
 1755 00ea B1E7     		b	.L140
 1756              	.L131:
 324:Core/Src/supercap.c ****   __HAL_TIM_SET_AUTORELOAD(&htim3, 5119);
 1757              		.loc 1 324 3 is_stmt 1 view .LVU405
 324:Core/Src/supercap.c ****   __HAL_TIM_SET_AUTORELOAD(&htim3, 5119);
 1758              		.loc 1 324 3 view .LVU406
 1759 00ec 454B     		ldr	r3, .L141
 1760 00ee 1968     		ldr	r1, [r3]
 1761 00f0 41F2FF32 		movw	r2, #5119
 1762 00f4 CA62     		str	r2, [r1, #44]
 324:Core/Src/supercap.c ****   __HAL_TIM_SET_AUTORELOAD(&htim3, 5119);
 1763              		.loc 1 324 3 view .LVU407
 1764 00f6 DA60     		str	r2, [r3, #12]
 324:Core/Src/supercap.c ****   __HAL_TIM_SET_AUTORELOAD(&htim3, 5119);
 1765              		.loc 1 324 3 view .LVU408
 325:Core/Src/supercap.c ****   TIM3_AUTORELOAD_over100 = 51;
 1766              		.loc 1 325 3 view .LVU409
 325:Core/Src/supercap.c ****   TIM3_AUTORELOAD_over100 = 51;
 1767              		.loc 1 325 27 is_stmt 0 view .LVU410
 1768 00f8 434B     		ldr	r3, .L141+4
 1769 00fa 3322     		movs	r2, #51
 1770 00fc 1A60     		str	r2, [r3]
 1771 00fe A7E7     		b	.L140
 1772              	.L130:
 327:Core/Src/supercap.c ****   __HAL_TIM_SET_AUTORELOAD(&htim3, 4559);
 1773              		.loc 1 327 3 is_stmt 1 view .LVU411
 327:Core/Src/supercap.c ****   __HAL_TIM_SET_AUTORELOAD(&htim3, 4559);
 1774              		.loc 1 327 3 view .LVU412
 1775 0100 404B     		ldr	r3, .L141
 1776 0102 1968     		ldr	r1, [r3]
 1777 0104 41F2CF12 		movw	r2, #4559
ARM GAS  C:\Users\purdu\AppData\Local\Temp\ccWj3eAN.s 			page 41


 1778 0108 CA62     		str	r2, [r1, #44]
 327:Core/Src/supercap.c ****   __HAL_TIM_SET_AUTORELOAD(&htim3, 4559);
 1779              		.loc 1 327 3 view .LVU413
 1780 010a DA60     		str	r2, [r3, #12]
 327:Core/Src/supercap.c ****   __HAL_TIM_SET_AUTORELOAD(&htim3, 4559);
 1781              		.loc 1 327 3 view .LVU414
 328:Core/Src/supercap.c ****   TIM3_AUTORELOAD_over100 = 46;
 1782              		.loc 1 328 3 view .LVU415
 328:Core/Src/supercap.c ****   TIM3_AUTORELOAD_over100 = 46;
 1783              		.loc 1 328 27 is_stmt 0 view .LVU416
 1784 010c 3E4B     		ldr	r3, .L141+4
 1785 010e 2E22     		movs	r2, #46
 1786 0110 1A60     		str	r2, [r3]
 1787 0112 9DE7     		b	.L140
 1788              	.L129:
 330:Core/Src/supercap.c ****   __HAL_TIM_SET_AUTORELOAD(&htim3, 4297);
 1789              		.loc 1 330 3 is_stmt 1 view .LVU417
 330:Core/Src/supercap.c ****   __HAL_TIM_SET_AUTORELOAD(&htim3, 4297);
 1790              		.loc 1 330 3 view .LVU418
 1791 0114 3B4B     		ldr	r3, .L141
 1792 0116 1968     		ldr	r1, [r3]
 1793 0118 41F2C902 		movw	r2, #4297
 1794 011c CA62     		str	r2, [r1, #44]
 330:Core/Src/supercap.c ****   __HAL_TIM_SET_AUTORELOAD(&htim3, 4297);
 1795              		.loc 1 330 3 view .LVU419
 1796 011e DA60     		str	r2, [r3, #12]
 330:Core/Src/supercap.c ****   __HAL_TIM_SET_AUTORELOAD(&htim3, 4297);
 1797              		.loc 1 330 3 view .LVU420
 331:Core/Src/supercap.c ****   TIM3_AUTORELOAD_over100 = 43;
 1798              		.loc 1 331 3 view .LVU421
 331:Core/Src/supercap.c ****   TIM3_AUTORELOAD_over100 = 43;
 1799              		.loc 1 331 27 is_stmt 0 view .LVU422
 1800 0120 394B     		ldr	r3, .L141+4
 1801 0122 2B22     		movs	r2, #43
 1802 0124 1A60     		str	r2, [r3]
 1803 0126 93E7     		b	.L140
 1804              	.L128:
 333:Core/Src/supercap.c ****   __HAL_TIM_SET_AUTORELOAD(&htim3, 3836);
 1805              		.loc 1 333 3 is_stmt 1 view .LVU423
 333:Core/Src/supercap.c ****   __HAL_TIM_SET_AUTORELOAD(&htim3, 3836);
 1806              		.loc 1 333 3 view .LVU424
 1807 0128 364B     		ldr	r3, .L141
 1808 012a 1968     		ldr	r1, [r3]
 1809 012c 40F6FC62 		movw	r2, #3836
 1810 0130 CA62     		str	r2, [r1, #44]
 333:Core/Src/supercap.c ****   __HAL_TIM_SET_AUTORELOAD(&htim3, 3836);
 1811              		.loc 1 333 3 view .LVU425
 1812 0132 DA60     		str	r2, [r3, #12]
 333:Core/Src/supercap.c ****   __HAL_TIM_SET_AUTORELOAD(&htim3, 3836);
 1813              		.loc 1 333 3 view .LVU426
 334:Core/Src/supercap.c ****   TIM3_AUTORELOAD_over100 = 38;
 1814              		.loc 1 334 3 view .LVU427
 334:Core/Src/supercap.c ****   TIM3_AUTORELOAD_over100 = 38;
 1815              		.loc 1 334 27 is_stmt 0 view .LVU428
 1816 0134 344B     		ldr	r3, .L141+4
 1817 0136 2622     		movs	r2, #38
 1818 0138 1A60     		str	r2, [r3]
ARM GAS  C:\Users\purdu\AppData\Local\Temp\ccWj3eAN.s 			page 42


 1819 013a 89E7     		b	.L140
 1820              	.L127:
 336:Core/Src/supercap.c ****   __HAL_TIM_SET_AUTORELOAD(&htim3, 3409);
 1821              		.loc 1 336 3 is_stmt 1 view .LVU429
 336:Core/Src/supercap.c ****   __HAL_TIM_SET_AUTORELOAD(&htim3, 3409);
 1822              		.loc 1 336 3 view .LVU430
 1823 013c 314B     		ldr	r3, .L141
 1824 013e 1968     		ldr	r1, [r3]
 1825 0140 40F65152 		movw	r2, #3409
 1826 0144 CA62     		str	r2, [r1, #44]
 336:Core/Src/supercap.c ****   __HAL_TIM_SET_AUTORELOAD(&htim3, 3409);
 1827              		.loc 1 336 3 view .LVU431
 1828 0146 DA60     		str	r2, [r3, #12]
 336:Core/Src/supercap.c ****   __HAL_TIM_SET_AUTORELOAD(&htim3, 3409);
 1829              		.loc 1 336 3 view .LVU432
 337:Core/Src/supercap.c ****   TIM3_AUTORELOAD_over100 = 34;
 1830              		.loc 1 337 3 view .LVU433
 337:Core/Src/supercap.c ****   TIM3_AUTORELOAD_over100 = 34;
 1831              		.loc 1 337 27 is_stmt 0 view .LVU434
 1832 0148 2F4B     		ldr	r3, .L141+4
 1833 014a 2222     		movs	r2, #34
 1834 014c 1A60     		str	r2, [r3]
 1835 014e 7FE7     		b	.L140
 1836              	.L126:
 339:Core/Src/supercap.c ****   __HAL_TIM_SET_AUTORELOAD(&htim3, 3042);
 1837              		.loc 1 339 3 is_stmt 1 view .LVU435
 339:Core/Src/supercap.c ****   __HAL_TIM_SET_AUTORELOAD(&htim3, 3042);
 1838              		.loc 1 339 3 view .LVU436
 1839 0150 2C4B     		ldr	r3, .L141
 1840 0152 1968     		ldr	r1, [r3]
 1841 0154 40F6E232 		movw	r2, #3042
 1842 0158 CA62     		str	r2, [r1, #44]
 339:Core/Src/supercap.c ****   __HAL_TIM_SET_AUTORELOAD(&htim3, 3042);
 1843              		.loc 1 339 3 view .LVU437
 1844 015a DA60     		str	r2, [r3, #12]
 339:Core/Src/supercap.c ****   __HAL_TIM_SET_AUTORELOAD(&htim3, 3042);
 1845              		.loc 1 339 3 view .LVU438
 340:Core/Src/supercap.c ****   TIM3_AUTORELOAD_over100 = 30;
 1846              		.loc 1 340 3 view .LVU439
 340:Core/Src/supercap.c ****   TIM3_AUTORELOAD_over100 = 30;
 1847              		.loc 1 340 27 is_stmt 0 view .LVU440
 1848 015c 2A4B     		ldr	r3, .L141+4
 1849 015e 1E22     		movs	r2, #30
 1850 0160 1A60     		str	r2, [r3]
 1851 0162 75E7     		b	.L140
 1852              	.L125:
 342:Core/Src/supercap.c ****   __HAL_TIM_SET_AUTORELOAD(&htim3, 2868);
 1853              		.loc 1 342 3 is_stmt 1 view .LVU441
 342:Core/Src/supercap.c ****   __HAL_TIM_SET_AUTORELOAD(&htim3, 2868);
 1854              		.loc 1 342 3 view .LVU442
 1855 0164 274B     		ldr	r3, .L141
 1856 0166 1968     		ldr	r1, [r3]
 1857 0168 40F63432 		movw	r2, #2868
 1858 016c CA62     		str	r2, [r1, #44]
 342:Core/Src/supercap.c ****   __HAL_TIM_SET_AUTORELOAD(&htim3, 2868);
 1859              		.loc 1 342 3 view .LVU443
 1860 016e DA60     		str	r2, [r3, #12]
ARM GAS  C:\Users\purdu\AppData\Local\Temp\ccWj3eAN.s 			page 43


 342:Core/Src/supercap.c ****   __HAL_TIM_SET_AUTORELOAD(&htim3, 2868);
 1861              		.loc 1 342 3 view .LVU444
 343:Core/Src/supercap.c ****   TIM3_AUTORELOAD_over100 = 29;
 1862              		.loc 1 343 3 view .LVU445
 343:Core/Src/supercap.c ****   TIM3_AUTORELOAD_over100 = 29;
 1863              		.loc 1 343 27 is_stmt 0 view .LVU446
 1864 0170 254B     		ldr	r3, .L141+4
 1865 0172 1D22     		movs	r2, #29
 1866 0174 1A60     		str	r2, [r3]
 1867 0176 6BE7     		b	.L140
 1868              	.L124:
 345:Core/Src/supercap.c ****   __HAL_TIM_SET_AUTORELOAD(&htim3, 2555);
 1869              		.loc 1 345 3 is_stmt 1 view .LVU447
 345:Core/Src/supercap.c ****   __HAL_TIM_SET_AUTORELOAD(&htim3, 2555);
 1870              		.loc 1 345 3 view .LVU448
 1871 0178 224B     		ldr	r3, .L141
 1872 017a 1968     		ldr	r1, [r3]
 1873 017c 40F6FB12 		movw	r2, #2555
 1874 0180 CA62     		str	r2, [r1, #44]
 345:Core/Src/supercap.c ****   __HAL_TIM_SET_AUTORELOAD(&htim3, 2555);
 1875              		.loc 1 345 3 view .LVU449
 1876 0182 DA60     		str	r2, [r3, #12]
 345:Core/Src/supercap.c ****   __HAL_TIM_SET_AUTORELOAD(&htim3, 2555);
 1877              		.loc 1 345 3 view .LVU450
 346:Core/Src/supercap.c ****   TIM3_AUTORELOAD_over100 = 26;
 1878              		.loc 1 346 3 view .LVU451
 346:Core/Src/supercap.c ****   TIM3_AUTORELOAD_over100 = 26;
 1879              		.loc 1 346 27 is_stmt 0 view .LVU452
 1880 0184 204B     		ldr	r3, .L141+4
 1881 0186 1A22     		movs	r2, #26
 1882 0188 1A60     		str	r2, [r3]
 1883 018a 61E7     		b	.L140
 1884              	.L123:
 348:Core/Src/supercap.c ****   __HAL_TIM_SET_AUTORELOAD(&htim3, 2276);
 1885              		.loc 1 348 3 is_stmt 1 view .LVU453
 348:Core/Src/supercap.c ****   __HAL_TIM_SET_AUTORELOAD(&htim3, 2276);
 1886              		.loc 1 348 3 view .LVU454
 1887 018c 1D4B     		ldr	r3, .L141
 1888 018e 1968     		ldr	r1, [r3]
 1889 0190 40F6E402 		movw	r2, #2276
 1890 0194 CA62     		str	r2, [r1, #44]
 348:Core/Src/supercap.c ****   __HAL_TIM_SET_AUTORELOAD(&htim3, 2276);
 1891              		.loc 1 348 3 view .LVU455
 1892 0196 DA60     		str	r2, [r3, #12]
 348:Core/Src/supercap.c ****   __HAL_TIM_SET_AUTORELOAD(&htim3, 2276);
 1893              		.loc 1 348 3 view .LVU456
 349:Core/Src/supercap.c ****   TIM3_AUTORELOAD_over100 = 23;
 1894              		.loc 1 349 3 view .LVU457
 349:Core/Src/supercap.c ****   TIM3_AUTORELOAD_over100 = 23;
 1895              		.loc 1 349 27 is_stmt 0 view .LVU458
 1896 0198 1B4B     		ldr	r3, .L141+4
 1897 019a 1722     		movs	r2, #23
 1898 019c 1A60     		str	r2, [r3]
 1899 019e 57E7     		b	.L140
 1900              	.L122:
 351:Core/Src/supercap.c ****   __HAL_TIM_SET_AUTORELOAD(&htim3, 2148);
 1901              		.loc 1 351 3 is_stmt 1 view .LVU459
ARM GAS  C:\Users\purdu\AppData\Local\Temp\ccWj3eAN.s 			page 44


 351:Core/Src/supercap.c ****   __HAL_TIM_SET_AUTORELOAD(&htim3, 2148);
 1902              		.loc 1 351 3 view .LVU460
 1903 01a0 184B     		ldr	r3, .L141
 1904 01a2 1968     		ldr	r1, [r3]
 1905 01a4 40F66402 		movw	r2, #2148
 1906 01a8 CA62     		str	r2, [r1, #44]
 351:Core/Src/supercap.c ****   __HAL_TIM_SET_AUTORELOAD(&htim3, 2148);
 1907              		.loc 1 351 3 view .LVU461
 1908 01aa DA60     		str	r2, [r3, #12]
 351:Core/Src/supercap.c ****   __HAL_TIM_SET_AUTORELOAD(&htim3, 2148);
 1909              		.loc 1 351 3 view .LVU462
 352:Core/Src/supercap.c ****   TIM3_AUTORELOAD_over100 = 21;
 1910              		.loc 1 352 3 view .LVU463
 352:Core/Src/supercap.c ****   TIM3_AUTORELOAD_over100 = 21;
 1911              		.loc 1 352 27 is_stmt 0 view .LVU464
 1912 01ac 164B     		ldr	r3, .L141+4
 1913 01ae 1522     		movs	r2, #21
 1914 01b0 1A60     		str	r2, [r3]
 1915 01b2 4DE7     		b	.L140
 1916              	.L121:
 354:Core/Src/supercap.c ****   __HAL_TIM_SET_AUTORELOAD(&htim3, 1915);
 1917              		.loc 1 354 3 is_stmt 1 view .LVU465
 354:Core/Src/supercap.c ****   __HAL_TIM_SET_AUTORELOAD(&htim3, 1915);
 1918              		.loc 1 354 3 view .LVU466
 1919 01b4 134B     		ldr	r3, .L141
 1920 01b6 1968     		ldr	r1, [r3]
 1921 01b8 40F27B72 		movw	r2, #1915
 1922 01bc CA62     		str	r2, [r1, #44]
 354:Core/Src/supercap.c ****   __HAL_TIM_SET_AUTORELOAD(&htim3, 1915);
 1923              		.loc 1 354 3 view .LVU467
 1924 01be DA60     		str	r2, [r3, #12]
 354:Core/Src/supercap.c ****   __HAL_TIM_SET_AUTORELOAD(&htim3, 1915);
 1925              		.loc 1 354 3 view .LVU468
 355:Core/Src/supercap.c ****   TIM3_AUTORELOAD_over100 = 19;
 1926              		.loc 1 355 3 view .LVU469
 355:Core/Src/supercap.c ****   TIM3_AUTORELOAD_over100 = 19;
 1927              		.loc 1 355 27 is_stmt 0 view .LVU470
 1928 01c0 114B     		ldr	r3, .L141+4
 1929 01c2 1322     		movs	r2, #19
 1930 01c4 1A60     		str	r2, [r3]
 1931 01c6 43E7     		b	.L140
 1932              	.L120:
 357:Core/Src/supercap.c ****   __HAL_TIM_SET_AUTORELOAD(&htim3, 1704);
 1933              		.loc 1 357 3 is_stmt 1 view .LVU471
 357:Core/Src/supercap.c ****   __HAL_TIM_SET_AUTORELOAD(&htim3, 1704);
 1934              		.loc 1 357 3 view .LVU472
 1935 01c8 0E4B     		ldr	r3, .L141
 1936 01ca 1968     		ldr	r1, [r3]
 1937 01cc 4FF4D562 		mov	r2, #1704
 1938 01d0 CA62     		str	r2, [r1, #44]
 357:Core/Src/supercap.c ****   __HAL_TIM_SET_AUTORELOAD(&htim3, 1704);
 1939              		.loc 1 357 3 view .LVU473
 1940 01d2 DA60     		str	r2, [r3, #12]
 357:Core/Src/supercap.c ****   __HAL_TIM_SET_AUTORELOAD(&htim3, 1704);
 1941              		.loc 1 357 3 view .LVU474
 358:Core/Src/supercap.c ****   TIM3_AUTORELOAD_over100 = 17;
 1942              		.loc 1 358 3 view .LVU475
ARM GAS  C:\Users\purdu\AppData\Local\Temp\ccWj3eAN.s 			page 45


 358:Core/Src/supercap.c ****   TIM3_AUTORELOAD_over100 = 17;
 1943              		.loc 1 358 27 is_stmt 0 view .LVU476
 1944 01d4 0C4B     		ldr	r3, .L141+4
 1945 01d6 1122     		movs	r2, #17
 1946 01d8 1A60     		str	r2, [r3]
 1947 01da 39E7     		b	.L140
 1948              	.L118:
 360:Core/Src/supercap.c ****   __HAL_TIM_SET_AUTORELOAD(&htim3, 1518);
 1949              		.loc 1 360 3 is_stmt 1 view .LVU477
 360:Core/Src/supercap.c ****   __HAL_TIM_SET_AUTORELOAD(&htim3, 1518);
 1950              		.loc 1 360 3 view .LVU478
 1951 01dc 094B     		ldr	r3, .L141
 1952 01de 1968     		ldr	r1, [r3]
 1953 01e0 40F2EE52 		movw	r2, #1518
 1954 01e4 CA62     		str	r2, [r1, #44]
 360:Core/Src/supercap.c ****   __HAL_TIM_SET_AUTORELOAD(&htim3, 1518);
 1955              		.loc 1 360 3 view .LVU479
 1956 01e6 DA60     		str	r2, [r3, #12]
 360:Core/Src/supercap.c ****   __HAL_TIM_SET_AUTORELOAD(&htim3, 1518);
 1957              		.loc 1 360 3 view .LVU480
 361:Core/Src/supercap.c ****   TIM3_AUTORELOAD_over100 = 15;
 1958              		.loc 1 361 3 view .LVU481
 361:Core/Src/supercap.c ****   TIM3_AUTORELOAD_over100 = 15;
 1959              		.loc 1 361 27 is_stmt 0 view .LVU482
 1960 01e8 074B     		ldr	r3, .L141+4
 1961 01ea 0F22     		movs	r2, #15
 1962 01ec 1A60     		str	r2, [r3]
 1963 01ee 2FE7     		b	.L140
 1964              	.L117:
 363:Core/Src/supercap.c ****   __HAL_TIM_SET_AUTORELOAD(&htim3, 1000);
 1965              		.loc 1 363 3 is_stmt 1 view .LVU483
 363:Core/Src/supercap.c ****   __HAL_TIM_SET_AUTORELOAD(&htim3, 1000);
 1966              		.loc 1 363 3 view .LVU484
 1967 01f0 044B     		ldr	r3, .L141
 1968 01f2 1968     		ldr	r1, [r3]
 1969 01f4 4FF47A72 		mov	r2, #1000
 1970 01f8 CA62     		str	r2, [r1, #44]
 363:Core/Src/supercap.c ****   __HAL_TIM_SET_AUTORELOAD(&htim3, 1000);
 1971              		.loc 1 363 3 view .LVU485
 1972 01fa DA60     		str	r2, [r3, #12]
 363:Core/Src/supercap.c ****   __HAL_TIM_SET_AUTORELOAD(&htim3, 1000);
 1973              		.loc 1 363 3 view .LVU486
 364:Core/Src/supercap.c ****   TIM3_AUTORELOAD_over100 = 10;
 1974              		.loc 1 364 3 view .LVU487
 364:Core/Src/supercap.c ****   TIM3_AUTORELOAD_over100 = 10;
 1975              		.loc 1 364 27 is_stmt 0 view .LVU488
 1976 01fc 024B     		ldr	r3, .L141+4
 1977 01fe 0A22     		movs	r2, #10
 1978 0200 1A60     		str	r2, [r3]
 1979 0202 25E7     		b	.L140
 1980              	.L142:
 1981              		.align	2
 1982              	.L141:
 1983 0204 00000000 		.word	htim3
 1984 0208 00000000 		.word	TIM3_AUTORELOAD_over100
 1985              		.cfi_endproc
 1986              	.LFE358:
ARM GAS  C:\Users\purdu\AppData\Local\Temp\ccWj3eAN.s 			page 46


 1988              		.global	fault_counter
 1989              		.section	.bss.fault_counter,"aw",%nobits
 1990              		.align	1
 1993              	fault_counter:
 1994 0000 0000     		.space	2
 1995              		.global	protection_counter
 1996              		.section	.bss.protection_counter,"aw",%nobits
 1997              		.align	1
 2000              	protection_counter:
 2001 0000 0000     		.space	2
 2002              		.global	PID_flag
 2003              		.section	.bss.PID_flag,"aw",%nobits
 2006              	PID_flag:
 2007 0000 00       		.space	1
 2008              		.text
 2009              	.Letext0:
 2010              		.file 2 "C:/Program Files (x86)/Arm GNU Toolchain arm-none-eabi/13.2 Rel1/arm-none-eabi/include/ma
 2011              		.file 3 "C:/Program Files (x86)/Arm GNU Toolchain arm-none-eabi/13.2 Rel1/arm-none-eabi/include/sy
 2012              		.file 4 "Drivers/CMSIS/Device/ST/STM32G4xx/Include/stm32g473xx.h"
 2013              		.file 5 "Drivers/STM32G4xx_HAL_Driver/Inc/stm32g4xx_hal_def.h"
 2014              		.file 6 "Drivers/STM32G4xx_HAL_Driver/Inc/stm32g4xx_hal_gpio.h"
 2015              		.file 7 "Drivers/STM32G4xx_HAL_Driver/Inc/stm32g4xx_hal_dma.h"
 2016              		.file 8 "Drivers/STM32G4xx_HAL_Driver/Inc/stm32g4xx_hal_tim.h"
 2017              		.file 9 "Core/Inc/tim.h"
 2018              		.file 10 "Core/Inc/supercap.h"
 2019              		.file 11 "Drivers/STM32G4xx_HAL_Driver/Inc/stm32g4xx_hal_tim_ex.h"
ARM GAS  C:\Users\purdu\AppData\Local\Temp\ccWj3eAN.s 			page 47


DEFINED SYMBOLS
                            *ABS*:00000000 supercap.c
C:\Users\purdu\AppData\Local\Temp\ccWj3eAN.s:21     .text.Supercap_PID_Controller_Function:00000000 $t
C:\Users\purdu\AppData\Local\Temp\ccWj3eAN.s:27     .text.Supercap_PID_Controller_Function:00000000 Supercap_PID_Controller_Function
C:\Users\purdu\AppData\Local\Temp\ccWj3eAN.s:145    .text.Supercap_Compare:00000000 $t
C:\Users\purdu\AppData\Local\Temp\ccWj3eAN.s:151    .text.Supercap_Compare:00000000 Supercap_Compare
C:\Users\purdu\AppData\Local\Temp\ccWj3eAN.s:219    .text.Supercap_Limit:00000000 $t
C:\Users\purdu\AppData\Local\Temp\ccWj3eAN.s:225    .text.Supercap_Limit:00000000 Supercap_Limit
C:\Users\purdu\AppData\Local\Temp\ccWj3eAN.s:258    .text.Supercap_Average_ADC_Function:00000000 $t
C:\Users\purdu\AppData\Local\Temp\ccWj3eAN.s:264    .text.Supercap_Average_ADC_Function:00000000 Supercap_Average_ADC_Function
C:\Users\purdu\AppData\Local\Temp\ccWj3eAN.s:322    .text.Supercap_First_Order_Filter_ADC_Function:00000000 $t
C:\Users\purdu\AppData\Local\Temp\ccWj3eAN.s:328    .text.Supercap_First_Order_Filter_ADC_Function:00000000 Supercap_First_Order_Filter_ADC_Function
C:\Users\purdu\AppData\Local\Temp\ccWj3eAN.s:356    .text.Supercap_First_Order_Filter_ADC_Function_Alpha:00000000 $t
C:\Users\purdu\AppData\Local\Temp\ccWj3eAN.s:362    .text.Supercap_First_Order_Filter_ADC_Function_Alpha:00000000 Supercap_First_Order_Filter_ADC_Function_Alpha
C:\Users\purdu\AppData\Local\Temp\ccWj3eAN.s:394    .text.TIM2_NVIC:00000000 $t
C:\Users\purdu\AppData\Local\Temp\ccWj3eAN.s:400    .text.TIM2_NVIC:00000000 TIM2_NVIC
C:\Users\purdu\AppData\Local\Temp\ccWj3eAN.s:441    .text.TIM2_NVIC:0000002c $d
C:\Users\purdu\AppData\Local\Temp\ccWj3eAN.s:450    .text.Supercap_Function_Init:00000000 $t
C:\Users\purdu\AppData\Local\Temp\ccWj3eAN.s:456    .text.Supercap_Function_Init:00000000 Supercap_Function_Init
C:\Users\purdu\AppData\Local\Temp\ccWj3eAN.s:477    .text.Supercap_ADC_to_Voltage_Funtion:00000000 $t
C:\Users\purdu\AppData\Local\Temp\ccWj3eAN.s:483    .text.Supercap_ADC_to_Voltage_Funtion:00000000 Supercap_ADC_to_Voltage_Funtion
C:\Users\purdu\AppData\Local\Temp\ccWj3eAN.s:513    .text.Supercap_ADC_to_Voltage_Funtion:00000024 $d
C:\Users\purdu\AppData\Local\Temp\ccWj3eAN.s:519    .text.Supercap_ADC_to_Voltage_Funtion_Ref:00000000 $t
C:\Users\purdu\AppData\Local\Temp\ccWj3eAN.s:525    .text.Supercap_ADC_to_Voltage_Funtion_Ref:00000000 Supercap_ADC_to_Voltage_Funtion_Ref
C:\Users\purdu\AppData\Local\Temp\ccWj3eAN.s:552    .text.Supercap_ADC_to_Voltage_Funtion_Ref:0000001c $d
C:\Users\purdu\AppData\Local\Temp\ccWj3eAN.s:558    .text.Supercap_ADC_to_Current_Funtion:00000000 $t
C:\Users\purdu\AppData\Local\Temp\ccWj3eAN.s:564    .text.Supercap_ADC_to_Current_Funtion:00000000 Supercap_ADC_to_Current_Funtion
C:\Users\purdu\AppData\Local\Temp\ccWj3eAN.s:590    .text.Supercap_ADC_to_Current_Funtion:00000014 $d
C:\Users\purdu\AppData\Local\Temp\ccWj3eAN.s:595    .text.Supercap_PID_Init:00000000 $t
C:\Users\purdu\AppData\Local\Temp\ccWj3eAN.s:601    .text.Supercap_PID_Init:00000000 Supercap_PID_Init
C:\Users\purdu\AppData\Local\Temp\ccWj3eAN.s:633    .text.Supercap_PID_Reset:00000000 $t
C:\Users\purdu\AppData\Local\Temp\ccWj3eAN.s:639    .text.Supercap_PID_Reset:00000000 Supercap_PID_Reset
C:\Users\purdu\AppData\Local\Temp\ccWj3eAN.s:657    .text.Supercap_PWM_left:00000000 $t
C:\Users\purdu\AppData\Local\Temp\ccWj3eAN.s:663    .text.Supercap_PWM_left:00000000 Supercap_PWM_left
C:\Users\purdu\AppData\Local\Temp\ccWj3eAN.s:683    .text.Supercap_PWM_left:0000000c $d
C:\Users\purdu\AppData\Local\Temp\ccWj3eAN.s:688    .text.TIM5_NVIC:00000000 $t
C:\Users\purdu\AppData\Local\Temp\ccWj3eAN.s:694    .text.TIM5_NVIC:00000000 TIM5_NVIC
C:\Users\purdu\AppData\Local\Temp\ccWj3eAN.s:814    .text.TIM5_NVIC:000000e0 $d
C:\Users\purdu\AppData\Local\Temp\ccWj3eAN.s:2006   .bss.PID_flag:00000000 PID_flag
C:\Users\purdu\AppData\Local\Temp\ccWj3eAN.s:830    .text.Supercap_PWM_right:00000000 $t
C:\Users\purdu\AppData\Local\Temp\ccWj3eAN.s:836    .text.Supercap_PWM_right:00000000 Supercap_PWM_right
C:\Users\purdu\AppData\Local\Temp\ccWj3eAN.s:856    .text.Supercap_PWM_right:00000010 $d
C:\Users\purdu\AppData\Local\Temp\ccWj3eAN.s:861    .text.Supercap_PWM_GND:00000000 $t
C:\Users\purdu\AppData\Local\Temp\ccWj3eAN.s:867    .text.Supercap_PWM_GND:00000000 Supercap_PWM_GND
C:\Users\purdu\AppData\Local\Temp\ccWj3eAN.s:887    .text.Supercap_PWM_GND:00000010 $d
C:\Users\purdu\AppData\Local\Temp\ccWj3eAN.s:892    .text.Supercap_DCDC_Start:00000000 $t
C:\Users\purdu\AppData\Local\Temp\ccWj3eAN.s:898    .text.Supercap_DCDC_Start:00000000 Supercap_DCDC_Start
C:\Users\purdu\AppData\Local\Temp\ccWj3eAN.s:935    .text.Supercap_DCDC_Start:00000028 $d
C:\Users\purdu\AppData\Local\Temp\ccWj3eAN.s:940    .text.Supercap_DCDC_Stop:00000000 $t
C:\Users\purdu\AppData\Local\Temp\ccWj3eAN.s:946    .text.Supercap_DCDC_Stop:00000000 Supercap_DCDC_Stop
C:\Users\purdu\AppData\Local\Temp\ccWj3eAN.s:983    .text.Supercap_DCDC_Stop:00000028 $d
C:\Users\purdu\AppData\Local\Temp\ccWj3eAN.s:988    .text.Supercap_AUX_Init:00000000 $t
C:\Users\purdu\AppData\Local\Temp\ccWj3eAN.s:994    .text.Supercap_AUX_Init:00000000 Supercap_AUX_Init
C:\Users\purdu\AppData\Local\Temp\ccWj3eAN.s:1048   .text.Supercap_AUX_Init:00000040 $d
C:\Users\purdu\AppData\Local\Temp\ccWj3eAN.s:1055   .text.Supercap_AUX_RedLED:00000000 $t
C:\Users\purdu\AppData\Local\Temp\ccWj3eAN.s:1061   .text.Supercap_AUX_RedLED:00000000 Supercap_AUX_RedLED
C:\Users\purdu\AppData\Local\Temp\ccWj3eAN.s:1083   .text.Supercap_AUX_RedLED:00000010 $d
ARM GAS  C:\Users\purdu\AppData\Local\Temp\ccWj3eAN.s 			page 48


C:\Users\purdu\AppData\Local\Temp\ccWj3eAN.s:1089   .text.Supercap_AUX_YellowLED:00000000 $t
C:\Users\purdu\AppData\Local\Temp\ccWj3eAN.s:1095   .text.Supercap_AUX_YellowLED:00000000 Supercap_AUX_YellowLED
C:\Users\purdu\AppData\Local\Temp\ccWj3eAN.s:1117   .text.Supercap_AUX_YellowLED:00000010 $d
C:\Users\purdu\AppData\Local\Temp\ccWj3eAN.s:1123   .text.Supercap_AUX_BlueLED:00000000 $t
C:\Users\purdu\AppData\Local\Temp\ccWj3eAN.s:1129   .text.Supercap_AUX_BlueLED:00000000 Supercap_AUX_BlueLED
C:\Users\purdu\AppData\Local\Temp\ccWj3eAN.s:1150   .text.Supercap_AUX_BlueLED:00000010 $d
C:\Users\purdu\AppData\Local\Temp\ccWj3eAN.s:1155   .text.Supercap_AUX_MachineSpirit:00000000 $t
C:\Users\purdu\AppData\Local\Temp\ccWj3eAN.s:1161   .text.Supercap_AUX_MachineSpirit:00000000 Supercap_AUX_MachineSpirit
C:\Users\purdu\AppData\Local\Temp\ccWj3eAN.s:1182   .text.Supercap_AUX_MachineSpirit:00000010 $d
C:\Users\purdu\AppData\Local\Temp\ccWj3eAN.s:1187   .text.Supercap_FSM:00000000 $t
C:\Users\purdu\AppData\Local\Temp\ccWj3eAN.s:1193   .text.Supercap_FSM:00000000 Supercap_FSM
C:\Users\purdu\AppData\Local\Temp\ccWj3eAN.s:1235   .text.Supercap_FSM:00000032 $d
C:\Users\purdu\AppData\Local\Temp\ccWj3eAN.s:1239   .text.Supercap_FSM:00000036 $t
C:\Users\purdu\AppData\Local\Temp\ccWj3eAN.s:1292   .text.Supercap_FSM:0000007c $d
C:\Users\purdu\AppData\Local\Temp\ccWj3eAN.s:1296   .text.Supercap_FSM:00000080 $t
C:\Users\purdu\AppData\Local\Temp\ccWj3eAN.s:1464   .text.Supercap_FSM:00000158 $d
C:\Users\purdu\AppData\Local\Temp\ccWj3eAN.s:1993   .bss.fault_counter:00000000 fault_counter
C:\Users\purdu\AppData\Local\Temp\ccWj3eAN.s:2000   .bss.protection_counter:00000000 protection_counter
C:\Users\purdu\AppData\Local\Temp\ccWj3eAN.s:1480   .text.HAL_TIM_PeriodElapsedCallback:00000000 $t
C:\Users\purdu\AppData\Local\Temp\ccWj3eAN.s:1486   .text.HAL_TIM_PeriodElapsedCallback:00000000 HAL_TIM_PeriodElapsedCallback
C:\Users\purdu\AppData\Local\Temp\ccWj3eAN.s:1560   .text.HAL_TIM_PeriodElapsedCallback:00000054 $d
C:\Users\purdu\AppData\Local\Temp\ccWj3eAN.s:1566   .text.Supercap_AUX_Buzzer:00000000 $t
C:\Users\purdu\AppData\Local\Temp\ccWj3eAN.s:1572   .text.Supercap_AUX_Buzzer:00000000 Supercap_AUX_Buzzer
C:\Users\purdu\AppData\Local\Temp\ccWj3eAN.s:1588   .text.Supercap_AUX_Buzzer:0000000c $d
C:\Users\purdu\AppData\Local\Temp\ccWj3eAN.s:1613   .text.Supercap_AUX_Buzzer:0000003e $t
C:\Users\purdu\AppData\Local\Temp\ccWj3eAN.s:1983   .text.Supercap_AUX_Buzzer:00000204 $d
C:\Users\purdu\AppData\Local\Temp\ccWj3eAN.s:1990   .bss.fault_counter:00000000 $d
C:\Users\purdu\AppData\Local\Temp\ccWj3eAN.s:1997   .bss.protection_counter:00000000 $d
C:\Users\purdu\AppData\Local\Temp\ccWj3eAN.s:2007   .bss.PID_flag:00000000 $d

UNDEFINED SYMBOLS
C_sys
C_right
ADC4_12
V_bat
V_cap
htim1
PID_45W_loop
PID_n7A_loop
PID_7A_loop
temp2
PID_voltage_loop
HAL_TIM_PWM_Start
HAL_TIMEx_PWMN_Start
HAL_TIM_PWM_Stop
HAL_TIMEx_PWMN_Stop
htim3
TIM3_AUTORELOAD_over100
htim4
CAP_STATE
HAL_GPIO_WritePin
