ARM GAS  C:\Users\purdu\AppData\Local\Temp\ccRq8u6z.s 			page 1


   1              		.cpu cortex-m4
   2              		.arch armv7e-m
   3              		.fpu fpv4-sp-d16
   4              		.eabi_attribute 27, 1
   5              		.eabi_attribute 28, 1
   6              		.eabi_attribute 20, 1
   7              		.eabi_attribute 21, 1
   8              		.eabi_attribute 23, 3
   9              		.eabi_attribute 24, 1
  10              		.eabi_attribute 25, 1
  11              		.eabi_attribute 26, 1
  12              		.eabi_attribute 30, 1
  13              		.eabi_attribute 34, 1
  14              		.eabi_attribute 18, 4
  15              		.file	"usart.c"
  16              		.text
  17              	.Ltext0:
  18              		.cfi_sections	.debug_frame
  19              		.file 1 "Core/Src/usart.c"
  20              		.section	.text.MX_USART1_UART_Init,"ax",%progbits
  21              		.align	1
  22              		.global	MX_USART1_UART_Init
  23              		.syntax unified
  24              		.thumb
  25              		.thumb_func
  27              	MX_USART1_UART_Init:
  28              	.LFB329:
   1:Core/Src/usart.c **** /* USER CODE BEGIN Header */
   2:Core/Src/usart.c **** /**
   3:Core/Src/usart.c ****   ******************************************************************************
   4:Core/Src/usart.c ****   * @file    usart.c
   5:Core/Src/usart.c ****   * @brief   This file provides code for the configuration
   6:Core/Src/usart.c ****   *          of the USART instances.
   7:Core/Src/usart.c ****   ******************************************************************************
   8:Core/Src/usart.c ****   * @attention
   9:Core/Src/usart.c ****   *
  10:Core/Src/usart.c ****   * Copyright (c) 2024 STMicroelectronics.
  11:Core/Src/usart.c ****   * All rights reserved.
  12:Core/Src/usart.c ****   *
  13:Core/Src/usart.c ****   * This software is licensed under terms that can be found in the LICENSE file
  14:Core/Src/usart.c ****   * in the root directory of this software component.
  15:Core/Src/usart.c ****   * If no LICENSE file comes with this software, it is provided AS-IS.
  16:Core/Src/usart.c ****   *
  17:Core/Src/usart.c ****   ******************************************************************************
  18:Core/Src/usart.c ****   */
  19:Core/Src/usart.c **** /* USER CODE END Header */
  20:Core/Src/usart.c **** /* Includes ------------------------------------------------------------------*/
  21:Core/Src/usart.c **** #include "usart.h"
  22:Core/Src/usart.c **** 
  23:Core/Src/usart.c **** /* USER CODE BEGIN 0 */
  24:Core/Src/usart.c **** 
  25:Core/Src/usart.c **** /* USER CODE END 0 */
  26:Core/Src/usart.c **** 
  27:Core/Src/usart.c **** UART_HandleTypeDef huart1;
  28:Core/Src/usart.c **** UART_HandleTypeDef huart2;
  29:Core/Src/usart.c **** UART_HandleTypeDef huart3;
  30:Core/Src/usart.c **** DMA_HandleTypeDef hdma_usart3_tx;
ARM GAS  C:\Users\purdu\AppData\Local\Temp\ccRq8u6z.s 			page 2


  31:Core/Src/usart.c **** 
  32:Core/Src/usart.c **** /* USART1 init function */
  33:Core/Src/usart.c **** 
  34:Core/Src/usart.c **** void MX_USART1_UART_Init(void)
  35:Core/Src/usart.c **** {
  29              		.loc 1 35 1 view -0
  30              		.cfi_startproc
  31              		@ args = 0, pretend = 0, frame = 0
  32              		@ frame_needed = 0, uses_anonymous_args = 0
  33 0000 08B5     		push	{r3, lr}
  34              	.LCFI0:
  35              		.cfi_def_cfa_offset 8
  36              		.cfi_offset 3, -8
  37              		.cfi_offset 14, -4
  36:Core/Src/usart.c **** 
  37:Core/Src/usart.c ****   /* USER CODE BEGIN USART1_Init 0 */
  38:Core/Src/usart.c **** 
  39:Core/Src/usart.c ****   /* USER CODE END USART1_Init 0 */
  40:Core/Src/usart.c **** 
  41:Core/Src/usart.c ****   /* USER CODE BEGIN USART1_Init 1 */
  42:Core/Src/usart.c **** 
  43:Core/Src/usart.c ****   /* USER CODE END USART1_Init 1 */
  44:Core/Src/usart.c ****   huart1.Instance = USART1;
  38              		.loc 1 44 3 view .LVU1
  39              		.loc 1 44 19 is_stmt 0 view .LVU2
  40 0002 1748     		ldr	r0, .L11
  41 0004 174B     		ldr	r3, .L11+4
  42 0006 0360     		str	r3, [r0]
  45:Core/Src/usart.c ****   huart1.Init.BaudRate = 115200;
  43              		.loc 1 45 3 is_stmt 1 view .LVU3
  44              		.loc 1 45 24 is_stmt 0 view .LVU4
  45 0008 4FF4E133 		mov	r3, #115200
  46 000c 4360     		str	r3, [r0, #4]
  46:Core/Src/usart.c ****   huart1.Init.WordLength = UART_WORDLENGTH_8B;
  47              		.loc 1 46 3 is_stmt 1 view .LVU5
  48              		.loc 1 46 26 is_stmt 0 view .LVU6
  49 000e 0023     		movs	r3, #0
  50 0010 8360     		str	r3, [r0, #8]
  47:Core/Src/usart.c ****   huart1.Init.StopBits = UART_STOPBITS_1;
  51              		.loc 1 47 3 is_stmt 1 view .LVU7
  52              		.loc 1 47 24 is_stmt 0 view .LVU8
  53 0012 C360     		str	r3, [r0, #12]
  48:Core/Src/usart.c ****   huart1.Init.Parity = UART_PARITY_NONE;
  54              		.loc 1 48 3 is_stmt 1 view .LVU9
  55              		.loc 1 48 22 is_stmt 0 view .LVU10
  56 0014 0361     		str	r3, [r0, #16]
  49:Core/Src/usart.c ****   huart1.Init.Mode = UART_MODE_TX_RX;
  57              		.loc 1 49 3 is_stmt 1 view .LVU11
  58              		.loc 1 49 20 is_stmt 0 view .LVU12
  59 0016 0C22     		movs	r2, #12
  60 0018 4261     		str	r2, [r0, #20]
  50:Core/Src/usart.c ****   huart1.Init.HwFlowCtl = UART_HWCONTROL_NONE;
  61              		.loc 1 50 3 is_stmt 1 view .LVU13
  62              		.loc 1 50 25 is_stmt 0 view .LVU14
  63 001a 8361     		str	r3, [r0, #24]
  51:Core/Src/usart.c ****   huart1.Init.OverSampling = UART_OVERSAMPLING_16;
  64              		.loc 1 51 3 is_stmt 1 view .LVU15
ARM GAS  C:\Users\purdu\AppData\Local\Temp\ccRq8u6z.s 			page 3


  65              		.loc 1 51 28 is_stmt 0 view .LVU16
  66 001c C361     		str	r3, [r0, #28]
  52:Core/Src/usart.c ****   huart1.Init.OneBitSampling = UART_ONE_BIT_SAMPLE_DISABLE;
  67              		.loc 1 52 3 is_stmt 1 view .LVU17
  68              		.loc 1 52 30 is_stmt 0 view .LVU18
  69 001e 0362     		str	r3, [r0, #32]
  53:Core/Src/usart.c ****   huart1.Init.ClockPrescaler = UART_PRESCALER_DIV1;
  70              		.loc 1 53 3 is_stmt 1 view .LVU19
  71              		.loc 1 53 30 is_stmt 0 view .LVU20
  72 0020 4362     		str	r3, [r0, #36]
  54:Core/Src/usart.c ****   huart1.AdvancedInit.AdvFeatureInit = UART_ADVFEATURE_NO_INIT;
  73              		.loc 1 54 3 is_stmt 1 view .LVU21
  74              		.loc 1 54 38 is_stmt 0 view .LVU22
  75 0022 8362     		str	r3, [r0, #40]
  55:Core/Src/usart.c ****   if (HAL_UART_Init(&huart1) != HAL_OK)
  76              		.loc 1 55 3 is_stmt 1 view .LVU23
  77              		.loc 1 55 7 is_stmt 0 view .LVU24
  78 0024 FFF7FEFF 		bl	HAL_UART_Init
  79              	.LVL0:
  80              		.loc 1 55 6 discriminator 1 view .LVU25
  81 0028 70B9     		cbnz	r0, .L7
  82              	.L2:
  56:Core/Src/usart.c ****   {
  57:Core/Src/usart.c ****     Error_Handler();
  58:Core/Src/usart.c ****   }
  59:Core/Src/usart.c ****   if (HAL_UARTEx_SetTxFifoThreshold(&huart1, UART_TXFIFO_THRESHOLD_1_8) != HAL_OK)
  83              		.loc 1 59 3 is_stmt 1 view .LVU26
  84              		.loc 1 59 7 is_stmt 0 view .LVU27
  85 002a 0021     		movs	r1, #0
  86 002c 0C48     		ldr	r0, .L11
  87 002e FFF7FEFF 		bl	HAL_UARTEx_SetTxFifoThreshold
  88              	.LVL1:
  89              		.loc 1 59 6 discriminator 1 view .LVU28
  90 0032 60B9     		cbnz	r0, .L8
  91              	.L3:
  60:Core/Src/usart.c ****   {
  61:Core/Src/usart.c ****     Error_Handler();
  62:Core/Src/usart.c ****   }
  63:Core/Src/usart.c ****   if (HAL_UARTEx_SetRxFifoThreshold(&huart1, UART_RXFIFO_THRESHOLD_1_8) != HAL_OK)
  92              		.loc 1 63 3 is_stmt 1 view .LVU29
  93              		.loc 1 63 7 is_stmt 0 view .LVU30
  94 0034 0021     		movs	r1, #0
  95 0036 0A48     		ldr	r0, .L11
  96 0038 FFF7FEFF 		bl	HAL_UARTEx_SetRxFifoThreshold
  97              	.LVL2:
  98              		.loc 1 63 6 discriminator 1 view .LVU31
  99 003c 50B9     		cbnz	r0, .L9
 100              	.L4:
  64:Core/Src/usart.c ****   {
  65:Core/Src/usart.c ****     Error_Handler();
  66:Core/Src/usart.c ****   }
  67:Core/Src/usart.c ****   if (HAL_UARTEx_DisableFifoMode(&huart1) != HAL_OK)
 101              		.loc 1 67 3 is_stmt 1 view .LVU32
 102              		.loc 1 67 7 is_stmt 0 view .LVU33
 103 003e 0848     		ldr	r0, .L11
 104 0040 FFF7FEFF 		bl	HAL_UARTEx_DisableFifoMode
 105              	.LVL3:
ARM GAS  C:\Users\purdu\AppData\Local\Temp\ccRq8u6z.s 			page 4


 106              		.loc 1 67 6 discriminator 1 view .LVU34
 107 0044 48B9     		cbnz	r0, .L10
 108              	.L1:
  68:Core/Src/usart.c ****   {
  69:Core/Src/usart.c ****     Error_Handler();
  70:Core/Src/usart.c ****   }
  71:Core/Src/usart.c ****   /* USER CODE BEGIN USART1_Init 2 */
  72:Core/Src/usart.c **** 
  73:Core/Src/usart.c ****   /* USER CODE END USART1_Init 2 */
  74:Core/Src/usart.c **** 
  75:Core/Src/usart.c **** }
 109              		.loc 1 75 1 view .LVU35
 110 0046 08BD     		pop	{r3, pc}
 111              	.L7:
  57:Core/Src/usart.c ****   }
 112              		.loc 1 57 5 is_stmt 1 view .LVU36
 113 0048 FFF7FEFF 		bl	Error_Handler
 114              	.LVL4:
 115 004c EDE7     		b	.L2
 116              	.L8:
  61:Core/Src/usart.c ****   }
 117              		.loc 1 61 5 view .LVU37
 118 004e FFF7FEFF 		bl	Error_Handler
 119              	.LVL5:
 120 0052 EFE7     		b	.L3
 121              	.L9:
  65:Core/Src/usart.c ****   }
 122              		.loc 1 65 5 view .LVU38
 123 0054 FFF7FEFF 		bl	Error_Handler
 124              	.LVL6:
 125 0058 F1E7     		b	.L4
 126              	.L10:
  69:Core/Src/usart.c ****   }
 127              		.loc 1 69 5 view .LVU39
 128 005a FFF7FEFF 		bl	Error_Handler
 129              	.LVL7:
 130              		.loc 1 75 1 is_stmt 0 view .LVU40
 131 005e F2E7     		b	.L1
 132              	.L12:
 133              		.align	2
 134              	.L11:
 135 0060 00000000 		.word	huart1
 136 0064 00380140 		.word	1073821696
 137              		.cfi_endproc
 138              	.LFE329:
 140              		.section	.text.MX_USART2_UART_Init,"ax",%progbits
 141              		.align	1
 142              		.global	MX_USART2_UART_Init
 143              		.syntax unified
 144              		.thumb
 145              		.thumb_func
 147              	MX_USART2_UART_Init:
 148              	.LFB330:
  76:Core/Src/usart.c **** /* USART2 init function */
  77:Core/Src/usart.c **** 
  78:Core/Src/usart.c **** void MX_USART2_UART_Init(void)
  79:Core/Src/usart.c **** {
ARM GAS  C:\Users\purdu\AppData\Local\Temp\ccRq8u6z.s 			page 5


 149              		.loc 1 79 1 is_stmt 1 view -0
 150              		.cfi_startproc
 151              		@ args = 0, pretend = 0, frame = 0
 152              		@ frame_needed = 0, uses_anonymous_args = 0
 153 0000 08B5     		push	{r3, lr}
 154              	.LCFI1:
 155              		.cfi_def_cfa_offset 8
 156              		.cfi_offset 3, -8
 157              		.cfi_offset 14, -4
  80:Core/Src/usart.c **** 
  81:Core/Src/usart.c ****   /* USER CODE BEGIN USART2_Init 0 */
  82:Core/Src/usart.c **** 
  83:Core/Src/usart.c ****   /* USER CODE END USART2_Init 0 */
  84:Core/Src/usart.c **** 
  85:Core/Src/usart.c ****   /* USER CODE BEGIN USART2_Init 1 */
  86:Core/Src/usart.c **** 
  87:Core/Src/usart.c ****   /* USER CODE END USART2_Init 1 */
  88:Core/Src/usart.c ****   huart2.Instance = USART2;
 158              		.loc 1 88 3 view .LVU42
 159              		.loc 1 88 19 is_stmt 0 view .LVU43
 160 0002 1748     		ldr	r0, .L23
 161 0004 174B     		ldr	r3, .L23+4
 162 0006 0360     		str	r3, [r0]
  89:Core/Src/usart.c ****   huart2.Init.BaudRate = 115200;
 163              		.loc 1 89 3 is_stmt 1 view .LVU44
 164              		.loc 1 89 24 is_stmt 0 view .LVU45
 165 0008 4FF4E133 		mov	r3, #115200
 166 000c 4360     		str	r3, [r0, #4]
  90:Core/Src/usart.c ****   huart2.Init.WordLength = UART_WORDLENGTH_8B;
 167              		.loc 1 90 3 is_stmt 1 view .LVU46
 168              		.loc 1 90 26 is_stmt 0 view .LVU47
 169 000e 0023     		movs	r3, #0
 170 0010 8360     		str	r3, [r0, #8]
  91:Core/Src/usart.c ****   huart2.Init.StopBits = UART_STOPBITS_1;
 171              		.loc 1 91 3 is_stmt 1 view .LVU48
 172              		.loc 1 91 24 is_stmt 0 view .LVU49
 173 0012 C360     		str	r3, [r0, #12]
  92:Core/Src/usart.c ****   huart2.Init.Parity = UART_PARITY_NONE;
 174              		.loc 1 92 3 is_stmt 1 view .LVU50
 175              		.loc 1 92 22 is_stmt 0 view .LVU51
 176 0014 0361     		str	r3, [r0, #16]
  93:Core/Src/usart.c ****   huart2.Init.Mode = UART_MODE_TX_RX;
 177              		.loc 1 93 3 is_stmt 1 view .LVU52
 178              		.loc 1 93 20 is_stmt 0 view .LVU53
 179 0016 0C22     		movs	r2, #12
 180 0018 4261     		str	r2, [r0, #20]
  94:Core/Src/usart.c ****   huart2.Init.HwFlowCtl = UART_HWCONTROL_NONE;
 181              		.loc 1 94 3 is_stmt 1 view .LVU54
 182              		.loc 1 94 25 is_stmt 0 view .LVU55
 183 001a 8361     		str	r3, [r0, #24]
  95:Core/Src/usart.c ****   huart2.Init.OverSampling = UART_OVERSAMPLING_16;
 184              		.loc 1 95 3 is_stmt 1 view .LVU56
 185              		.loc 1 95 28 is_stmt 0 view .LVU57
 186 001c C361     		str	r3, [r0, #28]
  96:Core/Src/usart.c ****   huart2.Init.OneBitSampling = UART_ONE_BIT_SAMPLE_DISABLE;
 187              		.loc 1 96 3 is_stmt 1 view .LVU58
 188              		.loc 1 96 30 is_stmt 0 view .LVU59
ARM GAS  C:\Users\purdu\AppData\Local\Temp\ccRq8u6z.s 			page 6


 189 001e 0362     		str	r3, [r0, #32]
  97:Core/Src/usart.c ****   huart2.Init.ClockPrescaler = UART_PRESCALER_DIV1;
 190              		.loc 1 97 3 is_stmt 1 view .LVU60
 191              		.loc 1 97 30 is_stmt 0 view .LVU61
 192 0020 4362     		str	r3, [r0, #36]
  98:Core/Src/usart.c ****   huart2.AdvancedInit.AdvFeatureInit = UART_ADVFEATURE_NO_INIT;
 193              		.loc 1 98 3 is_stmt 1 view .LVU62
 194              		.loc 1 98 38 is_stmt 0 view .LVU63
 195 0022 8362     		str	r3, [r0, #40]
  99:Core/Src/usart.c ****   if (HAL_UART_Init(&huart2) != HAL_OK)
 196              		.loc 1 99 3 is_stmt 1 view .LVU64
 197              		.loc 1 99 7 is_stmt 0 view .LVU65
 198 0024 FFF7FEFF 		bl	HAL_UART_Init
 199              	.LVL8:
 200              		.loc 1 99 6 discriminator 1 view .LVU66
 201 0028 70B9     		cbnz	r0, .L19
 202              	.L14:
 100:Core/Src/usart.c ****   {
 101:Core/Src/usart.c ****     Error_Handler();
 102:Core/Src/usart.c ****   }
 103:Core/Src/usart.c ****   if (HAL_UARTEx_SetTxFifoThreshold(&huart2, UART_TXFIFO_THRESHOLD_1_8) != HAL_OK)
 203              		.loc 1 103 3 is_stmt 1 view .LVU67
 204              		.loc 1 103 7 is_stmt 0 view .LVU68
 205 002a 0021     		movs	r1, #0
 206 002c 0C48     		ldr	r0, .L23
 207 002e FFF7FEFF 		bl	HAL_UARTEx_SetTxFifoThreshold
 208              	.LVL9:
 209              		.loc 1 103 6 discriminator 1 view .LVU69
 210 0032 60B9     		cbnz	r0, .L20
 211              	.L15:
 104:Core/Src/usart.c ****   {
 105:Core/Src/usart.c ****     Error_Handler();
 106:Core/Src/usart.c ****   }
 107:Core/Src/usart.c ****   if (HAL_UARTEx_SetRxFifoThreshold(&huart2, UART_RXFIFO_THRESHOLD_1_8) != HAL_OK)
 212              		.loc 1 107 3 is_stmt 1 view .LVU70
 213              		.loc 1 107 7 is_stmt 0 view .LVU71
 214 0034 0021     		movs	r1, #0
 215 0036 0A48     		ldr	r0, .L23
 216 0038 FFF7FEFF 		bl	HAL_UARTEx_SetRxFifoThreshold
 217              	.LVL10:
 218              		.loc 1 107 6 discriminator 1 view .LVU72
 219 003c 50B9     		cbnz	r0, .L21
 220              	.L16:
 108:Core/Src/usart.c ****   {
 109:Core/Src/usart.c ****     Error_Handler();
 110:Core/Src/usart.c ****   }
 111:Core/Src/usart.c ****   if (HAL_UARTEx_DisableFifoMode(&huart2) != HAL_OK)
 221              		.loc 1 111 3 is_stmt 1 view .LVU73
 222              		.loc 1 111 7 is_stmt 0 view .LVU74
 223 003e 0848     		ldr	r0, .L23
 224 0040 FFF7FEFF 		bl	HAL_UARTEx_DisableFifoMode
 225              	.LVL11:
 226              		.loc 1 111 6 discriminator 1 view .LVU75
 227 0044 48B9     		cbnz	r0, .L22
 228              	.L13:
 112:Core/Src/usart.c ****   {
 113:Core/Src/usart.c ****     Error_Handler();
ARM GAS  C:\Users\purdu\AppData\Local\Temp\ccRq8u6z.s 			page 7


 114:Core/Src/usart.c ****   }
 115:Core/Src/usart.c ****   /* USER CODE BEGIN USART2_Init 2 */
 116:Core/Src/usart.c **** 
 117:Core/Src/usart.c ****   /* USER CODE END USART2_Init 2 */
 118:Core/Src/usart.c **** 
 119:Core/Src/usart.c **** }
 229              		.loc 1 119 1 view .LVU76
 230 0046 08BD     		pop	{r3, pc}
 231              	.L19:
 101:Core/Src/usart.c ****   }
 232              		.loc 1 101 5 is_stmt 1 view .LVU77
 233 0048 FFF7FEFF 		bl	Error_Handler
 234              	.LVL12:
 235 004c EDE7     		b	.L14
 236              	.L20:
 105:Core/Src/usart.c ****   }
 237              		.loc 1 105 5 view .LVU78
 238 004e FFF7FEFF 		bl	Error_Handler
 239              	.LVL13:
 240 0052 EFE7     		b	.L15
 241              	.L21:
 109:Core/Src/usart.c ****   }
 242              		.loc 1 109 5 view .LVU79
 243 0054 FFF7FEFF 		bl	Error_Handler
 244              	.LVL14:
 245 0058 F1E7     		b	.L16
 246              	.L22:
 113:Core/Src/usart.c ****   }
 247              		.loc 1 113 5 view .LVU80
 248 005a FFF7FEFF 		bl	Error_Handler
 249              	.LVL15:
 250              		.loc 1 119 1 is_stmt 0 view .LVU81
 251 005e F2E7     		b	.L13
 252              	.L24:
 253              		.align	2
 254              	.L23:
 255 0060 00000000 		.word	huart2
 256 0064 00440040 		.word	1073759232
 257              		.cfi_endproc
 258              	.LFE330:
 260              		.section	.text.MX_USART3_UART_Init,"ax",%progbits
 261              		.align	1
 262              		.global	MX_USART3_UART_Init
 263              		.syntax unified
 264              		.thumb
 265              		.thumb_func
 267              	MX_USART3_UART_Init:
 268              	.LFB331:
 120:Core/Src/usart.c **** /* USART3 init function */
 121:Core/Src/usart.c **** 
 122:Core/Src/usart.c **** void MX_USART3_UART_Init(void)
 123:Core/Src/usart.c **** {
 269              		.loc 1 123 1 is_stmt 1 view -0
 270              		.cfi_startproc
 271              		@ args = 0, pretend = 0, frame = 0
 272              		@ frame_needed = 0, uses_anonymous_args = 0
 273 0000 08B5     		push	{r3, lr}
ARM GAS  C:\Users\purdu\AppData\Local\Temp\ccRq8u6z.s 			page 8


 274              	.LCFI2:
 275              		.cfi_def_cfa_offset 8
 276              		.cfi_offset 3, -8
 277              		.cfi_offset 14, -4
 124:Core/Src/usart.c **** 
 125:Core/Src/usart.c ****   /* USER CODE BEGIN USART3_Init 0 */
 126:Core/Src/usart.c **** 
 127:Core/Src/usart.c ****   /* USER CODE END USART3_Init 0 */
 128:Core/Src/usart.c **** 
 129:Core/Src/usart.c ****   /* USER CODE BEGIN USART3_Init 1 */
 130:Core/Src/usart.c **** 
 131:Core/Src/usart.c ****   /* USER CODE END USART3_Init 1 */
 132:Core/Src/usart.c ****   huart3.Instance = USART3;
 278              		.loc 1 132 3 view .LVU83
 279              		.loc 1 132 19 is_stmt 0 view .LVU84
 280 0002 1748     		ldr	r0, .L35
 281 0004 174B     		ldr	r3, .L35+4
 282 0006 0360     		str	r3, [r0]
 133:Core/Src/usart.c ****   huart3.Init.BaudRate = 115200;
 283              		.loc 1 133 3 is_stmt 1 view .LVU85
 284              		.loc 1 133 24 is_stmt 0 view .LVU86
 285 0008 4FF4E133 		mov	r3, #115200
 286 000c 4360     		str	r3, [r0, #4]
 134:Core/Src/usart.c ****   huart3.Init.WordLength = UART_WORDLENGTH_8B;
 287              		.loc 1 134 3 is_stmt 1 view .LVU87
 288              		.loc 1 134 26 is_stmt 0 view .LVU88
 289 000e 0023     		movs	r3, #0
 290 0010 8360     		str	r3, [r0, #8]
 135:Core/Src/usart.c ****   huart3.Init.StopBits = UART_STOPBITS_1;
 291              		.loc 1 135 3 is_stmt 1 view .LVU89
 292              		.loc 1 135 24 is_stmt 0 view .LVU90
 293 0012 C360     		str	r3, [r0, #12]
 136:Core/Src/usart.c ****   huart3.Init.Parity = UART_PARITY_NONE;
 294              		.loc 1 136 3 is_stmt 1 view .LVU91
 295              		.loc 1 136 22 is_stmt 0 view .LVU92
 296 0014 0361     		str	r3, [r0, #16]
 137:Core/Src/usart.c ****   huart3.Init.Mode = UART_MODE_TX_RX;
 297              		.loc 1 137 3 is_stmt 1 view .LVU93
 298              		.loc 1 137 20 is_stmt 0 view .LVU94
 299 0016 0C22     		movs	r2, #12
 300 0018 4261     		str	r2, [r0, #20]
 138:Core/Src/usart.c ****   huart3.Init.HwFlowCtl = UART_HWCONTROL_NONE;
 301              		.loc 1 138 3 is_stmt 1 view .LVU95
 302              		.loc 1 138 25 is_stmt 0 view .LVU96
 303 001a 8361     		str	r3, [r0, #24]
 139:Core/Src/usart.c ****   huart3.Init.OverSampling = UART_OVERSAMPLING_16;
 304              		.loc 1 139 3 is_stmt 1 view .LVU97
 305              		.loc 1 139 28 is_stmt 0 view .LVU98
 306 001c C361     		str	r3, [r0, #28]
 140:Core/Src/usart.c ****   huart3.Init.OneBitSampling = UART_ONE_BIT_SAMPLE_DISABLE;
 307              		.loc 1 140 3 is_stmt 1 view .LVU99
 308              		.loc 1 140 30 is_stmt 0 view .LVU100
 309 001e 0362     		str	r3, [r0, #32]
 141:Core/Src/usart.c ****   huart3.Init.ClockPrescaler = UART_PRESCALER_DIV1;
 310              		.loc 1 141 3 is_stmt 1 view .LVU101
 311              		.loc 1 141 30 is_stmt 0 view .LVU102
 312 0020 4362     		str	r3, [r0, #36]
ARM GAS  C:\Users\purdu\AppData\Local\Temp\ccRq8u6z.s 			page 9


 142:Core/Src/usart.c ****   huart3.AdvancedInit.AdvFeatureInit = UART_ADVFEATURE_NO_INIT;
 313              		.loc 1 142 3 is_stmt 1 view .LVU103
 314              		.loc 1 142 38 is_stmt 0 view .LVU104
 315 0022 8362     		str	r3, [r0, #40]
 143:Core/Src/usart.c ****   if (HAL_UART_Init(&huart3) != HAL_OK)
 316              		.loc 1 143 3 is_stmt 1 view .LVU105
 317              		.loc 1 143 7 is_stmt 0 view .LVU106
 318 0024 FFF7FEFF 		bl	HAL_UART_Init
 319              	.LVL16:
 320              		.loc 1 143 6 discriminator 1 view .LVU107
 321 0028 70B9     		cbnz	r0, .L31
 322              	.L26:
 144:Core/Src/usart.c ****   {
 145:Core/Src/usart.c ****     Error_Handler();
 146:Core/Src/usart.c ****   }
 147:Core/Src/usart.c ****   if (HAL_UARTEx_SetTxFifoThreshold(&huart3, UART_TXFIFO_THRESHOLD_1_8) != HAL_OK)
 323              		.loc 1 147 3 is_stmt 1 view .LVU108
 324              		.loc 1 147 7 is_stmt 0 view .LVU109
 325 002a 0021     		movs	r1, #0
 326 002c 0C48     		ldr	r0, .L35
 327 002e FFF7FEFF 		bl	HAL_UARTEx_SetTxFifoThreshold
 328              	.LVL17:
 329              		.loc 1 147 6 discriminator 1 view .LVU110
 330 0032 60B9     		cbnz	r0, .L32
 331              	.L27:
 148:Core/Src/usart.c ****   {
 149:Core/Src/usart.c ****     Error_Handler();
 150:Core/Src/usart.c ****   }
 151:Core/Src/usart.c ****   if (HAL_UARTEx_SetRxFifoThreshold(&huart3, UART_RXFIFO_THRESHOLD_1_8) != HAL_OK)
 332              		.loc 1 151 3 is_stmt 1 view .LVU111
 333              		.loc 1 151 7 is_stmt 0 view .LVU112
 334 0034 0021     		movs	r1, #0
 335 0036 0A48     		ldr	r0, .L35
 336 0038 FFF7FEFF 		bl	HAL_UARTEx_SetRxFifoThreshold
 337              	.LVL18:
 338              		.loc 1 151 6 discriminator 1 view .LVU113
 339 003c 50B9     		cbnz	r0, .L33
 340              	.L28:
 152:Core/Src/usart.c ****   {
 153:Core/Src/usart.c ****     Error_Handler();
 154:Core/Src/usart.c ****   }
 155:Core/Src/usart.c ****   if (HAL_UARTEx_DisableFifoMode(&huart3) != HAL_OK)
 341              		.loc 1 155 3 is_stmt 1 view .LVU114
 342              		.loc 1 155 7 is_stmt 0 view .LVU115
 343 003e 0848     		ldr	r0, .L35
 344 0040 FFF7FEFF 		bl	HAL_UARTEx_DisableFifoMode
 345              	.LVL19:
 346              		.loc 1 155 6 discriminator 1 view .LVU116
 347 0044 48B9     		cbnz	r0, .L34
 348              	.L25:
 156:Core/Src/usart.c ****   {
 157:Core/Src/usart.c ****     Error_Handler();
 158:Core/Src/usart.c ****   }
 159:Core/Src/usart.c ****   /* USER CODE BEGIN USART3_Init 2 */
 160:Core/Src/usart.c **** 
 161:Core/Src/usart.c ****   /* USER CODE END USART3_Init 2 */
 162:Core/Src/usart.c **** 
ARM GAS  C:\Users\purdu\AppData\Local\Temp\ccRq8u6z.s 			page 10


 163:Core/Src/usart.c **** }
 349              		.loc 1 163 1 view .LVU117
 350 0046 08BD     		pop	{r3, pc}
 351              	.L31:
 145:Core/Src/usart.c ****   }
 352              		.loc 1 145 5 is_stmt 1 view .LVU118
 353 0048 FFF7FEFF 		bl	Error_Handler
 354              	.LVL20:
 355 004c EDE7     		b	.L26
 356              	.L32:
 149:Core/Src/usart.c ****   }
 357              		.loc 1 149 5 view .LVU119
 358 004e FFF7FEFF 		bl	Error_Handler
 359              	.LVL21:
 360 0052 EFE7     		b	.L27
 361              	.L33:
 153:Core/Src/usart.c ****   }
 362              		.loc 1 153 5 view .LVU120
 363 0054 FFF7FEFF 		bl	Error_Handler
 364              	.LVL22:
 365 0058 F1E7     		b	.L28
 366              	.L34:
 157:Core/Src/usart.c ****   }
 367              		.loc 1 157 5 view .LVU121
 368 005a FFF7FEFF 		bl	Error_Handler
 369              	.LVL23:
 370              		.loc 1 163 1 is_stmt 0 view .LVU122
 371 005e F2E7     		b	.L25
 372              	.L36:
 373              		.align	2
 374              	.L35:
 375 0060 00000000 		.word	huart3
 376 0064 00480040 		.word	1073760256
 377              		.cfi_endproc
 378              	.LFE331:
 380              		.section	.text.HAL_UART_MspInit,"ax",%progbits
 381              		.align	1
 382              		.global	HAL_UART_MspInit
 383              		.syntax unified
 384              		.thumb
 385              		.thumb_func
 387              	HAL_UART_MspInit:
 388              	.LVL24:
 389              	.LFB332:
 164:Core/Src/usart.c **** 
 165:Core/Src/usart.c **** void HAL_UART_MspInit(UART_HandleTypeDef* uartHandle)
 166:Core/Src/usart.c **** {
 390              		.loc 1 166 1 is_stmt 1 view -0
 391              		.cfi_startproc
 392              		@ args = 0, pretend = 0, frame = 128
 393              		@ frame_needed = 0, uses_anonymous_args = 0
 394              		.loc 1 166 1 is_stmt 0 view .LVU124
 395 0000 30B5     		push	{r4, r5, lr}
 396              	.LCFI3:
 397              		.cfi_def_cfa_offset 12
 398              		.cfi_offset 4, -12
 399              		.cfi_offset 5, -8
ARM GAS  C:\Users\purdu\AppData\Local\Temp\ccRq8u6z.s 			page 11


 400              		.cfi_offset 14, -4
 401 0002 A1B0     		sub	sp, sp, #132
 402              	.LCFI4:
 403              		.cfi_def_cfa_offset 144
 404 0004 0446     		mov	r4, r0
 167:Core/Src/usart.c **** 
 168:Core/Src/usart.c ****   GPIO_InitTypeDef GPIO_InitStruct = {0};
 405              		.loc 1 168 3 is_stmt 1 view .LVU125
 406              		.loc 1 168 20 is_stmt 0 view .LVU126
 407 0006 0021     		movs	r1, #0
 408 0008 1B91     		str	r1, [sp, #108]
 409 000a 1C91     		str	r1, [sp, #112]
 410 000c 1D91     		str	r1, [sp, #116]
 411 000e 1E91     		str	r1, [sp, #120]
 412 0010 1F91     		str	r1, [sp, #124]
 169:Core/Src/usart.c ****   RCC_PeriphCLKInitTypeDef PeriphClkInit = {0};
 413              		.loc 1 169 3 is_stmt 1 view .LVU127
 414              		.loc 1 169 28 is_stmt 0 view .LVU128
 415 0012 5422     		movs	r2, #84
 416 0014 06A8     		add	r0, sp, #24
 417              	.LVL25:
 418              		.loc 1 169 28 view .LVU129
 419 0016 FFF7FEFF 		bl	memset
 420              	.LVL26:
 170:Core/Src/usart.c ****   if(uartHandle->Instance==USART1)
 421              		.loc 1 170 3 is_stmt 1 view .LVU130
 422              		.loc 1 170 16 is_stmt 0 view .LVU131
 423 001a 2368     		ldr	r3, [r4]
 424              		.loc 1 170 5 view .LVU132
 425 001c 524A     		ldr	r2, .L53
 426 001e 9342     		cmp	r3, r2
 427 0020 07D0     		beq	.L46
 171:Core/Src/usart.c ****   {
 172:Core/Src/usart.c ****   /* USER CODE BEGIN USART1_MspInit 0 */
 173:Core/Src/usart.c **** 
 174:Core/Src/usart.c ****   /* USER CODE END USART1_MspInit 0 */
 175:Core/Src/usart.c **** 
 176:Core/Src/usart.c ****   /** Initializes the peripherals clocks
 177:Core/Src/usart.c ****   */
 178:Core/Src/usart.c ****     PeriphClkInit.PeriphClockSelection = RCC_PERIPHCLK_USART1;
 179:Core/Src/usart.c ****     PeriphClkInit.Usart1ClockSelection = RCC_USART1CLKSOURCE_PCLK2;
 180:Core/Src/usart.c ****     if (HAL_RCCEx_PeriphCLKConfig(&PeriphClkInit) != HAL_OK)
 181:Core/Src/usart.c ****     {
 182:Core/Src/usart.c ****       Error_Handler();
 183:Core/Src/usart.c ****     }
 184:Core/Src/usart.c **** 
 185:Core/Src/usart.c ****     /* USART1 clock enable */
 186:Core/Src/usart.c ****     __HAL_RCC_USART1_CLK_ENABLE();
 187:Core/Src/usart.c **** 
 188:Core/Src/usart.c ****     __HAL_RCC_GPIOA_CLK_ENABLE();
 189:Core/Src/usart.c ****     /**USART1 GPIO Configuration
 190:Core/Src/usart.c ****     PA9     ------> USART1_TX
 191:Core/Src/usart.c ****     PA10     ------> USART1_RX
 192:Core/Src/usart.c ****     */
 193:Core/Src/usart.c ****     GPIO_InitStruct.Pin = GPIO_PIN_9|GPIO_PIN_10;
 194:Core/Src/usart.c ****     GPIO_InitStruct.Mode = GPIO_MODE_AF_PP;
 195:Core/Src/usart.c ****     GPIO_InitStruct.Pull = GPIO_NOPULL;
ARM GAS  C:\Users\purdu\AppData\Local\Temp\ccRq8u6z.s 			page 12


 196:Core/Src/usart.c ****     GPIO_InitStruct.Speed = GPIO_SPEED_FREQ_LOW;
 197:Core/Src/usart.c ****     GPIO_InitStruct.Alternate = GPIO_AF7_USART1;
 198:Core/Src/usart.c ****     HAL_GPIO_Init(GPIOA, &GPIO_InitStruct);
 199:Core/Src/usart.c **** 
 200:Core/Src/usart.c ****   /* USER CODE BEGIN USART1_MspInit 1 */
 201:Core/Src/usart.c **** 
 202:Core/Src/usart.c ****   /* USER CODE END USART1_MspInit 1 */
 203:Core/Src/usart.c ****   }
 204:Core/Src/usart.c ****   else if(uartHandle->Instance==USART2)
 428              		.loc 1 204 8 is_stmt 1 view .LVU133
 429              		.loc 1 204 10 is_stmt 0 view .LVU134
 430 0022 524A     		ldr	r2, .L53+4
 431 0024 9342     		cmp	r3, r2
 432 0026 30D0     		beq	.L47
 205:Core/Src/usart.c ****   {
 206:Core/Src/usart.c ****   /* USER CODE BEGIN USART2_MspInit 0 */
 207:Core/Src/usart.c **** 
 208:Core/Src/usart.c ****   /* USER CODE END USART2_MspInit 0 */
 209:Core/Src/usart.c **** 
 210:Core/Src/usart.c ****   /** Initializes the peripherals clocks
 211:Core/Src/usart.c ****   */
 212:Core/Src/usart.c ****     PeriphClkInit.PeriphClockSelection = RCC_PERIPHCLK_USART2;
 213:Core/Src/usart.c ****     PeriphClkInit.Usart2ClockSelection = RCC_USART2CLKSOURCE_PCLK1;
 214:Core/Src/usart.c ****     if (HAL_RCCEx_PeriphCLKConfig(&PeriphClkInit) != HAL_OK)
 215:Core/Src/usart.c ****     {
 216:Core/Src/usart.c ****       Error_Handler();
 217:Core/Src/usart.c ****     }
 218:Core/Src/usart.c **** 
 219:Core/Src/usart.c ****     /* USART2 clock enable */
 220:Core/Src/usart.c ****     __HAL_RCC_USART2_CLK_ENABLE();
 221:Core/Src/usart.c **** 
 222:Core/Src/usart.c ****     __HAL_RCC_GPIOD_CLK_ENABLE();
 223:Core/Src/usart.c ****     /**USART2 GPIO Configuration
 224:Core/Src/usart.c ****     PD5     ------> USART2_TX
 225:Core/Src/usart.c ****     PD6     ------> USART2_RX
 226:Core/Src/usart.c ****     */
 227:Core/Src/usart.c ****     GPIO_InitStruct.Pin = GPIO_PIN_5|GPIO_PIN_6;
 228:Core/Src/usart.c ****     GPIO_InitStruct.Mode = GPIO_MODE_AF_PP;
 229:Core/Src/usart.c ****     GPIO_InitStruct.Pull = GPIO_NOPULL;
 230:Core/Src/usart.c ****     GPIO_InitStruct.Speed = GPIO_SPEED_FREQ_LOW;
 231:Core/Src/usart.c ****     GPIO_InitStruct.Alternate = GPIO_AF7_USART2;
 232:Core/Src/usart.c ****     HAL_GPIO_Init(GPIOD, &GPIO_InitStruct);
 233:Core/Src/usart.c **** 
 234:Core/Src/usart.c ****   /* USER CODE BEGIN USART2_MspInit 1 */
 235:Core/Src/usart.c **** 
 236:Core/Src/usart.c ****   /* USER CODE END USART2_MspInit 1 */
 237:Core/Src/usart.c ****   }
 238:Core/Src/usart.c ****   else if(uartHandle->Instance==USART3)
 433              		.loc 1 238 8 is_stmt 1 view .LVU135
 434              		.loc 1 238 10 is_stmt 0 view .LVU136
 435 0028 514A     		ldr	r2, .L53+8
 436 002a 9342     		cmp	r3, r2
 437 002c 57D0     		beq	.L48
 438              	.L37:
 239:Core/Src/usart.c ****   {
 240:Core/Src/usart.c ****   /* USER CODE BEGIN USART3_MspInit 0 */
 241:Core/Src/usart.c **** 
ARM GAS  C:\Users\purdu\AppData\Local\Temp\ccRq8u6z.s 			page 13


 242:Core/Src/usart.c ****   /* USER CODE END USART3_MspInit 0 */
 243:Core/Src/usart.c **** 
 244:Core/Src/usart.c ****   /** Initializes the peripherals clocks
 245:Core/Src/usart.c ****   */
 246:Core/Src/usart.c ****     PeriphClkInit.PeriphClockSelection = RCC_PERIPHCLK_USART3;
 247:Core/Src/usart.c ****     PeriphClkInit.Usart3ClockSelection = RCC_USART3CLKSOURCE_PCLK1;
 248:Core/Src/usart.c ****     if (HAL_RCCEx_PeriphCLKConfig(&PeriphClkInit) != HAL_OK)
 249:Core/Src/usart.c ****     {
 250:Core/Src/usart.c ****       Error_Handler();
 251:Core/Src/usart.c ****     }
 252:Core/Src/usart.c **** 
 253:Core/Src/usart.c ****     /* USART3 clock enable */
 254:Core/Src/usart.c ****     __HAL_RCC_USART3_CLK_ENABLE();
 255:Core/Src/usart.c **** 
 256:Core/Src/usart.c ****     __HAL_RCC_GPIOC_CLK_ENABLE();
 257:Core/Src/usart.c ****     /**USART3 GPIO Configuration
 258:Core/Src/usart.c ****     PC10     ------> USART3_TX
 259:Core/Src/usart.c ****     PC11     ------> USART3_RX
 260:Core/Src/usart.c ****     */
 261:Core/Src/usart.c ****     GPIO_InitStruct.Pin = GPIO_PIN_10|GPIO_PIN_11;
 262:Core/Src/usart.c ****     GPIO_InitStruct.Mode = GPIO_MODE_AF_PP;
 263:Core/Src/usart.c ****     GPIO_InitStruct.Pull = GPIO_NOPULL;
 264:Core/Src/usart.c ****     GPIO_InitStruct.Speed = GPIO_SPEED_FREQ_LOW;
 265:Core/Src/usart.c ****     GPIO_InitStruct.Alternate = GPIO_AF7_USART3;
 266:Core/Src/usart.c ****     HAL_GPIO_Init(GPIOC, &GPIO_InitStruct);
 267:Core/Src/usart.c **** 
 268:Core/Src/usart.c ****     /* USART3 DMA Init */
 269:Core/Src/usart.c ****     /* USART3_TX Init */
 270:Core/Src/usart.c ****     hdma_usart3_tx.Instance = DMA1_Channel4;
 271:Core/Src/usart.c ****     hdma_usart3_tx.Init.Request = DMA_REQUEST_USART3_TX;
 272:Core/Src/usart.c ****     hdma_usart3_tx.Init.Direction = DMA_MEMORY_TO_PERIPH;
 273:Core/Src/usart.c ****     hdma_usart3_tx.Init.PeriphInc = DMA_PINC_DISABLE;
 274:Core/Src/usart.c ****     hdma_usart3_tx.Init.MemInc = DMA_MINC_ENABLE;
 275:Core/Src/usart.c ****     hdma_usart3_tx.Init.PeriphDataAlignment = DMA_PDATAALIGN_BYTE;
 276:Core/Src/usart.c ****     hdma_usart3_tx.Init.MemDataAlignment = DMA_MDATAALIGN_BYTE;
 277:Core/Src/usart.c ****     hdma_usart3_tx.Init.Mode = DMA_CIRCULAR;
 278:Core/Src/usart.c ****     hdma_usart3_tx.Init.Priority = DMA_PRIORITY_LOW;
 279:Core/Src/usart.c ****     if (HAL_DMA_Init(&hdma_usart3_tx) != HAL_OK)
 280:Core/Src/usart.c ****     {
 281:Core/Src/usart.c ****       Error_Handler();
 282:Core/Src/usart.c ****     }
 283:Core/Src/usart.c **** 
 284:Core/Src/usart.c ****     __HAL_LINKDMA(uartHandle,hdmatx,hdma_usart3_tx);
 285:Core/Src/usart.c **** 
 286:Core/Src/usart.c ****   /* USER CODE BEGIN USART3_MspInit 1 */
 287:Core/Src/usart.c **** 
 288:Core/Src/usart.c ****   /* USER CODE END USART3_MspInit 1 */
 289:Core/Src/usart.c ****   }
 290:Core/Src/usart.c **** }
 439              		.loc 1 290 1 view .LVU137
 440 002e 21B0     		add	sp, sp, #132
 441              	.LCFI5:
 442              		.cfi_remember_state
 443              		.cfi_def_cfa_offset 12
 444              		@ sp needed
 445 0030 30BD     		pop	{r4, r5, pc}
 446              	.LVL27:
ARM GAS  C:\Users\purdu\AppData\Local\Temp\ccRq8u6z.s 			page 14


 447              	.L46:
 448              	.LCFI6:
 449              		.cfi_restore_state
 178:Core/Src/usart.c ****     PeriphClkInit.Usart1ClockSelection = RCC_USART1CLKSOURCE_PCLK2;
 450              		.loc 1 178 5 is_stmt 1 view .LVU138
 178:Core/Src/usart.c ****     PeriphClkInit.Usart1ClockSelection = RCC_USART1CLKSOURCE_PCLK2;
 451              		.loc 1 178 40 is_stmt 0 view .LVU139
 452 0032 0123     		movs	r3, #1
 453 0034 0693     		str	r3, [sp, #24]
 179:Core/Src/usart.c ****     if (HAL_RCCEx_PeriphCLKConfig(&PeriphClkInit) != HAL_OK)
 454              		.loc 1 179 5 is_stmt 1 view .LVU140
 180:Core/Src/usart.c ****     {
 455              		.loc 1 180 5 view .LVU141
 180:Core/Src/usart.c ****     {
 456              		.loc 1 180 9 is_stmt 0 view .LVU142
 457 0036 06A8     		add	r0, sp, #24
 458 0038 FFF7FEFF 		bl	HAL_RCCEx_PeriphCLKConfig
 459              	.LVL28:
 180:Core/Src/usart.c ****     {
 460              		.loc 1 180 8 discriminator 1 view .LVU143
 461 003c 10BB     		cbnz	r0, .L49
 462              	.L39:
 186:Core/Src/usart.c **** 
 463              		.loc 1 186 5 is_stmt 1 view .LVU144
 464              	.LBB2:
 186:Core/Src/usart.c **** 
 465              		.loc 1 186 5 view .LVU145
 186:Core/Src/usart.c **** 
 466              		.loc 1 186 5 view .LVU146
 467 003e 4D4B     		ldr	r3, .L53+12
 468 0040 1A6E     		ldr	r2, [r3, #96]
 469 0042 42F48042 		orr	r2, r2, #16384
 470 0046 1A66     		str	r2, [r3, #96]
 186:Core/Src/usart.c **** 
 471              		.loc 1 186 5 view .LVU147
 472 0048 1A6E     		ldr	r2, [r3, #96]
 473 004a 02F48042 		and	r2, r2, #16384
 474 004e 0092     		str	r2, [sp]
 186:Core/Src/usart.c **** 
 475              		.loc 1 186 5 view .LVU148
 476 0050 009A     		ldr	r2, [sp]
 477              	.LBE2:
 186:Core/Src/usart.c **** 
 478              		.loc 1 186 5 view .LVU149
 188:Core/Src/usart.c ****     /**USART1 GPIO Configuration
 479              		.loc 1 188 5 view .LVU150
 480              	.LBB3:
 188:Core/Src/usart.c ****     /**USART1 GPIO Configuration
 481              		.loc 1 188 5 view .LVU151
 188:Core/Src/usart.c ****     /**USART1 GPIO Configuration
 482              		.loc 1 188 5 view .LVU152
 483 0052 DA6C     		ldr	r2, [r3, #76]
 484 0054 42F00102 		orr	r2, r2, #1
 485 0058 DA64     		str	r2, [r3, #76]
 188:Core/Src/usart.c ****     /**USART1 GPIO Configuration
 486              		.loc 1 188 5 view .LVU153
 487 005a DB6C     		ldr	r3, [r3, #76]
ARM GAS  C:\Users\purdu\AppData\Local\Temp\ccRq8u6z.s 			page 15


 488 005c 03F00103 		and	r3, r3, #1
 489 0060 0193     		str	r3, [sp, #4]
 188:Core/Src/usart.c ****     /**USART1 GPIO Configuration
 490              		.loc 1 188 5 view .LVU154
 491 0062 019B     		ldr	r3, [sp, #4]
 492              	.LBE3:
 188:Core/Src/usart.c ****     /**USART1 GPIO Configuration
 493              		.loc 1 188 5 view .LVU155
 193:Core/Src/usart.c ****     GPIO_InitStruct.Mode = GPIO_MODE_AF_PP;
 494              		.loc 1 193 5 view .LVU156
 193:Core/Src/usart.c ****     GPIO_InitStruct.Mode = GPIO_MODE_AF_PP;
 495              		.loc 1 193 25 is_stmt 0 view .LVU157
 496 0064 4FF4C063 		mov	r3, #1536
 497 0068 1B93     		str	r3, [sp, #108]
 194:Core/Src/usart.c ****     GPIO_InitStruct.Pull = GPIO_NOPULL;
 498              		.loc 1 194 5 is_stmt 1 view .LVU158
 194:Core/Src/usart.c ****     GPIO_InitStruct.Pull = GPIO_NOPULL;
 499              		.loc 1 194 26 is_stmt 0 view .LVU159
 500 006a 0223     		movs	r3, #2
 501 006c 1C93     		str	r3, [sp, #112]
 195:Core/Src/usart.c ****     GPIO_InitStruct.Speed = GPIO_SPEED_FREQ_LOW;
 502              		.loc 1 195 5 is_stmt 1 view .LVU160
 195:Core/Src/usart.c ****     GPIO_InitStruct.Speed = GPIO_SPEED_FREQ_LOW;
 503              		.loc 1 195 26 is_stmt 0 view .LVU161
 504 006e 0023     		movs	r3, #0
 505 0070 1D93     		str	r3, [sp, #116]
 196:Core/Src/usart.c ****     GPIO_InitStruct.Alternate = GPIO_AF7_USART1;
 506              		.loc 1 196 5 is_stmt 1 view .LVU162
 196:Core/Src/usart.c ****     GPIO_InitStruct.Alternate = GPIO_AF7_USART1;
 507              		.loc 1 196 27 is_stmt 0 view .LVU163
 508 0072 1E93     		str	r3, [sp, #120]
 197:Core/Src/usart.c ****     HAL_GPIO_Init(GPIOA, &GPIO_InitStruct);
 509              		.loc 1 197 5 is_stmt 1 view .LVU164
 197:Core/Src/usart.c ****     HAL_GPIO_Init(GPIOA, &GPIO_InitStruct);
 510              		.loc 1 197 31 is_stmt 0 view .LVU165
 511 0074 0723     		movs	r3, #7
 512 0076 1F93     		str	r3, [sp, #124]
 198:Core/Src/usart.c **** 
 513              		.loc 1 198 5 is_stmt 1 view .LVU166
 514 0078 1BA9     		add	r1, sp, #108
 515 007a 4FF09040 		mov	r0, #1207959552
 516 007e FFF7FEFF 		bl	HAL_GPIO_Init
 517              	.LVL29:
 518 0082 D4E7     		b	.L37
 519              	.L49:
 182:Core/Src/usart.c ****     }
 520              		.loc 1 182 7 view .LVU167
 521 0084 FFF7FEFF 		bl	Error_Handler
 522              	.LVL30:
 523 0088 D9E7     		b	.L39
 524              	.L47:
 212:Core/Src/usart.c ****     PeriphClkInit.Usart2ClockSelection = RCC_USART2CLKSOURCE_PCLK1;
 525              		.loc 1 212 5 view .LVU168
 212:Core/Src/usart.c ****     PeriphClkInit.Usart2ClockSelection = RCC_USART2CLKSOURCE_PCLK1;
 526              		.loc 1 212 40 is_stmt 0 view .LVU169
 527 008a 0223     		movs	r3, #2
 528 008c 0693     		str	r3, [sp, #24]
ARM GAS  C:\Users\purdu\AppData\Local\Temp\ccRq8u6z.s 			page 16


 213:Core/Src/usart.c ****     if (HAL_RCCEx_PeriphCLKConfig(&PeriphClkInit) != HAL_OK)
 529              		.loc 1 213 5 is_stmt 1 view .LVU170
 214:Core/Src/usart.c ****     {
 530              		.loc 1 214 5 view .LVU171
 214:Core/Src/usart.c ****     {
 531              		.loc 1 214 9 is_stmt 0 view .LVU172
 532 008e 06A8     		add	r0, sp, #24
 533 0090 FFF7FEFF 		bl	HAL_RCCEx_PeriphCLKConfig
 534              	.LVL31:
 214:Core/Src/usart.c ****     {
 535              		.loc 1 214 8 discriminator 1 view .LVU173
 536 0094 00BB     		cbnz	r0, .L50
 537              	.L42:
 220:Core/Src/usart.c **** 
 538              		.loc 1 220 5 is_stmt 1 view .LVU174
 539              	.LBB4:
 220:Core/Src/usart.c **** 
 540              		.loc 1 220 5 view .LVU175
 220:Core/Src/usart.c **** 
 541              		.loc 1 220 5 view .LVU176
 542 0096 374B     		ldr	r3, .L53+12
 543 0098 9A6D     		ldr	r2, [r3, #88]
 544 009a 42F40032 		orr	r2, r2, #131072
 545 009e 9A65     		str	r2, [r3, #88]
 220:Core/Src/usart.c **** 
 546              		.loc 1 220 5 view .LVU177
 547 00a0 9A6D     		ldr	r2, [r3, #88]
 548 00a2 02F40032 		and	r2, r2, #131072
 549 00a6 0292     		str	r2, [sp, #8]
 220:Core/Src/usart.c **** 
 550              		.loc 1 220 5 view .LVU178
 551 00a8 029A     		ldr	r2, [sp, #8]
 552              	.LBE4:
 220:Core/Src/usart.c **** 
 553              		.loc 1 220 5 view .LVU179
 222:Core/Src/usart.c ****     /**USART2 GPIO Configuration
 554              		.loc 1 222 5 view .LVU180
 555              	.LBB5:
 222:Core/Src/usart.c ****     /**USART2 GPIO Configuration
 556              		.loc 1 222 5 view .LVU181
 222:Core/Src/usart.c ****     /**USART2 GPIO Configuration
 557              		.loc 1 222 5 view .LVU182
 558 00aa DA6C     		ldr	r2, [r3, #76]
 559 00ac 42F00802 		orr	r2, r2, #8
 560 00b0 DA64     		str	r2, [r3, #76]
 222:Core/Src/usart.c ****     /**USART2 GPIO Configuration
 561              		.loc 1 222 5 view .LVU183
 562 00b2 DB6C     		ldr	r3, [r3, #76]
 563 00b4 03F00803 		and	r3, r3, #8
 564 00b8 0393     		str	r3, [sp, #12]
 222:Core/Src/usart.c ****     /**USART2 GPIO Configuration
 565              		.loc 1 222 5 view .LVU184
 566 00ba 039B     		ldr	r3, [sp, #12]
 567              	.LBE5:
 222:Core/Src/usart.c ****     /**USART2 GPIO Configuration
 568              		.loc 1 222 5 view .LVU185
 227:Core/Src/usart.c ****     GPIO_InitStruct.Mode = GPIO_MODE_AF_PP;
ARM GAS  C:\Users\purdu\AppData\Local\Temp\ccRq8u6z.s 			page 17


 569              		.loc 1 227 5 view .LVU186
 227:Core/Src/usart.c ****     GPIO_InitStruct.Mode = GPIO_MODE_AF_PP;
 570              		.loc 1 227 25 is_stmt 0 view .LVU187
 571 00bc 6023     		movs	r3, #96
 572 00be 1B93     		str	r3, [sp, #108]
 228:Core/Src/usart.c ****     GPIO_InitStruct.Pull = GPIO_NOPULL;
 573              		.loc 1 228 5 is_stmt 1 view .LVU188
 228:Core/Src/usart.c ****     GPIO_InitStruct.Pull = GPIO_NOPULL;
 574              		.loc 1 228 26 is_stmt 0 view .LVU189
 575 00c0 0223     		movs	r3, #2
 576 00c2 1C93     		str	r3, [sp, #112]
 229:Core/Src/usart.c ****     GPIO_InitStruct.Speed = GPIO_SPEED_FREQ_LOW;
 577              		.loc 1 229 5 is_stmt 1 view .LVU190
 229:Core/Src/usart.c ****     GPIO_InitStruct.Speed = GPIO_SPEED_FREQ_LOW;
 578              		.loc 1 229 26 is_stmt 0 view .LVU191
 579 00c4 0023     		movs	r3, #0
 580 00c6 1D93     		str	r3, [sp, #116]
 230:Core/Src/usart.c ****     GPIO_InitStruct.Alternate = GPIO_AF7_USART2;
 581              		.loc 1 230 5 is_stmt 1 view .LVU192
 230:Core/Src/usart.c ****     GPIO_InitStruct.Alternate = GPIO_AF7_USART2;
 582              		.loc 1 230 27 is_stmt 0 view .LVU193
 583 00c8 1E93     		str	r3, [sp, #120]
 231:Core/Src/usart.c ****     HAL_GPIO_Init(GPIOD, &GPIO_InitStruct);
 584              		.loc 1 231 5 is_stmt 1 view .LVU194
 231:Core/Src/usart.c ****     HAL_GPIO_Init(GPIOD, &GPIO_InitStruct);
 585              		.loc 1 231 31 is_stmt 0 view .LVU195
 586 00ca 0723     		movs	r3, #7
 587 00cc 1F93     		str	r3, [sp, #124]
 232:Core/Src/usart.c **** 
 588              		.loc 1 232 5 is_stmt 1 view .LVU196
 589 00ce 1BA9     		add	r1, sp, #108
 590 00d0 2948     		ldr	r0, .L53+16
 591 00d2 FFF7FEFF 		bl	HAL_GPIO_Init
 592              	.LVL32:
 593 00d6 AAE7     		b	.L37
 594              	.L50:
 216:Core/Src/usart.c ****     }
 595              		.loc 1 216 7 view .LVU197
 596 00d8 FFF7FEFF 		bl	Error_Handler
 597              	.LVL33:
 598 00dc DBE7     		b	.L42
 599              	.L48:
 246:Core/Src/usart.c ****     PeriphClkInit.Usart3ClockSelection = RCC_USART3CLKSOURCE_PCLK1;
 600              		.loc 1 246 5 view .LVU198
 246:Core/Src/usart.c ****     PeriphClkInit.Usart3ClockSelection = RCC_USART3CLKSOURCE_PCLK1;
 601              		.loc 1 246 40 is_stmt 0 view .LVU199
 602 00de 0423     		movs	r3, #4
 603 00e0 0693     		str	r3, [sp, #24]
 247:Core/Src/usart.c ****     if (HAL_RCCEx_PeriphCLKConfig(&PeriphClkInit) != HAL_OK)
 604              		.loc 1 247 5 is_stmt 1 view .LVU200
 248:Core/Src/usart.c ****     {
 605              		.loc 1 248 5 view .LVU201
 248:Core/Src/usart.c ****     {
 606              		.loc 1 248 9 is_stmt 0 view .LVU202
 607 00e2 06A8     		add	r0, sp, #24
 608 00e4 FFF7FEFF 		bl	HAL_RCCEx_PeriphCLKConfig
 609              	.LVL34:
ARM GAS  C:\Users\purdu\AppData\Local\Temp\ccRq8u6z.s 			page 18


 248:Core/Src/usart.c ****     {
 610              		.loc 1 248 8 discriminator 1 view .LVU203
 611 00e8 0028     		cmp	r0, #0
 612 00ea 36D1     		bne	.L51
 613              	.L43:
 254:Core/Src/usart.c **** 
 614              		.loc 1 254 5 is_stmt 1 view .LVU204
 615              	.LBB6:
 254:Core/Src/usart.c **** 
 616              		.loc 1 254 5 view .LVU205
 254:Core/Src/usart.c **** 
 617              		.loc 1 254 5 view .LVU206
 618 00ec 214B     		ldr	r3, .L53+12
 619 00ee 9A6D     		ldr	r2, [r3, #88]
 620 00f0 42F48022 		orr	r2, r2, #262144
 621 00f4 9A65     		str	r2, [r3, #88]
 254:Core/Src/usart.c **** 
 622              		.loc 1 254 5 view .LVU207
 623 00f6 9A6D     		ldr	r2, [r3, #88]
 624 00f8 02F48022 		and	r2, r2, #262144
 625 00fc 0492     		str	r2, [sp, #16]
 254:Core/Src/usart.c **** 
 626              		.loc 1 254 5 view .LVU208
 627 00fe 049A     		ldr	r2, [sp, #16]
 628              	.LBE6:
 254:Core/Src/usart.c **** 
 629              		.loc 1 254 5 view .LVU209
 256:Core/Src/usart.c ****     /**USART3 GPIO Configuration
 630              		.loc 1 256 5 view .LVU210
 631              	.LBB7:
 256:Core/Src/usart.c ****     /**USART3 GPIO Configuration
 632              		.loc 1 256 5 view .LVU211
 256:Core/Src/usart.c ****     /**USART3 GPIO Configuration
 633              		.loc 1 256 5 view .LVU212
 634 0100 DA6C     		ldr	r2, [r3, #76]
 635 0102 42F00402 		orr	r2, r2, #4
 636 0106 DA64     		str	r2, [r3, #76]
 256:Core/Src/usart.c ****     /**USART3 GPIO Configuration
 637              		.loc 1 256 5 view .LVU213
 638 0108 DB6C     		ldr	r3, [r3, #76]
 639 010a 03F00403 		and	r3, r3, #4
 640 010e 0593     		str	r3, [sp, #20]
 256:Core/Src/usart.c ****     /**USART3 GPIO Configuration
 641              		.loc 1 256 5 view .LVU214
 642 0110 059B     		ldr	r3, [sp, #20]
 643              	.LBE7:
 256:Core/Src/usart.c ****     /**USART3 GPIO Configuration
 644              		.loc 1 256 5 view .LVU215
 261:Core/Src/usart.c ****     GPIO_InitStruct.Mode = GPIO_MODE_AF_PP;
 645              		.loc 1 261 5 view .LVU216
 261:Core/Src/usart.c ****     GPIO_InitStruct.Mode = GPIO_MODE_AF_PP;
 646              		.loc 1 261 25 is_stmt 0 view .LVU217
 647 0112 4FF44063 		mov	r3, #3072
 648 0116 1B93     		str	r3, [sp, #108]
 262:Core/Src/usart.c ****     GPIO_InitStruct.Pull = GPIO_NOPULL;
 649              		.loc 1 262 5 is_stmt 1 view .LVU218
 262:Core/Src/usart.c ****     GPIO_InitStruct.Pull = GPIO_NOPULL;
ARM GAS  C:\Users\purdu\AppData\Local\Temp\ccRq8u6z.s 			page 19


 650              		.loc 1 262 26 is_stmt 0 view .LVU219
 651 0118 0223     		movs	r3, #2
 652 011a 1C93     		str	r3, [sp, #112]
 263:Core/Src/usart.c ****     GPIO_InitStruct.Speed = GPIO_SPEED_FREQ_LOW;
 653              		.loc 1 263 5 is_stmt 1 view .LVU220
 263:Core/Src/usart.c ****     GPIO_InitStruct.Speed = GPIO_SPEED_FREQ_LOW;
 654              		.loc 1 263 26 is_stmt 0 view .LVU221
 655 011c 0025     		movs	r5, #0
 656 011e 1D95     		str	r5, [sp, #116]
 264:Core/Src/usart.c ****     GPIO_InitStruct.Alternate = GPIO_AF7_USART3;
 657              		.loc 1 264 5 is_stmt 1 view .LVU222
 264:Core/Src/usart.c ****     GPIO_InitStruct.Alternate = GPIO_AF7_USART3;
 658              		.loc 1 264 27 is_stmt 0 view .LVU223
 659 0120 1E95     		str	r5, [sp, #120]
 265:Core/Src/usart.c ****     HAL_GPIO_Init(GPIOC, &GPIO_InitStruct);
 660              		.loc 1 265 5 is_stmt 1 view .LVU224
 265:Core/Src/usart.c ****     HAL_GPIO_Init(GPIOC, &GPIO_InitStruct);
 661              		.loc 1 265 31 is_stmt 0 view .LVU225
 662 0122 0723     		movs	r3, #7
 663 0124 1F93     		str	r3, [sp, #124]
 266:Core/Src/usart.c **** 
 664              		.loc 1 266 5 is_stmt 1 view .LVU226
 665 0126 1BA9     		add	r1, sp, #108
 666 0128 1448     		ldr	r0, .L53+20
 667 012a FFF7FEFF 		bl	HAL_GPIO_Init
 668              	.LVL35:
 270:Core/Src/usart.c ****     hdma_usart3_tx.Init.Request = DMA_REQUEST_USART3_TX;
 669              		.loc 1 270 5 view .LVU227
 270:Core/Src/usart.c ****     hdma_usart3_tx.Init.Request = DMA_REQUEST_USART3_TX;
 670              		.loc 1 270 29 is_stmt 0 view .LVU228
 671 012e 1448     		ldr	r0, .L53+24
 672 0130 144B     		ldr	r3, .L53+28
 673 0132 0360     		str	r3, [r0]
 271:Core/Src/usart.c ****     hdma_usart3_tx.Init.Direction = DMA_MEMORY_TO_PERIPH;
 674              		.loc 1 271 5 is_stmt 1 view .LVU229
 271:Core/Src/usart.c ****     hdma_usart3_tx.Init.Direction = DMA_MEMORY_TO_PERIPH;
 675              		.loc 1 271 33 is_stmt 0 view .LVU230
 676 0134 1D23     		movs	r3, #29
 677 0136 4360     		str	r3, [r0, #4]
 272:Core/Src/usart.c ****     hdma_usart3_tx.Init.PeriphInc = DMA_PINC_DISABLE;
 678              		.loc 1 272 5 is_stmt 1 view .LVU231
 272:Core/Src/usart.c ****     hdma_usart3_tx.Init.PeriphInc = DMA_PINC_DISABLE;
 679              		.loc 1 272 35 is_stmt 0 view .LVU232
 680 0138 1023     		movs	r3, #16
 681 013a 8360     		str	r3, [r0, #8]
 273:Core/Src/usart.c ****     hdma_usart3_tx.Init.MemInc = DMA_MINC_ENABLE;
 682              		.loc 1 273 5 is_stmt 1 view .LVU233
 273:Core/Src/usart.c ****     hdma_usart3_tx.Init.MemInc = DMA_MINC_ENABLE;
 683              		.loc 1 273 35 is_stmt 0 view .LVU234
 684 013c C560     		str	r5, [r0, #12]
 274:Core/Src/usart.c ****     hdma_usart3_tx.Init.PeriphDataAlignment = DMA_PDATAALIGN_BYTE;
 685              		.loc 1 274 5 is_stmt 1 view .LVU235
 274:Core/Src/usart.c ****     hdma_usart3_tx.Init.PeriphDataAlignment = DMA_PDATAALIGN_BYTE;
 686              		.loc 1 274 32 is_stmt 0 view .LVU236
 687 013e 8023     		movs	r3, #128
 688 0140 0361     		str	r3, [r0, #16]
 275:Core/Src/usart.c ****     hdma_usart3_tx.Init.MemDataAlignment = DMA_MDATAALIGN_BYTE;
ARM GAS  C:\Users\purdu\AppData\Local\Temp\ccRq8u6z.s 			page 20


 689              		.loc 1 275 5 is_stmt 1 view .LVU237
 275:Core/Src/usart.c ****     hdma_usart3_tx.Init.MemDataAlignment = DMA_MDATAALIGN_BYTE;
 690              		.loc 1 275 45 is_stmt 0 view .LVU238
 691 0142 4561     		str	r5, [r0, #20]
 276:Core/Src/usart.c ****     hdma_usart3_tx.Init.Mode = DMA_CIRCULAR;
 692              		.loc 1 276 5 is_stmt 1 view .LVU239
 276:Core/Src/usart.c ****     hdma_usart3_tx.Init.Mode = DMA_CIRCULAR;
 693              		.loc 1 276 42 is_stmt 0 view .LVU240
 694 0144 8561     		str	r5, [r0, #24]
 277:Core/Src/usart.c ****     hdma_usart3_tx.Init.Priority = DMA_PRIORITY_LOW;
 695              		.loc 1 277 5 is_stmt 1 view .LVU241
 277:Core/Src/usart.c ****     hdma_usart3_tx.Init.Priority = DMA_PRIORITY_LOW;
 696              		.loc 1 277 30 is_stmt 0 view .LVU242
 697 0146 2023     		movs	r3, #32
 698 0148 C361     		str	r3, [r0, #28]
 278:Core/Src/usart.c ****     if (HAL_DMA_Init(&hdma_usart3_tx) != HAL_OK)
 699              		.loc 1 278 5 is_stmt 1 view .LVU243
 278:Core/Src/usart.c ****     if (HAL_DMA_Init(&hdma_usart3_tx) != HAL_OK)
 700              		.loc 1 278 34 is_stmt 0 view .LVU244
 701 014a 0562     		str	r5, [r0, #32]
 279:Core/Src/usart.c ****     {
 702              		.loc 1 279 5 is_stmt 1 view .LVU245
 279:Core/Src/usart.c ****     {
 703              		.loc 1 279 9 is_stmt 0 view .LVU246
 704 014c FFF7FEFF 		bl	HAL_DMA_Init
 705              	.LVL36:
 279:Core/Src/usart.c ****     {
 706              		.loc 1 279 8 discriminator 1 view .LVU247
 707 0150 30B9     		cbnz	r0, .L52
 708              	.L44:
 284:Core/Src/usart.c **** 
 709              		.loc 1 284 5 is_stmt 1 view .LVU248
 284:Core/Src/usart.c **** 
 710              		.loc 1 284 5 view .LVU249
 711 0152 0B4B     		ldr	r3, .L53+24
 712 0154 E367     		str	r3, [r4, #124]
 284:Core/Src/usart.c **** 
 713              		.loc 1 284 5 view .LVU250
 714 0156 9C62     		str	r4, [r3, #40]
 284:Core/Src/usart.c **** 
 715              		.loc 1 284 5 discriminator 1 view .LVU251
 716              		.loc 1 290 1 is_stmt 0 view .LVU252
 717 0158 69E7     		b	.L37
 718              	.L51:
 250:Core/Src/usart.c ****     }
 719              		.loc 1 250 7 is_stmt 1 view .LVU253
 720 015a FFF7FEFF 		bl	Error_Handler
 721              	.LVL37:
 722 015e C5E7     		b	.L43
 723              	.L52:
 281:Core/Src/usart.c ****     }
 724              		.loc 1 281 7 view .LVU254
 725 0160 FFF7FEFF 		bl	Error_Handler
 726              	.LVL38:
 727 0164 F5E7     		b	.L44
 728              	.L54:
 729 0166 00BF     		.align	2
ARM GAS  C:\Users\purdu\AppData\Local\Temp\ccRq8u6z.s 			page 21


 730              	.L53:
 731 0168 00380140 		.word	1073821696
 732 016c 00440040 		.word	1073759232
 733 0170 00480040 		.word	1073760256
 734 0174 00100240 		.word	1073876992
 735 0178 000C0048 		.word	1207962624
 736 017c 00080048 		.word	1207961600
 737 0180 00000000 		.word	hdma_usart3_tx
 738 0184 44000240 		.word	1073872964
 739              		.cfi_endproc
 740              	.LFE332:
 742              		.section	.text.HAL_UART_MspDeInit,"ax",%progbits
 743              		.align	1
 744              		.global	HAL_UART_MspDeInit
 745              		.syntax unified
 746              		.thumb
 747              		.thumb_func
 749              	HAL_UART_MspDeInit:
 750              	.LVL39:
 751              	.LFB333:
 291:Core/Src/usart.c **** 
 292:Core/Src/usart.c **** void HAL_UART_MspDeInit(UART_HandleTypeDef* uartHandle)
 293:Core/Src/usart.c **** {
 752              		.loc 1 293 1 view -0
 753              		.cfi_startproc
 754              		@ args = 0, pretend = 0, frame = 0
 755              		@ frame_needed = 0, uses_anonymous_args = 0
 756              		.loc 1 293 1 is_stmt 0 view .LVU256
 757 0000 10B5     		push	{r4, lr}
 758              	.LCFI7:
 759              		.cfi_def_cfa_offset 8
 760              		.cfi_offset 4, -8
 761              		.cfi_offset 14, -4
 294:Core/Src/usart.c **** 
 295:Core/Src/usart.c ****   if(uartHandle->Instance==USART1)
 762              		.loc 1 295 3 is_stmt 1 view .LVU257
 763              		.loc 1 295 16 is_stmt 0 view .LVU258
 764 0002 0368     		ldr	r3, [r0]
 765              		.loc 1 295 5 view .LVU259
 766 0004 184A     		ldr	r2, .L63
 767 0006 9342     		cmp	r3, r2
 768 0008 07D0     		beq	.L60
 769 000a 0446     		mov	r4, r0
 296:Core/Src/usart.c ****   {
 297:Core/Src/usart.c ****   /* USER CODE BEGIN USART1_MspDeInit 0 */
 298:Core/Src/usart.c **** 
 299:Core/Src/usart.c ****   /* USER CODE END USART1_MspDeInit 0 */
 300:Core/Src/usart.c ****     /* Peripheral clock disable */
 301:Core/Src/usart.c ****     __HAL_RCC_USART1_CLK_DISABLE();
 302:Core/Src/usart.c **** 
 303:Core/Src/usart.c ****     /**USART1 GPIO Configuration
 304:Core/Src/usart.c ****     PA9     ------> USART1_TX
 305:Core/Src/usart.c ****     PA10     ------> USART1_RX
 306:Core/Src/usart.c ****     */
 307:Core/Src/usart.c ****     HAL_GPIO_DeInit(GPIOA, GPIO_PIN_9|GPIO_PIN_10);
 308:Core/Src/usart.c **** 
 309:Core/Src/usart.c ****   /* USER CODE BEGIN USART1_MspDeInit 1 */
ARM GAS  C:\Users\purdu\AppData\Local\Temp\ccRq8u6z.s 			page 22


 310:Core/Src/usart.c **** 
 311:Core/Src/usart.c ****   /* USER CODE END USART1_MspDeInit 1 */
 312:Core/Src/usart.c ****   }
 313:Core/Src/usart.c ****   else if(uartHandle->Instance==USART2)
 770              		.loc 1 313 8 is_stmt 1 view .LVU260
 771              		.loc 1 313 10 is_stmt 0 view .LVU261
 772 000c 174A     		ldr	r2, .L63+4
 773 000e 9342     		cmp	r3, r2
 774 0010 10D0     		beq	.L61
 314:Core/Src/usart.c ****   {
 315:Core/Src/usart.c ****   /* USER CODE BEGIN USART2_MspDeInit 0 */
 316:Core/Src/usart.c **** 
 317:Core/Src/usart.c ****   /* USER CODE END USART2_MspDeInit 0 */
 318:Core/Src/usart.c ****     /* Peripheral clock disable */
 319:Core/Src/usart.c ****     __HAL_RCC_USART2_CLK_DISABLE();
 320:Core/Src/usart.c **** 
 321:Core/Src/usart.c ****     /**USART2 GPIO Configuration
 322:Core/Src/usart.c ****     PD5     ------> USART2_TX
 323:Core/Src/usart.c ****     PD6     ------> USART2_RX
 324:Core/Src/usart.c ****     */
 325:Core/Src/usart.c ****     HAL_GPIO_DeInit(GPIOD, GPIO_PIN_5|GPIO_PIN_6);
 326:Core/Src/usart.c **** 
 327:Core/Src/usart.c ****   /* USER CODE BEGIN USART2_MspDeInit 1 */
 328:Core/Src/usart.c **** 
 329:Core/Src/usart.c ****   /* USER CODE END USART2_MspDeInit 1 */
 330:Core/Src/usart.c ****   }
 331:Core/Src/usart.c ****   else if(uartHandle->Instance==USART3)
 775              		.loc 1 331 8 is_stmt 1 view .LVU262
 776              		.loc 1 331 10 is_stmt 0 view .LVU263
 777 0012 174A     		ldr	r2, .L63+8
 778 0014 9342     		cmp	r3, r2
 779 0016 18D0     		beq	.L62
 780              	.LVL40:
 781              	.L55:
 332:Core/Src/usart.c ****   {
 333:Core/Src/usart.c ****   /* USER CODE BEGIN USART3_MspDeInit 0 */
 334:Core/Src/usart.c **** 
 335:Core/Src/usart.c ****   /* USER CODE END USART3_MspDeInit 0 */
 336:Core/Src/usart.c ****     /* Peripheral clock disable */
 337:Core/Src/usart.c ****     __HAL_RCC_USART3_CLK_DISABLE();
 338:Core/Src/usart.c **** 
 339:Core/Src/usart.c ****     /**USART3 GPIO Configuration
 340:Core/Src/usart.c ****     PC10     ------> USART3_TX
 341:Core/Src/usart.c ****     PC11     ------> USART3_RX
 342:Core/Src/usart.c ****     */
 343:Core/Src/usart.c ****     HAL_GPIO_DeInit(GPIOC, GPIO_PIN_10|GPIO_PIN_11);
 344:Core/Src/usart.c **** 
 345:Core/Src/usart.c ****     /* USART3 DMA DeInit */
 346:Core/Src/usart.c ****     HAL_DMA_DeInit(uartHandle->hdmatx);
 347:Core/Src/usart.c ****   /* USER CODE BEGIN USART3_MspDeInit 1 */
 348:Core/Src/usart.c **** 
 349:Core/Src/usart.c ****   /* USER CODE END USART3_MspDeInit 1 */
 350:Core/Src/usart.c ****   }
 351:Core/Src/usart.c **** }
 782              		.loc 1 351 1 view .LVU264
 783 0018 10BD     		pop	{r4, pc}
 784              	.LVL41:
ARM GAS  C:\Users\purdu\AppData\Local\Temp\ccRq8u6z.s 			page 23


 785              	.L60:
 301:Core/Src/usart.c **** 
 786              		.loc 1 301 5 is_stmt 1 view .LVU265
 787 001a 02F55842 		add	r2, r2, #55296
 788 001e 136E     		ldr	r3, [r2, #96]
 789 0020 23F48043 		bic	r3, r3, #16384
 790 0024 1366     		str	r3, [r2, #96]
 307:Core/Src/usart.c **** 
 791              		.loc 1 307 5 view .LVU266
 792 0026 4FF4C061 		mov	r1, #1536
 793 002a 4FF09040 		mov	r0, #1207959552
 794              	.LVL42:
 307:Core/Src/usart.c **** 
 795              		.loc 1 307 5 is_stmt 0 view .LVU267
 796 002e FFF7FEFF 		bl	HAL_GPIO_DeInit
 797              	.LVL43:
 798 0032 F1E7     		b	.L55
 799              	.LVL44:
 800              	.L61:
 319:Core/Src/usart.c **** 
 801              		.loc 1 319 5 is_stmt 1 view .LVU268
 802 0034 02F5E632 		add	r2, r2, #117760
 803 0038 936D     		ldr	r3, [r2, #88]
 804 003a 23F40033 		bic	r3, r3, #131072
 805 003e 9365     		str	r3, [r2, #88]
 325:Core/Src/usart.c **** 
 806              		.loc 1 325 5 view .LVU269
 807 0040 6021     		movs	r1, #96
 808 0042 0C48     		ldr	r0, .L63+12
 809              	.LVL45:
 325:Core/Src/usart.c **** 
 810              		.loc 1 325 5 is_stmt 0 view .LVU270
 811 0044 FFF7FEFF 		bl	HAL_GPIO_DeInit
 812              	.LVL46:
 813 0048 E6E7     		b	.L55
 814              	.LVL47:
 815              	.L62:
 337:Core/Src/usart.c **** 
 816              		.loc 1 337 5 is_stmt 1 view .LVU271
 817 004a 02F5E432 		add	r2, r2, #116736
 818 004e 936D     		ldr	r3, [r2, #88]
 819 0050 23F48023 		bic	r3, r3, #262144
 820 0054 9365     		str	r3, [r2, #88]
 343:Core/Src/usart.c **** 
 821              		.loc 1 343 5 view .LVU272
 822 0056 4FF44061 		mov	r1, #3072
 823 005a 0748     		ldr	r0, .L63+16
 824              	.LVL48:
 343:Core/Src/usart.c **** 
 825              		.loc 1 343 5 is_stmt 0 view .LVU273
 826 005c FFF7FEFF 		bl	HAL_GPIO_DeInit
 827              	.LVL49:
 346:Core/Src/usart.c ****   /* USER CODE BEGIN USART3_MspDeInit 1 */
 828              		.loc 1 346 5 is_stmt 1 view .LVU274
 829 0060 E06F     		ldr	r0, [r4, #124]
 830 0062 FFF7FEFF 		bl	HAL_DMA_DeInit
 831              	.LVL50:
ARM GAS  C:\Users\purdu\AppData\Local\Temp\ccRq8u6z.s 			page 24


 832              		.loc 1 351 1 is_stmt 0 view .LVU275
 833 0066 D7E7     		b	.L55
 834              	.L64:
 835              		.align	2
 836              	.L63:
 837 0068 00380140 		.word	1073821696
 838 006c 00440040 		.word	1073759232
 839 0070 00480040 		.word	1073760256
 840 0074 000C0048 		.word	1207962624
 841 0078 00080048 		.word	1207961600
 842              		.cfi_endproc
 843              	.LFE333:
 845              		.global	hdma_usart3_tx
 846              		.section	.bss.hdma_usart3_tx,"aw",%nobits
 847              		.align	2
 850              	hdma_usart3_tx:
 851 0000 00000000 		.space	96
 851      00000000 
 851      00000000 
 851      00000000 
 851      00000000 
 852              		.global	huart3
 853              		.section	.bss.huart3,"aw",%nobits
 854              		.align	2
 857              	huart3:
 858 0000 00000000 		.space	148
 858      00000000 
 858      00000000 
 858      00000000 
 858      00000000 
 859              		.global	huart2
 860              		.section	.bss.huart2,"aw",%nobits
 861              		.align	2
 864              	huart2:
 865 0000 00000000 		.space	148
 865      00000000 
 865      00000000 
 865      00000000 
 865      00000000 
 866              		.global	huart1
 867              		.section	.bss.huart1,"aw",%nobits
 868              		.align	2
 871              	huart1:
 872 0000 00000000 		.space	148
 872      00000000 
 872      00000000 
 872      00000000 
 872      00000000 
 873              		.text
 874              	.Letext0:
 875              		.file 2 "C:/Program Files (x86)/Arm GNU Toolchain arm-none-eabi/13.2 Rel1/arm-none-eabi/include/ma
 876              		.file 3 "C:/Program Files (x86)/Arm GNU Toolchain arm-none-eabi/13.2 Rel1/arm-none-eabi/include/sy
 877              		.file 4 "Drivers/CMSIS/Device/ST/STM32G4xx/Include/stm32g473xx.h"
 878              		.file 5 "Drivers/STM32G4xx_HAL_Driver/Inc/stm32g4xx_hal_def.h"
 879              		.file 6 "Drivers/STM32G4xx_HAL_Driver/Inc/stm32g4xx_hal_rcc_ex.h"
 880              		.file 7 "Drivers/STM32G4xx_HAL_Driver/Inc/stm32g4xx_hal_gpio.h"
 881              		.file 8 "Drivers/STM32G4xx_HAL_Driver/Inc/stm32g4xx_hal_dma.h"
ARM GAS  C:\Users\purdu\AppData\Local\Temp\ccRq8u6z.s 			page 25


 882              		.file 9 "Drivers/STM32G4xx_HAL_Driver/Inc/stm32g4xx_hal_uart.h"
 883              		.file 10 "Core/Inc/usart.h"
 884              		.file 11 "Drivers/STM32G4xx_HAL_Driver/Inc/stm32g4xx_hal_uart_ex.h"
 885              		.file 12 "Core/Inc/main.h"
 886              		.file 13 "<built-in>"
ARM GAS  C:\Users\purdu\AppData\Local\Temp\ccRq8u6z.s 			page 26

